; Listing generated by Microsoft (R) Optimizing Compiler Version 16.00.40219.01 

	TITLE	C:\Work\daspirum\Source\src\battlefield3.cpp
	.686P
	.XMM
	include listing.inc
	.model	flat

INCLUDELIB OLDNAMES

PUBLIC	??_R4string_cast_error@dlib@@6B@		; dlib::string_cast_error::`RTTI Complete Object Locator'
PUBLIC	??_R3string_cast_error@dlib@@8			; dlib::string_cast_error::`RTTI Class Hierarchy Descriptor'
PUBLIC	??_R2string_cast_error@dlib@@8			; dlib::string_cast_error::`RTTI Base Class Array'
PUBLIC	??_R1A@?0A@EA@string_cast_error@dlib@@8		; dlib::string_cast_error::`RTTI Base Class Descriptor at (0,-1,0,64)'
PUBLIC	??_R4cast_to_string_error@dlib@@6B@		; dlib::cast_to_string_error::`RTTI Complete Object Locator'
PUBLIC	??_R3cast_to_string_error@dlib@@8		; dlib::cast_to_string_error::`RTTI Class Hierarchy Descriptor'
PUBLIC	??_R2cast_to_string_error@dlib@@8		; dlib::cast_to_string_error::`RTTI Base Class Array'
PUBLIC	??_R1A@?0A@EA@cast_to_string_error@dlib@@8	; dlib::cast_to_string_error::`RTTI Base Class Descriptor at (0,-1,0,64)'
PUBLIC	??_R4error@dlib@@6B@				; dlib::error::`RTTI Complete Object Locator'
PUBLIC	??_R3error@dlib@@8				; dlib::error::`RTTI Class Hierarchy Descriptor'
PUBLIC	??_R2error@dlib@@8				; dlib::error::`RTTI Base Class Array'
PUBLIC	??_R1A@?0A@EA@error@dlib@@8			; dlib::error::`RTTI Base Class Descriptor at (0,-1,0,64)'
PUBLIC	??_R4?$basic_ostringstream@DU?$char_traits@D@std@@V?$allocator@D@2@@std@@6B@ ; std::basic_ostringstream<char,std::char_traits<char>,std::allocator<char> >::`RTTI Complete Object Locator'
PUBLIC	??_R3?$basic_ostringstream@DU?$char_traits@D@std@@V?$allocator@D@2@@std@@8 ; std::basic_ostringstream<char,std::char_traits<char>,std::allocator<char> >::`RTTI Class Hierarchy Descriptor'
PUBLIC	??_R2?$basic_ostringstream@DU?$char_traits@D@std@@V?$allocator@D@2@@std@@8 ; std::basic_ostringstream<char,std::char_traits<char>,std::allocator<char> >::`RTTI Base Class Array'
PUBLIC	??_R1A@?0A@EA@?$basic_ostream@DU?$char_traits@D@std@@@std@@8 ; std::basic_ostream<char,std::char_traits<char> >::`RTTI Base Class Descriptor at (0,-1,0,64)'
PUBLIC	??_R3?$basic_ostream@DU?$char_traits@D@std@@@std@@8 ; std::basic_ostream<char,std::char_traits<char> >::`RTTI Class Hierarchy Descriptor'
PUBLIC	??_R2?$basic_ostream@DU?$char_traits@D@std@@@std@@8 ; std::basic_ostream<char,std::char_traits<char> >::`RTTI Base Class Array'
PUBLIC	??_R0?AV?$basic_ostream@DU?$char_traits@D@std@@@std@@@8 ; std::basic_ostream<char,std::char_traits<char> > `RTTI Type Descriptor'
PUBLIC	??_R1A@?0A@EA@?$basic_ostringstream@DU?$char_traits@D@std@@V?$allocator@D@2@@std@@8 ; std::basic_ostringstream<char,std::char_traits<char>,std::allocator<char> >::`RTTI Base Class Descriptor at (0,-1,0,64)'
PUBLIC	??_R0?AV?$basic_ostringstream@DU?$char_traits@D@std@@V?$allocator@D@2@@std@@@8 ; std::basic_ostringstream<char,std::char_traits<char>,std::allocator<char> > `RTTI Type Descriptor'
PUBLIC	??_R4?$basic_istringstream@DU?$char_traits@D@std@@V?$allocator@D@2@@std@@6B@ ; std::basic_istringstream<char,std::char_traits<char>,std::allocator<char> >::`RTTI Complete Object Locator'
PUBLIC	??_R3?$basic_istringstream@DU?$char_traits@D@std@@V?$allocator@D@2@@std@@8 ; std::basic_istringstream<char,std::char_traits<char>,std::allocator<char> >::`RTTI Class Hierarchy Descriptor'
PUBLIC	??_R2?$basic_istringstream@DU?$char_traits@D@std@@V?$allocator@D@2@@std@@8 ; std::basic_istringstream<char,std::char_traits<char>,std::allocator<char> >::`RTTI Base Class Array'
PUBLIC	??_R1A@?0A@EA@?$basic_istream@DU?$char_traits@D@std@@@std@@8 ; std::basic_istream<char,std::char_traits<char> >::`RTTI Base Class Descriptor at (0,-1,0,64)'
PUBLIC	??_R3?$basic_istream@DU?$char_traits@D@std@@@std@@8 ; std::basic_istream<char,std::char_traits<char> >::`RTTI Class Hierarchy Descriptor'
PUBLIC	??_R2?$basic_istream@DU?$char_traits@D@std@@@std@@8 ; std::basic_istream<char,std::char_traits<char> >::`RTTI Base Class Array'
PUBLIC	??_R17A@3EA@?$_Iosb@H@std@@8			; std::_Iosb<int>::`RTTI Base Class Descriptor at (8,0,4,64)'
PUBLIC	??_R1A@A@3EA@ios_base@std@@8			; std::ios_base::`RTTI Base Class Descriptor at (0,0,4,64)'
PUBLIC	??_R1A@A@3FA@?$basic_ios@DU?$char_traits@D@std@@@std@@8 ; std::basic_ios<char,std::char_traits<char> >::`RTTI Base Class Descriptor at (0,0,4,80)'
PUBLIC	??_R3?$basic_ios@DU?$char_traits@D@std@@@std@@8	; std::basic_ios<char,std::char_traits<char> >::`RTTI Class Hierarchy Descriptor'
PUBLIC	??_R2?$basic_ios@DU?$char_traits@D@std@@@std@@8	; std::basic_ios<char,std::char_traits<char> >::`RTTI Base Class Array'
PUBLIC	??_R1A@?0A@EA@ios_base@std@@8			; std::ios_base::`RTTI Base Class Descriptor at (0,-1,0,64)'
PUBLIC	??_R3ios_base@std@@8				; std::ios_base::`RTTI Class Hierarchy Descriptor'
PUBLIC	??_R2ios_base@std@@8				; std::ios_base::`RTTI Base Class Array'
PUBLIC	??_R17?0A@EA@?$_Iosb@H@std@@8			; std::_Iosb<int>::`RTTI Base Class Descriptor at (8,-1,0,64)'
PUBLIC	??_R3?$_Iosb@H@std@@8				; std::_Iosb<int>::`RTTI Class Hierarchy Descriptor'
PUBLIC	??_R2?$_Iosb@H@std@@8				; std::_Iosb<int>::`RTTI Base Class Array'
PUBLIC	??_R1A@?0A@EA@?$_Iosb@H@std@@8			; std::_Iosb<int>::`RTTI Base Class Descriptor at (0,-1,0,64)'
PUBLIC	??_R0?AV?$_Iosb@H@std@@@8			; std::_Iosb<int> `RTTI Type Descriptor'
PUBLIC	??_R0?AVios_base@std@@@8			; std::ios_base `RTTI Type Descriptor'
PUBLIC	??_R1A@?0A@EA@?$basic_ios@DU?$char_traits@D@std@@@std@@8 ; std::basic_ios<char,std::char_traits<char> >::`RTTI Base Class Descriptor at (0,-1,0,64)'
PUBLIC	??_R0?AV?$basic_ios@DU?$char_traits@D@std@@@std@@@8 ; std::basic_ios<char,std::char_traits<char> > `RTTI Type Descriptor'
PUBLIC	??_R0?AV?$basic_istream@DU?$char_traits@D@std@@@std@@@8 ; std::basic_istream<char,std::char_traits<char> > `RTTI Type Descriptor'
PUBLIC	??_R1A@?0A@EA@?$basic_istringstream@DU?$char_traits@D@std@@V?$allocator@D@2@@std@@8 ; std::basic_istringstream<char,std::char_traits<char>,std::allocator<char> >::`RTTI Base Class Descriptor at (0,-1,0,64)'
PUBLIC	??_R0?AV?$basic_istringstream@DU?$char_traits@D@std@@V?$allocator@D@2@@std@@@8 ; std::basic_istringstream<char,std::char_traits<char>,std::allocator<char> > `RTTI Type Descriptor'
PUBLIC	??_R4?$basic_stringbuf@DU?$char_traits@D@std@@V?$allocator@D@2@@std@@6B@ ; std::basic_stringbuf<char,std::char_traits<char>,std::allocator<char> >::`RTTI Complete Object Locator'
PUBLIC	??_R3?$basic_stringbuf@DU?$char_traits@D@std@@V?$allocator@D@2@@std@@8 ; std::basic_stringbuf<char,std::char_traits<char>,std::allocator<char> >::`RTTI Class Hierarchy Descriptor'
PUBLIC	??_R2?$basic_stringbuf@DU?$char_traits@D@std@@V?$allocator@D@2@@std@@8 ; std::basic_stringbuf<char,std::char_traits<char>,std::allocator<char> >::`RTTI Base Class Array'
PUBLIC	??_R1A@?0A@EA@?$basic_streambuf@DU?$char_traits@D@std@@@std@@8 ; std::basic_streambuf<char,std::char_traits<char> >::`RTTI Base Class Descriptor at (0,-1,0,64)'
PUBLIC	??_R3?$basic_streambuf@DU?$char_traits@D@std@@@std@@8 ; std::basic_streambuf<char,std::char_traits<char> >::`RTTI Class Hierarchy Descriptor'
PUBLIC	??_R2?$basic_streambuf@DU?$char_traits@D@std@@@std@@8 ; std::basic_streambuf<char,std::char_traits<char> >::`RTTI Base Class Array'
PUBLIC	??_R0?AV?$basic_streambuf@DU?$char_traits@D@std@@@std@@@8 ; std::basic_streambuf<char,std::char_traits<char> > `RTTI Type Descriptor'
PUBLIC	??_R1A@?0A@EA@?$basic_stringbuf@DU?$char_traits@D@std@@V?$allocator@D@2@@std@@8 ; std::basic_stringbuf<char,std::char_traits<char>,std::allocator<char> >::`RTTI Base Class Descriptor at (0,-1,0,64)'
PUBLIC	??_R0?AV?$basic_stringbuf@DU?$char_traits@D@std@@V?$allocator@D@2@@std@@@8 ; std::basic_stringbuf<char,std::char_traits<char>,std::allocator<char> > `RTTI Type Descriptor'
PUBLIC	??_R4bad_alloc@std@@6B@				; std::bad_alloc::`RTTI Complete Object Locator'
PUBLIC	??_R3bad_alloc@std@@8				; std::bad_alloc::`RTTI Class Hierarchy Descriptor'
PUBLIC	??_R2bad_alloc@std@@8				; std::bad_alloc::`RTTI Base Class Array'
PUBLIC	??_R1A@?0A@EA@exception@std@@8			; std::exception::`RTTI Base Class Descriptor at (0,-1,0,64)'
PUBLIC	??_R3exception@std@@8				; std::exception::`RTTI Class Hierarchy Descriptor'
PUBLIC	??_R2exception@std@@8				; std::exception::`RTTI Base Class Array'
PUBLIC	??_R1A@?0A@EA@bad_alloc@std@@8			; std::bad_alloc::`RTTI Base Class Descriptor at (0,-1,0,64)'
PUBLIC	??0struct_player@Battlefield@@QAE@XZ		; Battlefield::struct_player::struct_player
PUBLIC	??0?$allocator@Ustruct_chat@Battlefield@@@std@@QAE@XZ ; std::allocator<Battlefield::struct_chat>::allocator<Battlefield::struct_chat>
PUBLIC	??0?$list@Ustruct_chat@Battlefield@@V?$allocator@Ustruct_chat@Battlefield@@@std@@@std@@QAE@XZ ; std::list<Battlefield::struct_chat,std::allocator<Battlefield::struct_chat> >::list<Battlefield::struct_chat,std::allocator<Battlefield::struct_chat> >
PUBLIC	??0?$_String_val@DV?$allocator@D@std@@@std@@QAE@ABV01@@Z ; std::_String_val<char,std::allocator<char> >::_String_val<char,std::allocator<char> >
PUBLIC	??1struct_settings@Database@@QAE@XZ		; Database::struct_settings::~struct_settings
PUBLIC	??_Gstruct_settings@Database@@QAEPAXI@Z		; Database::struct_settings::`scalar deleting destructor'
PUBLIC	??_GSQLite@Database@@QAEPAXI@Z			; Database::SQLite::`scalar deleting destructor'
PUBLIC	??1?$_Vector_val@Ustruct_Vote@Battlefield@@V?$allocator@Ustruct_Vote@Battlefield@@@std@@@std@@QAE@XZ ; std::_Vector_val<Battlefield::struct_Vote,std::allocator<Battlefield::struct_Vote> >::~_Vector_val<Battlefield::struct_Vote,std::allocator<Battlefield::struct_Vote> >
PUBLIC	?deallocate@?$allocator@Ustruct_Vote@Battlefield@@@std@@QAEXPAUstruct_Vote@Battlefield@@I@Z ; std::allocator<Battlefield::struct_Vote>::deallocate
PUBLIC	??$_Ptr_cat@Ustruct_Vote@Battlefield@@U12@@std@@YA?AU_Nonscalar_ptr_iterator_tag@0@PAUstruct_Vote@Battlefield@@0@Z ; std::_Ptr_cat<Battlefield::struct_Vote,Battlefield::struct_Vote>
PUBLIC	??1struct_Vote@Battlefield@@QAE@XZ		; Battlefield::struct_Vote::~struct_Vote
PUBLIC	??_Gstruct_Vote@Battlefield@@QAEPAXI@Z		; Battlefield::struct_Vote::`scalar deleting destructor'
PUBLIC	??$_Destroy@Ustruct_Vote@Battlefield@@@std@@YAXPAUstruct_Vote@Battlefield@@@Z ; std::_Destroy<Battlefield::struct_Vote>
PUBLIC	?destroy@?$allocator@Ustruct_Vote@Battlefield@@@std@@QAEXPAUstruct_Vote@Battlefield@@@Z ; std::allocator<Battlefield::struct_Vote>::destroy
PUBLIC	??$_Dest_val@V?$allocator@Ustruct_Vote@Battlefield@@@std@@Ustruct_Vote@Battlefield@@@std@@YAXAAV?$allocator@Ustruct_Vote@Battlefield@@@0@PAUstruct_Vote@Battlefield@@@Z ; std::_Dest_val<std::allocator<Battlefield::struct_Vote>,Battlefield::struct_Vote>
PUBLIC	??$_Destroy_range@V?$allocator@Ustruct_Vote@Battlefield@@@std@@@std@@YAXPAUstruct_Vote@Battlefield@@0AAV?$allocator@Ustruct_Vote@Battlefield@@@0@U_Nonscalar_ptr_iterator_tag@0@@Z ; std::_Destroy_range<std::allocator<Battlefield::struct_Vote> >
PUBLIC	??$_Destroy_range@V?$allocator@Ustruct_Vote@Battlefield@@@std@@@std@@YAXPAUstruct_Vote@Battlefield@@0AAV?$allocator@Ustruct_Vote@Battlefield@@@0@@Z ; std::_Destroy_range<std::allocator<Battlefield::struct_Vote> >
PUBLIC	?_Destroy@?$vector@Ustruct_Vote@Battlefield@@V?$allocator@Ustruct_Vote@Battlefield@@@std@@@std@@IAEXPAUstruct_Vote@Battlefield@@0@Z ; std::vector<Battlefield::struct_Vote,std::allocator<Battlefield::struct_Vote> >::_Destroy
PUBLIC	?_Tidy@?$vector@Ustruct_Vote@Battlefield@@V?$allocator@Ustruct_Vote@Battlefield@@@std@@@std@@IAEXXZ ; std::vector<Battlefield::struct_Vote,std::allocator<Battlefield::struct_Vote> >::_Tidy
PUBLIC	??1?$vector@Ustruct_Vote@Battlefield@@V?$allocator@Ustruct_Vote@Battlefield@@@std@@@std@@QAE@XZ ; std::vector<Battlefield::struct_Vote,std::allocator<Battlefield::struct_Vote> >::~vector<Battlefield::struct_Vote,std::allocator<Battlefield::struct_Vote> >
PUBLIC	??1Vote@Battlefield@@QAE@XZ			; Battlefield::Vote::~Vote
PUBLIC	??1struct_player@Battlefield@@QAE@XZ		; Battlefield::struct_player::~struct_player
PUBLIC	??B?$scoped_ptr@Vconnection@dlib@@U?$default_deleter@Vconnection@dlib@@@2@@dlib@@QBE_NXZ ; dlib::scoped_ptr<dlib::connection,dlib::default_deleter<dlib::connection> >::operator bool
PUBLIC	??4?$basic_string@DU?$char_traits@D@std@@V?$allocator@D@2@@std@@QAEAAV01@PBD@Z ; std::basic_string<char,std::char_traits<char>,std::allocator<char> >::operator=
PUBLIC	??0struct_chat@Battlefield@@QAE@XZ		; Battlefield::struct_chat::struct_chat
PUBLIC	??$cast@DU?$char_traits@D@std@@V?$allocator@D@2@@?$string_cast_helper@I@dlib@@SAIABV?$basic_string@DU?$char_traits@D@std@@V?$allocator@D@2@@std@@@Z ; dlib::string_cast_helper<unsigned int>::cast<char,std::char_traits<char>,std::allocator<char> >
PUBLIC	??$string_cast@IDU?$char_traits@D@std@@V?$allocator@D@2@@dlib@@YA?BIABV?$basic_string@DU?$char_traits@D@std@@V?$allocator@D@2@@std@@@Z ; dlib::string_cast<unsigned int,char,std::char_traits<char>,std::allocator<char> >
PUBLIC	?pop_front@?$list@Ustruct_chat@Battlefield@@V?$allocator@Ustruct_chat@Battlefield@@@std@@@std@@QAEXXZ ; std::list<Battlefield::struct_chat,std::allocator<Battlefield::struct_chat> >::pop_front
PUBLIC	?push_back@?$list@Ustruct_chat@Battlefield@@V?$allocator@Ustruct_chat@Battlefield@@@std@@@std@@QAEXABUstruct_chat@Battlefield@@@Z ; std::list<Battlefield::struct_chat,std::allocator<Battlefield::struct_chat> >::push_back
PUBLIC	?at@?$basic_string@DU?$char_traits@D@std@@V?$allocator@D@2@@std@@QAEAADI@Z ; std::basic_string<char,std::char_traits<char>,std::allocator<char> >::at
PUBLIC	?length@?$basic_string@DU?$char_traits@D@std@@V?$allocator@D@2@@std@@QBEIXZ ; std::basic_string<char,std::char_traits<char>,std::allocator<char> >::length
PUBLIC	?empty@?$basic_string@DU?$char_traits@D@std@@V?$allocator@D@2@@std@@QBE_NXZ ; std::basic_string<char,std::char_traits<char>,std::allocator<char> >::empty
PUBLIC	?find@?$basic_string@DU?$char_traits@D@std@@V?$allocator@D@2@@std@@QBEIPBDI@Z ; std::basic_string<char,std::char_traits<char>,std::allocator<char> >::find
PUBLIC	?find@?$char_traits@D@std@@SAPBDPBDIABD@Z	; std::char_traits<char>::find
PUBLIC	?find@?$basic_string@DU?$char_traits@D@std@@V?$allocator@D@2@@std@@QBEIPBDII@Z ; std::basic_string<char,std::char_traits<char>,std::allocator<char> >::find
PUBLIC	?find@?$basic_string@DU?$char_traits@D@std@@V?$allocator@D@2@@std@@QBEIDI@Z ; std::basic_string<char,std::char_traits<char>,std::allocator<char> >::find
PUBLIC	??0?$basic_string@DU?$char_traits@D@std@@V?$allocator@D@2@@std@@QAE@ABV01@IIABV?$allocator@D@1@@Z ; std::basic_string<char,std::char_traits<char>,std::allocator<char> >::basic_string<char,std::char_traits<char>,std::allocator<char> >
PUBLIC	?substr@?$basic_string@DU?$char_traits@D@std@@V?$allocator@D@2@@std@@QBE?AV12@II@Z ; std::basic_string<char,std::char_traits<char>,std::allocator<char> >::substr
PUBLIC	?insert@?$basic_string@DU?$char_traits@D@std@@V?$allocator@D@2@@std@@QAEAAV12@IABV12@II@Z ; std::basic_string<char,std::char_traits<char>,std::allocator<char> >::insert
PUBLIC	?insert@?$basic_string@DU?$char_traits@D@std@@V?$allocator@D@2@@std@@QAEAAV12@IPBDI@Z ; std::basic_string<char,std::char_traits<char>,std::allocator<char> >::insert
PUBLIC	?insert@?$basic_string@DU?$char_traits@D@std@@V?$allocator@D@2@@std@@QAEAAV12@IPBD@Z ; std::basic_string<char,std::char_traits<char>,std::allocator<char> >::insert
PUBLIC	??$?HDU?$char_traits@D@std@@V?$allocator@D@1@@std@@YA?AV?$basic_string@DU?$char_traits@D@std@@V?$allocator@D@2@@0@PBD$$QAV10@@Z ; std::operator+<char,std::char_traits<char>,std::allocator<char> >
PUBLIC	??$?HDU?$char_traits@D@std@@V?$allocator@D@1@@std@@YA?AV?$basic_string@DU?$char_traits@D@std@@V?$allocator@D@2@@0@ABV10@PBD@Z ; std::operator+<char,std::char_traits<char>,std::allocator<char> >
PUBLIC	?size@?$list@Ustruct_chat@Battlefield@@V?$allocator@Ustruct_chat@Battlefield@@@std@@@std@@QBEIXZ ; std::list<Battlefield::struct_chat,std::allocator<Battlefield::struct_chat> >::size
PUBLIC	?end@?$list@Ustruct_chat@Battlefield@@V?$allocator@Ustruct_chat@Battlefield@@@std@@@std@@QAE?AV?$_List_iterator@V?$_List_val@Ustruct_chat@Battlefield@@V?$allocator@Ustruct_chat@Battlefield@@@std@@@std@@@2@XZ ; std::list<Battlefield::struct_chat,std::allocator<Battlefield::struct_chat> >::end
PUBLIC	??D?$_List_iterator@V?$_List_val@Ustruct_chat@Battlefield@@V?$allocator@Ustruct_chat@Battlefield@@@std@@@std@@@std@@QBEAAUstruct_chat@Battlefield@@XZ ; std::_List_iterator<std::_List_val<Battlefield::struct_chat,std::allocator<Battlefield::struct_chat> > >::operator*
PUBLIC	??F?$_List_iterator@V?$_List_val@Ustruct_chat@Battlefield@@V?$allocator@Ustruct_chat@Battlefield@@@std@@@std@@@std@@QAEAAV01@XZ ; std::_List_iterator<std::_List_val<Battlefield::struct_chat,std::allocator<Battlefield::struct_chat> > >::operator--
PUBLIC	?back@?$list@Ustruct_chat@Battlefield@@V?$allocator@Ustruct_chat@Battlefield@@@std@@@std@@QAEAAUstruct_chat@Battlefield@@XZ ; std::list<Battlefield::struct_chat,std::allocator<Battlefield::struct_chat> >::back
PUBLIC	?timeFromNow@helper@@YANEEG@Z			; helper::timeFromNow
PUBLIC	?clear@?$basic_string@DU?$char_traits@D@std@@V?$allocator@D@2@@std@@QAEXXZ ; std::basic_string<char,std::char_traits<char>,std::allocator<char> >::clear
PUBLIC	?insert@?$basic_string@DU?$char_traits@D@std@@V?$allocator@D@2@@std@@QAEAAV12@IID@Z ; std::basic_string<char,std::char_traits<char>,std::allocator<char> >::insert
PUBLIC	?begin@?$basic_string@DU?$char_traits@D@std@@V?$allocator@D@2@@std@@QAE?AV?$_String_iterator@DU?$char_traits@D@std@@V?$allocator@D@2@@2@XZ ; std::basic_string<char,std::char_traits<char>,std::allocator<char> >::begin
PUBLIC	?_Compat@?$_String_const_iterator@DU?$char_traits@D@std@@V?$allocator@D@2@@std@@QBEXABV12@@Z ; std::_String_const_iterator<char,std::char_traits<char>,std::allocator<char> >::_Compat
PUBLIC	??G?$_String_const_iterator@DU?$char_traits@D@std@@V?$allocator@D@2@@std@@QBEHABV01@@Z ; std::_String_const_iterator<char,std::char_traits<char>,std::allocator<char> >::operator-
PUBLIC	?_Pdif@?$basic_string@DU?$char_traits@D@std@@V?$allocator@D@2@@std@@SAIV?$_String_const_iterator@DU?$char_traits@D@std@@V?$allocator@D@2@@2@0@Z ; std::basic_string<char,std::char_traits<char>,std::allocator<char> >::_Pdif
PUBLIC	??Y?$_String_const_iterator@DU?$char_traits@D@std@@V?$allocator@D@2@@std@@QAEAAV01@H@Z ; std::_String_const_iterator<char,std::char_traits<char>,std::allocator<char> >::operator+=
PUBLIC	??Y?$_String_iterator@DU?$char_traits@D@std@@V?$allocator@D@2@@std@@QAEAAV01@H@Z ; std::_String_iterator<char,std::char_traits<char>,std::allocator<char> >::operator+=
PUBLIC	??H?$_String_iterator@DU?$char_traits@D@std@@V?$allocator@D@2@@std@@QBE?AV01@H@Z ; std::_String_iterator<char,std::char_traits<char>,std::allocator<char> >::operator+
PUBLIC	?insert@?$basic_string@DU?$char_traits@D@std@@V?$allocator@D@2@@std@@QAE?AV?$_String_iterator@DU?$char_traits@D@std@@V?$allocator@D@2@@2@V?$_String_const_iterator@DU?$char_traits@D@std@@V?$allocator@D@2@@2@D@Z ; std::basic_string<char,std::char_traits<char>,std::allocator<char> >::insert
PUBLIC	??0?$_String_const_iterator@DU?$char_traits@D@std@@V?$allocator@D@2@@std@@QAE@PBDPBU_Container_base0@1@@Z ; std::_String_const_iterator<char,std::char_traits<char>,std::allocator<char> >::_String_const_iterator<char,std::char_traits<char>,std::allocator<char> >
PUBLIC	??0?$_String_iterator@DU?$char_traits@D@std@@V?$allocator@D@2@@std@@QAE@PADPBU_Container_base0@1@@Z ; std::_String_iterator<char,std::char_traits<char>,std::allocator<char> >::_String_iterator<char,std::char_traits<char>,std::allocator<char> >
PUBLIC	?end@?$basic_string@DU?$char_traits@D@std@@V?$allocator@D@2@@std@@QAE?AV?$_String_iterator@DU?$char_traits@D@std@@V?$allocator@D@2@@2@XZ ; std::basic_string<char,std::char_traits<char>,std::allocator<char> >::end
PUBLIC	?push_back@?$basic_string@DU?$char_traits@D@std@@V?$allocator@D@2@@std@@QAEXD@Z ; std::basic_string<char,std::char_traits<char>,std::allocator<char> >::push_back
PUBLIC	??0?$vector@V?$basic_string@DU?$char_traits@D@std@@V?$allocator@D@2@@std@@V?$allocator@V?$basic_string@DU?$char_traits@D@std@@V?$allocator@D@2@@std@@@2@@std@@QAE@$$QAV01@@Z ; std::vector<std::basic_string<char,std::char_traits<char>,std::allocator<char> >,std::allocator<std::basic_string<char,std::char_traits<char>,std::allocator<char> > > >::vector<std::basic_string<char,std::char_traits<char>,std::allocator<char> >,std::allocator<std::basic_string<char,std::char_traits<char>,std::allocator<char> > > >
PUBLIC	??$split@DU?$char_traits@D@std@@V?$allocator@D@2@@dlib@@YA?BV?$vector@V?$basic_string@DU?$char_traits@D@std@@V?$allocator@D@2@@std@@V?$allocator@V?$basic_string@DU?$char_traits@D@std@@V?$allocator@D@2@@std@@@2@@std@@ABV?$basic_string@DU?$char_traits@D@std@@V?$allocator@D@2@@2@PBD@Z ; dlib::split<char,std::char_traits<char>,std::allocator<char> >
PUBLIC	??$cast_to_string@G@dlib@@YA?BV?$basic_string@DU?$char_traits@D@std@@V?$allocator@D@2@@std@@ABG@Z ; dlib::cast_to_string<unsigned short>
PUBLIC	??$?HDU?$char_traits@D@std@@V?$allocator@D@1@@std@@YA?AV?$basic_string@DU?$char_traits@D@std@@V?$allocator@D@2@@0@$$QAV10@ABV10@@Z ; std::operator+<char,std::char_traits<char>,std::allocator<char> >
PUBLIC	??$tolower@U?$char_traits@D@std@@V?$allocator@D@2@@dlib@@YA?BV?$basic_string@DU?$char_traits@D@std@@V?$allocator@D@2@@std@@ABV12@@Z ; dlib::tolower<std::char_traits<char>,std::allocator<char> >
PUBLIC	?hex@std@@YAAAVios_base@1@AAV21@@Z		; std::hex
PUBLIC	??$_dTcast@D@@YADD_W@Z				; _dTcast<char>
PUBLIC	??0?$basic_stringbuf@DU?$char_traits@D@std@@V?$allocator@D@2@@std@@QAE@ABV?$basic_string@DU?$char_traits@D@std@@V?$allocator@D@2@@1@H@Z ; std::basic_stringbuf<char,std::char_traits<char>,std::allocator<char> >::basic_stringbuf<char,std::char_traits<char>,std::allocator<char> >
PUBLIC	??0?$basic_istringstream@DU?$char_traits@D@std@@V?$allocator@D@2@@std@@QAE@ABV?$basic_string@DU?$char_traits@D@std@@V?$allocator@D@2@@1@H@Z ; std::basic_istringstream<char,std::char_traits<char>,std::allocator<char> >::basic_istringstream<char,std::char_traits<char>,std::allocator<char> >
PUBLIC	??_G?$basic_istringstream@DU?$char_traits@D@std@@V?$allocator@D@2@@std@@UAEPAXI@Z ; std::basic_istringstream<char,std::char_traits<char>,std::allocator<char> >::`scalar deleting destructor'
PUBLIC	??1?$basic_istringstream@DU?$char_traits@D@std@@V?$allocator@D@2@@std@@UAE@XZ ; std::basic_istringstream<char,std::char_traits<char>,std::allocator<char> >::~basic_istringstream<char,std::char_traits<char>,std::allocator<char> >
PUBLIC	??_D?$basic_istringstream@DU?$char_traits@D@std@@V?$allocator@D@2@@std@@QAEXXZ ; std::basic_istringstream<char,std::char_traits<char>,std::allocator<char> >::`vbase destructor'
PUBLIC	??0error@dlib@@QAE@W4error_type@1@ABV?$basic_string@DU?$char_traits@D@std@@V?$allocator@D@2@@std@@@Z ; dlib::error::error
PUBLIC	??Y?$basic_string@DU?$char_traits@D@std@@V?$allocator@D@2@@std@@QAEAAV01@PBD@Z ; std::basic_string<char,std::char_traits<char>,std::allocator<char> >::operator+=
PUBLIC	??$?HDU?$char_traits@D@std@@V?$allocator@D@1@@std@@YA?AV?$basic_string@DU?$char_traits@D@std@@V?$allocator@D@2@@0@PBDABV10@@Z ; std::operator+<char,std::char_traits<char>,std::allocator<char> >
PUBLIC	?append@?$basic_string@DU?$char_traits@D@std@@V?$allocator@D@2@@std@@QAEAAV12@PBDI@Z ; std::basic_string<char,std::char_traits<char>,std::allocator<char> >::append
PUBLIC	?append@?$basic_string@DU?$char_traits@D@std@@V?$allocator@D@2@@std@@QAEAAV12@PBD@Z ; std::basic_string<char,std::char_traits<char>,std::allocator<char> >::append
PUBLIC	??$?HDU?$char_traits@D@std@@V?$allocator@D@1@@std@@YA?AV?$basic_string@DU?$char_traits@D@std@@V?$allocator@D@2@@0@$$QAV10@PBD@Z ; std::operator+<char,std::char_traits<char>,std::allocator<char> >
PUBLIC	??0string_cast_error@dlib@@QAE@ABV?$basic_string@DU?$char_traits@D@std@@V?$allocator@D@2@@std@@@Z ; dlib::string_cast_error::string_cast_error
PUBLIC	??$narrow@DU?$char_traits@D@std@@V?$allocator@D@2@@dlib@@YA?BV?$basic_string@DU?$char_traits@D@std@@V?$allocator@D@2@@std@@ABV12@@Z ; dlib::narrow<char,std::char_traits<char>,std::allocator<char> >
PUBLIC	??1string_cast_error@dlib@@UAE@XZ		; dlib::string_cast_error::~string_cast_error
PUBLIC	??_Gstring_cast_error@dlib@@UAEPAXI@Z		; dlib::string_cast_error::`scalar deleting destructor'
PUBLIC	??0string_cast_error@dlib@@QAE@ABV01@@Z		; dlib::string_cast_error::string_cast_error
PUBLIC	??$cast@DU?$char_traits@D@std@@V?$allocator@D@2@@?$string_cast_helper@G@dlib@@SAGABV?$basic_string@DU?$char_traits@D@std@@V?$allocator@D@2@@std@@@Z ; dlib::string_cast_helper<unsigned short>::cast<char,std::char_traits<char>,std::allocator<char> >
PUBLIC	??$string_cast@GDU?$char_traits@D@std@@V?$allocator@D@2@@dlib@@YA?BGABV?$basic_string@DU?$char_traits@D@std@@V?$allocator@D@2@@std@@@Z ; dlib::string_cast<unsigned short,char,std::char_traits<char>,std::allocator<char> >
PUBLIC	??$cast_to_string@I@dlib@@YA?BV?$basic_string@DU?$char_traits@D@std@@V?$allocator@D@2@@std@@ABI@Z ; dlib::cast_to_string<unsigned int>
PUBLIC	??$cast_to_string@N@dlib@@YA?BV?$basic_string@DU?$char_traits@D@std@@V?$allocator@D@2@@std@@ABN@Z ; dlib::cast_to_string<double>
PUBLIC	??$cast_to_string@H@dlib@@YA?BV?$basic_string@DU?$char_traits@D@std@@V?$allocator@D@2@@std@@ABH@Z ; dlib::cast_to_string<int>
PUBLIC	??1?$_Vector_val@Uadmin@Database@@V?$allocator@Uadmin@Database@@@std@@@std@@QAE@XZ ; std::_Vector_val<Database::admin,std::allocator<Database::admin> >::~_Vector_val<Database::admin,std::allocator<Database::admin> >
PUBLIC	?deallocate@?$allocator@Uadmin@Database@@@std@@QAEXPAUadmin@Database@@I@Z ; std::allocator<Database::admin>::deallocate
PUBLIC	??$_Ptr_cat@Uadmin@Database@@U12@@std@@YA?AU_Nonscalar_ptr_iterator_tag@0@PAUadmin@Database@@0@Z ; std::_Ptr_cat<Database::admin,Database::admin>
PUBLIC	??1admin@Database@@QAE@XZ			; Database::admin::~admin
PUBLIC	??_Gadmin@Database@@QAEPAXI@Z			; Database::admin::`scalar deleting destructor'
PUBLIC	??$_Destroy@Uadmin@Database@@@std@@YAXPAUadmin@Database@@@Z ; std::_Destroy<Database::admin>
PUBLIC	?destroy@?$allocator@Uadmin@Database@@@std@@QAEXPAUadmin@Database@@@Z ; std::allocator<Database::admin>::destroy
PUBLIC	??$_Dest_val@V?$allocator@Uadmin@Database@@@std@@Uadmin@Database@@@std@@YAXAAV?$allocator@Uadmin@Database@@@0@PAUadmin@Database@@@Z ; std::_Dest_val<std::allocator<Database::admin>,Database::admin>
PUBLIC	??$_Destroy_range@V?$allocator@Uadmin@Database@@@std@@@std@@YAXPAUadmin@Database@@0AAV?$allocator@Uadmin@Database@@@0@U_Nonscalar_ptr_iterator_tag@0@@Z ; std::_Destroy_range<std::allocator<Database::admin> >
PUBLIC	??$_Destroy_range@V?$allocator@Uadmin@Database@@@std@@@std@@YAXPAUadmin@Database@@0AAV?$allocator@Uadmin@Database@@@0@@Z ; std::_Destroy_range<std::allocator<Database::admin> >
PUBLIC	?_Destroy@?$vector@Uadmin@Database@@V?$allocator@Uadmin@Database@@@std@@@std@@IAEXPAUadmin@Database@@0@Z ; std::vector<Database::admin,std::allocator<Database::admin> >::_Destroy
PUBLIC	?_Tidy@?$vector@Uadmin@Database@@V?$allocator@Uadmin@Database@@@std@@@std@@IAEXXZ ; std::vector<Database::admin,std::allocator<Database::admin> >::_Tidy
PUBLIC	??1?$vector@Uadmin@Database@@V?$allocator@Uadmin@Database@@@std@@@std@@QAE@XZ ; std::vector<Database::admin,std::allocator<Database::admin> >::~vector<Database::admin,std::allocator<Database::admin> >
PUBLIC	?begin@?$vector@Uadmin@Database@@V?$allocator@Uadmin@Database@@@std@@@std@@QAE?AV?$_Vector_iterator@V?$_Vector_val@Uadmin@Database@@V?$allocator@Uadmin@Database@@@std@@@std@@@2@XZ ; std::vector<Database::admin,std::allocator<Database::admin> >::begin
PUBLIC	??0?$_Vector_const_iterator@V?$_Vector_val@Uadmin@Database@@V?$allocator@Uadmin@Database@@@std@@@std@@@std@@QAE@PAUadmin@Database@@PBU_Container_base0@1@@Z ; std::_Vector_const_iterator<std::_Vector_val<Database::admin,std::allocator<Database::admin> > >::_Vector_const_iterator<std::_Vector_val<Database::admin,std::allocator<Database::admin> > >
PUBLIC	??0?$_Vector_iterator@V?$_Vector_val@Uadmin@Database@@V?$allocator@Uadmin@Database@@@std@@@std@@@std@@QAE@PAUadmin@Database@@PBU_Container_base0@1@@Z ; std::_Vector_iterator<std::_Vector_val<Database::admin,std::allocator<Database::admin> > >::_Vector_iterator<std::_Vector_val<Database::admin,std::allocator<Database::admin> > >
PUBLIC	?end@?$vector@Uadmin@Database@@V?$allocator@Uadmin@Database@@@std@@@std@@QAE?AV?$_Vector_iterator@V?$_Vector_val@Uadmin@Database@@V?$allocator@Uadmin@Database@@@std@@@std@@@2@XZ ; std::vector<Database::admin,std::allocator<Database::admin> >::end
PUBLIC	??D?$_Vector_const_iterator@V?$_Vector_val@Uadmin@Database@@V?$allocator@Uadmin@Database@@@std@@@std@@@std@@QBEABUadmin@Database@@XZ ; std::_Vector_const_iterator<std::_Vector_val<Database::admin,std::allocator<Database::admin> > >::operator*
PUBLIC	??E?$_Vector_const_iterator@V?$_Vector_val@Uadmin@Database@@V?$allocator@Uadmin@Database@@@std@@@std@@@std@@QAEAAV01@XZ ; std::_Vector_const_iterator<std::_Vector_val<Database::admin,std::allocator<Database::admin> > >::operator++
PUBLIC	?_Compat@?$_Vector_const_iterator@V?$_Vector_val@Uadmin@Database@@V?$allocator@Uadmin@Database@@@std@@@std@@@std@@QBEXABV12@@Z ; std::_Vector_const_iterator<std::_Vector_val<Database::admin,std::allocator<Database::admin> > >::_Compat
PUBLIC	??8?$_Vector_const_iterator@V?$_Vector_val@Uadmin@Database@@V?$allocator@Uadmin@Database@@@std@@@std@@@std@@QBE_NABV01@@Z ; std::_Vector_const_iterator<std::_Vector_val<Database::admin,std::allocator<Database::admin> > >::operator==
PUBLIC	??9?$_Vector_const_iterator@V?$_Vector_val@Uadmin@Database@@V?$allocator@Uadmin@Database@@@std@@@std@@@std@@QBE_NABV01@@Z ; std::_Vector_const_iterator<std::_Vector_val<Database::admin,std::allocator<Database::admin> > >::operator!=
PUBLIC	??Y?$basic_string@DU?$char_traits@D@std@@V?$allocator@D@2@@std@@QAEAAV01@D@Z ; std::basic_string<char,std::char_traits<char>,std::allocator<char> >::operator+=
PUBLIC	??A?$vector@V?$basic_string@DU?$char_traits@D@std@@V?$allocator@D@2@@std@@V?$allocator@V?$basic_string@DU?$char_traits@D@std@@V?$allocator@D@2@@std@@@2@@std@@QAEAAV?$basic_string@DU?$char_traits@D@std@@V?$allocator@D@2@@1@I@Z ; std::vector<std::basic_string<char,std::char_traits<char>,std::allocator<char> >,std::allocator<std::basic_string<char,std::char_traits<char>,std::allocator<char> > > >::operator[]
PUBLIC	?append@?$basic_string@DU?$char_traits@D@std@@V?$allocator@D@2@@std@@QAEAAV12@ABV12@II@Z ; std::basic_string<char,std::char_traits<char>,std::allocator<char> >::append
PUBLIC	?append@?$basic_string@DU?$char_traits@D@std@@V?$allocator@D@2@@std@@QAEAAV12@ABV12@@Z ; std::basic_string<char,std::char_traits<char>,std::allocator<char> >::append
PUBLIC	??Y?$basic_string@DU?$char_traits@D@std@@V?$allocator@D@2@@std@@QAEAAV01@ABV01@@Z ; std::basic_string<char,std::char_traits<char>,std::allocator<char> >::operator+=
PUBLIC	?reserve@?$basic_string@DU?$char_traits@D@std@@V?$allocator@D@2@@std@@QAEXI@Z ; std::basic_string<char,std::char_traits<char>,std::allocator<char> >::reserve
PUBLIC	??$?HDU?$char_traits@D@std@@V?$allocator@D@1@@std@@YA?AV?$basic_string@DU?$char_traits@D@std@@V?$allocator@D@2@@0@ABV10@0@Z ; std::operator+<char,std::char_traits<char>,std::allocator<char> >
PUBLIC	??A?$basic_string@DU?$char_traits@D@std@@V?$allocator@D@2@@std@@QAEAADI@Z ; std::basic_string<char,std::char_traits<char>,std::allocator<char> >::operator[]
PUBLIC	??A?$basic_string@DU?$char_traits@D@std@@V?$allocator@D@2@@std@@QBEABDI@Z ; std::basic_string<char,std::char_traits<char>,std::allocator<char> >::operator[]
PUBLIC	?assign@?$char_traits@D@std@@SAPADPADID@Z	; std::char_traits<char>::assign
PUBLIC	?_Chassign@?$basic_string@DU?$char_traits@D@std@@V?$allocator@D@2@@std@@QAEXIID@Z ; std::basic_string<char,std::char_traits<char>,std::allocator<char> >::_Chassign
PUBLIC	?append@?$basic_string@DU?$char_traits@D@std@@V?$allocator@D@2@@std@@QAEAAV12@ID@Z ; std::basic_string<char,std::char_traits<char>,std::allocator<char> >::append
PUBLIC	?resize@?$basic_string@DU?$char_traits@D@std@@V?$allocator@D@2@@std@@QAEXID@Z ; std::basic_string<char,std::char_traits<char>,std::allocator<char> >::resize
PUBLIC	?resize@?$basic_string@DU?$char_traits@D@std@@V?$allocator@D@2@@std@@QAEXI@Z ; std::basic_string<char,std::char_traits<char>,std::allocator<char> >::resize
PUBLIC	??$toupper@U?$char_traits@D@std@@V?$allocator@D@2@@dlib@@YA?BV?$basic_string@DU?$char_traits@D@std@@V?$allocator@D@2@@std@@ABV12@@Z ; dlib::toupper<std::char_traits<char>,std::allocator<char> >
PUBLIC	?compare@?$basic_string@DU?$char_traits@D@std@@V?$allocator@D@2@@std@@QBEHPBD@Z ; std::basic_string<char,std::char_traits<char>,std::allocator<char> >::compare
PUBLIC	??$?8DU?$char_traits@D@std@@V?$allocator@D@1@@std@@YA_NABV?$basic_string@DU?$char_traits@D@std@@V?$allocator@D@2@@0@PBD@Z ; std::operator==<char,std::char_traits<char>,std::allocator<char> >
PUBLIC	??$?9DU?$char_traits@D@std@@V?$allocator@D@1@@std@@YA_NABV?$basic_string@DU?$char_traits@D@std@@V?$allocator@D@2@@0@PBD@Z ; std::operator!=<char,std::char_traits<char>,std::allocator<char> >
PUBLIC	??0_Sentry_base@?$basic_ostream@DU?$char_traits@D@std@@@std@@QAE@AAV12@@Z ; std::basic_ostream<char,std::char_traits<char> >::_Sentry_base::_Sentry_base
PUBLIC	??0sentry@?$basic_ostream@DU?$char_traits@D@std@@@std@@QAE@AAV12@@Z ; std::basic_ostream<char,std::char_traits<char> >::sentry::sentry
PUBLIC	??1_Sentry_base@?$basic_ostream@DU?$char_traits@D@std@@@std@@QAE@XZ ; std::basic_ostream<char,std::char_traits<char> >::_Sentry_base::~_Sentry_base
PUBLIC	??1sentry@?$basic_ostream@DU?$char_traits@D@std@@@std@@QAE@XZ ; std::basic_ostream<char,std::char_traits<char> >::sentry::~sentry
PUBLIC	??Bsentry@?$basic_ostream@DU?$char_traits@D@std@@@std@@QBEPQ_Bool_struct@2@HXZ ; std::basic_ostream<char,std::char_traits<char> >::sentry::operator int std::_Bool_struct::*
PUBLIC	??$?6U?$char_traits@D@std@@@std@@YAAAV?$basic_ostream@DU?$char_traits@D@std@@@0@AAV10@D@Z ; std::operator<<<std::char_traits<char> >
PUBLIC	??$?6U?$char_traits@D@std@@@std@@YAAAV?$basic_ostream@DU?$char_traits@D@std@@@0@AAV10@E@Z ; std::operator<<<std::char_traits<char> >
PUBLIC	??0error@dlib@@QAE@W4error_type@1@@Z		; dlib::error::error
PUBLIC	??0cast_to_string_error@dlib@@QAE@XZ		; dlib::cast_to_string_error::cast_to_string_error
PUBLIC	?_Init@?$basic_stringbuf@DU?$char_traits@D@std@@V?$allocator@D@2@@std@@IAEXPBDIH@Z ; std::basic_stringbuf<char,std::char_traits<char>,std::allocator<char> >::_Init
PUBLIC	?_Getstate@?$basic_stringbuf@DU?$char_traits@D@std@@V?$allocator@D@2@@std@@AAEHH@Z ; std::basic_stringbuf<char,std::char_traits<char>,std::allocator<char> >::_Getstate
PUBLIC	??0?$basic_stringbuf@DU?$char_traits@D@std@@V?$allocator@D@2@@std@@QAE@H@Z ; std::basic_stringbuf<char,std::char_traits<char>,std::allocator<char> >::basic_stringbuf<char,std::char_traits<char>,std::allocator<char> >
PUBLIC	??0?$basic_ostringstream@DU?$char_traits@D@std@@V?$allocator@D@2@@std@@QAE@H@Z ; std::basic_ostringstream<char,std::char_traits<char>,std::allocator<char> >::basic_ostringstream<char,std::char_traits<char>,std::allocator<char> >
PUBLIC	??0?$basic_string@DU?$char_traits@D@std@@V?$allocator@D@2@@std@@QAE@XZ ; std::basic_string<char,std::char_traits<char>,std::allocator<char> >::basic_string<char,std::char_traits<char>,std::allocator<char> >
PUBLIC	??0?$basic_string@DU?$char_traits@D@std@@V?$allocator@D@2@@std@@QAE@PBDI@Z ; std::basic_string<char,std::char_traits<char>,std::allocator<char> >::basic_string<char,std::char_traits<char>,std::allocator<char> >
PUBLIC	?str@?$basic_stringbuf@DU?$char_traits@D@std@@V?$allocator@D@2@@std@@QBE?AV?$basic_string@DU?$char_traits@D@std@@V?$allocator@D@2@@2@XZ ; std::basic_stringbuf<char,std::char_traits<char>,std::allocator<char> >::str
PUBLIC	?str@?$basic_ostringstream@DU?$char_traits@D@std@@V?$allocator@D@2@@std@@QBE?AV?$basic_string@DU?$char_traits@D@std@@V?$allocator@D@2@@2@XZ ; std::basic_ostringstream<char,std::char_traits<char>,std::allocator<char> >::str
PUBLIC	?_Tidy@?$basic_stringbuf@DU?$char_traits@D@std@@V?$allocator@D@2@@std@@IAEXXZ ; std::basic_stringbuf<char,std::char_traits<char>,std::allocator<char> >::_Tidy
PUBLIC	?overflow@?$basic_stringbuf@DU?$char_traits@D@std@@V?$allocator@D@2@@std@@MAEHH@Z ; std::basic_stringbuf<char,std::char_traits<char>,std::allocator<char> >::overflow
PUBLIC	?eq@?$char_traits@D@std@@SA_NABD0@Z		; std::char_traits<char>::eq
PUBLIC	?to_char_type@?$char_traits@D@std@@SADABH@Z	; std::char_traits<char>::to_char_type
PUBLIC	?eq_int_type@?$char_traits@D@std@@SA_NABH0@Z	; std::char_traits<char>::eq_int_type
PUBLIC	?not_eof@?$char_traits@D@std@@SAHABH@Z		; std::char_traits<char>::not_eof
PUBLIC	?pbackfail@?$basic_stringbuf@DU?$char_traits@D@std@@V?$allocator@D@2@@std@@MAEHH@Z ; std::basic_stringbuf<char,std::char_traits<char>,std::allocator<char> >::pbackfail
PUBLIC	?to_int_type@?$char_traits@D@std@@SAHABD@Z	; std::char_traits<char>::to_int_type
PUBLIC	?eof@?$char_traits@D@std@@SAHXZ			; std::char_traits<char>::eof
PUBLIC	?underflow@?$basic_stringbuf@DU?$char_traits@D@std@@V?$allocator@D@2@@std@@MAEHXZ ; std::basic_stringbuf<char,std::char_traits<char>,std::allocator<char> >::underflow
PUBLIC	?seekoff@?$basic_stringbuf@DU?$char_traits@D@std@@V?$allocator@D@2@@std@@MAE?AV?$fpos@H@2@_JHH@Z ; std::basic_stringbuf<char,std::char_traits<char>,std::allocator<char> >::seekoff
PUBLIC	??0?$fpos@H@std@@QAE@_J@Z			; std::fpos<int>::fpos<int>
PUBLIC	??B?$fpos@H@std@@QBE_JXZ			; std::fpos<int>::operator __int64
PUBLIC	?seekpos@?$basic_stringbuf@DU?$char_traits@D@std@@V?$allocator@D@2@@std@@MAE?AV?$fpos@H@2@V32@H@Z ; std::basic_stringbuf<char,std::char_traits<char>,std::allocator<char> >::seekpos
PUBLIC	??_G?$basic_stringbuf@DU?$char_traits@D@std@@V?$allocator@D@2@@std@@UAEPAXI@Z ; std::basic_stringbuf<char,std::char_traits<char>,std::allocator<char> >::`scalar deleting destructor'
PUBLIC	??1?$basic_stringbuf@DU?$char_traits@D@std@@V?$allocator@D@2@@std@@UAE@XZ ; std::basic_stringbuf<char,std::char_traits<char>,std::allocator<char> >::~basic_stringbuf<char,std::char_traits<char>,std::allocator<char> >
PUBLIC	??_G?$basic_ostringstream@DU?$char_traits@D@std@@V?$allocator@D@2@@std@@UAEPAXI@Z ; std::basic_ostringstream<char,std::char_traits<char>,std::allocator<char> >::`scalar deleting destructor'
PUBLIC	??1?$basic_ostringstream@DU?$char_traits@D@std@@V?$allocator@D@2@@std@@UAE@XZ ; std::basic_ostringstream<char,std::char_traits<char>,std::allocator<char> >::~basic_ostringstream<char,std::char_traits<char>,std::allocator<char> >
PUBLIC	??_D?$basic_ostringstream@DU?$char_traits@D@std@@V?$allocator@D@2@@std@@QAEXXZ ; std::basic_ostringstream<char,std::char_traits<char>,std::allocator<char> >::`vbase destructor'
PUBLIC	??0error@dlib@@QAE@ABV01@@Z			; dlib::error::error
PUBLIC	?c_str@?$basic_string@DU?$char_traits@D@std@@V?$allocator@D@2@@std@@QBEPBDXZ ; std::basic_string<char,std::char_traits<char>,std::allocator<char> >::c_str
PUBLIC	?type_to_string@error@dlib@@QBEPBDXZ		; dlib::error::type_to_string
PUBLIC	?what@error@dlib@@UBEPBDXZ			; dlib::error::what
PUBLIC	??_Gerror@dlib@@UAEPAXI@Z			; dlib::error::`scalar deleting destructor'
PUBLIC	??1error@dlib@@UAE@XZ				; dlib::error::~error
PUBLIC	??1cast_to_string_error@dlib@@UAE@XZ		; dlib::cast_to_string_error::~cast_to_string_error
PUBLIC	??_Gcast_to_string_error@dlib@@UAEPAXI@Z	; dlib::cast_to_string_error::`scalar deleting destructor'
PUBLIC	??0cast_to_string_error@dlib@@QAE@ABV01@@Z	; dlib::cast_to_string_error::cast_to_string_error
PUBLIC	??$cast_to_string@E@dlib@@YA?BV?$basic_string@DU?$char_traits@D@std@@V?$allocator@D@2@@std@@ABE@Z ; dlib::cast_to_string<unsigned char>
PUBLIC	??1?$_Vector_val@Uban@Database@@V?$allocator@Uban@Database@@@std@@@std@@QAE@XZ ; std::_Vector_val<Database::ban,std::allocator<Database::ban> >::~_Vector_val<Database::ban,std::allocator<Database::ban> >
PUBLIC	?deallocate@?$allocator@Uban@Database@@@std@@QAEXPAUban@Database@@I@Z ; std::allocator<Database::ban>::deallocate
PUBLIC	??$_Ptr_cat@Uban@Database@@U12@@std@@YA?AU_Nonscalar_ptr_iterator_tag@0@PAUban@Database@@0@Z ; std::_Ptr_cat<Database::ban,Database::ban>
PUBLIC	??1ban@Database@@QAE@XZ				; Database::ban::~ban
PUBLIC	??_Gban@Database@@QAEPAXI@Z			; Database::ban::`scalar deleting destructor'
PUBLIC	??$_Destroy@Uban@Database@@@std@@YAXPAUban@Database@@@Z ; std::_Destroy<Database::ban>
PUBLIC	?destroy@?$allocator@Uban@Database@@@std@@QAEXPAUban@Database@@@Z ; std::allocator<Database::ban>::destroy
PUBLIC	??$_Dest_val@V?$allocator@Uban@Database@@@std@@Uban@Database@@@std@@YAXAAV?$allocator@Uban@Database@@@0@PAUban@Database@@@Z ; std::_Dest_val<std::allocator<Database::ban>,Database::ban>
PUBLIC	??$_Destroy_range@V?$allocator@Uban@Database@@@std@@@std@@YAXPAUban@Database@@0AAV?$allocator@Uban@Database@@@0@U_Nonscalar_ptr_iterator_tag@0@@Z ; std::_Destroy_range<std::allocator<Database::ban> >
PUBLIC	??$_Destroy_range@V?$allocator@Uban@Database@@@std@@@std@@YAXPAUban@Database@@0AAV?$allocator@Uban@Database@@@0@@Z ; std::_Destroy_range<std::allocator<Database::ban> >
PUBLIC	?_Destroy@?$vector@Uban@Database@@V?$allocator@Uban@Database@@@std@@@std@@IAEXPAUban@Database@@0@Z ; std::vector<Database::ban,std::allocator<Database::ban> >::_Destroy
PUBLIC	?_Tidy@?$vector@Uban@Database@@V?$allocator@Uban@Database@@@std@@@std@@IAEXXZ ; std::vector<Database::ban,std::allocator<Database::ban> >::_Tidy
PUBLIC	??1?$vector@Uban@Database@@V?$allocator@Uban@Database@@@std@@@std@@QAE@XZ ; std::vector<Database::ban,std::allocator<Database::ban> >::~vector<Database::ban,std::allocator<Database::ban> >
PUBLIC	?begin@?$vector@Uban@Database@@V?$allocator@Uban@Database@@@std@@@std@@QAE?AV?$_Vector_iterator@V?$_Vector_val@Uban@Database@@V?$allocator@Uban@Database@@@std@@@std@@@2@XZ ; std::vector<Database::ban,std::allocator<Database::ban> >::begin
PUBLIC	??0?$_Vector_const_iterator@V?$_Vector_val@Uban@Database@@V?$allocator@Uban@Database@@@std@@@std@@@std@@QAE@PAUban@Database@@PBU_Container_base0@1@@Z ; std::_Vector_const_iterator<std::_Vector_val<Database::ban,std::allocator<Database::ban> > >::_Vector_const_iterator<std::_Vector_val<Database::ban,std::allocator<Database::ban> > >
PUBLIC	??0?$_Vector_iterator@V?$_Vector_val@Uban@Database@@V?$allocator@Uban@Database@@@std@@@std@@@std@@QAE@PAUban@Database@@PBU_Container_base0@1@@Z ; std::_Vector_iterator<std::_Vector_val<Database::ban,std::allocator<Database::ban> > >::_Vector_iterator<std::_Vector_val<Database::ban,std::allocator<Database::ban> > >
PUBLIC	?end@?$vector@Uban@Database@@V?$allocator@Uban@Database@@@std@@@std@@QAE?AV?$_Vector_iterator@V?$_Vector_val@Uban@Database@@V?$allocator@Uban@Database@@@std@@@std@@@2@XZ ; std::vector<Database::ban,std::allocator<Database::ban> >::end
PUBLIC	??D?$_Vector_const_iterator@V?$_Vector_val@Uban@Database@@V?$allocator@Uban@Database@@@std@@@std@@@std@@QBEABUban@Database@@XZ ; std::_Vector_const_iterator<std::_Vector_val<Database::ban,std::allocator<Database::ban> > >::operator*
PUBLIC	??E?$_Vector_const_iterator@V?$_Vector_val@Uban@Database@@V?$allocator@Uban@Database@@@std@@@std@@@std@@QAEAAV01@XZ ; std::_Vector_const_iterator<std::_Vector_val<Database::ban,std::allocator<Database::ban> > >::operator++
PUBLIC	?_Compat@?$_Vector_const_iterator@V?$_Vector_val@Uban@Database@@V?$allocator@Uban@Database@@@std@@@std@@@std@@QBEXABV12@@Z ; std::_Vector_const_iterator<std::_Vector_val<Database::ban,std::allocator<Database::ban> > >::_Compat
PUBLIC	??8?$_Vector_const_iterator@V?$_Vector_val@Uban@Database@@V?$allocator@Uban@Database@@@std@@@std@@@std@@QBE_NABV01@@Z ; std::_Vector_const_iterator<std::_Vector_val<Database::ban,std::allocator<Database::ban> > >::operator==
PUBLIC	??9?$_Vector_const_iterator@V?$_Vector_val@Uban@Database@@V?$allocator@Uban@Database@@@std@@@std@@@std@@QBE_NABV01@@Z ; std::_Vector_const_iterator<std::_Vector_val<Database::ban,std::allocator<Database::ban> > >::operator!=
PUBLIC	??0?$allocator@V?$basic_string@DU?$char_traits@D@std@@V?$allocator@D@2@@std@@@std@@QAE@XZ ; std::allocator<std::basic_string<char,std::char_traits<char>,std::allocator<char> > >::allocator<std::basic_string<char,std::char_traits<char>,std::allocator<char> > >
PUBLIC	??0?$vector@V?$basic_string@DU?$char_traits@D@std@@V?$allocator@D@2@@std@@V?$allocator@V?$basic_string@DU?$char_traits@D@std@@V?$allocator@D@2@@std@@@2@@std@@QAE@XZ ; std::vector<std::basic_string<char,std::char_traits<char>,std::allocator<char> >,std::allocator<std::basic_string<char,std::char_traits<char>,std::allocator<char> > > >::vector<std::basic_string<char,std::char_traits<char>,std::allocator<char> >,std::allocator<std::basic_string<char,std::char_traits<char>,std::allocator<char> > > >
PUBLIC	??0?$_Vector_val@V?$basic_string@DU?$char_traits@D@std@@V?$allocator@D@2@@std@@V?$allocator@V?$basic_string@DU?$char_traits@D@std@@V?$allocator@D@2@@std@@@2@@std@@QAE@V?$allocator@V?$basic_string@DU?$char_traits@D@std@@V?$allocator@D@2@@std@@@1@@Z ; std::_Vector_val<std::basic_string<char,std::char_traits<char>,std::allocator<char> >,std::allocator<std::basic_string<char,std::char_traits<char>,std::allocator<char> > > >::_Vector_val<std::basic_string<char,std::char_traits<char>,std::allocator<char> >,std::allocator<std::basic_string<char,std::char_traits<char>,std::allocator<char> > > >
PUBLIC	?begin@?$vector@V?$basic_string@DU?$char_traits@D@std@@V?$allocator@D@2@@std@@V?$allocator@V?$basic_string@DU?$char_traits@D@std@@V?$allocator@D@2@@std@@@2@@std@@QBE?AV?$_Vector_const_iterator@V?$_Vector_val@V?$basic_string@DU?$char_traits@D@std@@V?$allocator@D@2@@std@@V?$allocator@V?$basic_string@DU?$char_traits@D@std@@V?$allocator@D@2@@std@@@2@@std@@@2@XZ ; std::vector<std::basic_string<char,std::char_traits<char>,std::allocator<char> >,std::allocator<std::basic_string<char,std::char_traits<char>,std::allocator<char> > > >::begin
PUBLIC	?end@?$vector@V?$basic_string@DU?$char_traits@D@std@@V?$allocator@D@2@@std@@V?$allocator@V?$basic_string@DU?$char_traits@D@std@@V?$allocator@D@2@@std@@@2@@std@@QBE?AV?$_Vector_const_iterator@V?$_Vector_val@V?$basic_string@DU?$char_traits@D@std@@V?$allocator@D@2@@std@@V?$allocator@V?$basic_string@DU?$char_traits@D@std@@V?$allocator@D@2@@std@@@2@@std@@@2@XZ ; std::vector<std::basic_string<char,std::char_traits<char>,std::allocator<char> >,std::allocator<std::basic_string<char,std::char_traits<char>,std::allocator<char> > > >::end
PUBLIC	?_Buy@?$vector@V?$basic_string@DU?$char_traits@D@std@@V?$allocator@D@2@@std@@V?$allocator@V?$basic_string@DU?$char_traits@D@std@@V?$allocator@D@2@@std@@@2@@std@@IAE_NI@Z ; std::vector<std::basic_string<char,std::char_traits<char>,std::allocator<char> >,std::allocator<std::basic_string<char,std::char_traits<char>,std::allocator<char> > > >::_Buy
PUBLIC	??$_Ptr_cat@V?$_Vector_const_iterator@V?$_Vector_val@V?$basic_string@DU?$char_traits@D@std@@V?$allocator@D@2@@std@@V?$allocator@V?$basic_string@DU?$char_traits@D@std@@V?$allocator@D@2@@std@@@2@@std@@@std@@PAV?$basic_string@DU?$char_traits@D@std@@V?$allocator@D@2@@2@@std@@YA?AU_Nonscalar_ptr_iterator_tag@0@AAV?$_Vector_const_iterator@V?$_Vector_val@V?$basic_string@DU?$char_traits@D@std@@V?$allocator@D@2@@std@@V?$allocator@V?$basic_string@DU?$char_traits@D@std@@V?$allocator@D@2@@std@@@2@@std@@@0@AAPAV?$basic_string@DU?$char_traits@D@std@@V?$allocator@D@2@@0@@Z ; std::_Ptr_cat<std::_Vector_const_iterator<std::_Vector_val<std::basic_string<char,std::char_traits<char>,std::allocator<char> >,std::allocator<std::basic_string<char,std::char_traits<char>,std::allocator<char> > > > >,std::basic_string<char,std::char_traits<char>,std::allocator<char> > *>
PUBLIC	??$_Uninit_copy@V?$_Vector_const_iterator@V?$_Vector_val@V?$basic_string@DU?$char_traits@D@std@@V?$allocator@D@2@@std@@V?$allocator@V?$basic_string@DU?$char_traits@D@std@@V?$allocator@D@2@@std@@@2@@std@@@std@@PAV?$basic_string@DU?$char_traits@D@std@@V?$allocator@D@2@@2@V?$allocator@V?$basic_string@DU?$char_traits@D@std@@V?$allocator@D@2@@std@@@2@@std@@YAPAV?$basic_string@DU?$char_traits@D@std@@V?$allocator@D@2@@0@V?$_Vector_const_iterator@V?$_Vector_val@V?$basic_string@DU?$char_traits@D@std@@V?$allocator@D@2@@std@@V?$allocator@V?$basic_string@DU?$char_traits@D@std@@V?$allocator@D@2@@std@@@2@@std@@@0@0PAV10@AAV?$allocator@V?$basic_string@DU?$char_traits@D@std@@V?$allocator@D@2@@std@@@0@U_Nonscalar_ptr_iterator_tag@0@@Z ; std::_Uninit_copy<std::_Vector_const_iterator<std::_Vector_val<std::basic_string<char,std::char_traits<char>,std::allocator<char> >,std::allocator<std::basic_string<char,std::char_traits<char>,std::allocator<char> > > > >,std::basic_string<char,std::char_traits<char>,std::allocator<char> > *,std::allocator<std::basic_string<char,std::char_traits<char>,std::allocator<char> > > >
PUBLIC	??$_Uninitialized_copy@V?$_Vector_const_iterator@V?$_Vector_val@V?$basic_string@DU?$char_traits@D@std@@V?$allocator@D@2@@std@@V?$allocator@V?$basic_string@DU?$char_traits@D@std@@V?$allocator@D@2@@std@@@2@@std@@@std@@PAV?$basic_string@DU?$char_traits@D@std@@V?$allocator@D@2@@2@V?$allocator@V?$basic_string@DU?$char_traits@D@std@@V?$allocator@D@2@@std@@@2@@std@@YAPAV?$basic_string@DU?$char_traits@D@std@@V?$allocator@D@2@@0@V?$_Vector_const_iterator@V?$_Vector_val@V?$basic_string@DU?$char_traits@D@std@@V?$allocator@D@2@@std@@V?$allocator@V?$basic_string@DU?$char_traits@D@std@@V?$allocator@D@2@@std@@@2@@std@@@0@0PAV10@AAV?$allocator@V?$basic_string@DU?$char_traits@D@std@@V?$allocator@D@2@@std@@@0@@Z ; std::_Uninitialized_copy<std::_Vector_const_iterator<std::_Vector_val<std::basic_string<char,std::char_traits<char>,std::allocator<char> >,std::allocator<std::basic_string<char,std::char_traits<char>,std::allocator<char> > > > >,std::basic_string<char,std::char_traits<char>,std::allocator<char> > *,std::allocator<std::basic_string<char,std::char_traits<char>,std::allocator<char> > > >
PUBLIC	??$_Ucopy@V?$_Vector_const_iterator@V?$_Vector_val@V?$basic_string@DU?$char_traits@D@std@@V?$allocator@D@2@@std@@V?$allocator@V?$basic_string@DU?$char_traits@D@std@@V?$allocator@D@2@@std@@@2@@std@@@std@@@?$vector@V?$basic_string@DU?$char_traits@D@std@@V?$allocator@D@2@@std@@V?$allocator@V?$basic_string@DU?$char_traits@D@std@@V?$allocator@D@2@@std@@@2@@std@@IAEPAV?$basic_string@DU?$char_traits@D@std@@V?$allocator@D@2@@1@V?$_Vector_const_iterator@V?$_Vector_val@V?$basic_string@DU?$char_traits@D@std@@V?$allocator@D@2@@std@@V?$allocator@V?$basic_string@DU?$char_traits@D@std@@V?$allocator@D@2@@std@@@2@@std@@@1@0PAV21@@Z ; std::vector<std::basic_string<char,std::char_traits<char>,std::allocator<char> >,std::allocator<std::basic_string<char,std::char_traits<char>,std::allocator<char> > > >::_Ucopy<std::_Vector_const_iterator<std::_Vector_val<std::basic_string<char,std::char_traits<char>,std::allocator<char> >,std::allocator<std::basic_string<char,std::char_traits<char>,std::allocator<char> > > > > >
PUBLIC	??0?$vector@V?$basic_string@DU?$char_traits@D@std@@V?$allocator@D@2@@std@@V?$allocator@V?$basic_string@DU?$char_traits@D@std@@V?$allocator@D@2@@std@@@2@@std@@QAE@ABV01@@Z ; std::vector<std::basic_string<char,std::char_traits<char>,std::allocator<char> >,std::allocator<std::basic_string<char,std::char_traits<char>,std::allocator<char> > > >::vector<std::basic_string<char,std::char_traits<char>,std::allocator<char> >,std::allocator<std::basic_string<char,std::char_traits<char>,std::allocator<char> > > >
PUBLIC	??$addressof@V?$basic_string@DU?$char_traits@D@std@@V?$allocator@D@2@@std@@@std@@YAPAV?$basic_string@DU?$char_traits@D@std@@V?$allocator@D@2@@0@AAV10@@Z ; std::addressof<std::basic_string<char,std::char_traits<char>,std::allocator<char> > >
PUBLIC	?push_back@?$vector@V?$basic_string@DU?$char_traits@D@std@@V?$allocator@D@2@@std@@V?$allocator@V?$basic_string@DU?$char_traits@D@std@@V?$allocator@D@2@@std@@@2@@std@@QAEX$$QAV?$basic_string@DU?$char_traits@D@std@@V?$allocator@D@2@@2@@Z ; std::vector<std::basic_string<char,std::char_traits<char>,std::allocator<char> >,std::allocator<std::basic_string<char,std::char_traits<char>,std::allocator<char> > > >::push_back
PUBLIC	??0?$allocator@V?$basic_string@DU?$char_traits@D@std@@V?$allocator@D@2@@std@@@std@@QAE@ABV01@@Z ; std::allocator<std::basic_string<char,std::char_traits<char>,std::allocator<char> > >::allocator<std::basic_string<char,std::char_traits<char>,std::allocator<char> > >
PUBLIC	?get_allocator@?$vector@V?$basic_string@DU?$char_traits@D@std@@V?$allocator@D@2@@std@@V?$allocator@V?$basic_string@DU?$char_traits@D@std@@V?$allocator@D@2@@std@@@2@@std@@QBE?AV?$allocator@V?$basic_string@DU?$char_traits@D@std@@V?$allocator@D@2@@std@@@2@XZ ; std::vector<std::basic_string<char,std::char_traits<char>,std::allocator<char> >,std::allocator<std::basic_string<char,std::char_traits<char>,std::allocator<char> > > >::get_allocator
PUBLIC	??D?$_Vector_iterator@V?$_Vector_val@V?$basic_string@DU?$char_traits@D@std@@V?$allocator@D@2@@std@@V?$allocator@V?$basic_string@DU?$char_traits@D@std@@V?$allocator@D@2@@std@@@2@@std@@@std@@QBEAAV?$basic_string@DU?$char_traits@D@std@@V?$allocator@D@2@@1@XZ ; std::_Vector_iterator<std::_Vector_val<std::basic_string<char,std::char_traits<char>,std::allocator<char> >,std::allocator<std::basic_string<char,std::char_traits<char>,std::allocator<char> > > > >::operator*
PUBLIC	??E?$_Vector_iterator@V?$_Vector_val@V?$basic_string@DU?$char_traits@D@std@@V?$allocator@D@2@@std@@V?$allocator@V?$basic_string@DU?$char_traits@D@std@@V?$allocator@D@2@@std@@@2@@std@@@std@@QAEAAV01@XZ ; std::_Vector_iterator<std::_Vector_val<std::basic_string<char,std::char_traits<char>,std::allocator<char> >,std::allocator<std::basic_string<char,std::char_traits<char>,std::allocator<char> > > > >::operator++
PUBLIC	??$?8V?$basic_string@DU?$char_traits@D@std@@V?$allocator@D@2@@std@@V01@@std@@YA_NABV?$allocator@V?$basic_string@DU?$char_traits@D@std@@V?$allocator@D@2@@std@@@0@0@Z ; std::operator==<std::basic_string<char,std::char_traits<char>,std::allocator<char> >,std::basic_string<char,std::char_traits<char>,std::allocator<char> > >
PUBLIC	??$?9V?$basic_string@DU?$char_traits@D@std@@V?$allocator@D@2@@std@@V01@@std@@YA_NABV?$allocator@V?$basic_string@DU?$char_traits@D@std@@V?$allocator@D@2@@std@@@0@0@Z ; std::operator!=<std::basic_string<char,std::char_traits<char>,std::allocator<char> >,std::basic_string<char,std::char_traits<char>,std::allocator<char> > >
PUBLIC	?_Assign_rv@?$vector@V?$basic_string@DU?$char_traits@D@std@@V?$allocator@D@2@@std@@V?$allocator@V?$basic_string@DU?$char_traits@D@std@@V?$allocator@D@2@@std@@@2@@std@@QAEX$$QAV12@@Z ; std::vector<std::basic_string<char,std::char_traits<char>,std::allocator<char> >,std::allocator<std::basic_string<char,std::char_traits<char>,std::allocator<char> > > >::_Assign_rv
PUBLIC	??$forward@V?$vector@V?$basic_string@DU?$char_traits@D@std@@V?$allocator@D@2@@std@@V?$allocator@V?$basic_string@DU?$char_traits@D@std@@V?$allocator@D@2@@std@@@2@@std@@@std@@YA$$QAV?$vector@V?$basic_string@DU?$char_traits@D@std@@V?$allocator@D@2@@std@@V?$allocator@V?$basic_string@DU?$char_traits@D@std@@V?$allocator@D@2@@std@@@2@@0@AAV10@@Z ; std::forward<std::vector<std::basic_string<char,std::char_traits<char>,std::allocator<char> >,std::allocator<std::basic_string<char,std::char_traits<char>,std::allocator<char> > > > >
PUBLIC	??4?$vector@V?$basic_string@DU?$char_traits@D@std@@V?$allocator@D@2@@std@@V?$allocator@V?$basic_string@DU?$char_traits@D@std@@V?$allocator@D@2@@std@@@2@@std@@QAEAAV01@$$QAV01@@Z ; std::vector<std::basic_string<char,std::char_traits<char>,std::allocator<char> >,std::allocator<std::basic_string<char,std::char_traits<char>,std::allocator<char> > > >::operator=
PUBLIC	?clear@?$vector@V?$basic_string@DU?$char_traits@D@std@@V?$allocator@D@2@@std@@V?$allocator@V?$basic_string@DU?$char_traits@D@std@@V?$allocator@D@2@@std@@@2@@std@@QAEXXZ ; std::vector<std::basic_string<char,std::char_traits<char>,std::allocator<char> >,std::allocator<std::basic_string<char,std::char_traits<char>,std::allocator<char> > > >::clear
PUBLIC	??0?$allocator@Ustruct_chat@Battlefield@@@std@@QAE@ABV01@@Z ; std::allocator<Battlefield::struct_chat>::allocator<Battlefield::struct_chat>
PUBLIC	??$?0Ustruct_chat@Battlefield@@@?$allocator@U_Node@?$_List_nod@Ustruct_chat@Battlefield@@V?$allocator@Ustruct_chat@Battlefield@@@std@@@std@@@std@@QAE@ABV?$allocator@Ustruct_chat@Battlefield@@@1@@Z ; std::allocator<std::_List_nod<Battlefield::struct_chat,std::allocator<Battlefield::struct_chat> >::_Node>::allocator<std::_List_nod<Battlefield::struct_chat,std::allocator<Battlefield::struct_chat> >::_Node><Battlefield::struct_chat>
PUBLIC	??0?$_List_nod@Ustruct_chat@Battlefield@@V?$allocator@Ustruct_chat@Battlefield@@@std@@@std@@QAE@V?$allocator@Ustruct_chat@Battlefield@@@1@@Z ; std::_List_nod<Battlefield::struct_chat,std::allocator<Battlefield::struct_chat> >::_List_nod<Battlefield::struct_chat,std::allocator<Battlefield::struct_chat> >
PUBLIC	??0?$_List_val@Ustruct_chat@Battlefield@@V?$allocator@Ustruct_chat@Battlefield@@@std@@@std@@QAE@V?$allocator@Ustruct_chat@Battlefield@@@1@@Z ; std::_List_val<Battlefield::struct_chat,std::allocator<Battlefield::struct_chat> >::_List_val<Battlefield::struct_chat,std::allocator<Battlefield::struct_chat> >
PUBLIC	?begin@?$list@Ustruct_chat@Battlefield@@V?$allocator@Ustruct_chat@Battlefield@@@std@@@std@@QAE?AV?$_List_iterator@V?$_List_val@Ustruct_chat@Battlefield@@V?$allocator@Ustruct_chat@Battlefield@@@std@@@std@@@2@XZ ; std::list<Battlefield::struct_chat,std::allocator<Battlefield::struct_chat> >::begin
PUBLIC	?begin@?$list@Ustruct_chat@Battlefield@@V?$allocator@Ustruct_chat@Battlefield@@@std@@@std@@QBE?AV?$_List_const_iterator@V?$_List_val@Ustruct_chat@Battlefield@@V?$allocator@Ustruct_chat@Battlefield@@@std@@@std@@@2@XZ ; std::list<Battlefield::struct_chat,std::allocator<Battlefield::struct_chat> >::begin
PUBLIC	?end@?$list@Ustruct_chat@Battlefield@@V?$allocator@Ustruct_chat@Battlefield@@@std@@@std@@QBE?AV?$_List_const_iterator@V?$_List_val@Ustruct_chat@Battlefield@@V?$allocator@Ustruct_chat@Battlefield@@@std@@@std@@@2@XZ ; std::list<Battlefield::struct_chat,std::allocator<Battlefield::struct_chat> >::end
PUBLIC	??$_Iter_cat@V?$_List_const_iterator@V?$_List_val@Ustruct_chat@Battlefield@@V?$allocator@Ustruct_chat@Battlefield@@@std@@@std@@@std@@@std@@YA?AUbidirectional_iterator_tag@0@ABV?$_List_const_iterator@V?$_List_val@Ustruct_chat@Battlefield@@V?$allocator@Ustruct_chat@Battlefield@@@std@@@std@@@0@@Z ; std::_Iter_cat<std::_List_const_iterator<std::_List_val<Battlefield::struct_chat,std::allocator<Battlefield::struct_chat> > > >
PUBLIC	??$_Allocate@U_Node@?$_List_nod@Ustruct_chat@Battlefield@@V?$allocator@Ustruct_chat@Battlefield@@@std@@@std@@@std@@YAPAU_Node@?$_List_nod@Ustruct_chat@Battlefield@@V?$allocator@Ustruct_chat@Battlefield@@@std@@@0@IPAU120@@Z ; std::_Allocate<std::_List_nod<Battlefield::struct_chat,std::allocator<Battlefield::struct_chat> >::_Node>
PUBLIC	?allocate@?$allocator@U_Node@?$_List_nod@Ustruct_chat@Battlefield@@V?$allocator@Ustruct_chat@Battlefield@@@std@@@std@@@std@@QAEPAU_Node@?$_List_nod@Ustruct_chat@Battlefield@@V?$allocator@Ustruct_chat@Battlefield@@@std@@@2@I@Z ; std::allocator<std::_List_nod<Battlefield::struct_chat,std::allocator<Battlefield::struct_chat> >::_Node>::allocate
PUBLIC	??$addressof@Ustruct_chat@Battlefield@@@std@@YAPAUstruct_chat@Battlefield@@AAU12@@Z ; std::addressof<Battlefield::struct_chat>
PUBLIC	??0struct_chat@Battlefield@@QAE@ABU01@@Z	; Battlefield::struct_chat::struct_chat
PUBLIC	??$_Construct@Ustruct_chat@Battlefield@@ABU12@@std@@YAXPAUstruct_chat@Battlefield@@ABU12@@Z ; std::_Construct<Battlefield::struct_chat,Battlefield::struct_chat const &>
PUBLIC	?construct@?$allocator@Ustruct_chat@Battlefield@@@std@@QAEXPAUstruct_chat@Battlefield@@ABU34@@Z ; std::allocator<Battlefield::struct_chat>::construct
PUBLIC	??$forward@ABUstruct_chat@Battlefield@@@std@@YAABUstruct_chat@Battlefield@@ABU12@@Z ; std::forward<Battlefield::struct_chat const &>
PUBLIC	??$_Cons_val@V?$allocator@Ustruct_chat@Battlefield@@@std@@Ustruct_chat@Battlefield@@ABU34@@std@@YAXAAV?$allocator@Ustruct_chat@Battlefield@@@0@PAUstruct_chat@Battlefield@@ABU23@@Z ; std::_Cons_val<std::allocator<Battlefield::struct_chat>,Battlefield::struct_chat,Battlefield::struct_chat const &>
PUBLIC	?_Buynode@?$_List_val@Ustruct_chat@Battlefield@@V?$allocator@Ustruct_chat@Battlefield@@@std@@@std@@QAEPAU_Node@?$_List_nod@Ustruct_chat@Battlefield@@V?$allocator@Ustruct_chat@Battlefield@@@std@@@2@PAU342@0ABUstruct_chat@Battlefield@@@Z ; std::_List_val<Battlefield::struct_chat,std::allocator<Battlefield::struct_chat> >::_Buynode
PUBLIC	?max_size@?$allocator@Ustruct_chat@Battlefield@@@std@@QBEIXZ ; std::allocator<Battlefield::struct_chat>::max_size
PUBLIC	?max_size@?$list@Ustruct_chat@Battlefield@@V?$allocator@Ustruct_chat@Battlefield@@@std@@@std@@QBEIXZ ; std::list<Battlefield::struct_chat,std::allocator<Battlefield::struct_chat> >::max_size
PUBLIC	?_Incsize@?$list@Ustruct_chat@Battlefield@@V?$allocator@Ustruct_chat@Battlefield@@@std@@@std@@QAEXI@Z ; std::list<Battlefield::struct_chat,std::allocator<Battlefield::struct_chat> >::_Incsize
PUBLIC	?_Insert@?$list@Ustruct_chat@Battlefield@@V?$allocator@Ustruct_chat@Battlefield@@@std@@@std@@QAEXV?$_List_const_iterator@V?$_List_val@Ustruct_chat@Battlefield@@V?$allocator@Ustruct_chat@Battlefield@@@std@@@std@@@2@ABUstruct_chat@Battlefield@@@Z ; std::list<Battlefield::struct_chat,std::allocator<Battlefield::struct_chat> >::_Insert
PUBLIC	??0?$_List_unchecked_const_iterator@V?$_List_val@Ustruct_chat@Battlefield@@V?$allocator@Ustruct_chat@Battlefield@@@std@@@std@@U_Iterator_base0@2@@std@@QAE@PAU_Node@?$_List_nod@Ustruct_chat@Battlefield@@V?$allocator@Ustruct_chat@Battlefield@@@std@@@1@PBV?$_List_val@Ustruct_chat@Battlefield@@V?$allocator@Ustruct_chat@Battlefield@@@std@@@1@@Z ; std::_List_unchecked_const_iterator<std::_List_val<Battlefield::struct_chat,std::allocator<Battlefield::struct_chat> >,std::_Iterator_base0>::_List_unchecked_const_iterator<std::_List_val<Battlefield::struct_chat,std::allocator<Battlefield::struct_chat> >,std::_Iterator_base0>
PUBLIC	??0?$_List_const_iterator@V?$_List_val@Ustruct_chat@Battlefield@@V?$allocator@Ustruct_chat@Battlefield@@@std@@@std@@@std@@QAE@PAU_Node@?$_List_nod@Ustruct_chat@Battlefield@@V?$allocator@Ustruct_chat@Battlefield@@@std@@@1@PBV?$_List_val@Ustruct_chat@Battlefield@@V?$allocator@Ustruct_chat@Battlefield@@@std@@@1@@Z ; std::_List_const_iterator<std::_List_val<Battlefield::struct_chat,std::allocator<Battlefield::struct_chat> > >::_List_const_iterator<std::_List_val<Battlefield::struct_chat,std::allocator<Battlefield::struct_chat> > >
PUBLIC	??0?$_List_iterator@V?$_List_val@Ustruct_chat@Battlefield@@V?$allocator@Ustruct_chat@Battlefield@@@std@@@std@@@std@@QAE@PAU_Node@?$_List_nod@Ustruct_chat@Battlefield@@V?$allocator@Ustruct_chat@Battlefield@@@std@@@1@PBV?$_List_val@Ustruct_chat@Battlefield@@V?$allocator@Ustruct_chat@Battlefield@@@std@@@1@@Z ; std::_List_iterator<std::_List_val<Battlefield::struct_chat,std::allocator<Battlefield::struct_chat> > >::_List_iterator<std::_List_val<Battlefield::struct_chat,std::allocator<Battlefield::struct_chat> > >
PUBLIC	?_Make_iter@?$list@Ustruct_chat@Battlefield@@V?$allocator@Ustruct_chat@Battlefield@@@std@@@std@@QBE?AV?$_List_iterator@V?$_List_val@Ustruct_chat@Battlefield@@V?$allocator@Ustruct_chat@Battlefield@@@std@@@std@@@2@V?$_List_const_iterator@V?$_List_val@Ustruct_chat@Battlefield@@V?$allocator@Ustruct_chat@Battlefield@@@std@@@std@@@2@@Z ; std::list<Battlefield::struct_chat,std::allocator<Battlefield::struct_chat> >::_Make_iter
PUBLIC	?_Mynode@?$_List_unchecked_const_iterator@V?$_List_val@Ustruct_chat@Battlefield@@V?$allocator@Ustruct_chat@Battlefield@@@std@@@std@@U_Iterator_base0@2@@std@@QBEPAU_Node@?$_List_nod@Ustruct_chat@Battlefield@@V?$allocator@Ustruct_chat@Battlefield@@@std@@@2@XZ ; std::_List_unchecked_const_iterator<std::_List_val<Battlefield::struct_chat,std::allocator<Battlefield::struct_chat> >,std::_Iterator_base0>::_Mynode
PUBLIC	??E?$_List_const_iterator@V?$_List_val@Ustruct_chat@Battlefield@@V?$allocator@Ustruct_chat@Battlefield@@@std@@@std@@@std@@QAE?AV01@H@Z ; std::_List_const_iterator<std::_List_val<Battlefield::struct_chat,std::allocator<Battlefield::struct_chat> > >::operator++
PUBLIC	?erase@?$list@Ustruct_chat@Battlefield@@V?$allocator@Ustruct_chat@Battlefield@@@std@@@std@@QAE?AV?$_List_iterator@V?$_List_val@Ustruct_chat@Battlefield@@V?$allocator@Ustruct_chat@Battlefield@@@std@@@std@@@2@V?$_List_const_iterator@V?$_List_val@Ustruct_chat@Battlefield@@V?$allocator@Ustruct_chat@Battlefield@@@std@@@std@@@2@@Z ; std::list<Battlefield::struct_chat,std::allocator<Battlefield::struct_chat> >::erase
PUBLIC	?_Myval@?$_List_val@Ustruct_chat@Battlefield@@V?$allocator@Ustruct_chat@Battlefield@@@std@@@std@@SAAAUstruct_chat@Battlefield@@PAU_Node@?$_List_nod@Ustruct_chat@Battlefield@@V?$allocator@Ustruct_chat@Battlefield@@@std@@@2@@Z ; std::_List_val<Battlefield::struct_chat,std::allocator<Battlefield::struct_chat> >::_Myval
PUBLIC	??D?$_List_const_iterator@V?$_List_val@Ustruct_chat@Battlefield@@V?$allocator@Ustruct_chat@Battlefield@@@std@@@std@@@std@@QBEABUstruct_chat@Battlefield@@XZ ; std::_List_const_iterator<std::_List_val<Battlefield::struct_chat,std::allocator<Battlefield::struct_chat> > >::operator*
PUBLIC	??E?$_List_const_iterator@V?$_List_val@Ustruct_chat@Battlefield@@V?$allocator@Ustruct_chat@Battlefield@@@std@@@std@@@std@@QAEAAV01@XZ ; std::_List_const_iterator<std::_List_val<Battlefield::struct_chat,std::allocator<Battlefield::struct_chat> > >::operator++
PUBLIC	??F?$_List_const_iterator@V?$_List_val@Ustruct_chat@Battlefield@@V?$allocator@Ustruct_chat@Battlefield@@@std@@@std@@@std@@QAEAAV01@XZ ; std::_List_const_iterator<std::_List_val<Battlefield::struct_chat,std::allocator<Battlefield::struct_chat> > >::operator--
PUBLIC	??8?$_List_const_iterator@V?$_List_val@Ustruct_chat@Battlefield@@V?$allocator@Ustruct_chat@Battlefield@@@std@@@std@@@std@@QBE_NABV01@@Z ; std::_List_const_iterator<std::_List_val<Battlefield::struct_chat,std::allocator<Battlefield::struct_chat> > >::operator==
PUBLIC	??9?$_List_const_iterator@V?$_List_val@Ustruct_chat@Battlefield@@V?$allocator@Ustruct_chat@Battlefield@@@std@@@std@@@std@@QBE_NABV01@@Z ; std::_List_const_iterator<std::_List_val<Battlefield::struct_chat,std::allocator<Battlefield::struct_chat> > >::operator!=
PUBLIC	??$_Insert@V?$_List_const_iterator@V?$_List_val@Ustruct_chat@Battlefield@@V?$allocator@Ustruct_chat@Battlefield@@@std@@@std@@@std@@@?$list@Ustruct_chat@Battlefield@@V?$allocator@Ustruct_chat@Battlefield@@@std@@@std@@QAEXV?$_List_const_iterator@V?$_List_val@Ustruct_chat@Battlefield@@V?$allocator@Ustruct_chat@Battlefield@@@std@@@std@@@1@00Uforward_iterator_tag@1@@Z ; std::list<Battlefield::struct_chat,std::allocator<Battlefield::struct_chat> >::_Insert<std::_List_const_iterator<std::_List_val<Battlefield::struct_chat,std::allocator<Battlefield::struct_chat> > > >
PUBLIC	??$insert@V?$_List_const_iterator@V?$_List_val@Ustruct_chat@Battlefield@@V?$allocator@Ustruct_chat@Battlefield@@@std@@@std@@@std@@@?$list@Ustruct_chat@Battlefield@@V?$allocator@Ustruct_chat@Battlefield@@@std@@@std@@QAEXV?$_List_const_iterator@V?$_List_val@Ustruct_chat@Battlefield@@V?$allocator@Ustruct_chat@Battlefield@@@std@@@std@@@1@00@Z ; std::list<Battlefield::struct_chat,std::allocator<Battlefield::struct_chat> >::insert<std::_List_const_iterator<std::_List_val<Battlefield::struct_chat,std::allocator<Battlefield::struct_chat> > > >
PUBLIC	??0?$list@Ustruct_chat@Battlefield@@V?$allocator@Ustruct_chat@Battlefield@@@std@@@std@@QAE@ABV01@@Z ; std::list<Battlefield::struct_chat,std::allocator<Battlefield::struct_chat> >::list<Battlefield::struct_chat,std::allocator<Battlefield::struct_chat> >
PUBLIC	??1?$_List_val@Ustruct_chat@Battlefield@@V?$allocator@Ustruct_chat@Battlefield@@@std@@@std@@QAE@XZ ; std::_List_val<Battlefield::struct_chat,std::allocator<Battlefield::struct_chat> >::~_List_val<Battlefield::struct_chat,std::allocator<Battlefield::struct_chat> >
PUBLIC	?deallocate@?$allocator@U_Node@?$_List_nod@Ustruct_chat@Battlefield@@V?$allocator@Ustruct_chat@Battlefield@@@std@@@std@@@std@@QAEXPAU_Node@?$_List_nod@Ustruct_chat@Battlefield@@V?$allocator@Ustruct_chat@Battlefield@@@std@@@2@I@Z ; std::allocator<std::_List_nod<Battlefield::struct_chat,std::allocator<Battlefield::struct_chat> >::_Node>::deallocate
PUBLIC	?_Nextnode@?$_List_val@Ustruct_chat@Battlefield@@V?$allocator@Ustruct_chat@Battlefield@@@std@@@std@@SAAAPAU_Node@?$_List_nod@Ustruct_chat@Battlefield@@V?$allocator@Ustruct_chat@Battlefield@@@std@@@2@PAU342@@Z ; std::_List_val<Battlefield::struct_chat,std::allocator<Battlefield::struct_chat> >::_Nextnode
PUBLIC	?_Prevnode@?$_List_val@Ustruct_chat@Battlefield@@V?$allocator@Ustruct_chat@Battlefield@@@std@@@std@@SAAAPAU_Node@?$_List_nod@Ustruct_chat@Battlefield@@V?$allocator@Ustruct_chat@Battlefield@@@std@@@2@PAU342@@Z ; std::_List_val<Battlefield::struct_chat,std::allocator<Battlefield::struct_chat> >::_Prevnode
PUBLIC	??1struct_chat@Battlefield@@QAE@XZ		; Battlefield::struct_chat::~struct_chat
PUBLIC	??1_Node@?$_List_nod@Ustruct_chat@Battlefield@@V?$allocator@Ustruct_chat@Battlefield@@@std@@@std@@QAE@XZ ; std::_List_nod<Battlefield::struct_chat,std::allocator<Battlefield::struct_chat> >::_Node::~_Node
PUBLIC	??_G_Node@?$_List_nod@Ustruct_chat@Battlefield@@V?$allocator@Ustruct_chat@Battlefield@@@std@@@std@@QAEPAXI@Z ; std::_List_nod<Battlefield::struct_chat,std::allocator<Battlefield::struct_chat> >::_Node::`scalar deleting destructor'
PUBLIC	??$_Destroy@U_Node@?$_List_nod@Ustruct_chat@Battlefield@@V?$allocator@Ustruct_chat@Battlefield@@@std@@@std@@@std@@YAXPAU_Node@?$_List_nod@Ustruct_chat@Battlefield@@V?$allocator@Ustruct_chat@Battlefield@@@std@@@0@@Z ; std::_Destroy<std::_List_nod<Battlefield::struct_chat,std::allocator<Battlefield::struct_chat> >::_Node>
PUBLIC	?destroy@?$allocator@U_Node@?$_List_nod@Ustruct_chat@Battlefield@@V?$allocator@Ustruct_chat@Battlefield@@@std@@@std@@@std@@QAEXPAU_Node@?$_List_nod@Ustruct_chat@Battlefield@@V?$allocator@Ustruct_chat@Battlefield@@@std@@@2@@Z ; std::allocator<std::_List_nod<Battlefield::struct_chat,std::allocator<Battlefield::struct_chat> >::_Node>::destroy
PUBLIC	??$_Dest_val@V?$allocator@U_Node@?$_List_nod@Ustruct_chat@Battlefield@@V?$allocator@Ustruct_chat@Battlefield@@@std@@@std@@@std@@U_Node@?$_List_nod@Ustruct_chat@Battlefield@@V?$allocator@Ustruct_chat@Battlefield@@@std@@@2@@std@@YAXAAV?$allocator@U_Node@?$_List_nod@Ustruct_chat@Battlefield@@V?$allocator@Ustruct_chat@Battlefield@@@std@@@std@@@0@PAU_Node@?$_List_nod@Ustruct_chat@Battlefield@@V?$allocator@Ustruct_chat@Battlefield@@@std@@@0@@Z ; std::_Dest_val<std::allocator<std::_List_nod<Battlefield::struct_chat,std::allocator<Battlefield::struct_chat> >::_Node>,std::_List_nod<Battlefield::struct_chat,std::allocator<Battlefield::struct_chat> >::_Node>
PUBLIC	?clear@?$list@Ustruct_chat@Battlefield@@V?$allocator@Ustruct_chat@Battlefield@@@std@@@std@@QAEXXZ ; std::list<Battlefield::struct_chat,std::allocator<Battlefield::struct_chat> >::clear
PUBLIC	?_Tidy@?$list@Ustruct_chat@Battlefield@@V?$allocator@Ustruct_chat@Battlefield@@@std@@@std@@QAEXXZ ; std::list<Battlefield::struct_chat,std::allocator<Battlefield::struct_chat> >::_Tidy
PUBLIC	??1?$list@Ustruct_chat@Battlefield@@V?$allocator@Ustruct_chat@Battlefield@@@std@@@std@@QAE@XZ ; std::list<Battlefield::struct_chat,std::allocator<Battlefield::struct_chat> >::~list<Battlefield::struct_chat,std::allocator<Battlefield::struct_chat> >
PUBLIC	??0?$allocator@D@std@@QAE@XZ			; std::allocator<char>::allocator<char>
PUBLIC	?length@?$char_traits@D@std@@SAIPBD@Z		; std::char_traits<char>::length
PUBLIC	?_Inside@?$basic_string@DU?$char_traits@D@std@@V?$allocator@D@2@@std@@QAE_NPBD@Z ; std::basic_string<char,std::char_traits<char>,std::allocator<char> >::_Inside
PUBLIC	?assign@?$basic_string@DU?$char_traits@D@std@@V?$allocator@D@2@@std@@QAEAAV12@PBDI@Z ; std::basic_string<char,std::char_traits<char>,std::allocator<char> >::assign
PUBLIC	?assign@?$basic_string@DU?$char_traits@D@std@@V?$allocator@D@2@@std@@QAEAAV12@PBD@Z ; std::basic_string<char,std::char_traits<char>,std::allocator<char> >::assign
PUBLIC	??0?$basic_string@DU?$char_traits@D@std@@V?$allocator@D@2@@std@@QAE@PBD@Z ; std::basic_string<char,std::char_traits<char>,std::allocator<char> >::basic_string<char,std::char_traits<char>,std::allocator<char> >
PUBLIC	??1?$_Vector_val@V?$basic_string@DU?$char_traits@D@std@@V?$allocator@D@2@@std@@V?$allocator@V?$basic_string@DU?$char_traits@D@std@@V?$allocator@D@2@@std@@@2@@std@@QAE@XZ ; std::_Vector_val<std::basic_string<char,std::char_traits<char>,std::allocator<char> >,std::allocator<std::basic_string<char,std::char_traits<char>,std::allocator<char> > > >::~_Vector_val<std::basic_string<char,std::char_traits<char>,std::allocator<char> >,std::allocator<std::basic_string<char,std::char_traits<char>,std::allocator<char> > > >
PUBLIC	?_Tidy@?$vector@V?$basic_string@DU?$char_traits@D@std@@V?$allocator@D@2@@std@@V?$allocator@V?$basic_string@DU?$char_traits@D@std@@V?$allocator@D@2@@std@@@2@@std@@IAEXXZ ; std::vector<std::basic_string<char,std::char_traits<char>,std::allocator<char> >,std::allocator<std::basic_string<char,std::char_traits<char>,std::allocator<char> > > >::_Tidy
PUBLIC	??1?$vector@V?$basic_string@DU?$char_traits@D@std@@V?$allocator@D@2@@std@@V?$allocator@V?$basic_string@DU?$char_traits@D@std@@V?$allocator@D@2@@std@@@2@@std@@QAE@XZ ; std::vector<std::basic_string<char,std::char_traits<char>,std::allocator<char> >,std::allocator<std::basic_string<char,std::char_traits<char>,std::allocator<char> > > >::~vector<std::basic_string<char,std::char_traits<char>,std::allocator<char> >,std::allocator<std::basic_string<char,std::char_traits<char>,std::allocator<char> > > >
PUBLIC	??D?$_Vector_const_iterator@V?$_Vector_val@V?$basic_string@DU?$char_traits@D@std@@V?$allocator@D@2@@std@@V?$allocator@V?$basic_string@DU?$char_traits@D@std@@V?$allocator@D@2@@std@@@2@@std@@@std@@QBEABV?$basic_string@DU?$char_traits@D@std@@V?$allocator@D@2@@1@XZ ; std::_Vector_const_iterator<std::_Vector_val<std::basic_string<char,std::char_traits<char>,std::allocator<char> >,std::allocator<std::basic_string<char,std::char_traits<char>,std::allocator<char> > > > >::operator*
PUBLIC	??E?$_Vector_const_iterator@V?$_Vector_val@V?$basic_string@DU?$char_traits@D@std@@V?$allocator@D@2@@std@@V?$allocator@V?$basic_string@DU?$char_traits@D@std@@V?$allocator@D@2@@std@@@2@@std@@@std@@QAEAAV01@XZ ; std::_Vector_const_iterator<std::_Vector_val<std::basic_string<char,std::char_traits<char>,std::allocator<char> >,std::allocator<std::basic_string<char,std::char_traits<char>,std::allocator<char> > > > >::operator++
PUBLIC	?_Inside@?$vector@V?$basic_string@DU?$char_traits@D@std@@V?$allocator@D@2@@std@@V?$allocator@V?$basic_string@DU?$char_traits@D@std@@V?$allocator@D@2@@std@@@2@@std@@IBE_NPBV?$basic_string@DU?$char_traits@D@std@@V?$allocator@D@2@@2@@Z ; std::vector<std::basic_string<char,std::char_traits<char>,std::allocator<char> >,std::allocator<std::basic_string<char,std::char_traits<char>,std::allocator<char> > > >::_Inside
PUBLIC	?deallocate@?$allocator@V?$basic_string@DU?$char_traits@D@std@@V?$allocator@D@2@@std@@@std@@QAEXPAV?$basic_string@DU?$char_traits@D@std@@V?$allocator@D@2@@2@I@Z ; std::allocator<std::basic_string<char,std::char_traits<char>,std::allocator<char> > >::deallocate
PUBLIC	??$_Allocate@V?$basic_string@DU?$char_traits@D@std@@V?$allocator@D@2@@std@@@std@@YAPAV?$basic_string@DU?$char_traits@D@std@@V?$allocator@D@2@@0@IPAV10@@Z ; std::_Allocate<std::basic_string<char,std::char_traits<char>,std::allocator<char> > >
PUBLIC	?allocate@?$allocator@V?$basic_string@DU?$char_traits@D@std@@V?$allocator@D@2@@std@@@std@@QAEPAV?$basic_string@DU?$char_traits@D@std@@V?$allocator@D@2@@2@I@Z ; std::allocator<std::basic_string<char,std::char_traits<char>,std::allocator<char> > >::allocate
PUBLIC	??$_Val_type@PAV?$basic_string@DU?$char_traits@D@std@@V?$allocator@D@2@@std@@@std@@YAPAV?$basic_string@DU?$char_traits@D@std@@V?$allocator@D@2@@0@PAV10@@Z ; std::_Val_type<std::basic_string<char,std::char_traits<char>,std::allocator<char> > *>
PUBLIC	??$forward@V?$allocator@D@std@@@std@@YA$$QAV?$allocator@D@0@AAV10@@Z ; std::forward<std::allocator<char> >
PUBLIC	??0?$basic_string@DU?$char_traits@D@std@@V?$allocator@D@2@@std@@QAE@$$QAV01@@Z ; std::basic_string<char,std::char_traits<char>,std::allocator<char> >::basic_string<char,std::char_traits<char>,std::allocator<char> >
PUBLIC	?construct@?$allocator@V?$basic_string@DU?$char_traits@D@std@@V?$allocator@D@2@@std@@@std@@QAEXPAV?$basic_string@DU?$char_traits@D@std@@V?$allocator@D@2@@2@$$QAV32@@Z ; std::allocator<std::basic_string<char,std::char_traits<char>,std::allocator<char> > >::construct
PUBLIC	??$_Cons_val@V?$allocator@V?$basic_string@DU?$char_traits@D@std@@V?$allocator@D@2@@std@@@std@@V?$basic_string@DU?$char_traits@D@std@@V?$allocator@D@2@@2@V32@@std@@YAXAAV?$allocator@V?$basic_string@DU?$char_traits@D@std@@V?$allocator@D@2@@std@@@0@PAV?$basic_string@DU?$char_traits@D@std@@V?$allocator@D@2@@0@$$QAV20@@Z ; std::_Cons_val<std::allocator<std::basic_string<char,std::char_traits<char>,std::allocator<char> > >,std::basic_string<char,std::char_traits<char>,std::allocator<char> >,std::basic_string<char,std::char_traits<char>,std::allocator<char> > >
PUBLIC	??$_Uninit_move@PAV?$basic_string@DU?$char_traits@D@std@@V?$allocator@D@2@@std@@PAV12@V?$allocator@V?$basic_string@DU?$char_traits@D@std@@V?$allocator@D@2@@std@@@2@V12@@std@@YAPAV?$basic_string@DU?$char_traits@D@std@@V?$allocator@D@2@@0@PAV10@00AAV?$allocator@V?$basic_string@DU?$char_traits@D@std@@V?$allocator@D@2@@std@@@0@0U_Nonscalar_ptr_iterator_tag@0@@Z ; std::_Uninit_move<std::basic_string<char,std::char_traits<char>,std::allocator<char> > *,std::basic_string<char,std::char_traits<char>,std::allocator<char> > *,std::allocator<std::basic_string<char,std::char_traits<char>,std::allocator<char> > >,std::basic_string<char,std::char_traits<char>,std::allocator<char> > >
PUBLIC	??$_Uninitialized_move@PAV?$basic_string@DU?$char_traits@D@std@@V?$allocator@D@2@@std@@PAV12@V?$allocator@V?$basic_string@DU?$char_traits@D@std@@V?$allocator@D@2@@std@@@2@@std@@YAPAV?$basic_string@DU?$char_traits@D@std@@V?$allocator@D@2@@0@PAV10@00AAV?$allocator@V?$basic_string@DU?$char_traits@D@std@@V?$allocator@D@2@@std@@@0@@Z ; std::_Uninitialized_move<std::basic_string<char,std::char_traits<char>,std::allocator<char> > *,std::basic_string<char,std::char_traits<char>,std::allocator<char> > *,std::allocator<std::basic_string<char,std::char_traits<char>,std::allocator<char> > > >
PUBLIC	??$_Umove@PAV?$basic_string@DU?$char_traits@D@std@@V?$allocator@D@2@@std@@@?$vector@V?$basic_string@DU?$char_traits@D@std@@V?$allocator@D@2@@std@@V?$allocator@V?$basic_string@DU?$char_traits@D@std@@V?$allocator@D@2@@std@@@2@@std@@IAEPAV?$basic_string@DU?$char_traits@D@std@@V?$allocator@D@2@@1@PAV21@00@Z ; std::vector<std::basic_string<char,std::char_traits<char>,std::allocator<char> >,std::allocator<std::basic_string<char,std::char_traits<char>,std::allocator<char> > > >::_Umove<std::basic_string<char,std::char_traits<char>,std::allocator<char> > *>
PUBLIC	?reserve@?$vector@V?$basic_string@DU?$char_traits@D@std@@V?$allocator@D@2@@std@@V?$allocator@V?$basic_string@DU?$char_traits@D@std@@V?$allocator@D@2@@std@@@2@@std@@QAEXI@Z ; std::vector<std::basic_string<char,std::char_traits<char>,std::allocator<char> >,std::allocator<std::basic_string<char,std::char_traits<char>,std::allocator<char> > > >::reserve
PUBLIC	?size@?$vector@V?$basic_string@DU?$char_traits@D@std@@V?$allocator@D@2@@std@@V?$allocator@V?$basic_string@DU?$char_traits@D@std@@V?$allocator@D@2@@std@@@2@@std@@QBEIXZ ; std::vector<std::basic_string<char,std::char_traits<char>,std::allocator<char> >,std::allocator<std::basic_string<char,std::char_traits<char>,std::allocator<char> > > >::size
PUBLIC	?capacity@?$vector@V?$basic_string@DU?$char_traits@D@std@@V?$allocator@D@2@@std@@V?$allocator@V?$basic_string@DU?$char_traits@D@std@@V?$allocator@D@2@@std@@@2@@std@@QBEIXZ ; std::vector<std::basic_string<char,std::char_traits<char>,std::allocator<char> >,std::allocator<std::basic_string<char,std::char_traits<char>,std::allocator<char> > > >::capacity
PUBLIC	?max_size@?$allocator@V?$basic_string@DU?$char_traits@D@std@@V?$allocator@D@2@@std@@@std@@QBEIXZ ; std::allocator<std::basic_string<char,std::char_traits<char>,std::allocator<char> > >::max_size
PUBLIC	?max_size@?$vector@V?$basic_string@DU?$char_traits@D@std@@V?$allocator@D@2@@std@@V?$allocator@V?$basic_string@DU?$char_traits@D@std@@V?$allocator@D@2@@std@@@2@@std@@QBEIXZ ; std::vector<std::basic_string<char,std::char_traits<char>,std::allocator<char> >,std::allocator<std::basic_string<char,std::char_traits<char>,std::allocator<char> > > >::max_size
PUBLIC	?_Grow_to@?$vector@V?$basic_string@DU?$char_traits@D@std@@V?$allocator@D@2@@std@@V?$allocator@V?$basic_string@DU?$char_traits@D@std@@V?$allocator@D@2@@std@@@2@@std@@IBEII@Z ; std::vector<std::basic_string<char,std::char_traits<char>,std::allocator<char> >,std::allocator<std::basic_string<char,std::char_traits<char>,std::allocator<char> > > >::_Grow_to
PUBLIC	?_Xlen@?$vector@V?$basic_string@DU?$char_traits@D@std@@V?$allocator@D@2@@std@@V?$allocator@V?$basic_string@DU?$char_traits@D@std@@V?$allocator@D@2@@std@@@2@@std@@IBEXXZ ; std::vector<std::basic_string<char,std::char_traits<char>,std::allocator<char> >,std::allocator<std::basic_string<char,std::char_traits<char>,std::allocator<char> > > >::_Xlen
PUBLIC	?_Reserve@?$vector@V?$basic_string@DU?$char_traits@D@std@@V?$allocator@D@2@@std@@V?$allocator@V?$basic_string@DU?$char_traits@D@std@@V?$allocator@D@2@@std@@@2@@std@@IAEXI@Z ; std::vector<std::basic_string<char,std::char_traits<char>,std::allocator<char> >,std::allocator<std::basic_string<char,std::char_traits<char>,std::allocator<char> > > >::_Reserve
PUBLIC	?_Orphan_range@?$vector@V?$basic_string@DU?$char_traits@D@std@@V?$allocator@D@2@@std@@V?$allocator@V?$basic_string@DU?$char_traits@D@std@@V?$allocator@D@2@@std@@@2@@std@@IBEXPAV?$basic_string@DU?$char_traits@D@std@@V?$allocator@D@2@@2@0@Z ; std::vector<std::basic_string<char,std::char_traits<char>,std::allocator<char> >,std::allocator<std::basic_string<char,std::char_traits<char>,std::allocator<char> > > >::_Orphan_range
PUBLIC	??$addressof@$$CBV?$basic_string@DU?$char_traits@D@std@@V?$allocator@D@2@@std@@@std@@YAPBV?$basic_string@DU?$char_traits@D@std@@V?$allocator@D@2@@0@ABV10@@Z ; std::addressof<std::basic_string<char,std::char_traits<char>,std::allocator<char> > const >
PUBLIC	??$forward@AAV?$basic_string@DU?$char_traits@D@std@@V?$allocator@D@2@@std@@@std@@YAAAV?$basic_string@DU?$char_traits@D@std@@V?$allocator@D@2@@0@AAV10@@Z ; std::forward<std::basic_string<char,std::char_traits<char>,std::allocator<char> > &>
PUBLIC	??$construct@AAV?$basic_string@DU?$char_traits@D@std@@V?$allocator@D@2@@std@@@?$allocator@V?$basic_string@DU?$char_traits@D@std@@V?$allocator@D@2@@std@@@std@@QAEXPAV?$basic_string@DU?$char_traits@D@std@@V?$allocator@D@2@@1@AAV21@@Z ; std::allocator<std::basic_string<char,std::char_traits<char>,std::allocator<char> > >::construct<std::basic_string<char,std::char_traits<char>,std::allocator<char> > &>
PUBLIC	??$_Cons_val@V?$allocator@V?$basic_string@DU?$char_traits@D@std@@V?$allocator@D@2@@std@@@std@@V?$basic_string@DU?$char_traits@D@std@@V?$allocator@D@2@@2@AAV32@@std@@YAXAAV?$allocator@V?$basic_string@DU?$char_traits@D@std@@V?$allocator@D@2@@std@@@0@PAV?$basic_string@DU?$char_traits@D@std@@V?$allocator@D@2@@0@AAV20@@Z ; std::_Cons_val<std::allocator<std::basic_string<char,std::char_traits<char>,std::allocator<char> > >,std::basic_string<char,std::char_traits<char>,std::allocator<char> >,std::basic_string<char,std::char_traits<char>,std::allocator<char> > &>
PUBLIC	??2@YAPAXIPAX@Z					; operator new
PUBLIC	??3@YAXPAX0@Z					; operator delete
PUBLIC	??$_Construct@V?$basic_string@DU?$char_traits@D@std@@V?$allocator@D@2@@std@@ABV12@@std@@YAXPAV?$basic_string@DU?$char_traits@D@std@@V?$allocator@D@2@@0@ABV10@@Z ; std::_Construct<std::basic_string<char,std::char_traits<char>,std::allocator<char> >,std::basic_string<char,std::char_traits<char>,std::allocator<char> > const &>
PUBLIC	?construct@?$allocator@V?$basic_string@DU?$char_traits@D@std@@V?$allocator@D@2@@std@@@std@@QAEXPAV?$basic_string@DU?$char_traits@D@std@@V?$allocator@D@2@@2@ABV32@@Z ; std::allocator<std::basic_string<char,std::char_traits<char>,std::allocator<char> > >::construct
PUBLIC	??$forward@ABV?$basic_string@DU?$char_traits@D@std@@V?$allocator@D@2@@std@@@std@@YAABV?$basic_string@DU?$char_traits@D@std@@V?$allocator@D@2@@0@ABV10@@Z ; std::forward<std::basic_string<char,std::char_traits<char>,std::allocator<char> > const &>
PUBLIC	??$_Cons_val@V?$allocator@V?$basic_string@DU?$char_traits@D@std@@V?$allocator@D@2@@std@@@std@@V?$basic_string@DU?$char_traits@D@std@@V?$allocator@D@2@@2@ABV32@@std@@YAXAAV?$allocator@V?$basic_string@DU?$char_traits@D@std@@V?$allocator@D@2@@std@@@0@PAV?$basic_string@DU?$char_traits@D@std@@V?$allocator@D@2@@0@ABV20@@Z ; std::_Cons_val<std::allocator<std::basic_string<char,std::char_traits<char>,std::allocator<char> > >,std::basic_string<char,std::char_traits<char>,std::allocator<char> >,std::basic_string<char,std::char_traits<char>,std::allocator<char> > const &>
PUBLIC	?push_back@?$vector@V?$basic_string@DU?$char_traits@D@std@@V?$allocator@D@2@@std@@V?$allocator@V?$basic_string@DU?$char_traits@D@std@@V?$allocator@D@2@@std@@@2@@std@@QAEXABV?$basic_string@DU?$char_traits@D@std@@V?$allocator@D@2@@2@@Z ; std::vector<std::basic_string<char,std::char_traits<char>,std::allocator<char> >,std::allocator<std::basic_string<char,std::char_traits<char>,std::allocator<char> > > >::push_back
PUBLIC	??0?$_String_val@DV?$allocator@D@std@@@std@@QAE@V?$allocator@D@1@@Z ; std::_String_val<char,std::allocator<char> >::_String_val<char,std::allocator<char> >
PUBLIC	??0?$basic_string@DU?$char_traits@D@std@@V?$allocator@D@2@@std@@QAE@ABV01@@Z ; std::basic_string<char,std::char_traits<char>,std::allocator<char> >::basic_string<char,std::char_traits<char>,std::allocator<char> >
PUBLIC	?begin@?$vector@V?$basic_string@DU?$char_traits@D@std@@V?$allocator@D@2@@std@@V?$allocator@V?$basic_string@DU?$char_traits@D@std@@V?$allocator@D@2@@std@@@2@@std@@QAE?AV?$_Vector_iterator@V?$_Vector_val@V?$basic_string@DU?$char_traits@D@std@@V?$allocator@D@2@@std@@V?$allocator@V?$basic_string@DU?$char_traits@D@std@@V?$allocator@D@2@@std@@@2@@std@@@2@XZ ; std::vector<std::basic_string<char,std::char_traits<char>,std::allocator<char> >,std::allocator<std::basic_string<char,std::char_traits<char>,std::allocator<char> > > >::begin
PUBLIC	?end@?$vector@V?$basic_string@DU?$char_traits@D@std@@V?$allocator@D@2@@std@@V?$allocator@V?$basic_string@DU?$char_traits@D@std@@V?$allocator@D@2@@std@@@2@@std@@QAE?AV?$_Vector_iterator@V?$_Vector_val@V?$basic_string@DU?$char_traits@D@std@@V?$allocator@D@2@@std@@V?$allocator@V?$basic_string@DU?$char_traits@D@std@@V?$allocator@D@2@@std@@@2@@std@@@2@XZ ; std::vector<std::basic_string<char,std::char_traits<char>,std::allocator<char> >,std::allocator<std::basic_string<char,std::char_traits<char>,std::allocator<char> > > >::end
PUBLIC	?_Adopt@_Iterator_base0@std@@QAEXPBX@Z		; std::_Iterator_base0::_Adopt
PUBLIC	??0?$_Vector_const_iterator@V?$_Vector_val@V?$basic_string@DU?$char_traits@D@std@@V?$allocator@D@2@@std@@V?$allocator@V?$basic_string@DU?$char_traits@D@std@@V?$allocator@D@2@@std@@@2@@std@@@std@@QAE@PAV?$basic_string@DU?$char_traits@D@std@@V?$allocator@D@2@@1@PBU_Container_base0@1@@Z ; std::_Vector_const_iterator<std::_Vector_val<std::basic_string<char,std::char_traits<char>,std::allocator<char> >,std::allocator<std::basic_string<char,std::char_traits<char>,std::allocator<char> > > > >::_Vector_const_iterator<std::_Vector_val<std::basic_string<char,std::char_traits<char>,std::allocator<char> >,std::allocator<std::basic_string<char,std::char_traits<char>,std::allocator<char> > > > >
PUBLIC	??0?$_Vector_iterator@V?$_Vector_val@V?$basic_string@DU?$char_traits@D@std@@V?$allocator@D@2@@std@@V?$allocator@V?$basic_string@DU?$char_traits@D@std@@V?$allocator@D@2@@std@@@2@@std@@@std@@QAE@PAV?$basic_string@DU?$char_traits@D@std@@V?$allocator@D@2@@1@PBU_Container_base0@1@@Z ; std::_Vector_iterator<std::_Vector_val<std::basic_string<char,std::char_traits<char>,std::allocator<char> >,std::allocator<std::basic_string<char,std::char_traits<char>,std::allocator<char> > > > >::_Vector_iterator<std::_Vector_val<std::basic_string<char,std::char_traits<char>,std::allocator<char> >,std::allocator<std::basic_string<char,std::char_traits<char>,std::allocator<char> > > > >
PUBLIC	?_Make_iter@?$vector@V?$basic_string@DU?$char_traits@D@std@@V?$allocator@D@2@@std@@V?$allocator@V?$basic_string@DU?$char_traits@D@std@@V?$allocator@D@2@@std@@@2@@std@@QBE?AV?$_Vector_iterator@V?$_Vector_val@V?$basic_string@DU?$char_traits@D@std@@V?$allocator@D@2@@std@@V?$allocator@V?$basic_string@DU?$char_traits@D@std@@V?$allocator@D@2@@std@@@2@@std@@@2@V?$_Vector_const_iterator@V?$_Vector_val@V?$basic_string@DU?$char_traits@D@std@@V?$allocator@D@2@@std@@V?$allocator@V?$basic_string@DU?$char_traits@D@std@@V?$allocator@D@2@@std@@@2@@std@@@2@@Z ; std::vector<std::basic_string<char,std::char_traits<char>,std::allocator<char> >,std::allocator<std::basic_string<char,std::char_traits<char>,std::allocator<char> > > >::_Make_iter
PUBLIC	??1?$_String_val@DV?$allocator@D@std@@@std@@QAE@XZ ; std::_String_val<char,std::allocator<char> >::~_String_val<char,std::allocator<char> >
PUBLIC	??1?$basic_string@DU?$char_traits@D@std@@V?$allocator@D@2@@std@@QAE@XZ ; std::basic_string<char,std::char_traits<char>,std::allocator<char> >::~basic_string<char,std::char_traits<char>,std::allocator<char> >
PUBLIC	??_G?$basic_string@DU?$char_traits@D@std@@V?$allocator@D@2@@std@@QAEPAXI@Z ; std::basic_string<char,std::char_traits<char>,std::allocator<char> >::`scalar deleting destructor'
PUBLIC	??$_Destroy@V?$basic_string@DU?$char_traits@D@std@@V?$allocator@D@2@@std@@@std@@YAXPAV?$basic_string@DU?$char_traits@D@std@@V?$allocator@D@2@@0@@Z ; std::_Destroy<std::basic_string<char,std::char_traits<char>,std::allocator<char> > >
PUBLIC	?destroy@?$allocator@V?$basic_string@DU?$char_traits@D@std@@V?$allocator@D@2@@std@@@std@@QAEXPAV?$basic_string@DU?$char_traits@D@std@@V?$allocator@D@2@@2@@Z ; std::allocator<std::basic_string<char,std::char_traits<char>,std::allocator<char> > >::destroy
PUBLIC	??$_Dest_val@V?$allocator@V?$basic_string@DU?$char_traits@D@std@@V?$allocator@D@2@@std@@@std@@V?$basic_string@DU?$char_traits@D@std@@V?$allocator@D@2@@2@@std@@YAXAAV?$allocator@V?$basic_string@DU?$char_traits@D@std@@V?$allocator@D@2@@std@@@0@PAV?$basic_string@DU?$char_traits@D@std@@V?$allocator@D@2@@0@@Z ; std::_Dest_val<std::allocator<std::basic_string<char,std::char_traits<char>,std::allocator<char> > >,std::basic_string<char,std::char_traits<char>,std::allocator<char> > >
PUBLIC	??$_Destroy_range@V?$allocator@V?$basic_string@DU?$char_traits@D@std@@V?$allocator@D@2@@std@@@std@@@std@@YAXPAV?$basic_string@DU?$char_traits@D@std@@V?$allocator@D@2@@0@0AAV?$allocator@V?$basic_string@DU?$char_traits@D@std@@V?$allocator@D@2@@std@@@0@U_Nonscalar_ptr_iterator_tag@0@@Z ; std::_Destroy_range<std::allocator<std::basic_string<char,std::char_traits<char>,std::allocator<char> > > >
PUBLIC	??$_Destroy_range@V?$allocator@V?$basic_string@DU?$char_traits@D@std@@V?$allocator@D@2@@std@@@std@@@std@@YAXPAV?$basic_string@DU?$char_traits@D@std@@V?$allocator@D@2@@0@0AAV?$allocator@V?$basic_string@DU?$char_traits@D@std@@V?$allocator@D@2@@std@@@0@@Z ; std::_Destroy_range<std::allocator<std::basic_string<char,std::char_traits<char>,std::allocator<char> > > >
PUBLIC	?_Destroy@?$vector@V?$basic_string@DU?$char_traits@D@std@@V?$allocator@D@2@@std@@V?$allocator@V?$basic_string@DU?$char_traits@D@std@@V?$allocator@D@2@@std@@@2@@std@@IAEXPAV?$basic_string@DU?$char_traits@D@std@@V?$allocator@D@2@@2@0@Z ; std::vector<std::basic_string<char,std::char_traits<char>,std::allocator<char> >,std::allocator<std::basic_string<char,std::char_traits<char>,std::allocator<char> > > >::_Destroy
PUBLIC	??9?$_Vector_const_iterator@V?$_Vector_val@V?$basic_string@DU?$char_traits@D@std@@V?$allocator@D@2@@std@@V?$allocator@V?$basic_string@DU?$char_traits@D@std@@V?$allocator@D@2@@std@@@2@@std@@@std@@QBE_NABV01@@Z ; std::_Vector_const_iterator<std::_Vector_val<std::basic_string<char,std::char_traits<char>,std::allocator<char> >,std::allocator<std::basic_string<char,std::char_traits<char>,std::allocator<char> > > > >::operator!=
PUBLIC	??$_Ptr_cat@V?$basic_string@DU?$char_traits@D@std@@V?$allocator@D@2@@std@@V12@@std@@YA?AU_Nonscalar_ptr_iterator_tag@0@PAV?$basic_string@DU?$char_traits@D@std@@V?$allocator@D@2@@0@0@Z ; std::_Ptr_cat<std::basic_string<char,std::char_traits<char>,std::allocator<char> >,std::basic_string<char,std::char_traits<char>,std::allocator<char> > >
PUBLIC	??$move@AAV?$basic_string@DU?$char_traits@D@std@@V?$allocator@D@2@@std@@@std@@YA$$QAV?$basic_string@DU?$char_traits@D@std@@V?$allocator@D@2@@0@AAV10@@Z ; std::move<std::basic_string<char,std::char_traits<char>,std::allocator<char> > &>
PUBLIC	??$_Move@PAV?$basic_string@DU?$char_traits@D@std@@V?$allocator@D@2@@std@@PAV12@@std@@YAPAV?$basic_string@DU?$char_traits@D@std@@V?$allocator@D@2@@0@PAV10@00U_Nonscalar_ptr_iterator_tag@0@@Z ; std::_Move<std::basic_string<char,std::char_traits<char>,std::allocator<char> > *,std::basic_string<char,std::char_traits<char>,std::allocator<char> > *>
PUBLIC	??$_Move@PAV?$basic_string@DU?$char_traits@D@std@@V?$allocator@D@2@@std@@PAV12@@std@@YAPAV?$basic_string@DU?$char_traits@D@std@@V?$allocator@D@2@@0@PAV10@00@Z ; std::_Move<std::basic_string<char,std::char_traits<char>,std::allocator<char> > *,std::basic_string<char,std::char_traits<char>,std::allocator<char> > *>
PUBLIC	?erase@?$vector@V?$basic_string@DU?$char_traits@D@std@@V?$allocator@D@2@@std@@V?$allocator@V?$basic_string@DU?$char_traits@D@std@@V?$allocator@D@2@@std@@@2@@std@@QAE?AV?$_Vector_iterator@V?$_Vector_val@V?$basic_string@DU?$char_traits@D@std@@V?$allocator@D@2@@std@@V?$allocator@V?$basic_string@DU?$char_traits@D@std@@V?$allocator@D@2@@std@@@2@@std@@@2@V?$_Vector_const_iterator@V?$_Vector_val@V?$basic_string@DU?$char_traits@D@std@@V?$allocator@D@2@@std@@V?$allocator@V?$basic_string@DU?$char_traits@D@std@@V?$allocator@D@2@@std@@@2@@std@@@2@0@Z ; std::vector<std::basic_string<char,std::char_traits<char>,std::allocator<char> >,std::allocator<std::basic_string<char,std::char_traits<char>,std::allocator<char> > > >::erase
PUBLIC	?_Compat@?$_Vector_const_iterator@V?$_Vector_val@V?$basic_string@DU?$char_traits@D@std@@V?$allocator@D@2@@std@@V?$allocator@V?$basic_string@DU?$char_traits@D@std@@V?$allocator@D@2@@std@@@2@@std@@@std@@QBEXABV12@@Z ; std::_Vector_const_iterator<std::_Vector_val<std::basic_string<char,std::char_traits<char>,std::allocator<char> >,std::allocator<std::basic_string<char,std::char_traits<char>,std::allocator<char> > > > >::_Compat
PUBLIC	??8?$_Vector_const_iterator@V?$_Vector_val@V?$basic_string@DU?$char_traits@D@std@@V?$allocator@D@2@@std@@V?$allocator@V?$basic_string@DU?$char_traits@D@std@@V?$allocator@D@2@@std@@@2@@std@@@std@@QBE_NABV01@@Z ; std::_Vector_const_iterator<std::_Vector_val<std::basic_string<char,std::char_traits<char>,std::allocator<char> >,std::allocator<std::basic_string<char,std::char_traits<char>,std::allocator<char> > > > >::operator==
PUBLIC	??$_Find@PAV?$basic_string@DU?$char_traits@D@std@@V?$allocator@D@2@@std@@V12@@std@@YAPAV?$basic_string@DU?$char_traits@D@std@@V?$allocator@D@2@@0@PAV10@0ABV10@@Z ; std::_Find<std::basic_string<char,std::char_traits<char>,std::allocator<char> > *,std::basic_string<char,std::char_traits<char>,std::allocator<char> > >
PUBLIC	??$find@V?$_Vector_iterator@V?$_Vector_val@V?$basic_string@DU?$char_traits@D@std@@V?$allocator@D@2@@std@@V?$allocator@V?$basic_string@DU?$char_traits@D@std@@V?$allocator@D@2@@std@@@2@@std@@@std@@V?$basic_string@DU?$char_traits@D@std@@V?$allocator@D@2@@2@@std@@YA?AV?$_Vector_iterator@V?$_Vector_val@V?$basic_string@DU?$char_traits@D@std@@V?$allocator@D@2@@std@@V?$allocator@V?$basic_string@DU?$char_traits@D@std@@V?$allocator@D@2@@std@@@2@@std@@@0@V10@0ABV?$basic_string@DU?$char_traits@D@std@@V?$allocator@D@2@@0@@Z ; std::find<std::_Vector_iterator<std::_Vector_val<std::basic_string<char,std::char_traits<char>,std::allocator<char> >,std::allocator<std::basic_string<char,std::char_traits<char>,std::allocator<char> > > > >,std::basic_string<char,std::char_traits<char>,std::allocator<char> > >
PUBLIC	?_Unchecked@?$_Vector_iterator@V?$_Vector_val@V?$basic_string@DU?$char_traits@D@std@@V?$allocator@D@2@@std@@V?$allocator@V?$basic_string@DU?$char_traits@D@std@@V?$allocator@D@2@@std@@@2@@std@@@std@@QBEPAV?$basic_string@DU?$char_traits@D@std@@V?$allocator@D@2@@2@XZ ; std::_Vector_iterator<std::_Vector_val<std::basic_string<char,std::char_traits<char>,std::allocator<char> >,std::allocator<std::basic_string<char,std::char_traits<char>,std::allocator<char> > > > >::_Unchecked
PUBLIC	??$_Unchecked@V?$_Vector_val@V?$basic_string@DU?$char_traits@D@std@@V?$allocator@D@2@@std@@V?$allocator@V?$basic_string@DU?$char_traits@D@std@@V?$allocator@D@2@@std@@@2@@std@@@std@@YAPAV?$basic_string@DU?$char_traits@D@std@@V?$allocator@D@2@@0@V?$_Vector_iterator@V?$_Vector_val@V?$basic_string@DU?$char_traits@D@std@@V?$allocator@D@2@@std@@V?$allocator@V?$basic_string@DU?$char_traits@D@std@@V?$allocator@D@2@@std@@@2@@std@@@0@@Z ; std::_Unchecked<std::_Vector_val<std::basic_string<char,std::char_traits<char>,std::allocator<char> >,std::allocator<std::basic_string<char,std::char_traits<char>,std::allocator<char> > > > >
PUBLIC	?_Rechecked@?$_Vector_iterator@V?$_Vector_val@V?$basic_string@DU?$char_traits@D@std@@V?$allocator@D@2@@std@@V?$allocator@V?$basic_string@DU?$char_traits@D@std@@V?$allocator@D@2@@std@@@2@@std@@@std@@QAEAAV12@PAV?$basic_string@DU?$char_traits@D@std@@V?$allocator@D@2@@2@@Z ; std::_Vector_iterator<std::_Vector_val<std::basic_string<char,std::char_traits<char>,std::allocator<char> >,std::allocator<std::basic_string<char,std::char_traits<char>,std::allocator<char> > > > >::_Rechecked
PUBLIC	??$_Rechecked@V?$_Vector_val@V?$basic_string@DU?$char_traits@D@std@@V?$allocator@D@2@@std@@V?$allocator@V?$basic_string@DU?$char_traits@D@std@@V?$allocator@D@2@@std@@@2@@std@@@std@@YAAAV?$_Vector_iterator@V?$_Vector_val@V?$basic_string@DU?$char_traits@D@std@@V?$allocator@D@2@@std@@V?$allocator@V?$basic_string@DU?$char_traits@D@std@@V?$allocator@D@2@@std@@@2@@std@@@0@AAV10@PAV?$basic_string@DU?$char_traits@D@std@@V?$allocator@D@2@@0@@Z ; std::_Rechecked<std::_Vector_val<std::basic_string<char,std::char_traits<char>,std::allocator<char> >,std::allocator<std::basic_string<char,std::char_traits<char>,std::allocator<char> > > > >
PUBLIC	?move@?$char_traits@D@std@@SAPADPADPBDI@Z	; std::char_traits<char>::move
PUBLIC	?erase@?$basic_string@DU?$char_traits@D@std@@V?$allocator@D@2@@std@@QAEAAV12@II@Z ; std::basic_string<char,std::char_traits<char>,std::allocator<char> >::erase
PUBLIC	??0bad_alloc@std@@QAE@PBD@Z			; std::bad_alloc::bad_alloc
PUBLIC	??1bad_alloc@std@@UAE@XZ			; std::bad_alloc::~bad_alloc
PUBLIC	??_Gbad_alloc@std@@UAEPAXI@Z			; std::bad_alloc::`scalar deleting destructor'
PUBLIC	??0bad_alloc@std@@QAE@ABV01@@Z			; std::bad_alloc::bad_alloc
PUBLIC	??$_Allocate@D@std@@YAPADIPAD@Z			; std::_Allocate<char>
PUBLIC	?allocate@?$allocator@D@std@@QAEPADI@Z		; std::allocator<char>::allocate
PUBLIC	?max_size@?$allocator@D@std@@QBEIXZ		; std::allocator<char>::max_size
PUBLIC	?max_size@?$basic_string@DU?$char_traits@D@std@@V?$allocator@D@2@@std@@QBEIXZ ; std::basic_string<char,std::char_traits<char>,std::allocator<char> >::max_size
PUBLIC	?_Copy@?$basic_string@DU?$char_traits@D@std@@V?$allocator@D@2@@std@@QAEXII@Z ; std::basic_string<char,std::char_traits<char>,std::allocator<char> >::_Copy
PUBLIC	?_Xlen@?$basic_string@DU?$char_traits@D@std@@V?$allocator@D@2@@std@@QBEXXZ ; std::basic_string<char,std::char_traits<char>,std::allocator<char> >::_Xlen
PUBLIC	?_Grow@?$basic_string@DU?$char_traits@D@std@@V?$allocator@D@2@@std@@QAE_NI_N@Z ; std::basic_string<char,std::char_traits<char>,std::allocator<char> >::_Grow
PUBLIC	?assign@?$basic_string@DU?$char_traits@D@std@@V?$allocator@D@2@@std@@QAEAAV12@ABV12@II@Z ; std::basic_string<char,std::char_traits<char>,std::allocator<char> >::assign
PUBLIC	?assign@?$basic_string@DU?$char_traits@D@std@@V?$allocator@D@2@@std@@QAEAAV12@ABV12@@Z ; std::basic_string<char,std::char_traits<char>,std::allocator<char> >::assign
PUBLIC	??4?$basic_string@DU?$char_traits@D@std@@V?$allocator@D@2@@std@@QAEAAV01@ABV01@@Z ; std::basic_string<char,std::char_traits<char>,std::allocator<char> >::operator=
PUBLIC	??0?$allocator@D@std@@QAE@ABV01@@Z		; std::allocator<char>::allocator<char>
PUBLIC	?get_allocator@?$basic_string@DU?$char_traits@D@std@@V?$allocator@D@2@@std@@QBE?AV?$allocator@D@2@XZ ; std::basic_string<char,std::char_traits<char>,std::allocator<char> >::get_allocator
PUBLIC	?copy@?$char_traits@D@std@@SAPADPADPBDI@Z	; std::char_traits<char>::copy
PUBLIC	?deallocate@?$allocator@D@std@@QAEXPADI@Z	; std::allocator<char>::deallocate
PUBLIC	?assign@?$char_traits@D@std@@SAXAADABD@Z	; std::char_traits<char>::assign
PUBLIC	?_Myptr@?$basic_string@DU?$char_traits@D@std@@V?$allocator@D@2@@std@@QAEPADXZ ; std::basic_string<char,std::char_traits<char>,std::allocator<char> >::_Myptr
PUBLIC	?_Eos@?$basic_string@DU?$char_traits@D@std@@V?$allocator@D@2@@std@@QAEXI@Z ; std::basic_string<char,std::char_traits<char>,std::allocator<char> >::_Eos
PUBLIC	?_Tidy@?$basic_string@DU?$char_traits@D@std@@V?$allocator@D@2@@std@@QAEX_NI@Z ; std::basic_string<char,std::char_traits<char>,std::allocator<char> >::_Tidy
PUBLIC	??$?8DD@std@@YA_NABV?$allocator@D@0@0@Z		; std::operator==<char,char>
PUBLIC	??$?9DD@std@@YA_NABV?$allocator@D@0@0@Z		; std::operator!=<char,char>
PUBLIC	?assign@?$basic_string@DU?$char_traits@D@std@@V?$allocator@D@2@@std@@QAEAAV12@$$QAV12@@Z ; std::basic_string<char,std::char_traits<char>,std::allocator<char> >::assign
PUBLIC	??$forward@V?$basic_string@DU?$char_traits@D@std@@V?$allocator@D@2@@std@@@std@@YA$$QAV?$basic_string@DU?$char_traits@D@std@@V?$allocator@D@2@@0@AAV10@@Z ; std::forward<std::basic_string<char,std::char_traits<char>,std::allocator<char> > >
PUBLIC	??4?$basic_string@DU?$char_traits@D@std@@V?$allocator@D@2@@std@@QAEAAV01@$$QAV01@@Z ; std::basic_string<char,std::char_traits<char>,std::allocator<char> >::operator=
PUBLIC	?size@?$basic_string@DU?$char_traits@D@std@@V?$allocator@D@2@@std@@QBEIXZ ; std::basic_string<char,std::char_traits<char>,std::allocator<char> >::size
PUBLIC	?compare@?$char_traits@D@std@@SAHPBD0I@Z	; std::char_traits<char>::compare
PUBLIC	?_Xran@?$basic_string@DU?$char_traits@D@std@@V?$allocator@D@2@@std@@QBEXXZ ; std::basic_string<char,std::char_traits<char>,std::allocator<char> >::_Xran
PUBLIC	?compare@?$basic_string@DU?$char_traits@D@std@@V?$allocator@D@2@@std@@QBEHIIPBDI@Z ; std::basic_string<char,std::char_traits<char>,std::allocator<char> >::compare
PUBLIC	?_Myptr@?$basic_string@DU?$char_traits@D@std@@V?$allocator@D@2@@std@@QBEPBDXZ ; std::basic_string<char,std::char_traits<char>,std::allocator<char> >::_Myptr
PUBLIC	?compare@?$basic_string@DU?$char_traits@D@std@@V?$allocator@D@2@@std@@QBEHABV12@@Z ; std::basic_string<char,std::char_traits<char>,std::allocator<char> >::compare
PUBLIC	??$?8DU?$char_traits@D@std@@V?$allocator@D@1@@std@@YA_NABV?$basic_string@DU?$char_traits@D@std@@V?$allocator@D@2@@0@0@Z ; std::operator==<char,std::char_traits<char>,std::allocator<char> >
PUBLIC	??$_Move@AAV?$basic_string@DU?$char_traits@D@std@@V?$allocator@D@2@@std@@@std@@YA$$QAV?$basic_string@DU?$char_traits@D@std@@V?$allocator@D@2@@0@AAV10@@Z ; std::_Move<std::basic_string<char,std::char_traits<char>,std::allocator<char> > &>
PUBLIC	??$_Remove@PAV?$basic_string@DU?$char_traits@D@std@@V?$allocator@D@2@@std@@V12@@std@@YAPAV?$basic_string@DU?$char_traits@D@std@@V?$allocator@D@2@@0@PAV10@0ABV10@@Z ; std::_Remove<std::basic_string<char,std::char_traits<char>,std::allocator<char> > *,std::basic_string<char,std::char_traits<char>,std::allocator<char> > >
PUBLIC	??$remove@V?$_Vector_iterator@V?$_Vector_val@V?$basic_string@DU?$char_traits@D@std@@V?$allocator@D@2@@std@@V?$allocator@V?$basic_string@DU?$char_traits@D@std@@V?$allocator@D@2@@std@@@2@@std@@@std@@V?$basic_string@DU?$char_traits@D@std@@V?$allocator@D@2@@2@@std@@YA?AV?$_Vector_iterator@V?$_Vector_val@V?$basic_string@DU?$char_traits@D@std@@V?$allocator@D@2@@std@@V?$allocator@V?$basic_string@DU?$char_traits@D@std@@V?$allocator@D@2@@std@@@2@@std@@@0@V10@0ABV?$basic_string@DU?$char_traits@D@std@@V?$allocator@D@2@@0@@Z ; std::remove<std::_Vector_iterator<std::_Vector_val<std::basic_string<char,std::char_traits<char>,std::allocator<char> >,std::allocator<std::basic_string<char,std::char_traits<char>,std::allocator<char> > > > >,std::basic_string<char,std::char_traits<char>,std::allocator<char> > >
PUBLIC	?value@?$integral_constant@_N$0A@@tr1@std@@2_NB	; std::tr1::integral_constant<bool,0>::value
PUBLIC	?value@?$integral_constant@_N$00@tr1@std@@2_NB	; std::tr1::integral_constant<bool,1>::value
PUBLIC	?value@?$integral_constant@I$0A@@tr1@std@@2IB	; std::tr1::integral_constant<unsigned int,0>::value
PUBLIC	?_Rank@?$_Arithmetic_traits@_N@std@@2HB		; std::_Arithmetic_traits<bool>::_Rank
PUBLIC	?_Rank@?$_Arithmetic_traits@D@std@@2HB		; std::_Arithmetic_traits<char>::_Rank
PUBLIC	?_Rank@?$_Arithmetic_traits@C@std@@2HB		; std::_Arithmetic_traits<signed char>::_Rank
PUBLIC	?_Rank@?$_Arithmetic_traits@E@std@@2HB		; std::_Arithmetic_traits<unsigned char>::_Rank
PUBLIC	?_Rank@?$_Arithmetic_traits@F@std@@2HB		; std::_Arithmetic_traits<short>::_Rank
PUBLIC	?_Rank@?$_Arithmetic_traits@G@std@@2HB		; std::_Arithmetic_traits<unsigned short>::_Rank
PUBLIC	?_Rank@?$_Arithmetic_traits@H@std@@2HB		; std::_Arithmetic_traits<int>::_Rank
PUBLIC	?_Rank@?$_Arithmetic_traits@I@std@@2HB		; std::_Arithmetic_traits<unsigned int>::_Rank
PUBLIC	?_Rank@?$_Arithmetic_traits@J@std@@2HB		; std::_Arithmetic_traits<long>::_Rank
PUBLIC	?_Rank@?$_Arithmetic_traits@K@std@@2HB		; std::_Arithmetic_traits<unsigned long>::_Rank
PUBLIC	?_Rank@?$_Arithmetic_traits@_J@std@@2HB		; std::_Arithmetic_traits<__int64>::_Rank
PUBLIC	?_Rank@?$_Arithmetic_traits@_K@std@@2HB		; std::_Arithmetic_traits<unsigned __int64>::_Rank
PUBLIC	?_Rank@?$_Arithmetic_traits@M@std@@2HB		; std::_Arithmetic_traits<float>::_Rank
PUBLIC	?_Rank@?$_Arithmetic_traits@N@std@@2HB		; std::_Arithmetic_traits<double>::_Rank
PUBLIC	?_Rank@?$_Arithmetic_traits@O@std@@2HB		; std::_Arithmetic_traits<long double>::_Rank
PUBLIC	??_R0?AVexception@std@@@8			; std::exception `RTTI Type Descriptor'
PUBLIC	__CT??_R0?AVexception@std@@@8??0exception@std@@QAE@ABV01@@Z12
PUBLIC	?collate@?$_Locbase@H@std@@2HB			; std::_Locbase<int>::collate
PUBLIC	?ctype@?$_Locbase@H@std@@2HB			; std::_Locbase<int>::ctype
PUBLIC	?monetary@?$_Locbase@H@std@@2HB			; std::_Locbase<int>::monetary
PUBLIC	?numeric@?$_Locbase@H@std@@2HB			; std::_Locbase<int>::numeric
PUBLIC	?time@?$_Locbase@H@std@@2HB			; std::_Locbase<int>::time
PUBLIC	?messages@?$_Locbase@H@std@@2HB			; std::_Locbase<int>::messages
PUBLIC	?all@?$_Locbase@H@std@@2HB			; std::_Locbase<int>::all
PUBLIC	?none@?$_Locbase@H@std@@2HB			; std::_Locbase<int>::none
PUBLIC	?skipws@?$_Iosb@H@std@@2W4_Fmtflags@12@B	; std::_Iosb<int>::skipws
PUBLIC	?unitbuf@?$_Iosb@H@std@@2W4_Fmtflags@12@B	; std::_Iosb<int>::unitbuf
PUBLIC	?uppercase@?$_Iosb@H@std@@2W4_Fmtflags@12@B	; std::_Iosb<int>::uppercase
PUBLIC	?showbase@?$_Iosb@H@std@@2W4_Fmtflags@12@B	; std::_Iosb<int>::showbase
PUBLIC	?showpoint@?$_Iosb@H@std@@2W4_Fmtflags@12@B	; std::_Iosb<int>::showpoint
PUBLIC	?showpos@?$_Iosb@H@std@@2W4_Fmtflags@12@B	; std::_Iosb<int>::showpos
PUBLIC	?left@?$_Iosb@H@std@@2W4_Fmtflags@12@B		; std::_Iosb<int>::left
PUBLIC	?right@?$_Iosb@H@std@@2W4_Fmtflags@12@B		; std::_Iosb<int>::right
PUBLIC	?internal@?$_Iosb@H@std@@2W4_Fmtflags@12@B	; std::_Iosb<int>::internal
PUBLIC	?dec@?$_Iosb@H@std@@2W4_Fmtflags@12@B		; std::_Iosb<int>::dec
PUBLIC	?oct@?$_Iosb@H@std@@2W4_Fmtflags@12@B		; std::_Iosb<int>::oct
PUBLIC	?hex@?$_Iosb@H@std@@2W4_Fmtflags@12@B		; std::_Iosb<int>::hex
PUBLIC	?scientific@?$_Iosb@H@std@@2W4_Fmtflags@12@B	; std::_Iosb<int>::scientific
PUBLIC	?fixed@?$_Iosb@H@std@@2W4_Fmtflags@12@B		; std::_Iosb<int>::fixed
PUBLIC	?hexfloat@?$_Iosb@H@std@@2W4_Fmtflags@12@B	; std::_Iosb<int>::hexfloat
PUBLIC	?boolalpha@?$_Iosb@H@std@@2W4_Fmtflags@12@B	; std::_Iosb<int>::boolalpha
PUBLIC	?_Stdio@?$_Iosb@H@std@@2W4_Fmtflags@12@B	; std::_Iosb<int>::_Stdio
PUBLIC	?adjustfield@?$_Iosb@H@std@@2W4_Fmtflags@12@B	; std::_Iosb<int>::adjustfield
PUBLIC	?basefield@?$_Iosb@H@std@@2W4_Fmtflags@12@B	; std::_Iosb<int>::basefield
PUBLIC	?floatfield@?$_Iosb@H@std@@2W4_Fmtflags@12@B	; std::_Iosb<int>::floatfield
PUBLIC	?goodbit@?$_Iosb@H@std@@2W4_Iostate@12@B	; std::_Iosb<int>::goodbit
PUBLIC	?eofbit@?$_Iosb@H@std@@2W4_Iostate@12@B		; std::_Iosb<int>::eofbit
PUBLIC	?failbit@?$_Iosb@H@std@@2W4_Iostate@12@B	; std::_Iosb<int>::failbit
PUBLIC	?badbit@?$_Iosb@H@std@@2W4_Iostate@12@B		; std::_Iosb<int>::badbit
PUBLIC	?_Hardfail@?$_Iosb@H@std@@2W4_Iostate@12@B	; std::_Iosb<int>::_Hardfail
PUBLIC	?in@?$_Iosb@H@std@@2W4_Openmode@12@B		; std::_Iosb<int>::in
PUBLIC	?out@?$_Iosb@H@std@@2W4_Openmode@12@B		; std::_Iosb<int>::out
PUBLIC	?ate@?$_Iosb@H@std@@2W4_Openmode@12@B		; std::_Iosb<int>::ate
PUBLIC	?app@?$_Iosb@H@std@@2W4_Openmode@12@B		; std::_Iosb<int>::app
PUBLIC	?trunc@?$_Iosb@H@std@@2W4_Openmode@12@B		; std::_Iosb<int>::trunc
PUBLIC	?_Nocreate@?$_Iosb@H@std@@2W4_Openmode@12@B	; std::_Iosb<int>::_Nocreate
PUBLIC	?_Noreplace@?$_Iosb@H@std@@2W4_Openmode@12@B	; std::_Iosb<int>::_Noreplace
PUBLIC	?binary@?$_Iosb@H@std@@2W4_Openmode@12@B	; std::_Iosb<int>::binary
PUBLIC	?beg@?$_Iosb@H@std@@2W4_Seekdir@12@B		; std::_Iosb<int>::beg
PUBLIC	?cur@?$_Iosb@H@std@@2W4_Seekdir@12@B		; std::_Iosb<int>::cur
PUBLIC	?end@?$_Iosb@H@std@@2W4_Seekdir@12@B		; std::_Iosb<int>::end
PUBLIC	??_C@_0N@HGBOFMBA@EPORT_IN_USE?$AA@		; `string'
PUBLIC	??_C@_08NJAOJCGE@ETIMEOUT?$AA@			; `string'
PUBLIC	??_C@_0M@IHPKCGCP@ECONNECTION?$AA@		; `string'
PUBLIC	??_C@_09PKLEEDLJ@ELISTENER?$AA@			; `string'
PUBLIC	??_C@_08OIIHLIHK@ERESOLVE?$AA@			; `string'
PUBLIC	??_C@_08FKLNEDEP@EMONITOR?$AA@			; `string'
PUBLIC	??_C@_0P@KNGBPCNG@ECREATE_THREAD?$AA@		; `string'
PUBLIC	??_C@_0O@HFAJODEH@ECREATE_MUTEX?$AA@		; `string'
PUBLIC	??_C@_0BB@EIFDCKCH@ECREATE_SIGNALER?$AA@	; `string'
PUBLIC	??_C@_0N@LPJMHPLA@EUNSPECIFIED?$AA@		; `string'
PUBLIC	??_C@_0P@CNHBDIIJ@EGENERAL_TYPE1?$AA@		; `string'
PUBLIC	??_C@_0P@GFMGLEK@EGENERAL_TYPE2?$AA@		; `string'
PUBLIC	??_C@_0P@BPEHFKAL@EGENERAL_TYPE3?$AA@		; `string'
PUBLIC	??_C@_0BA@ECJKINJI@EINVALID_OPTION?$AA@		; `string'
PUBLIC	??_C@_0O@FKLOKCDD@ETOO_FEW_ARGS?$AA@		; `string'
PUBLIC	??_C@_0P@OJEAEGFK@ETOO_MANY_ARGS?$AA@		; `string'
PUBLIC	??_C@_07OMFDINFC@ESOCKET?$AA@			; `string'
PUBLIC	??_C@_07MEGFPAOI@ETHREAD?$AA@			; `string'
PUBLIC	??_C@_04OEMBKHEI@EGUI?$AA@			; `string'
PUBLIC	??_C@_06KBMJJNNM@EFATAL?$AA@			; `string'
PUBLIC	??_C@_0P@EHPKLALH@EBROKEN_ASSERT?$AA@		; `string'
PUBLIC	??_C@_0M@FAMIPOJD@EIMAGE_LOAD?$AA@		; `string'
PUBLIC	??_C@_0M@JJNDCELI@EDIR_CREATE?$AA@		; `string'
PUBLIC	??_C@_0BG@KGJDGDG@EINCOMPATIBLE_OPTIONS?$AA@	; `string'
PUBLIC	??_C@_0BJ@EOKNONCF@EMISSING_REQUIRED_OPTION?$AA@ ; `string'
PUBLIC	??_C@_0BE@MLIOEHOK@EINVALID_OPTION_ARG?$AA@	; `string'
PUBLIC	??_C@_0BF@HAKJKBFK@EMULTIPLE_OCCURANCES?$AA@	; `string'
PUBLIC	??_C@_0P@KBGGBGPJ@ECONFIG_READER?$AA@		; `string'
PUBLIC	??_C@_0M@FCNFANEH@EIMAGE_SAVE?$AA@		; `string'
PUBLIC	??_C@_0BA@PJCLMLLK@ECAST_TO_STRING?$AA@		; `string'
PUBLIC	??_C@_0N@NAMOGKME@ESTRING_CAST?$AA@		; `string'
PUBLIC	??_C@_0P@FAEPAFAG@EUTF8_TO_UTF32?$AA@		; `string'
PUBLIC	??_C@_0O@OEFMJDCD@EOPTION_PARSE?$AA@		; `string'
PUBLIC	??_C@_0BF@MDHLFKDO@undefined?5error?5type?$AA@	; `string'
PUBLIC	??_R0?AVerror@dlib@@@8				; dlib::error `RTTI Type Descriptor'
PUBLIC	__CT??_R0?AVerror@dlib@@@8??0error@dlib@@QAE@ABV01@@Z44
PUBLIC	??_R0?AVbad_alloc@std@@@8			; std::bad_alloc `RTTI Type Descriptor'
PUBLIC	??_C@_01GEODFPGF@?8?$AA@			; `string'
PUBLIC	??_C@_0CG@BENFANJG@string?5cast?5error?3?5invalid?5strin@ ; `string'
PUBLIC	??_R0?AV?$basic_string@DU?$char_traits@D@std@@V?$allocator@D@2@@std@@@8 ; std::basic_string<char,std::char_traits<char>,std::allocator<char> > `RTTI Type Descriptor'
PUBLIC	??_R0?AV?$_String_val@DV?$allocator@D@std@@@std@@@8 ; std::_String_val<char,std::allocator<char> > `RTTI Type Descriptor'
PUBLIC	??_R0?AU_Container_base0@std@@@8		; std::_Container_base0 `RTTI Type Descriptor'
PUBLIC	__CT??_R0?AV?$basic_string@DU?$char_traits@D@std@@V?$allocator@D@2@@std@@@8??0?$basic_string@DU?$char_traits@D@std@@V?$allocator@D@2@@std@@QAE@ABV01@@Z28
PUBLIC	__CT??_R0?AV?$_String_val@DV?$allocator@D@std@@@std@@@8??0?$_String_val@DV?$allocator@D@std@@@std@@QAE@ABV01@@Z28
PUBLIC	__CT??_R0?AU_Container_base0@std@@@81
PUBLIC	__CTA3?AV?$basic_string@DU?$char_traits@D@std@@V?$allocator@D@2@@std@@
PUBLIC	__TI3?AV?$basic_string@DU?$char_traits@D@std@@V?$allocator@D@2@@std@@
PUBLIC	??_C@_0BI@CFPLBAOH@invalid?5string?5position?$AA@ ; `string'
PUBLIC	??_C@_0BA@JFNIOLAK@string?5too?5long?$AA@	; `string'
PUBLIC	??_C@_0BD@OLBABOEK@vector?$DMT?$DO?5too?5long?$AA@ ; `string'
PUBLIC	??_C@_0BB@MOGOBHAF@list?$DMT?$DO?5too?5long?$AA@ ; `string'
PUBLIC	?npos@?$basic_string@DU?$char_traits@D@std@@V?$allocator@D@2@@std@@2IB ; std::basic_string<char,std::char_traits<char>,std::allocator<char> >::npos
PUBLIC	??_R0?AVcast_to_string_error@dlib@@@8		; dlib::cast_to_string_error `RTTI Type Descriptor'
PUBLIC	__CT??_R0?AVcast_to_string_error@dlib@@@8??0cast_to_string_error@dlib@@QAE@ABV01@@Z44
PUBLIC	__CTA3?AVcast_to_string_error@dlib@@
PUBLIC	__TI3?AVcast_to_string_error@dlib@@
PUBLIC	?_Stz@?$fpos@H@std@@0HB				; std::fpos<int>::_Stz
PUBLIC	__CT??_R0?AVbad_alloc@std@@@8??0bad_alloc@std@@QAE@ABV01@@Z12
PUBLIC	__CTA2?AVbad_alloc@std@@
PUBLIC	__TI2?AVbad_alloc@std@@
PUBLIC	??_R0?AVstring_cast_error@dlib@@@8		; dlib::string_cast_error `RTTI Type Descriptor'
PUBLIC	__CT??_R0?AVstring_cast_error@dlib@@@8??0string_cast_error@dlib@@QAE@ABV01@@Z44
PUBLIC	__CTA3?AVstring_cast_error@dlib@@
PUBLIC	__TI3?AVstring_cast_error@dlib@@
PUBLIC	??_7bad_alloc@std@@6B@				; std::bad_alloc::`vftable'
PUBLIC	??_7?$basic_stringbuf@DU?$char_traits@D@std@@V?$allocator@D@2@@std@@6B@ ; std::basic_stringbuf<char,std::char_traits<char>,std::allocator<char> >::`vftable'
PUBLIC	??_7?$basic_istringstream@DU?$char_traits@D@std@@V?$allocator@D@2@@std@@6B@ ; std::basic_istringstream<char,std::char_traits<char>,std::allocator<char> >::`vftable'
PUBLIC	??_8?$basic_istringstream@DU?$char_traits@D@std@@V?$allocator@D@2@@std@@7B@ ; std::basic_istringstream<char,std::char_traits<char>,std::allocator<char> >::`vbtable'
PUBLIC	??_7?$basic_ostringstream@DU?$char_traits@D@std@@V?$allocator@D@2@@std@@6B@ ; std::basic_ostringstream<char,std::char_traits<char>,std::allocator<char> >::`vftable'
PUBLIC	??_8?$basic_ostringstream@DU?$char_traits@D@std@@V?$allocator@D@2@@std@@7B@ ; std::basic_ostringstream<char,std::char_traits<char>,std::allocator<char> >::`vbtable'
PUBLIC	??_7error@dlib@@6B@				; dlib::error::`vftable'
PUBLIC	??_7cast_to_string_error@dlib@@6B@		; dlib::cast_to_string_error::`vftable'
PUBLIC	??_7string_cast_error@dlib@@6B@			; dlib::string_cast_error::`vftable'
EXTRN	?imbue@?$basic_streambuf@DU?$char_traits@D@std@@@std@@MAEXABVlocale@2@@Z:PROC ; std::basic_streambuf<char,std::char_traits<char> >::imbue
EXTRN	?sync@?$basic_streambuf@DU?$char_traits@D@std@@@std@@MAEHXZ:PROC ; std::basic_streambuf<char,std::char_traits<char> >::sync
EXTRN	?setbuf@?$basic_streambuf@DU?$char_traits@D@std@@@std@@MAEPAV12@PAD_J@Z:PROC ; std::basic_streambuf<char,std::char_traits<char> >::setbuf
EXTRN	?xsputn@?$basic_streambuf@DU?$char_traits@D@std@@@std@@MAE_JPBD_J@Z:PROC ; std::basic_streambuf<char,std::char_traits<char> >::xsputn
EXTRN	?xsgetn@?$basic_streambuf@DU?$char_traits@D@std@@@std@@MAE_JPAD_J@Z:PROC ; std::basic_streambuf<char,std::char_traits<char> >::xsgetn
EXTRN	?uflow@?$basic_streambuf@DU?$char_traits@D@std@@@std@@MAEHXZ:PROC ; std::basic_streambuf<char,std::char_traits<char> >::uflow
EXTRN	?showmanyc@?$basic_streambuf@DU?$char_traits@D@std@@@std@@MAE_JXZ:PROC ; std::basic_streambuf<char,std::char_traits<char> >::showmanyc
EXTRN	?_Unlock@?$basic_streambuf@DU?$char_traits@D@std@@@std@@UAEXXZ:PROC ; std::basic_streambuf<char,std::char_traits<char> >::_Unlock
EXTRN	?_Lock@?$basic_streambuf@DU?$char_traits@D@std@@@std@@UAEXXZ:PROC ; std::basic_streambuf<char,std::char_traits<char> >::_Lock
EXTRN	?what@exception@std@@UBEPBDXZ:PROC		; std::exception::what
EXTRN	??0exception@std@@QAE@ABV01@@Z:PROC		; std::exception::exception
EXTRN	@__security_check_cookie@4:PROC
EXTRN	??_L@YGXPAXIHP6EX0@Z1@Z:PROC			; `eh vector constructor iterator'
EXTRN	??_M@YGXPAXIHP6EX0@Z@Z:PROC			; `eh vector destructor iterator'
EXTRN	__imp__atoi:PROC
EXTRN	__imp_??5?$basic_istream@DU?$char_traits@D@std@@@std@@QAEAAV01@AAI@Z:PROC
EXTRN	__imp__memchr:PROC
EXTRN	__imp___difftime64:PROC
EXTRN	__imp___localtime64:PROC
EXTRN	__imp___mktime64:PROC
EXTRN	__imp___time64:PROC
EXTRN	__imp_??6?$basic_ostream@DU?$char_traits@D@std@@@std@@QAEAAV01@G@Z:PROC
EXTRN	__imp__tolower:PROC
EXTRN	__imp_?setf@ios_base@std@@QAEHHH@Z:PROC
EXTRN	__imp_??5?$basic_istream@DU?$char_traits@D@std@@@std@@QAEAAV01@P6AAAVios_base@1@AAV21@@Z@Z:PROC
EXTRN	__imp_??5?$basic_istream@DU?$char_traits@D@std@@@std@@QAEAAV01@AAG@Z:PROC
EXTRN	__imp_?get@?$basic_istream@DU?$char_traits@D@std@@@std@@QAEHXZ:PROC
EXTRN	__imp_??0?$basic_istream@DU?$char_traits@D@std@@@std@@QAE@PAV?$basic_streambuf@DU?$char_traits@D@std@@@1@_N@Z:PROC
EXTRN	__imp_??1?$basic_istream@DU?$char_traits@D@std@@@std@@UAE@XZ:PROC
EXTRN	??_E?$basic_istringstream@DU?$char_traits@D@std@@V?$allocator@D@2@@std@@UAEPAXI@Z:PROC ; std::basic_istringstream<char,std::char_traits<char>,std::allocator<char> >::`vector deleting destructor'
EXTRN	??_Estring_cast_error@dlib@@UAEPAXI@Z:PROC	; dlib::string_cast_error::`vector deleting destructor'
EXTRN	__imp_??6?$basic_ostream@DU?$char_traits@D@std@@@std@@QAEAAV01@I@Z:PROC
EXTRN	__imp_??6?$basic_ostream@DU?$char_traits@D@std@@@std@@QAEAAV01@N@Z:PROC
EXTRN	__imp_??6?$basic_ostream@DU?$char_traits@D@std@@@std@@QAEAAV01@H@Z:PROC
EXTRN	__imp__toupper:PROC
EXTRN	__imp_??7ios_base@std@@QBE_NXZ:PROC
EXTRN	__imp_?flags@ios_base@std@@QBEHXZ:PROC
EXTRN	__imp_?width@ios_base@std@@QBE_JXZ:PROC
EXTRN	__imp_?width@ios_base@std@@QAE_J_J@Z:PROC
EXTRN	__imp_?sputc@?$basic_streambuf@DU?$char_traits@D@std@@@std@@QAEHD@Z:PROC
EXTRN	__imp_?setstate@?$basic_ios@DU?$char_traits@D@std@@@std@@QAEXH_N@Z:PROC
EXTRN	__imp_?fill@?$basic_ios@DU?$char_traits@D@std@@@std@@QBEDXZ:PROC
EXTRN	__imp_?good@ios_base@std@@QBE_NXZ:PROC
EXTRN	__imp_?tie@?$basic_ios@DU?$char_traits@D@std@@@std@@QBEPAV?$basic_ostream@DU?$char_traits@D@std@@@2@XZ:PROC
EXTRN	__imp_?flush@?$basic_ostream@DU?$char_traits@D@std@@@std@@QAEAAV12@XZ:PROC
EXTRN	__imp_?uncaught_exception@std@@YA_NXZ:PROC
EXTRN	__imp_?_Osfx@?$basic_ostream@DU?$char_traits@D@std@@@std@@QAEXXZ:PROC
EXTRN	__imp_?rdbuf@?$basic_ios@DU?$char_traits@D@std@@@std@@QBEPAV?$basic_streambuf@DU?$char_traits@D@std@@@2@XZ:PROC
EXTRN	__imp_??0exception@std@@QAE@XZ:PROC
EXTRN	__imp_??0?$basic_ios@DU?$char_traits@D@std@@@std@@IAE@XZ:PROC
EXTRN	__imp_??0?$basic_ostream@DU?$char_traits@D@std@@@std@@QAE@PAV?$basic_streambuf@DU?$char_traits@D@std@@@1@_N@Z:PROC
EXTRN	__imp_??0?$basic_streambuf@DU?$char_traits@D@std@@@std@@IAE@XZ:PROC
EXTRN	__imp_??1?$basic_ios@DU?$char_traits@D@std@@@std@@UAE@XZ:PROC
EXTRN	__imp_??1?$basic_ostream@DU?$char_traits@D@std@@@std@@UAE@XZ:PROC
EXTRN	__imp_??1?$basic_streambuf@DU?$char_traits@D@std@@@std@@UAE@XZ:PROC
EXTRN	__imp_?_Lock@?$basic_streambuf@DU?$char_traits@D@std@@@std@@UAEXXZ:PROC
EXTRN	__imp_?_Unlock@?$basic_streambuf@DU?$char_traits@D@std@@@std@@UAEXXZ:PROC
EXTRN	__imp_?showmanyc@?$basic_streambuf@DU?$char_traits@D@std@@@std@@MAE_JXZ:PROC
EXTRN	__imp_?uflow@?$basic_streambuf@DU?$char_traits@D@std@@@std@@MAEHXZ:PROC
EXTRN	__imp_?xsgetn@?$basic_streambuf@DU?$char_traits@D@std@@@std@@MAE_JPAD_J@Z:PROC
EXTRN	__imp_?xsputn@?$basic_streambuf@DU?$char_traits@D@std@@@std@@MAE_JPBD_J@Z:PROC
EXTRN	__imp_?setbuf@?$basic_streambuf@DU?$char_traits@D@std@@@std@@MAEPAV12@PAD_J@Z:PROC
EXTRN	__imp_?sync@?$basic_streambuf@DU?$char_traits@D@std@@@std@@MAEHXZ:PROC
EXTRN	__imp_?imbue@?$basic_streambuf@DU?$char_traits@D@std@@@std@@MAEXABVlocale@2@@Z:PROC
EXTRN	__imp_?setp@?$basic_streambuf@DU?$char_traits@D@std@@@std@@IAEXPAD0@Z:PROC
EXTRN	__imp_?_Pninc@?$basic_streambuf@DU?$char_traits@D@std@@@std@@IAEPADXZ:PROC
EXTRN	__imp_?egptr@?$basic_streambuf@DU?$char_traits@D@std@@@std@@IBEPADXZ:PROC
EXTRN	__imp_?setg@?$basic_streambuf@DU?$char_traits@D@std@@@std@@IAEXPAD00@Z:PROC
EXTRN	__imp_?_BADOFF@std@@3_JB:QWORD
EXTRN	__imp_?eback@?$basic_streambuf@DU?$char_traits@D@std@@@std@@IBEPADXZ:PROC
EXTRN	__imp_?gptr@?$basic_streambuf@DU?$char_traits@D@std@@@std@@IBEPADXZ:PROC
EXTRN	__imp_?pbase@?$basic_streambuf@DU?$char_traits@D@std@@@std@@IBEPADXZ:PROC
EXTRN	__imp_?pptr@?$basic_streambuf@DU?$char_traits@D@std@@@std@@IBEPADXZ:PROC
EXTRN	__imp_?gbump@?$basic_streambuf@DU?$char_traits@D@std@@@std@@IAEXH@Z:PROC
EXTRN	__imp_?epptr@?$basic_streambuf@DU?$char_traits@D@std@@@std@@IBEPADXZ:PROC
EXTRN	__imp_?pbump@?$basic_streambuf@DU?$char_traits@D@std@@@std@@IAEXH@Z:PROC
EXTRN	__imp_?setp@?$basic_streambuf@DU?$char_traits@D@std@@@std@@IAEXPAD00@Z:PROC
EXTRN	??_E?$basic_stringbuf@DU?$char_traits@D@std@@V?$allocator@D@2@@std@@UAEPAXI@Z:PROC ; std::basic_stringbuf<char,std::char_traits<char>,std::allocator<char> >::`vector deleting destructor'
EXTRN	??_E?$basic_ostringstream@DU?$char_traits@D@std@@V?$allocator@D@2@@std@@UAEPAXI@Z:PROC ; std::basic_ostringstream<char,std::char_traits<char>,std::allocator<char> >::`vector deleting destructor'
EXTRN	??_Eerror@dlib@@UAEPAXI@Z:PROC			; dlib::error::`vector deleting destructor'
EXTRN	??_Ecast_to_string_error@dlib@@UAEPAXI@Z:PROC	; dlib::cast_to_string_error::`vector deleting destructor'
EXTRN	__imp_?_Swap_all@_Container_base0@std@@QAEXAAU12@@Z:PROC
EXTRN	__imp_?_Orphan_all@_Container_base0@std@@QAEXXZ:PROC
EXTRN	__imp__memmove:PROC
EXTRN	__imp_??2@YAPAXI@Z:PROC
EXTRN	__imp_??0exception@std@@QAE@ABQBD@Z:PROC
EXTRN	__imp_??0exception@std@@QAE@ABV01@@Z:PROC
EXTRN	__imp_?what@exception@std@@UBEPBDXZ:PROC
EXTRN	__imp_??1exception@std@@UAE@XZ:PROC
EXTRN	??_Ebad_alloc@std@@UAEPAXI@Z:PROC		; std::bad_alloc::`vector deleting destructor'
EXTRN	??_7type_info@@6B@:QWORD			; type_info::`vftable'
EXTRN	__imp_?_Xlength_error@std@@YAXPBD@Z:PROC
EXTRN	__imp_??3@YAXPAX@Z:PROC
EXTRN	__imp_?_Xout_of_range@std@@YAXPBD@Z:PROC
;	COMDAT ?whitelistIncrement@?HD@??refresh@game@Battlefield@@QAEXXZ@4EA
_BSS	SEGMENT
?whitelistIncrement@?HD@??refresh@game@Battlefield@@QAEXXZ@4EA DB 01H DUP (?) ; `Battlefield::game::refresh'::`115'::whitelistIncrement
;	COMDAT ??_7string_cast_error@dlib@@6B@
CONST	SEGMENT
??_7string_cast_error@dlib@@6B@ DD FLAT:??_R4string_cast_error@dlib@@6B@ ; dlib::string_cast_error::`vftable'
	DD	FLAT:??_Estring_cast_error@dlib@@UAEPAXI@Z
	DD	FLAT:?what@error@dlib@@UBEPBDXZ
CONST	ENDS
;	COMDAT ??_R4string_cast_error@dlib@@6B@
rdata$r	SEGMENT
??_R4string_cast_error@dlib@@6B@ DD 00H			; dlib::string_cast_error::`RTTI Complete Object Locator'
	DD	00H
	DD	00H
	DD	FLAT:??_R0?AVstring_cast_error@dlib@@@8
	DD	FLAT:??_R3string_cast_error@dlib@@8
rdata$r	ENDS
;	COMDAT ??_R3string_cast_error@dlib@@8
rdata$r	SEGMENT
??_R3string_cast_error@dlib@@8 DD 00H			; dlib::string_cast_error::`RTTI Class Hierarchy Descriptor'
	DD	00H
	DD	03H
	DD	FLAT:??_R2string_cast_error@dlib@@8
rdata$r	ENDS
;	COMDAT ??_R2string_cast_error@dlib@@8
rdata$r	SEGMENT
??_R2string_cast_error@dlib@@8 DD FLAT:??_R1A@?0A@EA@string_cast_error@dlib@@8 ; dlib::string_cast_error::`RTTI Base Class Array'
	DD	FLAT:??_R1A@?0A@EA@error@dlib@@8
	DD	FLAT:??_R1A@?0A@EA@exception@std@@8
rdata$r	ENDS
;	COMDAT ??_R1A@?0A@EA@string_cast_error@dlib@@8
rdata$r	SEGMENT
??_R1A@?0A@EA@string_cast_error@dlib@@8 DD FLAT:??_R0?AVstring_cast_error@dlib@@@8 ; dlib::string_cast_error::`RTTI Base Class Descriptor at (0,-1,0,64)'
	DD	02H
	DD	00H
	DD	0ffffffffH
	DD	00H
	DD	040H
	DD	FLAT:??_R3string_cast_error@dlib@@8
rdata$r	ENDS
;	COMDAT ??_7cast_to_string_error@dlib@@6B@
CONST	SEGMENT
??_7cast_to_string_error@dlib@@6B@ DD FLAT:??_R4cast_to_string_error@dlib@@6B@ ; dlib::cast_to_string_error::`vftable'
	DD	FLAT:??_Ecast_to_string_error@dlib@@UAEPAXI@Z
	DD	FLAT:?what@error@dlib@@UBEPBDXZ
CONST	ENDS
;	COMDAT ??_R4cast_to_string_error@dlib@@6B@
rdata$r	SEGMENT
??_R4cast_to_string_error@dlib@@6B@ DD 00H		; dlib::cast_to_string_error::`RTTI Complete Object Locator'
	DD	00H
	DD	00H
	DD	FLAT:??_R0?AVcast_to_string_error@dlib@@@8
	DD	FLAT:??_R3cast_to_string_error@dlib@@8
rdata$r	ENDS
;	COMDAT ??_R3cast_to_string_error@dlib@@8
rdata$r	SEGMENT
??_R3cast_to_string_error@dlib@@8 DD 00H		; dlib::cast_to_string_error::`RTTI Class Hierarchy Descriptor'
	DD	00H
	DD	03H
	DD	FLAT:??_R2cast_to_string_error@dlib@@8
rdata$r	ENDS
;	COMDAT ??_R2cast_to_string_error@dlib@@8
rdata$r	SEGMENT
??_R2cast_to_string_error@dlib@@8 DD FLAT:??_R1A@?0A@EA@cast_to_string_error@dlib@@8 ; dlib::cast_to_string_error::`RTTI Base Class Array'
	DD	FLAT:??_R1A@?0A@EA@error@dlib@@8
	DD	FLAT:??_R1A@?0A@EA@exception@std@@8
rdata$r	ENDS
;	COMDAT ??_R1A@?0A@EA@cast_to_string_error@dlib@@8
rdata$r	SEGMENT
??_R1A@?0A@EA@cast_to_string_error@dlib@@8 DD FLAT:??_R0?AVcast_to_string_error@dlib@@@8 ; dlib::cast_to_string_error::`RTTI Base Class Descriptor at (0,-1,0,64)'
	DD	02H
	DD	00H
	DD	0ffffffffH
	DD	00H
	DD	040H
	DD	FLAT:??_R3cast_to_string_error@dlib@@8
rdata$r	ENDS
;	COMDAT ??_7error@dlib@@6B@
CONST	SEGMENT
??_7error@dlib@@6B@ DD FLAT:??_R4error@dlib@@6B@	; dlib::error::`vftable'
	DD	FLAT:??_Eerror@dlib@@UAEPAXI@Z
	DD	FLAT:?what@error@dlib@@UBEPBDXZ
CONST	ENDS
;	COMDAT ??_R4error@dlib@@6B@
rdata$r	SEGMENT
??_R4error@dlib@@6B@ DD 00H				; dlib::error::`RTTI Complete Object Locator'
	DD	00H
	DD	00H
	DD	FLAT:??_R0?AVerror@dlib@@@8
	DD	FLAT:??_R3error@dlib@@8
rdata$r	ENDS
;	COMDAT ??_R3error@dlib@@8
rdata$r	SEGMENT
??_R3error@dlib@@8 DD 00H				; dlib::error::`RTTI Class Hierarchy Descriptor'
	DD	00H
	DD	02H
	DD	FLAT:??_R2error@dlib@@8
rdata$r	ENDS
;	COMDAT ??_R2error@dlib@@8
rdata$r	SEGMENT
??_R2error@dlib@@8 DD FLAT:??_R1A@?0A@EA@error@dlib@@8	; dlib::error::`RTTI Base Class Array'
	DD	FLAT:??_R1A@?0A@EA@exception@std@@8
rdata$r	ENDS
;	COMDAT ??_R1A@?0A@EA@error@dlib@@8
rdata$r	SEGMENT
??_R1A@?0A@EA@error@dlib@@8 DD FLAT:??_R0?AVerror@dlib@@@8 ; dlib::error::`RTTI Base Class Descriptor at (0,-1,0,64)'
	DD	01H
	DD	00H
	DD	0ffffffffH
	DD	00H
	DD	040H
	DD	FLAT:??_R3error@dlib@@8
rdata$r	ENDS
;	COMDAT ??_8?$basic_ostringstream@DU?$char_traits@D@std@@V?$allocator@D@2@@std@@7B@
CONST	SEGMENT
??_8?$basic_ostringstream@DU?$char_traits@D@std@@V?$allocator@D@2@@std@@7B@ DD 00H ; std::basic_ostringstream<char,std::char_traits<char>,std::allocator<char> >::`vbtable'
	DD	050H
CONST	ENDS
;	COMDAT ??_7?$basic_ostringstream@DU?$char_traits@D@std@@V?$allocator@D@2@@std@@6B@
CONST	SEGMENT
??_7?$basic_ostringstream@DU?$char_traits@D@std@@V?$allocator@D@2@@std@@6B@ DD FLAT:??_R4?$basic_ostringstream@DU?$char_traits@D@std@@V?$allocator@D@2@@std@@6B@ ; std::basic_ostringstream<char,std::char_traits<char>,std::allocator<char> >::`vftable'
	DD	FLAT:??_E?$basic_ostringstream@DU?$char_traits@D@std@@V?$allocator@D@2@@std@@UAEPAXI@Z
CONST	ENDS
;	COMDAT ??_R4?$basic_ostringstream@DU?$char_traits@D@std@@V?$allocator@D@2@@std@@6B@
rdata$r	SEGMENT
??_R4?$basic_ostringstream@DU?$char_traits@D@std@@V?$allocator@D@2@@std@@6B@ DD 00H ; std::basic_ostringstream<char,std::char_traits<char>,std::allocator<char> >::`RTTI Complete Object Locator'
	DD	050H
	DD	00H
	DD	FLAT:??_R0?AV?$basic_ostringstream@DU?$char_traits@D@std@@V?$allocator@D@2@@std@@@8
	DD	FLAT:??_R3?$basic_ostringstream@DU?$char_traits@D@std@@V?$allocator@D@2@@std@@8
rdata$r	ENDS
;	COMDAT ??_R3?$basic_ostringstream@DU?$char_traits@D@std@@V?$allocator@D@2@@std@@8
rdata$r	SEGMENT
??_R3?$basic_ostringstream@DU?$char_traits@D@std@@V?$allocator@D@2@@std@@8 DD 00H ; std::basic_ostringstream<char,std::char_traits<char>,std::allocator<char> >::`RTTI Class Hierarchy Descriptor'
	DD	00H
	DD	05H
	DD	FLAT:??_R2?$basic_ostringstream@DU?$char_traits@D@std@@V?$allocator@D@2@@std@@8
rdata$r	ENDS
;	COMDAT ??_R2?$basic_ostringstream@DU?$char_traits@D@std@@V?$allocator@D@2@@std@@8
rdata$r	SEGMENT
??_R2?$basic_ostringstream@DU?$char_traits@D@std@@V?$allocator@D@2@@std@@8 DD FLAT:??_R1A@?0A@EA@?$basic_ostringstream@DU?$char_traits@D@std@@V?$allocator@D@2@@std@@8 ; std::basic_ostringstream<char,std::char_traits<char>,std::allocator<char> >::`RTTI Base Class Array'
	DD	FLAT:??_R1A@?0A@EA@?$basic_ostream@DU?$char_traits@D@std@@@std@@8
	DD	FLAT:??_R1A@A@3FA@?$basic_ios@DU?$char_traits@D@std@@@std@@8
	DD	FLAT:??_R1A@A@3EA@ios_base@std@@8
	DD	FLAT:??_R17A@3EA@?$_Iosb@H@std@@8
rdata$r	ENDS
;	COMDAT ??_R1A@?0A@EA@?$basic_ostream@DU?$char_traits@D@std@@@std@@8
rdata$r	SEGMENT
??_R1A@?0A@EA@?$basic_ostream@DU?$char_traits@D@std@@@std@@8 DD FLAT:??_R0?AV?$basic_ostream@DU?$char_traits@D@std@@@std@@@8 ; std::basic_ostream<char,std::char_traits<char> >::`RTTI Base Class Descriptor at (0,-1,0,64)'
	DD	03H
	DD	00H
	DD	0ffffffffH
	DD	00H
	DD	040H
	DD	FLAT:??_R3?$basic_ostream@DU?$char_traits@D@std@@@std@@8
rdata$r	ENDS
;	COMDAT ??_R3?$basic_ostream@DU?$char_traits@D@std@@@std@@8
rdata$r	SEGMENT
??_R3?$basic_ostream@DU?$char_traits@D@std@@@std@@8 DD 00H ; std::basic_ostream<char,std::char_traits<char> >::`RTTI Class Hierarchy Descriptor'
	DD	00H
	DD	04H
	DD	FLAT:??_R2?$basic_ostream@DU?$char_traits@D@std@@@std@@8
rdata$r	ENDS
;	COMDAT ??_R2?$basic_ostream@DU?$char_traits@D@std@@@std@@8
rdata$r	SEGMENT
??_R2?$basic_ostream@DU?$char_traits@D@std@@@std@@8 DD FLAT:??_R1A@?0A@EA@?$basic_ostream@DU?$char_traits@D@std@@@std@@8 ; std::basic_ostream<char,std::char_traits<char> >::`RTTI Base Class Array'
	DD	FLAT:??_R1A@A@3FA@?$basic_ios@DU?$char_traits@D@std@@@std@@8
	DD	FLAT:??_R1A@A@3EA@ios_base@std@@8
	DD	FLAT:??_R17A@3EA@?$_Iosb@H@std@@8
rdata$r	ENDS
;	COMDAT ??_R0?AV?$basic_ostream@DU?$char_traits@D@std@@@std@@@8
_DATA	SEGMENT
??_R0?AV?$basic_ostream@DU?$char_traits@D@std@@@std@@@8 DD FLAT:??_7type_info@@6B@ ; std::basic_ostream<char,std::char_traits<char> > `RTTI Type Descriptor'
	DD	00H
	DB	'.?AV?$basic_ostream@DU?$char_traits@D@std@@@std@@', 00H
_DATA	ENDS
;	COMDAT ??_R1A@?0A@EA@?$basic_ostringstream@DU?$char_traits@D@std@@V?$allocator@D@2@@std@@8
rdata$r	SEGMENT
??_R1A@?0A@EA@?$basic_ostringstream@DU?$char_traits@D@std@@V?$allocator@D@2@@std@@8 DD FLAT:??_R0?AV?$basic_ostringstream@DU?$char_traits@D@std@@V?$allocator@D@2@@std@@@8 ; std::basic_ostringstream<char,std::char_traits<char>,std::allocator<char> >::`RTTI Base Class Descriptor at (0,-1,0,64)'
	DD	04H
	DD	00H
	DD	0ffffffffH
	DD	00H
	DD	040H
	DD	FLAT:??_R3?$basic_ostringstream@DU?$char_traits@D@std@@V?$allocator@D@2@@std@@8
rdata$r	ENDS
;	COMDAT ??_R0?AV?$basic_ostringstream@DU?$char_traits@D@std@@V?$allocator@D@2@@std@@@8
_DATA	SEGMENT
??_R0?AV?$basic_ostringstream@DU?$char_traits@D@std@@V?$allocator@D@2@@std@@@8 DD FLAT:??_7type_info@@6B@ ; std::basic_ostringstream<char,std::char_traits<char>,std::allocator<char> > `RTTI Type Descriptor'
	DD	00H
	DB	'.?AV?$basic_ostringstream@DU?$char_traits@D@std@@V?$allo'
	DB	'cator@D@2@@std@@', 00H
_DATA	ENDS
;	COMDAT ??_8?$basic_istringstream@DU?$char_traits@D@std@@V?$allocator@D@2@@std@@7B@
CONST	SEGMENT
??_8?$basic_istringstream@DU?$char_traits@D@std@@V?$allocator@D@2@@std@@7B@ DD 00H ; std::basic_istringstream<char,std::char_traits<char>,std::allocator<char> >::`vbtable'
	DD	058H
CONST	ENDS
;	COMDAT ??_7?$basic_istringstream@DU?$char_traits@D@std@@V?$allocator@D@2@@std@@6B@
CONST	SEGMENT
??_7?$basic_istringstream@DU?$char_traits@D@std@@V?$allocator@D@2@@std@@6B@ DD FLAT:??_R4?$basic_istringstream@DU?$char_traits@D@std@@V?$allocator@D@2@@std@@6B@ ; std::basic_istringstream<char,std::char_traits<char>,std::allocator<char> >::`vftable'
	DD	FLAT:??_E?$basic_istringstream@DU?$char_traits@D@std@@V?$allocator@D@2@@std@@UAEPAXI@Z
CONST	ENDS
;	COMDAT ??_R4?$basic_istringstream@DU?$char_traits@D@std@@V?$allocator@D@2@@std@@6B@
rdata$r	SEGMENT
??_R4?$basic_istringstream@DU?$char_traits@D@std@@V?$allocator@D@2@@std@@6B@ DD 00H ; std::basic_istringstream<char,std::char_traits<char>,std::allocator<char> >::`RTTI Complete Object Locator'
	DD	058H
	DD	00H
	DD	FLAT:??_R0?AV?$basic_istringstream@DU?$char_traits@D@std@@V?$allocator@D@2@@std@@@8
	DD	FLAT:??_R3?$basic_istringstream@DU?$char_traits@D@std@@V?$allocator@D@2@@std@@8
rdata$r	ENDS
;	COMDAT ??_R3?$basic_istringstream@DU?$char_traits@D@std@@V?$allocator@D@2@@std@@8
rdata$r	SEGMENT
??_R3?$basic_istringstream@DU?$char_traits@D@std@@V?$allocator@D@2@@std@@8 DD 00H ; std::basic_istringstream<char,std::char_traits<char>,std::allocator<char> >::`RTTI Class Hierarchy Descriptor'
	DD	00H
	DD	05H
	DD	FLAT:??_R2?$basic_istringstream@DU?$char_traits@D@std@@V?$allocator@D@2@@std@@8
rdata$r	ENDS
;	COMDAT ??_R2?$basic_istringstream@DU?$char_traits@D@std@@V?$allocator@D@2@@std@@8
rdata$r	SEGMENT
??_R2?$basic_istringstream@DU?$char_traits@D@std@@V?$allocator@D@2@@std@@8 DD FLAT:??_R1A@?0A@EA@?$basic_istringstream@DU?$char_traits@D@std@@V?$allocator@D@2@@std@@8 ; std::basic_istringstream<char,std::char_traits<char>,std::allocator<char> >::`RTTI Base Class Array'
	DD	FLAT:??_R1A@?0A@EA@?$basic_istream@DU?$char_traits@D@std@@@std@@8
	DD	FLAT:??_R1A@A@3FA@?$basic_ios@DU?$char_traits@D@std@@@std@@8
	DD	FLAT:??_R1A@A@3EA@ios_base@std@@8
	DD	FLAT:??_R17A@3EA@?$_Iosb@H@std@@8
rdata$r	ENDS
;	COMDAT ??_R1A@?0A@EA@?$basic_istream@DU?$char_traits@D@std@@@std@@8
rdata$r	SEGMENT
??_R1A@?0A@EA@?$basic_istream@DU?$char_traits@D@std@@@std@@8 DD FLAT:??_R0?AV?$basic_istream@DU?$char_traits@D@std@@@std@@@8 ; std::basic_istream<char,std::char_traits<char> >::`RTTI Base Class Descriptor at (0,-1,0,64)'
	DD	03H
	DD	00H
	DD	0ffffffffH
	DD	00H
	DD	040H
	DD	FLAT:??_R3?$basic_istream@DU?$char_traits@D@std@@@std@@8
rdata$r	ENDS
;	COMDAT ??_R3?$basic_istream@DU?$char_traits@D@std@@@std@@8
rdata$r	SEGMENT
??_R3?$basic_istream@DU?$char_traits@D@std@@@std@@8 DD 00H ; std::basic_istream<char,std::char_traits<char> >::`RTTI Class Hierarchy Descriptor'
	DD	00H
	DD	04H
	DD	FLAT:??_R2?$basic_istream@DU?$char_traits@D@std@@@std@@8
rdata$r	ENDS
;	COMDAT ??_R2?$basic_istream@DU?$char_traits@D@std@@@std@@8
rdata$r	SEGMENT
??_R2?$basic_istream@DU?$char_traits@D@std@@@std@@8 DD FLAT:??_R1A@?0A@EA@?$basic_istream@DU?$char_traits@D@std@@@std@@8 ; std::basic_istream<char,std::char_traits<char> >::`RTTI Base Class Array'
	DD	FLAT:??_R1A@A@3FA@?$basic_ios@DU?$char_traits@D@std@@@std@@8
	DD	FLAT:??_R1A@A@3EA@ios_base@std@@8
	DD	FLAT:??_R17A@3EA@?$_Iosb@H@std@@8
rdata$r	ENDS
;	COMDAT ??_R17A@3EA@?$_Iosb@H@std@@8
rdata$r	SEGMENT
??_R17A@3EA@?$_Iosb@H@std@@8 DD FLAT:??_R0?AV?$_Iosb@H@std@@@8 ; std::_Iosb<int>::`RTTI Base Class Descriptor at (8,0,4,64)'
	DD	00H
	DD	08H
	DD	00H
	DD	04H
	DD	040H
	DD	FLAT:??_R3?$_Iosb@H@std@@8
rdata$r	ENDS
;	COMDAT ??_R1A@A@3EA@ios_base@std@@8
rdata$r	SEGMENT
??_R1A@A@3EA@ios_base@std@@8 DD FLAT:??_R0?AVios_base@std@@@8 ; std::ios_base::`RTTI Base Class Descriptor at (0,0,4,64)'
	DD	01H
	DD	00H
	DD	00H
	DD	04H
	DD	040H
	DD	FLAT:??_R3ios_base@std@@8
rdata$r	ENDS
;	COMDAT ??_R1A@A@3FA@?$basic_ios@DU?$char_traits@D@std@@@std@@8
rdata$r	SEGMENT
??_R1A@A@3FA@?$basic_ios@DU?$char_traits@D@std@@@std@@8 DD FLAT:??_R0?AV?$basic_ios@DU?$char_traits@D@std@@@std@@@8 ; std::basic_ios<char,std::char_traits<char> >::`RTTI Base Class Descriptor at (0,0,4,80)'
	DD	02H
	DD	00H
	DD	00H
	DD	04H
	DD	050H
	DD	FLAT:??_R3?$basic_ios@DU?$char_traits@D@std@@@std@@8
rdata$r	ENDS
;	COMDAT ??_R3?$basic_ios@DU?$char_traits@D@std@@@std@@8
rdata$r	SEGMENT
??_R3?$basic_ios@DU?$char_traits@D@std@@@std@@8 DD 00H	; std::basic_ios<char,std::char_traits<char> >::`RTTI Class Hierarchy Descriptor'
	DD	00H
	DD	03H
	DD	FLAT:??_R2?$basic_ios@DU?$char_traits@D@std@@@std@@8
rdata$r	ENDS
;	COMDAT ??_R2?$basic_ios@DU?$char_traits@D@std@@@std@@8
rdata$r	SEGMENT
??_R2?$basic_ios@DU?$char_traits@D@std@@@std@@8 DD FLAT:??_R1A@?0A@EA@?$basic_ios@DU?$char_traits@D@std@@@std@@8 ; std::basic_ios<char,std::char_traits<char> >::`RTTI Base Class Array'
	DD	FLAT:??_R1A@?0A@EA@ios_base@std@@8
	DD	FLAT:??_R17?0A@EA@?$_Iosb@H@std@@8
rdata$r	ENDS
;	COMDAT ??_R1A@?0A@EA@ios_base@std@@8
rdata$r	SEGMENT
??_R1A@?0A@EA@ios_base@std@@8 DD FLAT:??_R0?AVios_base@std@@@8 ; std::ios_base::`RTTI Base Class Descriptor at (0,-1,0,64)'
	DD	01H
	DD	00H
	DD	0ffffffffH
	DD	00H
	DD	040H
	DD	FLAT:??_R3ios_base@std@@8
rdata$r	ENDS
;	COMDAT ??_R3ios_base@std@@8
rdata$r	SEGMENT
??_R3ios_base@std@@8 DD 00H				; std::ios_base::`RTTI Class Hierarchy Descriptor'
	DD	00H
	DD	02H
	DD	FLAT:??_R2ios_base@std@@8
rdata$r	ENDS
;	COMDAT ??_R2ios_base@std@@8
rdata$r	SEGMENT
??_R2ios_base@std@@8 DD FLAT:??_R1A@?0A@EA@ios_base@std@@8 ; std::ios_base::`RTTI Base Class Array'
	DD	FLAT:??_R17?0A@EA@?$_Iosb@H@std@@8
rdata$r	ENDS
;	COMDAT ??_R17?0A@EA@?$_Iosb@H@std@@8
rdata$r	SEGMENT
??_R17?0A@EA@?$_Iosb@H@std@@8 DD FLAT:??_R0?AV?$_Iosb@H@std@@@8 ; std::_Iosb<int>::`RTTI Base Class Descriptor at (8,-1,0,64)'
	DD	00H
	DD	08H
	DD	0ffffffffH
	DD	00H
	DD	040H
	DD	FLAT:??_R3?$_Iosb@H@std@@8
rdata$r	ENDS
;	COMDAT ??_R3?$_Iosb@H@std@@8
rdata$r	SEGMENT
??_R3?$_Iosb@H@std@@8 DD 00H				; std::_Iosb<int>::`RTTI Class Hierarchy Descriptor'
	DD	00H
	DD	01H
	DD	FLAT:??_R2?$_Iosb@H@std@@8
rdata$r	ENDS
;	COMDAT ??_R2?$_Iosb@H@std@@8
rdata$r	SEGMENT
??_R2?$_Iosb@H@std@@8 DD FLAT:??_R1A@?0A@EA@?$_Iosb@H@std@@8 ; std::_Iosb<int>::`RTTI Base Class Array'
rdata$r	ENDS
;	COMDAT ??_R1A@?0A@EA@?$_Iosb@H@std@@8
rdata$r	SEGMENT
??_R1A@?0A@EA@?$_Iosb@H@std@@8 DD FLAT:??_R0?AV?$_Iosb@H@std@@@8 ; std::_Iosb<int>::`RTTI Base Class Descriptor at (0,-1,0,64)'
	DD	00H
	DD	00H
	DD	0ffffffffH
	DD	00H
	DD	040H
	DD	FLAT:??_R3?$_Iosb@H@std@@8
rdata$r	ENDS
;	COMDAT ??_R0?AV?$_Iosb@H@std@@@8
_DATA	SEGMENT
??_R0?AV?$_Iosb@H@std@@@8 DD FLAT:??_7type_info@@6B@	; std::_Iosb<int> `RTTI Type Descriptor'
	DD	00H
	DB	'.?AV?$_Iosb@H@std@@', 00H
_DATA	ENDS
;	COMDAT ??_R0?AVios_base@std@@@8
_DATA	SEGMENT
??_R0?AVios_base@std@@@8 DD FLAT:??_7type_info@@6B@	; std::ios_base `RTTI Type Descriptor'
	DD	00H
	DB	'.?AVios_base@std@@', 00H
_DATA	ENDS
;	COMDAT ??_R1A@?0A@EA@?$basic_ios@DU?$char_traits@D@std@@@std@@8
rdata$r	SEGMENT
??_R1A@?0A@EA@?$basic_ios@DU?$char_traits@D@std@@@std@@8 DD FLAT:??_R0?AV?$basic_ios@DU?$char_traits@D@std@@@std@@@8 ; std::basic_ios<char,std::char_traits<char> >::`RTTI Base Class Descriptor at (0,-1,0,64)'
	DD	02H
	DD	00H
	DD	0ffffffffH
	DD	00H
	DD	040H
	DD	FLAT:??_R3?$basic_ios@DU?$char_traits@D@std@@@std@@8
rdata$r	ENDS
;	COMDAT ??_R0?AV?$basic_ios@DU?$char_traits@D@std@@@std@@@8
_DATA	SEGMENT
??_R0?AV?$basic_ios@DU?$char_traits@D@std@@@std@@@8 DD FLAT:??_7type_info@@6B@ ; std::basic_ios<char,std::char_traits<char> > `RTTI Type Descriptor'
	DD	00H
	DB	'.?AV?$basic_ios@DU?$char_traits@D@std@@@std@@', 00H
_DATA	ENDS
;	COMDAT ??_R0?AV?$basic_istream@DU?$char_traits@D@std@@@std@@@8
_DATA	SEGMENT
??_R0?AV?$basic_istream@DU?$char_traits@D@std@@@std@@@8 DD FLAT:??_7type_info@@6B@ ; std::basic_istream<char,std::char_traits<char> > `RTTI Type Descriptor'
	DD	00H
	DB	'.?AV?$basic_istream@DU?$char_traits@D@std@@@std@@', 00H
_DATA	ENDS
;	COMDAT ??_R1A@?0A@EA@?$basic_istringstream@DU?$char_traits@D@std@@V?$allocator@D@2@@std@@8
rdata$r	SEGMENT
??_R1A@?0A@EA@?$basic_istringstream@DU?$char_traits@D@std@@V?$allocator@D@2@@std@@8 DD FLAT:??_R0?AV?$basic_istringstream@DU?$char_traits@D@std@@V?$allocator@D@2@@std@@@8 ; std::basic_istringstream<char,std::char_traits<char>,std::allocator<char> >::`RTTI Base Class Descriptor at (0,-1,0,64)'
	DD	04H
	DD	00H
	DD	0ffffffffH
	DD	00H
	DD	040H
	DD	FLAT:??_R3?$basic_istringstream@DU?$char_traits@D@std@@V?$allocator@D@2@@std@@8
rdata$r	ENDS
;	COMDAT ??_R0?AV?$basic_istringstream@DU?$char_traits@D@std@@V?$allocator@D@2@@std@@@8
_DATA	SEGMENT
??_R0?AV?$basic_istringstream@DU?$char_traits@D@std@@V?$allocator@D@2@@std@@@8 DD FLAT:??_7type_info@@6B@ ; std::basic_istringstream<char,std::char_traits<char>,std::allocator<char> > `RTTI Type Descriptor'
	DD	00H
	DB	'.?AV?$basic_istringstream@DU?$char_traits@D@std@@V?$allo'
	DB	'cator@D@2@@std@@', 00H
_DATA	ENDS
;	COMDAT ??_7?$basic_stringbuf@DU?$char_traits@D@std@@V?$allocator@D@2@@std@@6B@
CONST	SEGMENT
??_7?$basic_stringbuf@DU?$char_traits@D@std@@V?$allocator@D@2@@std@@6B@ DD FLAT:??_R4?$basic_stringbuf@DU?$char_traits@D@std@@V?$allocator@D@2@@std@@6B@ ; std::basic_stringbuf<char,std::char_traits<char>,std::allocator<char> >::`vftable'
	DD	FLAT:??_E?$basic_stringbuf@DU?$char_traits@D@std@@V?$allocator@D@2@@std@@UAEPAXI@Z
	DD	FLAT:?_Lock@?$basic_streambuf@DU?$char_traits@D@std@@@std@@UAEXXZ
	DD	FLAT:?_Unlock@?$basic_streambuf@DU?$char_traits@D@std@@@std@@UAEXXZ
	DD	FLAT:?overflow@?$basic_stringbuf@DU?$char_traits@D@std@@V?$allocator@D@2@@std@@MAEHH@Z
	DD	FLAT:?pbackfail@?$basic_stringbuf@DU?$char_traits@D@std@@V?$allocator@D@2@@std@@MAEHH@Z
	DD	FLAT:?showmanyc@?$basic_streambuf@DU?$char_traits@D@std@@@std@@MAE_JXZ
	DD	FLAT:?underflow@?$basic_stringbuf@DU?$char_traits@D@std@@V?$allocator@D@2@@std@@MAEHXZ
	DD	FLAT:?uflow@?$basic_streambuf@DU?$char_traits@D@std@@@std@@MAEHXZ
	DD	FLAT:?xsgetn@?$basic_streambuf@DU?$char_traits@D@std@@@std@@MAE_JPAD_J@Z
	DD	FLAT:?xsputn@?$basic_streambuf@DU?$char_traits@D@std@@@std@@MAE_JPBD_J@Z
	DD	FLAT:?seekoff@?$basic_stringbuf@DU?$char_traits@D@std@@V?$allocator@D@2@@std@@MAE?AV?$fpos@H@2@_JHH@Z
	DD	FLAT:?seekpos@?$basic_stringbuf@DU?$char_traits@D@std@@V?$allocator@D@2@@std@@MAE?AV?$fpos@H@2@V32@H@Z
	DD	FLAT:?setbuf@?$basic_streambuf@DU?$char_traits@D@std@@@std@@MAEPAV12@PAD_J@Z
	DD	FLAT:?sync@?$basic_streambuf@DU?$char_traits@D@std@@@std@@MAEHXZ
	DD	FLAT:?imbue@?$basic_streambuf@DU?$char_traits@D@std@@@std@@MAEXABVlocale@2@@Z
CONST	ENDS
;	COMDAT ??_R4?$basic_stringbuf@DU?$char_traits@D@std@@V?$allocator@D@2@@std@@6B@
rdata$r	SEGMENT
??_R4?$basic_stringbuf@DU?$char_traits@D@std@@V?$allocator@D@2@@std@@6B@ DD 00H ; std::basic_stringbuf<char,std::char_traits<char>,std::allocator<char> >::`RTTI Complete Object Locator'
	DD	00H
	DD	00H
	DD	FLAT:??_R0?AV?$basic_stringbuf@DU?$char_traits@D@std@@V?$allocator@D@2@@std@@@8
	DD	FLAT:??_R3?$basic_stringbuf@DU?$char_traits@D@std@@V?$allocator@D@2@@std@@8
rdata$r	ENDS
;	COMDAT ??_R3?$basic_stringbuf@DU?$char_traits@D@std@@V?$allocator@D@2@@std@@8
rdata$r	SEGMENT
??_R3?$basic_stringbuf@DU?$char_traits@D@std@@V?$allocator@D@2@@std@@8 DD 00H ; std::basic_stringbuf<char,std::char_traits<char>,std::allocator<char> >::`RTTI Class Hierarchy Descriptor'
	DD	00H
	DD	02H
	DD	FLAT:??_R2?$basic_stringbuf@DU?$char_traits@D@std@@V?$allocator@D@2@@std@@8
rdata$r	ENDS
;	COMDAT ??_R2?$basic_stringbuf@DU?$char_traits@D@std@@V?$allocator@D@2@@std@@8
rdata$r	SEGMENT
??_R2?$basic_stringbuf@DU?$char_traits@D@std@@V?$allocator@D@2@@std@@8 DD FLAT:??_R1A@?0A@EA@?$basic_stringbuf@DU?$char_traits@D@std@@V?$allocator@D@2@@std@@8 ; std::basic_stringbuf<char,std::char_traits<char>,std::allocator<char> >::`RTTI Base Class Array'
	DD	FLAT:??_R1A@?0A@EA@?$basic_streambuf@DU?$char_traits@D@std@@@std@@8
rdata$r	ENDS
;	COMDAT ??_R1A@?0A@EA@?$basic_streambuf@DU?$char_traits@D@std@@@std@@8
rdata$r	SEGMENT
??_R1A@?0A@EA@?$basic_streambuf@DU?$char_traits@D@std@@@std@@8 DD FLAT:??_R0?AV?$basic_streambuf@DU?$char_traits@D@std@@@std@@@8 ; std::basic_streambuf<char,std::char_traits<char> >::`RTTI Base Class Descriptor at (0,-1,0,64)'
	DD	00H
	DD	00H
	DD	0ffffffffH
	DD	00H
	DD	040H
	DD	FLAT:??_R3?$basic_streambuf@DU?$char_traits@D@std@@@std@@8
rdata$r	ENDS
;	COMDAT ??_R3?$basic_streambuf@DU?$char_traits@D@std@@@std@@8
rdata$r	SEGMENT
??_R3?$basic_streambuf@DU?$char_traits@D@std@@@std@@8 DD 00H ; std::basic_streambuf<char,std::char_traits<char> >::`RTTI Class Hierarchy Descriptor'
	DD	00H
	DD	01H
	DD	FLAT:??_R2?$basic_streambuf@DU?$char_traits@D@std@@@std@@8
rdata$r	ENDS
;	COMDAT ??_R2?$basic_streambuf@DU?$char_traits@D@std@@@std@@8
rdata$r	SEGMENT
??_R2?$basic_streambuf@DU?$char_traits@D@std@@@std@@8 DD FLAT:??_R1A@?0A@EA@?$basic_streambuf@DU?$char_traits@D@std@@@std@@8 ; std::basic_streambuf<char,std::char_traits<char> >::`RTTI Base Class Array'
rdata$r	ENDS
;	COMDAT ??_R0?AV?$basic_streambuf@DU?$char_traits@D@std@@@std@@@8
_DATA	SEGMENT
??_R0?AV?$basic_streambuf@DU?$char_traits@D@std@@@std@@@8 DD FLAT:??_7type_info@@6B@ ; std::basic_streambuf<char,std::char_traits<char> > `RTTI Type Descriptor'
	DD	00H
	DB	'.?AV?$basic_streambuf@DU?$char_traits@D@std@@@std@@', 00H
_DATA	ENDS
;	COMDAT ??_R1A@?0A@EA@?$basic_stringbuf@DU?$char_traits@D@std@@V?$allocator@D@2@@std@@8
rdata$r	SEGMENT
??_R1A@?0A@EA@?$basic_stringbuf@DU?$char_traits@D@std@@V?$allocator@D@2@@std@@8 DD FLAT:??_R0?AV?$basic_stringbuf@DU?$char_traits@D@std@@V?$allocator@D@2@@std@@@8 ; std::basic_stringbuf<char,std::char_traits<char>,std::allocator<char> >::`RTTI Base Class Descriptor at (0,-1,0,64)'
	DD	01H
	DD	00H
	DD	0ffffffffH
	DD	00H
	DD	040H
	DD	FLAT:??_R3?$basic_stringbuf@DU?$char_traits@D@std@@V?$allocator@D@2@@std@@8
rdata$r	ENDS
;	COMDAT ??_R0?AV?$basic_stringbuf@DU?$char_traits@D@std@@V?$allocator@D@2@@std@@@8
_DATA	SEGMENT
??_R0?AV?$basic_stringbuf@DU?$char_traits@D@std@@V?$allocator@D@2@@std@@@8 DD FLAT:??_7type_info@@6B@ ; std::basic_stringbuf<char,std::char_traits<char>,std::allocator<char> > `RTTI Type Descriptor'
	DD	00H
	DB	'.?AV?$basic_stringbuf@DU?$char_traits@D@std@@V?$allocato'
	DB	'r@D@2@@std@@', 00H
_DATA	ENDS
;	COMDAT ??_7bad_alloc@std@@6B@
CONST	SEGMENT
??_7bad_alloc@std@@6B@ DD FLAT:??_R4bad_alloc@std@@6B@	; std::bad_alloc::`vftable'
	DD	FLAT:??_Ebad_alloc@std@@UAEPAXI@Z
	DD	FLAT:?what@exception@std@@UBEPBDXZ
CONST	ENDS
;	COMDAT ??_R4bad_alloc@std@@6B@
rdata$r	SEGMENT
??_R4bad_alloc@std@@6B@ DD 00H				; std::bad_alloc::`RTTI Complete Object Locator'
	DD	00H
	DD	00H
	DD	FLAT:??_R0?AVbad_alloc@std@@@8
	DD	FLAT:??_R3bad_alloc@std@@8
rdata$r	ENDS
;	COMDAT ??_R3bad_alloc@std@@8
rdata$r	SEGMENT
??_R3bad_alloc@std@@8 DD 00H				; std::bad_alloc::`RTTI Class Hierarchy Descriptor'
	DD	00H
	DD	02H
	DD	FLAT:??_R2bad_alloc@std@@8
rdata$r	ENDS
;	COMDAT ??_R2bad_alloc@std@@8
rdata$r	SEGMENT
??_R2bad_alloc@std@@8 DD FLAT:??_R1A@?0A@EA@bad_alloc@std@@8 ; std::bad_alloc::`RTTI Base Class Array'
	DD	FLAT:??_R1A@?0A@EA@exception@std@@8
rdata$r	ENDS
;	COMDAT ??_R1A@?0A@EA@exception@std@@8
rdata$r	SEGMENT
??_R1A@?0A@EA@exception@std@@8 DD FLAT:??_R0?AVexception@std@@@8 ; std::exception::`RTTI Base Class Descriptor at (0,-1,0,64)'
	DD	00H
	DD	00H
	DD	0ffffffffH
	DD	00H
	DD	040H
	DD	FLAT:??_R3exception@std@@8
rdata$r	ENDS
;	COMDAT ??_R3exception@std@@8
rdata$r	SEGMENT
??_R3exception@std@@8 DD 00H				; std::exception::`RTTI Class Hierarchy Descriptor'
	DD	00H
	DD	01H
	DD	FLAT:??_R2exception@std@@8
rdata$r	ENDS
;	COMDAT ??_R2exception@std@@8
rdata$r	SEGMENT
??_R2exception@std@@8 DD FLAT:??_R1A@?0A@EA@exception@std@@8 ; std::exception::`RTTI Base Class Array'
rdata$r	ENDS
;	COMDAT ??_R1A@?0A@EA@bad_alloc@std@@8
rdata$r	SEGMENT
??_R1A@?0A@EA@bad_alloc@std@@8 DD FLAT:??_R0?AVbad_alloc@std@@@8 ; std::bad_alloc::`RTTI Base Class Descriptor at (0,-1,0,64)'
	DD	01H
	DD	00H
	DD	0ffffffffH
	DD	00H
	DD	040H
	DD	FLAT:??_R3bad_alloc@std@@8
rdata$r	ENDS
;	COMDAT __TI3?AVstring_cast_error@dlib@@
xdata$x	SEGMENT
__TI3?AVstring_cast_error@dlib@@ DD 00H
	DD	FLAT:??1string_cast_error@dlib@@UAE@XZ
	DD	00H
	DD	FLAT:__CTA3?AVstring_cast_error@dlib@@
xdata$x	ENDS
;	COMDAT __CTA3?AVstring_cast_error@dlib@@
xdata$x	SEGMENT
__CTA3?AVstring_cast_error@dlib@@ DD 03H
	DD	FLAT:__CT??_R0?AVstring_cast_error@dlib@@@8??0string_cast_error@dlib@@QAE@ABV01@@Z44
	DD	FLAT:__CT??_R0?AVerror@dlib@@@8??0error@dlib@@QAE@ABV01@@Z44
	DD	FLAT:__CT??_R0?AVexception@std@@@8??0exception@std@@QAE@ABV01@@Z12
xdata$x	ENDS
;	COMDAT __CT??_R0?AVstring_cast_error@dlib@@@8??0string_cast_error@dlib@@QAE@ABV01@@Z44
xdata$x	SEGMENT
__CT??_R0?AVstring_cast_error@dlib@@@8??0string_cast_error@dlib@@QAE@ABV01@@Z44 DD 00H
	DD	FLAT:??_R0?AVstring_cast_error@dlib@@@8
	DD	00H
	DD	0ffffffffH
	ORG $+4
	DD	02cH
	DD	FLAT:??0string_cast_error@dlib@@QAE@ABV01@@Z
xdata$x	ENDS
;	COMDAT ??_R0?AVstring_cast_error@dlib@@@8
_DATA	SEGMENT
??_R0?AVstring_cast_error@dlib@@@8 DD FLAT:??_7type_info@@6B@ ; dlib::string_cast_error `RTTI Type Descriptor'
	DD	00H
	DB	'.?AVstring_cast_error@dlib@@', 00H
_DATA	ENDS
;	COMDAT __TI2?AVbad_alloc@std@@
xdata$x	SEGMENT
__TI2?AVbad_alloc@std@@ DD 00H
	DD	FLAT:??1bad_alloc@std@@UAE@XZ
	DD	00H
	DD	FLAT:__CTA2?AVbad_alloc@std@@
xdata$x	ENDS
;	COMDAT __CTA2?AVbad_alloc@std@@
xdata$x	SEGMENT
__CTA2?AVbad_alloc@std@@ DD 02H
	DD	FLAT:__CT??_R0?AVbad_alloc@std@@@8??0bad_alloc@std@@QAE@ABV01@@Z12
	DD	FLAT:__CT??_R0?AVexception@std@@@8??0exception@std@@QAE@ABV01@@Z12
xdata$x	ENDS
;	COMDAT __CT??_R0?AVbad_alloc@std@@@8??0bad_alloc@std@@QAE@ABV01@@Z12
xdata$x	SEGMENT
__CT??_R0?AVbad_alloc@std@@@8??0bad_alloc@std@@QAE@ABV01@@Z12 DD 00H
	DD	FLAT:??_R0?AVbad_alloc@std@@@8
	DD	00H
	DD	0ffffffffH
	ORG $+4
	DD	0cH
	DD	FLAT:??0bad_alloc@std@@QAE@ABV01@@Z
xdata$x	ENDS
;	COMDAT ?_Stz@?$fpos@H@std@@0HB
CONST	SEGMENT
?_Stz@?$fpos@H@std@@0HB DD 00H				; std::fpos<int>::_Stz
CONST	ENDS
;	COMDAT __TI3?AVcast_to_string_error@dlib@@
xdata$x	SEGMENT
__TI3?AVcast_to_string_error@dlib@@ DD 00H
	DD	FLAT:??1cast_to_string_error@dlib@@UAE@XZ
	DD	00H
	DD	FLAT:__CTA3?AVcast_to_string_error@dlib@@
xdata$x	ENDS
;	COMDAT __CTA3?AVcast_to_string_error@dlib@@
xdata$x	SEGMENT
__CTA3?AVcast_to_string_error@dlib@@ DD 03H
	DD	FLAT:__CT??_R0?AVcast_to_string_error@dlib@@@8??0cast_to_string_error@dlib@@QAE@ABV01@@Z44
	DD	FLAT:__CT??_R0?AVerror@dlib@@@8??0error@dlib@@QAE@ABV01@@Z44
	DD	FLAT:__CT??_R0?AVexception@std@@@8??0exception@std@@QAE@ABV01@@Z12
xdata$x	ENDS
;	COMDAT __CT??_R0?AVcast_to_string_error@dlib@@@8??0cast_to_string_error@dlib@@QAE@ABV01@@Z44
xdata$x	SEGMENT
__CT??_R0?AVcast_to_string_error@dlib@@@8??0cast_to_string_error@dlib@@QAE@ABV01@@Z44 DD 00H
	DD	FLAT:??_R0?AVcast_to_string_error@dlib@@@8
	DD	00H
	DD	0ffffffffH
	ORG $+4
	DD	02cH
	DD	FLAT:??0cast_to_string_error@dlib@@QAE@ABV01@@Z
xdata$x	ENDS
;	COMDAT ??_R0?AVcast_to_string_error@dlib@@@8
_DATA	SEGMENT
??_R0?AVcast_to_string_error@dlib@@@8 DD FLAT:??_7type_info@@6B@ ; dlib::cast_to_string_error `RTTI Type Descriptor'
	DD	00H
	DB	'.?AVcast_to_string_error@dlib@@', 00H
_DATA	ENDS
;	COMDAT ?npos@?$basic_string@DU?$char_traits@D@std@@V?$allocator@D@2@@std@@2IB
CONST	SEGMENT
?npos@?$basic_string@DU?$char_traits@D@std@@V?$allocator@D@2@@std@@2IB DD 0ffffffffH ; std::basic_string<char,std::char_traits<char>,std::allocator<char> >::npos
CONST	ENDS
;	COMDAT ??_C@_0BB@MOGOBHAF@list?$DMT?$DO?5too?5long?$AA@
CONST	SEGMENT
??_C@_0BB@MOGOBHAF@list?$DMT?$DO?5too?5long?$AA@ DB 'list<T> too long', 00H ; `string'
CONST	ENDS
;	COMDAT ??_C@_0BD@OLBABOEK@vector?$DMT?$DO?5too?5long?$AA@
CONST	SEGMENT
??_C@_0BD@OLBABOEK@vector?$DMT?$DO?5too?5long?$AA@ DB 'vector<T> too long'
	DB	00H						; `string'
CONST	ENDS
;	COMDAT ??_C@_0BA@JFNIOLAK@string?5too?5long?$AA@
CONST	SEGMENT
??_C@_0BA@JFNIOLAK@string?5too?5long?$AA@ DB 'string too long', 00H ; `string'
CONST	ENDS
;	COMDAT ??_C@_0BI@CFPLBAOH@invalid?5string?5position?$AA@
CONST	SEGMENT
??_C@_0BI@CFPLBAOH@invalid?5string?5position?$AA@ DB 'invalid string posi'
	DB	'tion', 00H					; `string'
CONST	ENDS
;	COMDAT __TI3?AV?$basic_string@DU?$char_traits@D@std@@V?$allocator@D@2@@std@@
xdata$x	SEGMENT
__TI3?AV?$basic_string@DU?$char_traits@D@std@@V?$allocator@D@2@@std@@ DD 00H
	DD	FLAT:??1?$basic_string@DU?$char_traits@D@std@@V?$allocator@D@2@@std@@QAE@XZ
	DD	00H
	DD	FLAT:__CTA3?AV?$basic_string@DU?$char_traits@D@std@@V?$allocator@D@2@@std@@
xdata$x	ENDS
;	COMDAT __CTA3?AV?$basic_string@DU?$char_traits@D@std@@V?$allocator@D@2@@std@@
xdata$x	SEGMENT
__CTA3?AV?$basic_string@DU?$char_traits@D@std@@V?$allocator@D@2@@std@@ DD 03H
	DD	FLAT:__CT??_R0?AV?$basic_string@DU?$char_traits@D@std@@V?$allocator@D@2@@std@@@8??0?$basic_string@DU?$char_traits@D@std@@V?$allocator@D@2@@std@@QAE@ABV01@@Z28
	DD	FLAT:__CT??_R0?AV?$_String_val@DV?$allocator@D@std@@@std@@@8??0?$_String_val@DV?$allocator@D@std@@@std@@QAE@ABV01@@Z28
	DD	FLAT:__CT??_R0?AU_Container_base0@std@@@81
xdata$x	ENDS
;	COMDAT __CT??_R0?AU_Container_base0@std@@@81
xdata$x	SEGMENT
__CT??_R0?AU_Container_base0@std@@@81 DD 00H
	DD	FLAT:??_R0?AU_Container_base0@std@@@8
	DD	00H
	DD	0ffffffffH
	ORG $+4
	DD	01H
	DD	00H
xdata$x	ENDS
;	COMDAT __CT??_R0?AV?$_String_val@DV?$allocator@D@std@@@std@@@8??0?$_String_val@DV?$allocator@D@std@@@std@@QAE@ABV01@@Z28
xdata$x	SEGMENT
__CT??_R0?AV?$_String_val@DV?$allocator@D@std@@@std@@@8??0?$_String_val@DV?$allocator@D@std@@@std@@QAE@ABV01@@Z28 DD 00H
	DD	FLAT:??_R0?AV?$_String_val@DV?$allocator@D@std@@@std@@@8
	DD	00H
	DD	0ffffffffH
	ORG $+4
	DD	01cH
	DD	FLAT:??0?$_String_val@DV?$allocator@D@std@@@std@@QAE@ABV01@@Z
xdata$x	ENDS
;	COMDAT __CT??_R0?AV?$basic_string@DU?$char_traits@D@std@@V?$allocator@D@2@@std@@@8??0?$basic_string@DU?$char_traits@D@std@@V?$allocator@D@2@@std@@QAE@ABV01@@Z28
xdata$x	SEGMENT
__CT??_R0?AV?$basic_string@DU?$char_traits@D@std@@V?$allocator@D@2@@std@@@8??0?$basic_string@DU?$char_traits@D@std@@V?$allocator@D@2@@std@@QAE@ABV01@@Z28 DD 00H
	DD	FLAT:??_R0?AV?$basic_string@DU?$char_traits@D@std@@V?$allocator@D@2@@std@@@8
	DD	00H
	DD	0ffffffffH
	ORG $+4
	DD	01cH
	DD	FLAT:??0?$basic_string@DU?$char_traits@D@std@@V?$allocator@D@2@@std@@QAE@ABV01@@Z
xdata$x	ENDS
;	COMDAT ??_R0?AU_Container_base0@std@@@8
_DATA	SEGMENT
??_R0?AU_Container_base0@std@@@8 DD FLAT:??_7type_info@@6B@ ; std::_Container_base0 `RTTI Type Descriptor'
	DD	00H
	DB	'.?AU_Container_base0@std@@', 00H
_DATA	ENDS
;	COMDAT ??_R0?AV?$_String_val@DV?$allocator@D@std@@@std@@@8
_DATA	SEGMENT
??_R0?AV?$_String_val@DV?$allocator@D@std@@@std@@@8 DD FLAT:??_7type_info@@6B@ ; std::_String_val<char,std::allocator<char> > `RTTI Type Descriptor'
	DD	00H
	DB	'.?AV?$_String_val@DV?$allocator@D@std@@@std@@', 00H
_DATA	ENDS
;	COMDAT ??_R0?AV?$basic_string@DU?$char_traits@D@std@@V?$allocator@D@2@@std@@@8
_DATA	SEGMENT
??_R0?AV?$basic_string@DU?$char_traits@D@std@@V?$allocator@D@2@@std@@@8 DD FLAT:??_7type_info@@6B@ ; std::basic_string<char,std::char_traits<char>,std::allocator<char> > `RTTI Type Descriptor'
	DD	00H
	DB	'.?AV?$basic_string@DU?$char_traits@D@std@@V?$allocator@D'
	DB	'@2@@std@@', 00H
_DATA	ENDS
;	COMDAT ??_C@_0CG@BENFANJG@string?5cast?5error?3?5invalid?5strin@
CONST	SEGMENT
??_C@_0CG@BENFANJG@string?5cast?5error?3?5invalid?5strin@ DB 'string cast'
	DB	' error: invalid string = ''', 00H		; `string'
CONST	ENDS
;	COMDAT ??_C@_01GEODFPGF@?8?$AA@
CONST	SEGMENT
??_C@_01GEODFPGF@?8?$AA@ DB '''', 00H			; `string'
CONST	ENDS
;	COMDAT ??_R0?AVbad_alloc@std@@@8
_DATA	SEGMENT
??_R0?AVbad_alloc@std@@@8 DD FLAT:??_7type_info@@6B@	; std::bad_alloc `RTTI Type Descriptor'
	DD	00H
	DB	'.?AVbad_alloc@std@@', 00H
_DATA	ENDS
;	COMDAT __CT??_R0?AVerror@dlib@@@8??0error@dlib@@QAE@ABV01@@Z44
xdata$x	SEGMENT
__CT??_R0?AVerror@dlib@@@8??0error@dlib@@QAE@ABV01@@Z44 DD 00H
	DD	FLAT:??_R0?AVerror@dlib@@@8
	DD	00H
	DD	0ffffffffH
	ORG $+4
	DD	02cH
	DD	FLAT:??0error@dlib@@QAE@ABV01@@Z
xdata$x	ENDS
;	COMDAT ??_R0?AVerror@dlib@@@8
_DATA	SEGMENT
??_R0?AVerror@dlib@@@8 DD FLAT:??_7type_info@@6B@	; dlib::error `RTTI Type Descriptor'
	DD	00H
	DB	'.?AVerror@dlib@@', 00H
_DATA	ENDS
;	COMDAT ??_C@_0BF@MDHLFKDO@undefined?5error?5type?$AA@
CONST	SEGMENT
??_C@_0BF@MDHLFKDO@undefined?5error?5type?$AA@ DB 'undefined error type', 00H ; `string'
CONST	ENDS
;	COMDAT ??_C@_0O@OEFMJDCD@EOPTION_PARSE?$AA@
CONST	SEGMENT
??_C@_0O@OEFMJDCD@EOPTION_PARSE?$AA@ DB 'EOPTION_PARSE', 00H ; `string'
CONST	ENDS
;	COMDAT ??_C@_0P@FAEPAFAG@EUTF8_TO_UTF32?$AA@
CONST	SEGMENT
??_C@_0P@FAEPAFAG@EUTF8_TO_UTF32?$AA@ DB 'EUTF8_TO_UTF32', 00H ; `string'
CONST	ENDS
;	COMDAT ??_C@_0N@NAMOGKME@ESTRING_CAST?$AA@
CONST	SEGMENT
??_C@_0N@NAMOGKME@ESTRING_CAST?$AA@ DB 'ESTRING_CAST', 00H ; `string'
CONST	ENDS
;	COMDAT ??_C@_0BA@PJCLMLLK@ECAST_TO_STRING?$AA@
CONST	SEGMENT
??_C@_0BA@PJCLMLLK@ECAST_TO_STRING?$AA@ DB 'ECAST_TO_STRING', 00H ; `string'
CONST	ENDS
;	COMDAT ??_C@_0M@FCNFANEH@EIMAGE_SAVE?$AA@
CONST	SEGMENT
??_C@_0M@FCNFANEH@EIMAGE_SAVE?$AA@ DB 'EIMAGE_SAVE', 00H ; `string'
CONST	ENDS
;	COMDAT ??_C@_0P@KBGGBGPJ@ECONFIG_READER?$AA@
CONST	SEGMENT
??_C@_0P@KBGGBGPJ@ECONFIG_READER?$AA@ DB 'ECONFIG_READER', 00H ; `string'
CONST	ENDS
;	COMDAT ??_C@_0BF@HAKJKBFK@EMULTIPLE_OCCURANCES?$AA@
CONST	SEGMENT
??_C@_0BF@HAKJKBFK@EMULTIPLE_OCCURANCES?$AA@ DB 'EMULTIPLE_OCCURANCES', 00H ; `string'
CONST	ENDS
;	COMDAT ??_C@_0BE@MLIOEHOK@EINVALID_OPTION_ARG?$AA@
CONST	SEGMENT
??_C@_0BE@MLIOEHOK@EINVALID_OPTION_ARG?$AA@ DB 'EINVALID_OPTION_ARG', 00H ; `string'
CONST	ENDS
;	COMDAT ??_C@_0BJ@EOKNONCF@EMISSING_REQUIRED_OPTION?$AA@
CONST	SEGMENT
??_C@_0BJ@EOKNONCF@EMISSING_REQUIRED_OPTION?$AA@ DB 'EMISSING_REQUIRED_OP'
	DB	'TION', 00H					; `string'
CONST	ENDS
;	COMDAT ??_C@_0BG@KGJDGDG@EINCOMPATIBLE_OPTIONS?$AA@
CONST	SEGMENT
??_C@_0BG@KGJDGDG@EINCOMPATIBLE_OPTIONS?$AA@ DB 'EINCOMPATIBLE_OPTIONS', 00H ; `string'
CONST	ENDS
;	COMDAT ??_C@_0M@JJNDCELI@EDIR_CREATE?$AA@
CONST	SEGMENT
??_C@_0M@JJNDCELI@EDIR_CREATE?$AA@ DB 'EDIR_CREATE', 00H ; `string'
CONST	ENDS
;	COMDAT ??_C@_0M@FAMIPOJD@EIMAGE_LOAD?$AA@
CONST	SEGMENT
??_C@_0M@FAMIPOJD@EIMAGE_LOAD?$AA@ DB 'EIMAGE_LOAD', 00H ; `string'
CONST	ENDS
;	COMDAT ??_C@_0P@EHPKLALH@EBROKEN_ASSERT?$AA@
CONST	SEGMENT
??_C@_0P@EHPKLALH@EBROKEN_ASSERT?$AA@ DB 'EBROKEN_ASSERT', 00H ; `string'
CONST	ENDS
;	COMDAT ??_C@_06KBMJJNNM@EFATAL?$AA@
CONST	SEGMENT
??_C@_06KBMJJNNM@EFATAL?$AA@ DB 'EFATAL', 00H		; `string'
CONST	ENDS
;	COMDAT ??_C@_04OEMBKHEI@EGUI?$AA@
CONST	SEGMENT
??_C@_04OEMBKHEI@EGUI?$AA@ DB 'EGUI', 00H		; `string'
CONST	ENDS
;	COMDAT ??_C@_07MEGFPAOI@ETHREAD?$AA@
CONST	SEGMENT
??_C@_07MEGFPAOI@ETHREAD?$AA@ DB 'ETHREAD', 00H		; `string'
CONST	ENDS
;	COMDAT ??_C@_07OMFDINFC@ESOCKET?$AA@
CONST	SEGMENT
??_C@_07OMFDINFC@ESOCKET?$AA@ DB 'ESOCKET', 00H		; `string'
CONST	ENDS
;	COMDAT ??_C@_0P@OJEAEGFK@ETOO_MANY_ARGS?$AA@
CONST	SEGMENT
??_C@_0P@OJEAEGFK@ETOO_MANY_ARGS?$AA@ DB 'ETOO_MANY_ARGS', 00H ; `string'
CONST	ENDS
;	COMDAT ??_C@_0O@FKLOKCDD@ETOO_FEW_ARGS?$AA@
CONST	SEGMENT
??_C@_0O@FKLOKCDD@ETOO_FEW_ARGS?$AA@ DB 'ETOO_FEW_ARGS', 00H ; `string'
CONST	ENDS
;	COMDAT ??_C@_0BA@ECJKINJI@EINVALID_OPTION?$AA@
CONST	SEGMENT
??_C@_0BA@ECJKINJI@EINVALID_OPTION?$AA@ DB 'EINVALID_OPTION', 00H ; `string'
CONST	ENDS
;	COMDAT ??_C@_0P@BPEHFKAL@EGENERAL_TYPE3?$AA@
CONST	SEGMENT
??_C@_0P@BPEHFKAL@EGENERAL_TYPE3?$AA@ DB 'EGENERAL_TYPE3', 00H ; `string'
CONST	ENDS
;	COMDAT ??_C@_0P@GFMGLEK@EGENERAL_TYPE2?$AA@
CONST	SEGMENT
??_C@_0P@GFMGLEK@EGENERAL_TYPE2?$AA@ DB 'EGENERAL_TYPE2', 00H ; `string'
CONST	ENDS
;	COMDAT ??_C@_0P@CNHBDIIJ@EGENERAL_TYPE1?$AA@
CONST	SEGMENT
??_C@_0P@CNHBDIIJ@EGENERAL_TYPE1?$AA@ DB 'EGENERAL_TYPE1', 00H ; `string'
CONST	ENDS
;	COMDAT ??_C@_0N@LPJMHPLA@EUNSPECIFIED?$AA@
CONST	SEGMENT
??_C@_0N@LPJMHPLA@EUNSPECIFIED?$AA@ DB 'EUNSPECIFIED', 00H ; `string'
CONST	ENDS
;	COMDAT ??_C@_0BB@EIFDCKCH@ECREATE_SIGNALER?$AA@
CONST	SEGMENT
??_C@_0BB@EIFDCKCH@ECREATE_SIGNALER?$AA@ DB 'ECREATE_SIGNALER', 00H ; `string'
CONST	ENDS
;	COMDAT ??_C@_0O@HFAJODEH@ECREATE_MUTEX?$AA@
CONST	SEGMENT
??_C@_0O@HFAJODEH@ECREATE_MUTEX?$AA@ DB 'ECREATE_MUTEX', 00H ; `string'
CONST	ENDS
;	COMDAT ??_C@_0P@KNGBPCNG@ECREATE_THREAD?$AA@
CONST	SEGMENT
??_C@_0P@KNGBPCNG@ECREATE_THREAD?$AA@ DB 'ECREATE_THREAD', 00H ; `string'
CONST	ENDS
;	COMDAT ??_C@_08FKLNEDEP@EMONITOR?$AA@
CONST	SEGMENT
??_C@_08FKLNEDEP@EMONITOR?$AA@ DB 'EMONITOR', 00H	; `string'
CONST	ENDS
;	COMDAT ??_C@_08OIIHLIHK@ERESOLVE?$AA@
CONST	SEGMENT
??_C@_08OIIHLIHK@ERESOLVE?$AA@ DB 'ERESOLVE', 00H	; `string'
CONST	ENDS
;	COMDAT ??_C@_09PKLEEDLJ@ELISTENER?$AA@
CONST	SEGMENT
??_C@_09PKLEEDLJ@ELISTENER?$AA@ DB 'ELISTENER', 00H	; `string'
CONST	ENDS
;	COMDAT ??_C@_0M@IHPKCGCP@ECONNECTION?$AA@
CONST	SEGMENT
??_C@_0M@IHPKCGCP@ECONNECTION?$AA@ DB 'ECONNECTION', 00H ; `string'
CONST	ENDS
;	COMDAT ??_C@_08NJAOJCGE@ETIMEOUT?$AA@
CONST	SEGMENT
??_C@_08NJAOJCGE@ETIMEOUT?$AA@ DB 'ETIMEOUT', 00H	; `string'
CONST	ENDS
;	COMDAT ??_C@_0N@HGBOFMBA@EPORT_IN_USE?$AA@
CONST	SEGMENT
??_C@_0N@HGBOFMBA@EPORT_IN_USE?$AA@ DB 'EPORT_IN_USE', 00H ; `string'
CONST	ENDS
;	COMDAT ?end@?$_Iosb@H@std@@2W4_Seekdir@12@B
CONST	SEGMENT
?end@?$_Iosb@H@std@@2W4_Seekdir@12@B DD 02H		; std::_Iosb<int>::end
CONST	ENDS
;	COMDAT ?cur@?$_Iosb@H@std@@2W4_Seekdir@12@B
CONST	SEGMENT
?cur@?$_Iosb@H@std@@2W4_Seekdir@12@B DD 01H		; std::_Iosb<int>::cur
CONST	ENDS
;	COMDAT ?beg@?$_Iosb@H@std@@2W4_Seekdir@12@B
CONST	SEGMENT
?beg@?$_Iosb@H@std@@2W4_Seekdir@12@B DD 00H		; std::_Iosb<int>::beg
CONST	ENDS
;	COMDAT ?binary@?$_Iosb@H@std@@2W4_Openmode@12@B
CONST	SEGMENT
?binary@?$_Iosb@H@std@@2W4_Openmode@12@B DD 020H	; std::_Iosb<int>::binary
CONST	ENDS
;	COMDAT ?_Noreplace@?$_Iosb@H@std@@2W4_Openmode@12@B
CONST	SEGMENT
?_Noreplace@?$_Iosb@H@std@@2W4_Openmode@12@B DD 080H	; std::_Iosb<int>::_Noreplace
CONST	ENDS
;	COMDAT ?_Nocreate@?$_Iosb@H@std@@2W4_Openmode@12@B
CONST	SEGMENT
?_Nocreate@?$_Iosb@H@std@@2W4_Openmode@12@B DD 040H	; std::_Iosb<int>::_Nocreate
CONST	ENDS
;	COMDAT ?trunc@?$_Iosb@H@std@@2W4_Openmode@12@B
CONST	SEGMENT
?trunc@?$_Iosb@H@std@@2W4_Openmode@12@B DD 010H		; std::_Iosb<int>::trunc
CONST	ENDS
;	COMDAT ?app@?$_Iosb@H@std@@2W4_Openmode@12@B
CONST	SEGMENT
?app@?$_Iosb@H@std@@2W4_Openmode@12@B DD 08H		; std::_Iosb<int>::app
CONST	ENDS
;	COMDAT ?ate@?$_Iosb@H@std@@2W4_Openmode@12@B
CONST	SEGMENT
?ate@?$_Iosb@H@std@@2W4_Openmode@12@B DD 04H		; std::_Iosb<int>::ate
CONST	ENDS
;	COMDAT ?out@?$_Iosb@H@std@@2W4_Openmode@12@B
CONST	SEGMENT
?out@?$_Iosb@H@std@@2W4_Openmode@12@B DD 02H		; std::_Iosb<int>::out
CONST	ENDS
;	COMDAT ?in@?$_Iosb@H@std@@2W4_Openmode@12@B
CONST	SEGMENT
?in@?$_Iosb@H@std@@2W4_Openmode@12@B DD 01H		; std::_Iosb<int>::in
CONST	ENDS
;	COMDAT ?_Hardfail@?$_Iosb@H@std@@2W4_Iostate@12@B
CONST	SEGMENT
?_Hardfail@?$_Iosb@H@std@@2W4_Iostate@12@B DD 010H	; std::_Iosb<int>::_Hardfail
CONST	ENDS
;	COMDAT ?badbit@?$_Iosb@H@std@@2W4_Iostate@12@B
CONST	SEGMENT
?badbit@?$_Iosb@H@std@@2W4_Iostate@12@B DD 04H		; std::_Iosb<int>::badbit
CONST	ENDS
;	COMDAT ?failbit@?$_Iosb@H@std@@2W4_Iostate@12@B
CONST	SEGMENT
?failbit@?$_Iosb@H@std@@2W4_Iostate@12@B DD 02H		; std::_Iosb<int>::failbit
CONST	ENDS
;	COMDAT ?eofbit@?$_Iosb@H@std@@2W4_Iostate@12@B
CONST	SEGMENT
?eofbit@?$_Iosb@H@std@@2W4_Iostate@12@B DD 01H		; std::_Iosb<int>::eofbit
CONST	ENDS
;	COMDAT ?goodbit@?$_Iosb@H@std@@2W4_Iostate@12@B
CONST	SEGMENT
?goodbit@?$_Iosb@H@std@@2W4_Iostate@12@B DD 00H		; std::_Iosb<int>::goodbit
CONST	ENDS
;	COMDAT ?floatfield@?$_Iosb@H@std@@2W4_Fmtflags@12@B
CONST	SEGMENT
?floatfield@?$_Iosb@H@std@@2W4_Fmtflags@12@B DD 03000H	; std::_Iosb<int>::floatfield
CONST	ENDS
;	COMDAT ?basefield@?$_Iosb@H@std@@2W4_Fmtflags@12@B
CONST	SEGMENT
?basefield@?$_Iosb@H@std@@2W4_Fmtflags@12@B DD 0e00H	; std::_Iosb<int>::basefield
CONST	ENDS
;	COMDAT ?adjustfield@?$_Iosb@H@std@@2W4_Fmtflags@12@B
CONST	SEGMENT
?adjustfield@?$_Iosb@H@std@@2W4_Fmtflags@12@B DD 01c0H	; std::_Iosb<int>::adjustfield
CONST	ENDS
;	COMDAT ?_Stdio@?$_Iosb@H@std@@2W4_Fmtflags@12@B
CONST	SEGMENT
?_Stdio@?$_Iosb@H@std@@2W4_Fmtflags@12@B DD 08000H	; std::_Iosb<int>::_Stdio
CONST	ENDS
;	COMDAT ?boolalpha@?$_Iosb@H@std@@2W4_Fmtflags@12@B
CONST	SEGMENT
?boolalpha@?$_Iosb@H@std@@2W4_Fmtflags@12@B DD 04000H	; std::_Iosb<int>::boolalpha
CONST	ENDS
;	COMDAT ?hexfloat@?$_Iosb@H@std@@2W4_Fmtflags@12@B
CONST	SEGMENT
?hexfloat@?$_Iosb@H@std@@2W4_Fmtflags@12@B DD 03000H	; std::_Iosb<int>::hexfloat
CONST	ENDS
;	COMDAT ?fixed@?$_Iosb@H@std@@2W4_Fmtflags@12@B
CONST	SEGMENT
?fixed@?$_Iosb@H@std@@2W4_Fmtflags@12@B DD 02000H	; std::_Iosb<int>::fixed
CONST	ENDS
;	COMDAT ?scientific@?$_Iosb@H@std@@2W4_Fmtflags@12@B
CONST	SEGMENT
?scientific@?$_Iosb@H@std@@2W4_Fmtflags@12@B DD 01000H	; std::_Iosb<int>::scientific
CONST	ENDS
;	COMDAT ?hex@?$_Iosb@H@std@@2W4_Fmtflags@12@B
CONST	SEGMENT
?hex@?$_Iosb@H@std@@2W4_Fmtflags@12@B DD 0800H		; std::_Iosb<int>::hex
CONST	ENDS
;	COMDAT ?oct@?$_Iosb@H@std@@2W4_Fmtflags@12@B
CONST	SEGMENT
?oct@?$_Iosb@H@std@@2W4_Fmtflags@12@B DD 0400H		; std::_Iosb<int>::oct
CONST	ENDS
;	COMDAT ?dec@?$_Iosb@H@std@@2W4_Fmtflags@12@B
CONST	SEGMENT
?dec@?$_Iosb@H@std@@2W4_Fmtflags@12@B DD 0200H		; std::_Iosb<int>::dec
CONST	ENDS
;	COMDAT ?internal@?$_Iosb@H@std@@2W4_Fmtflags@12@B
CONST	SEGMENT
?internal@?$_Iosb@H@std@@2W4_Fmtflags@12@B DD 0100H	; std::_Iosb<int>::internal
CONST	ENDS
;	COMDAT ?right@?$_Iosb@H@std@@2W4_Fmtflags@12@B
CONST	SEGMENT
?right@?$_Iosb@H@std@@2W4_Fmtflags@12@B DD 080H		; std::_Iosb<int>::right
CONST	ENDS
;	COMDAT ?left@?$_Iosb@H@std@@2W4_Fmtflags@12@B
CONST	SEGMENT
?left@?$_Iosb@H@std@@2W4_Fmtflags@12@B DD 040H		; std::_Iosb<int>::left
CONST	ENDS
;	COMDAT ?showpos@?$_Iosb@H@std@@2W4_Fmtflags@12@B
CONST	SEGMENT
?showpos@?$_Iosb@H@std@@2W4_Fmtflags@12@B DD 020H	; std::_Iosb<int>::showpos
CONST	ENDS
;	COMDAT ?showpoint@?$_Iosb@H@std@@2W4_Fmtflags@12@B
CONST	SEGMENT
?showpoint@?$_Iosb@H@std@@2W4_Fmtflags@12@B DD 010H	; std::_Iosb<int>::showpoint
CONST	ENDS
;	COMDAT ?showbase@?$_Iosb@H@std@@2W4_Fmtflags@12@B
CONST	SEGMENT
?showbase@?$_Iosb@H@std@@2W4_Fmtflags@12@B DD 08H	; std::_Iosb<int>::showbase
CONST	ENDS
;	COMDAT ?uppercase@?$_Iosb@H@std@@2W4_Fmtflags@12@B
CONST	SEGMENT
?uppercase@?$_Iosb@H@std@@2W4_Fmtflags@12@B DD 04H	; std::_Iosb<int>::uppercase
CONST	ENDS
;	COMDAT ?unitbuf@?$_Iosb@H@std@@2W4_Fmtflags@12@B
CONST	SEGMENT
?unitbuf@?$_Iosb@H@std@@2W4_Fmtflags@12@B DD 02H	; std::_Iosb<int>::unitbuf
CONST	ENDS
;	COMDAT ?skipws@?$_Iosb@H@std@@2W4_Fmtflags@12@B
CONST	SEGMENT
?skipws@?$_Iosb@H@std@@2W4_Fmtflags@12@B DD 01H		; std::_Iosb<int>::skipws
CONST	ENDS
;	COMDAT ?none@?$_Locbase@H@std@@2HB
CONST	SEGMENT
?none@?$_Locbase@H@std@@2HB DD 00H			; std::_Locbase<int>::none
CONST	ENDS
;	COMDAT ?all@?$_Locbase@H@std@@2HB
CONST	SEGMENT
?all@?$_Locbase@H@std@@2HB DD 03fH			; std::_Locbase<int>::all
CONST	ENDS
;	COMDAT ?messages@?$_Locbase@H@std@@2HB
CONST	SEGMENT
?messages@?$_Locbase@H@std@@2HB DD 020H			; std::_Locbase<int>::messages
CONST	ENDS
;	COMDAT ?time@?$_Locbase@H@std@@2HB
CONST	SEGMENT
?time@?$_Locbase@H@std@@2HB DD 010H			; std::_Locbase<int>::time
CONST	ENDS
;	COMDAT ?numeric@?$_Locbase@H@std@@2HB
CONST	SEGMENT
?numeric@?$_Locbase@H@std@@2HB DD 08H			; std::_Locbase<int>::numeric
CONST	ENDS
;	COMDAT ?monetary@?$_Locbase@H@std@@2HB
CONST	SEGMENT
?monetary@?$_Locbase@H@std@@2HB DD 04H			; std::_Locbase<int>::monetary
CONST	ENDS
;	COMDAT ?ctype@?$_Locbase@H@std@@2HB
CONST	SEGMENT
?ctype@?$_Locbase@H@std@@2HB DD 02H			; std::_Locbase<int>::ctype
CONST	ENDS
;	COMDAT ?collate@?$_Locbase@H@std@@2HB
CONST	SEGMENT
?collate@?$_Locbase@H@std@@2HB DD 01H			; std::_Locbase<int>::collate
CONST	ENDS
;	COMDAT __CT??_R0?AVexception@std@@@8??0exception@std@@QAE@ABV01@@Z12
xdata$x	SEGMENT
__CT??_R0?AVexception@std@@@8??0exception@std@@QAE@ABV01@@Z12 DD 00H
	DD	FLAT:??_R0?AVexception@std@@@8
	DD	00H
	DD	0ffffffffH
	ORG $+4
	DD	0cH
	DD	FLAT:??0exception@std@@QAE@ABV01@@Z
xdata$x	ENDS
;	COMDAT ??_R0?AVexception@std@@@8
_DATA	SEGMENT
??_R0?AVexception@std@@@8 DD FLAT:??_7type_info@@6B@	; std::exception `RTTI Type Descriptor'
	DD	00H
	DB	'.?AVexception@std@@', 00H
_DATA	ENDS
;	COMDAT ?_Rank@?$_Arithmetic_traits@O@std@@2HB
CONST	SEGMENT
?_Rank@?$_Arithmetic_traits@O@std@@2HB DD 09H		; std::_Arithmetic_traits<long double>::_Rank
CONST	ENDS
;	COMDAT ?_Rank@?$_Arithmetic_traits@N@std@@2HB
CONST	SEGMENT
?_Rank@?$_Arithmetic_traits@N@std@@2HB DD 08H		; std::_Arithmetic_traits<double>::_Rank
CONST	ENDS
;	COMDAT ?_Rank@?$_Arithmetic_traits@M@std@@2HB
CONST	SEGMENT
?_Rank@?$_Arithmetic_traits@M@std@@2HB DD 07H		; std::_Arithmetic_traits<float>::_Rank
CONST	ENDS
;	COMDAT ?_Rank@?$_Arithmetic_traits@_K@std@@2HB
CONST	SEGMENT
?_Rank@?$_Arithmetic_traits@_K@std@@2HB DD 06H		; std::_Arithmetic_traits<unsigned __int64>::_Rank
CONST	ENDS
;	COMDAT ?_Rank@?$_Arithmetic_traits@_J@std@@2HB
CONST	SEGMENT
?_Rank@?$_Arithmetic_traits@_J@std@@2HB DD 06H		; std::_Arithmetic_traits<__int64>::_Rank
CONST	ENDS
;	COMDAT ?_Rank@?$_Arithmetic_traits@K@std@@2HB
CONST	SEGMENT
?_Rank@?$_Arithmetic_traits@K@std@@2HB DD 05H		; std::_Arithmetic_traits<unsigned long>::_Rank
CONST	ENDS
;	COMDAT ?_Rank@?$_Arithmetic_traits@J@std@@2HB
CONST	SEGMENT
?_Rank@?$_Arithmetic_traits@J@std@@2HB DD 05H		; std::_Arithmetic_traits<long>::_Rank
CONST	ENDS
;	COMDAT ?_Rank@?$_Arithmetic_traits@I@std@@2HB
CONST	SEGMENT
?_Rank@?$_Arithmetic_traits@I@std@@2HB DD 04H		; std::_Arithmetic_traits<unsigned int>::_Rank
CONST	ENDS
;	COMDAT ?_Rank@?$_Arithmetic_traits@H@std@@2HB
CONST	SEGMENT
?_Rank@?$_Arithmetic_traits@H@std@@2HB DD 04H		; std::_Arithmetic_traits<int>::_Rank
CONST	ENDS
;	COMDAT ?_Rank@?$_Arithmetic_traits@G@std@@2HB
CONST	SEGMENT
?_Rank@?$_Arithmetic_traits@G@std@@2HB DD 03H		; std::_Arithmetic_traits<unsigned short>::_Rank
CONST	ENDS
;	COMDAT ?_Rank@?$_Arithmetic_traits@F@std@@2HB
CONST	SEGMENT
?_Rank@?$_Arithmetic_traits@F@std@@2HB DD 03H		; std::_Arithmetic_traits<short>::_Rank
CONST	ENDS
;	COMDAT ?_Rank@?$_Arithmetic_traits@E@std@@2HB
CONST	SEGMENT
?_Rank@?$_Arithmetic_traits@E@std@@2HB DD 02H		; std::_Arithmetic_traits<unsigned char>::_Rank
CONST	ENDS
;	COMDAT ?_Rank@?$_Arithmetic_traits@C@std@@2HB
CONST	SEGMENT
?_Rank@?$_Arithmetic_traits@C@std@@2HB DD 02H		; std::_Arithmetic_traits<signed char>::_Rank
CONST	ENDS
;	COMDAT ?_Rank@?$_Arithmetic_traits@D@std@@2HB
CONST	SEGMENT
?_Rank@?$_Arithmetic_traits@D@std@@2HB DD 02H		; std::_Arithmetic_traits<char>::_Rank
CONST	ENDS
;	COMDAT ?_Rank@?$_Arithmetic_traits@_N@std@@2HB
CONST	SEGMENT
?_Rank@?$_Arithmetic_traits@_N@std@@2HB DD 01H		; std::_Arithmetic_traits<bool>::_Rank
CONST	ENDS
;	COMDAT ?value@?$integral_constant@I$0A@@tr1@std@@2IB
CONST	SEGMENT
?value@?$integral_constant@I$0A@@tr1@std@@2IB DD 00H	; std::tr1::integral_constant<unsigned int,0>::value
CONST	ENDS
;	COMDAT ?value@?$integral_constant@_N$00@tr1@std@@2_NB
CONST	SEGMENT
?value@?$integral_constant@_N$00@tr1@std@@2_NB DB 01H	; std::tr1::integral_constant<bool,1>::value
CONST	ENDS
;	COMDAT ?value@?$integral_constant@_N$0A@@tr1@std@@2_NB
CONST	SEGMENT
?value@?$integral_constant@_N$0A@@tr1@std@@2_NB DB 00H	; std::tr1::integral_constant<bool,0>::value
$SG-254	DB	00H
$SG-262	DB	00H
$SG-269	DB	00H
$SG-272	DB	00H
$SG-277	DB	00H
$SG-283	DB	00H
$SG-289	DB	00H
$SG-349	DB	00H
$SG-360	DB	00H
$SG-401	DB	00H
$SG-403	DB	00H
$SG-405	DB	00H
$SG-407	DB	00H
$SG-409	DB	00H
$SG-423	DB	00H
$SG-427	DB	00H
$SG-431	DB	00H
$SG-451	DB	00H
$SG-457	DB	00H
$SG-459	DB	00H
$SG-462	DB	00H
$SG-464	DB	00H
$SG-474	DB	00H
$SG-476	DB	00H
$SG-477	DB	00H
$SG-480	DB	00H
$SG-482	DB	00H
$SG-483	DB	00H
$SG-486	DB	00H
$SG-488	DB	00H
$SG-489	DB	00H
$SG-492	DB	00H
$SG-495	DB	00H
$SG-498	DB	00H
$SG-501	DB	00H
$SG-504	DB	00H
$SG-507	DB	00H
$SG-510	DB	00H
$SG-513	DB	00H
$SG-516	DB	00H
$SG-518	DB	00H
$SG-519	DB	00H
$SG-522	DB	00H
$SG-525	DB	00H
$SG-527	DB	00H
$SG-528	DB	00H
$SG-530	DB	00H
$SG-531	DB	00H
$SG-533	DB	00H
$SG-535	DB	00H
$SG-536	DB	00H
$SG-538	DB	00H
$SG-539	DB	00H
$SG-573	DB	00H
$SG-582	DB	00H
$SG-606	DB	00H
$SG-609	DB	00H
$SG-611	DB	00H
$SG-618	DB	00H
$SG-621	DB	00H
$SG-642	DB	00H
	ORG $+1
$SG-237	DB	'.sqlite', 00H
$SG-238	DB	'db/', 00H
$SG-239	DB	'Could load database for server ', 00H
$SG-240	DB	'#000000', 00H
$SG-241	DB	' successfully added', 00H
$SG-242	DB	':', 00H
	ORG $+2
$SG-243	DB	'8', 00H
	ORG $+2
$SG-244	DB	'name', 00H
	ORG $+3
$SG-245	DB	'Server', 00H
	ORG $+1
$SG-246	DB	'all', 00H
$SG-247	DB	'team', 00H
	ORG $+3
$SG-248	DB	'1', 00H
	ORG $+2
$SG-249	DB	'squad', 00H
	ORG $+2
$SG-250	DB	'team', 00H
	ORG $+3
$SG-251	DB	' ', 00H
	ORG $+2
$SG-252	DB	'player', 00H
	ORG $+1
$SG-253	DB	'Welcome to eXp', 00H
	ORG $+1
$SG-255	DB	'all', 00H
$SG-256	DB	' joined the game!', 00H
	ORG $+2
$SG-257	DB	'eXp-Member ', 00H
$SG-258	DB	'true', 00H
	ORG $+3
$SG-259	DB	'player', 00H
	ORG $+1
$SG-260	DB	'Headshot Nr. ', 00H
	ORG $+2
$SG-261	DB	'U_Melee', 00H
$SG-263	DB	'all', 00H
$SG-264	DB	' knifed ', 00H
	ORG $+3
$SG-265	DB	'player', 00H
	ORG $+1
$SG-266	DB	' is currently restricted!', 00H
	ORG $+2
$SG-267	DB	'player', 00H
	ORG $+1
$SG-268	DB	' is currently restricted!', 00H
	ORG $+2
$SG-270	DB	'all', 00H
$SG-271	DB	'ATB: Unable to switch dead players. Phase 2 began.', 00H
	ORG $+1
$SG-273	DB	'all', 00H
$SG-274	DB	'ATB: Switching the last one connected.', 00H
	ORG $+1
$SG-275	DB	'player', 00H
	ORG $+1
$SG-276	DB	'Sorry! Autoteambalance =(', 00H
	ORG $+2
$SG-278	DB	'all', 00H
$SG-279	DB	''' had to be switched', 00H
	ORG $+3
$SG-280	DB	'Due to teambalance ''', 00H
	ORG $+3
$SG-281	DB	'player', 00H
	ORG $+1
$SG-282	DB	'You are on the Whitelist!', 00H
	ORG $+2
$SG-284	DB	'all', 00H
$SG-285	DB	' is on the whitelist. Not switching.', 00H
	ORG $+3
$SG-286	DB	'ATB: ', 00H
	ORG $+2
$SG-287	DB	'player', 00H
	ORG $+1
$SG-288	DB	'Sorry! Autoteambalance =(', 00H
	ORG $+2
$SG-290	DB	'all', 00H
$SG-291	DB	''' had to be switched', 00H
	ORG $+3
$SG-292	DB	'Due to teambalance ''', 00H
	ORG $+3
$SG-293	DB	'punkBuster.onMessage', 00H
	ORG $+3
$SG-294	DB	'slot #', 00H
	ORG $+1
$SG-295	DB	'[?]', 00H
$SG-296	DB	'/', 00H
	ORG $+2
$SG-297	DB	'Error while receiving payday. AdminID=', 00H
	ORG $+1
$SG-298	DB	'Battlefield::game::ingameCmd', 00H
	ORG $+3
$SG-299	DB	'..\src\battlefield3.cpp', 00H
$SG-300	DB	'player', 00H
	ORG $+1
$SG-301	DB	' days! No permission to continue!', 00H
	ORG $+2
$SG-302	DB	'Unpaid for ', 00H
$SG-303	DB	'player', 00H
	ORG $+1
$SG-304	DB	' paid days left.', 00H
	ORG $+3
$SG-305	DB	'You have only ', 00H
	ORG $+1
$SG-306	DB	'/kill', 00H
	ORG $+2
$SG-307	DB	'/kill', 00H
	ORG $+2
$SG-308	DB	'player', 00H
	ORG $+1
$SG-309	DB	'You killed yourself!', 00H
	ORG $+3
$SG-310	DB	'D->SELFKILL', 00H
$SG-311	DB	'D->Victim: ', 00H
$SG-312	DB	'player', 00H
	ORG $+1
$SG-313	DB	' killed you!', 00H
	ORG $+3
$SG-314	DB	'player', 00H
	ORG $+1
$SG-315	DB	'You killed ', 00H
$SG-316	DB	'player', 00H
	ORG $+1
$SG-317	DB	'?', 00H
	ORG $+2
$SG-318	DB	'|', 00H
	ORG $+2
$SG-319	DB	'Player not found! Did you mean ', 00H
$SG-320	DB	'/kick', 00H
	ORG $+2
$SG-321	DB	'player', 00H
	ORG $+1
$SG-322	DB	'You need to write a reason', 00H
	ORG $+1
$SG-323	DB	' Reason: ', 00H
	ORG $+2
$SG-324	DB	'K->Victim: ', 00H
$SG-325	DB	'player', 00H
	ORG $+1
$SG-326	DB	'You kicked ', 00H
$SG-327	DB	'player', 00H
	ORG $+1
$SG-328	DB	'?', 00H
	ORG $+2
$SG-329	DB	'|', 00H
	ORG $+2
$SG-330	DB	'Player not found! Did you mean ', 00H
$SG-331	DB	'player', 00H
	ORG $+1
$SG-332	DB	'/kick NAME REASON', 00H
	ORG $+2
$SG-333	DB	'/kicks', 00H
	ORG $+1
$SG-334	DB	'KS->Victim: ', 00H
	ORG $+3
$SG-335	DB	'player', 00H
	ORG $+1
$SG-336	DB	'You kicked ', 00H
$SG-337	DB	'player', 00H
	ORG $+1
$SG-338	DB	'?', 00H
	ORG $+2
$SG-339	DB	'|', 00H
	ORG $+2
$SG-340	DB	'Player not found! Did you mean ', 00H
$SG-341	DB	'player', 00H
	ORG $+1
$SG-342	DB	'?', 00H
	ORG $+2
$SG-343	DB	'|', 00H
	ORG $+2
$SG-344	DB	'Player not found! Did you mean ', 00H
$SG-345	DB	'player', 00H
	ORG $+1
$SG-346	DB	'/kicks NAME', 00H
$SG-347	DB	'/say', 00H
	ORG $+3
$SG-348	DB	'S->', 00H
$SG-350	DB	'all', 00H
$SG-351	DB	'/sayto', 00H
	ORG $+1
$SG-352	DB	' ', 00H
	ORG $+2
$SG-353	DB	' ', 00H
	ORG $+2
$SG-354	DB	'Msg:', 00H
	ORG $+3
$SG-355	DB	'S->Victim: ', 00H
$SG-356	DB	'player', 00H
	ORG $+1
$SG-357	DB	':', 00H
	ORG $+2
$SG-358	DB	'/yell', 00H
	ORG $+2
$SG-359	DB	'Y->', 00H
$SG-361	DB	'all', 00H
$SG-362	DB	'/yellto', 00H
$SG-363	DB	' ', 00H
	ORG $+2
$SG-364	DB	' ', 00H
	ORG $+2
$SG-365	DB	'Msg:', 00H
	ORG $+3
$SG-366	DB	'Y->Victim: ', 00H
$SG-367	DB	'player', 00H
	ORG $+1
$SG-368	DB	':', 00H
	ORG $+2
$SG-369	DB	'/move', 00H
	ORG $+2
$SG-370	DB	'MF->Victim: ', 00H
	ORG $+3
$SG-371	DB	'player', 00H
	ORG $+1
$SG-372	DB	'?', 00H
	ORG $+2
$SG-373	DB	'|', 00H
	ORG $+2
$SG-374	DB	'Player not found! Did you mean ', 00H
$SG-375	DB	'/movef', 00H
	ORG $+1
$SG-376	DB	'MF->Victim: ', 00H
	ORG $+3
$SG-377	DB	'player', 00H
	ORG $+1
$SG-378	DB	'?', 00H
	ORG $+2
$SG-379	DB	'|', 00H
	ORG $+2
$SG-380	DB	'Player not found! Did you mean ', 00H
$SG-381	DB	'/ban', 00H
	ORG $+3
$SG-382	DB	'player', 00H
	ORG $+1
$SG-383	DB	'You need to write a reason', 00H
	ORG $+1
$SG-384	DB	' Reason: ', 00H
	ORG $+2
$SG-385	DB	'B->Victim: ', 00H
$SG-386	DB	'player', 00H
	ORG $+1
$SG-387	DB	'You banned ', 00H
$SG-388	DB	'player', 00H
	ORG $+1
$SG-389	DB	'?', 00H
	ORG $+2
$SG-390	DB	'|', 00H
	ORG $+2
$SG-391	DB	'Player not found! Did you mean ', 00H
$SG-392	DB	'player', 00H
	ORG $+1
$SG-393	DB	'/ban NAME REASON', 00H
	ORG $+3
$SG-394	DB	'/mute', 00H
	ORG $+2
$SG-395	DB	'M->Victim: ', 00H
$SG-396	DB	'player', 00H
	ORG $+1
$SG-397	DB	'Disabled chat of ', 00H
	ORG $+2
$SG-398	DB	'player', 00H
	ORG $+1
$SG-399	DB	'YOUR CHAT HAS BEEN DISABLED', 00H
$SG-400	DB	'player', 00H
	ORG $+1
$SG-402	DB	'player', 00H
	ORG $+1
$SG-404	DB	'player', 00H
	ORG $+1
$SG-406	DB	'player', 00H
	ORG $+1
$SG-408	DB	'player', 00H
	ORG $+1
$SG-410	DB	'player', 00H
	ORG $+1
$SG-411	DB	'YOUR ARE FREE TO CHAT', 00H
	ORG $+2
$SG-412	DB	'player', 00H
	ORG $+1
$SG-413	DB	'?', 00H
	ORG $+2
$SG-414	DB	'|', 00H
	ORG $+2
$SG-415	DB	'Player not found! Did you mean ', 00H
$SG-416	DB	'player', 00H
	ORG $+1
$SG-417	DB	'/mute NAME', 00H
	ORG $+1
$SG-418	DB	'/hack', 00H
	ORG $+2
$SG-419	DB	'H->Victim: ', 00H
$SG-420	DB	'player', 00H
	ORG $+1
$SG-421	DB	'Hacked chat of ', 00H
$SG-422	DB	'player', 00H
	ORG $+1
$SG-424	DB	'player', 00H
	ORG $+1
$SG-425	DB	'YOU HAVE BEEN HACKED!', 00H
	ORG $+2
$SG-426	DB	'player', 00H
	ORG $+1
$SG-428	DB	'player', 00H
	ORG $+1
$SG-429	DB	'BRUTEFORCING EA-ACCOUNT PASSWORD...', 00H
$SG-430	DB	'player', 00H
	ORG $+1
$SG-432	DB	'player', 00H
	ORG $+1
$SG-433	DB	'| 10%', 00H
	ORG $+2
$SG-434	DB	'player', 00H
	ORG $+1
$SG-435	DB	'|| 21%', 00H
	ORG $+1
$SG-436	DB	'player', 00H
	ORG $+1
$SG-437	DB	'||| 33%', 00H
$SG-438	DB	'player', 00H
	ORG $+1
$SG-439	DB	'|||| 47%', 00H
	ORG $+3
$SG-440	DB	'player', 00H
	ORG $+1
$SG-441	DB	'||||| 52%', 00H
	ORG $+2
$SG-442	DB	'player', 00H
	ORG $+1
$SG-443	DB	'||||||| 69%', 00H
$SG-444	DB	'player', 00H
	ORG $+1
$SG-445	DB	'||||||||| 99%', 00H
	ORG $+2
$SG-446	DB	'player', 00H
	ORG $+1
$SG-447	DB	'FOUND!', 00H
	ORG $+1
$SG-448	DB	'player', 00H
	ORG $+1
$SG-449	DB	'CHANGING EA-ACCOUNT-E-MAIL-ADDRESS...', 00H
	ORG $+2
$SG-450	DB	'player', 00H
	ORG $+1
$SG-452	DB	'player', 00H
	ORG $+1
$SG-453	DB	'SUCCESSFULLY CHANGED!', 00H
	ORG $+2
$SG-454	DB	'player', 00H
	ORG $+1
$SG-455	DB	'SHUTTING DOWN REMOTE-COMPUTER IN 10 SEC!', 00H
	ORG $+3
$SG-456	DB	'player', 00H
	ORG $+1
$SG-458	DB	'player', 00H
	ORG $+1
$SG-460	DB	'player', 00H
	ORG $+1
$SG-461	DB	'player', 00H
	ORG $+1
$SG-463	DB	'player', 00H
	ORG $+1
$SG-465	DB	'player', 00H
	ORG $+1
$SG-466	DB	'JUST KIDDING :D', 00H
$SG-467	DB	'player', 00H
	ORG $+1
$SG-468	DB	'?', 00H
	ORG $+2
$SG-469	DB	'|', 00H
	ORG $+2
$SG-470	DB	'Player not found! Did you mean ', 00H
$SG-471	DB	'player', 00H
	ORG $+1
$SG-472	DB	'/hack NAME', 00H
	ORG $+1
$SG-473	DB	'/hackall', 00H
	ORG $+3
$SG-475	DB	'all', 00H
$SG-478	DB	'all', 00H
$SG-479	DB	'YOU HAVE BEEN HACKED!', 00H
	ORG $+2
$SG-481	DB	'all', 00H
$SG-484	DB	'all', 00H
$SG-485	DB	'BRUTEFORCING EA-ACCOUNT PASSWORD...', 00H
$SG-487	DB	'all', 00H
$SG-490	DB	'all', 00H
$SG-491	DB	'| 10%', 00H
	ORG $+2
$SG-493	DB	'all', 00H
$SG-494	DB	'|| 21%', 00H
	ORG $+1
$SG-496	DB	'all', 00H
$SG-497	DB	'||| 33%', 00H
$SG-499	DB	'all', 00H
$SG-500	DB	'|||| 47%', 00H
	ORG $+3
$SG-502	DB	'all', 00H
$SG-503	DB	'||||| 52%', 00H
	ORG $+2
$SG-505	DB	'all', 00H
$SG-506	DB	'||||||| 69%', 00H
$SG-508	DB	'all', 00H
$SG-509	DB	'||||||||| 99%', 00H
	ORG $+2
$SG-511	DB	'all', 00H
$SG-512	DB	'FOUND!', 00H
	ORG $+1
$SG-514	DB	'all', 00H
$SG-515	DB	'CHANGING EA-ACCOUNT-E-MAIL-ADDRESS...', 00H
	ORG $+2
$SG-517	DB	'all', 00H
$SG-520	DB	'all', 00H
$SG-521	DB	'SUCCESSFULLY CHANGED!', 00H
	ORG $+2
$SG-523	DB	'all', 00H
$SG-524	DB	'SHUTTING DOWN REMOTE-COMPUTER IN 10 SEC!', 00H
	ORG $+3
$SG-526	DB	'all', 00H
$SG-529	DB	'all', 00H
$SG-532	DB	'all', 00H
$SG-534	DB	'all', 00H
$SG-537	DB	'all', 00H
$SG-540	DB	'all', 00H
$SG-541	DB	'JUST KIDDING :D', 00H
$SG-542	DB	'/help', 00H
	ORG $+2
$SG-543	DB	'player', 00H
	ORG $+1
$SG-544	DB	'Available commands are /kill/kick/kicks/ban/move/movef/m'
	DB	'ute/say/sayto/yell/yellto/guid/pwd', 00H
	ORG $+1
$SG-545	DB	'/guid', 00H
	ORG $+2
$SG-546	DB	'player', 00H
	ORG $+1
$SG-547	DB	'player', 00H
	ORG $+1
$SG-548	DB	'?', 00H
	ORG $+2
$SG-549	DB	'Did you mean ', 00H
	ORG $+2
$SG-550	DB	'/updateadv', 00H
	ORG $+1
$SG-551	DB	'player', 00H
	ORG $+1
$SG-552	DB	'Updated!', 00H
	ORG $+3
$SG-553	DB	'/pwd', 00H
	ORG $+3
$SG-554	DB	'/payment', 00H
	ORG $+3
$SG-555	DB	'player', 00H
	ORG $+1
$SG-556	DB	'You need to pay today!', 00H
	ORG $+1
$SG-557	DB	'player', 00H
	ORG $+1
$SG-558	DB	' days.', 00H
	ORG $+1
$SG-559	DB	'You have paid for ', 00H
	ORG $+1
$SG-560	DB	'player', 00H
	ORG $+1
$SG-561	DB	'Unknown Command!', 00H
	ORG $+3
$SG-562	DB	'player', 00H
	ORG $+1
$SG-563	DB	'Only eXp-Members can use such commands!', 00H
$SG-564	DB	'!yes', 00H
	ORG $+3
$SG-565	DB	'!no', 00H
$SG-566	DB	'!votekick', 00H
	ORG $+2
$SG-567	DB	'!member', 00H
$SG-568	DB	'player', 00H
	ORG $+1
$SG-569	DB	'eXp-Members are:', 00H
	ORG $+3
$SG-570	DB	',', 00H
	ORG $+2
$SG-571	DB	'player', 00H
	ORG $+1
$SG-572	DB	'!tool', 00H
	ORG $+2
$SG-574	DB	'all', 00H
$SG-575	DB	'eXp-Administration-Tool(daspirum.de) | Crossplatform(Win'
	DB	'dows&Linux) - C++', 00H
	ORG $+2
$SG-576	DB	'!contact', 00H
	ORG $+3
$SG-577	DB	'player', 00H
	ORG $+1
$SG-578	DB	'Send your request to: hostmaster@exp-clan.com or use the'
	DB	' ingame command !request.', 00H
	ORG $+2
$SG-579	DB	'!restricted', 00H
$SG-580	DB	',', 00H
	ORG $+2
$SG-581	DB	',', 00H
	ORG $+2
$SG-583	DB	'all', 00H
$SG-584	DB	'!admin', 00H
	ORG $+1
$SG-585	DB	'!report', 00H
$SG-586	DB	'!request', 00H
	ORG $+3
$SG-587	DB	'player', 00H
	ORG $+1
$SG-588	DB	'We need to know what you want to report: !admin TEXT', 00H
	ORG $+3
$SG-589	DB	'player', 00H
	ORG $+1
$SG-590	DB	'Request send!', 00H
	ORG $+2
$SG-591	DB	'): ', 00H
$SG-592	DB	':', 00H
	ORG $+2
$SG-593	DB	' reported the following on one of your Gameservers(', 00H
$SG-594	DB	'The Player ', 00H
$SG-595	DB	'): ', 00H
$SG-596	DB	':', 00H
	ORG $+2
$SG-597	DB	' reported the following on one of your Gameservers(', 00H
$SG-598	DB	'The Player ', 00H
$SG-599	DB	'!guid', 00H
	ORG $+2
$SG-600	DB	'player', 00H
	ORG $+1
$SG-601	DB	'Your EA guid is ', 00H
	ORG $+3
$SG-602	DB	'!help', 00H
	ORG $+2
$SG-603	DB	'player', 00H
	ORG $+1
$SG-607	DB	'all', 00H
$SG-604	DB	'Available commands are !member,!tool,!restricted,!contac'
	DB	't,!request,!guid,!trans,!translast', 00H
	ORG $+1
$SG-605	DB	'!trans', 00H
	ORG $+1
$SG-608	DB	'!translast', 00H
	ORG $+1
$SG-610	DB	'all', 00H
$SG-612	DB	'all', 00H
_HEXTOINT DB	00H
	DB	010H
	DB	020H
	DB	030H
	DB	040H
	DB	050H
	DB	060H
	DB	070H
	DB	080H
	DB	090H
	DB	0a0H
	DB	0b0H
	DB	0c0H
	DB	0d0H
	DB	0e0H
	DB	0f0H
$SG-613	DB	'login.hashed', 00H
	ORG $+3
$SG-614	DB	'OK', 00H
	ORG $+1
$SG-615	DB	'login.hashed', 00H
	ORG $+3
$SG-616	DB	'OK', 00H
	ORG $+1
$SG-617	DB	'admin.say', 00H
	ORG $+2
$SG-619	DB	'admin.yell', 00H
	ORG $+1
$SG-620	DB	'4', 00H
	ORG $+2
$SG-622	DB	'admin.killplayer', 00H
	ORG $+3
$SG-623	DB	'admin.kickplayer', 00H
	ORG $+3
$SG-624	DB	'admin.movePlayer', 00H
	ORG $+3
$SG-625	DB	'2', 00H
	ORG $+2
$SG-626	DB	'1', 00H
	ORG $+2
$SG-627	DB	'0', 00H
	ORG $+2
$SG-628	DB	'true', 00H
	ORG $+3
$SG-629	DB	'false', 00H
	ORG $+2
$SG-630	DB	'banList.add', 00H
$SG-631	DB	'guid', 00H
	ORG $+3
$SG-632	DB	'perm', 00H
	ORG $+3
$SG-633	DB	'banList.remove', 00H
	ORG $+1
$SG-634	DB	'guid', 00H
	ORG $+3
$SG-635	DB	'reservedSlotsList.add', 00H
	ORG $+2
$SG-636	DB	'admin.listPlayers', 00H
	ORG $+2
$SG-637	DB	'admin.eventsEnabled', 00H
$SG-638	DB	'1', 00H
	ORG $+2
$SG-639	DB	'0', 00H
	ORG $+2
$SG-640	DB	'logout', 00H
	ORG $+1
$SG-641	DB	'banList.clear', 00H
	ORG $+2
$SG-643	DB	'reservedSlotsList.clear', 00H
$SG-644	DB	'reservedSlotsList.save', 00H
	ORG $+1
$SG-645	DB	'#000000', 00H
$SG-646	DB	'API-KEY Wrong?!', 00H
$SG-647	DB	'daspirum report', 00H
$SG-648	DB	'#000000', 00H
$SG-649	DB	'Wrong Mail-Addy?!', 00H
	ORG $+2
$SG-704	DB	'.', 0aH, 00H
	ORG $+1
$SG-705	DB	0aH, 0aH, 'Error detected at line ', 00H
	ORG $+2
$SG-706	DB	'.', 0aH, 00H
	ORG $+1
$SG-707	DB	'e:\library\dlib\dlib\set/set_kernel_c.h', 00H
$SG-708	DB	'Error detected in file ', 00H
$SG-709	DB	'.', 0aH, 0aH, 00H
$SG-711	DB	'Error detected in function ', 00H
$SG-710	DB	'void __thiscall dlib::set_kernel_c<class dlib::set_kerne'
	DB	'l_1<unsigned long,class dlib::binary_search_tree_kernel_2<uns'
	DB	'igned long,char,class dlib::memory_manager_kernel_2<char,100>'
	DB	',struct std::less<unsigned long> >,class dlib::memory_manager'
	DB	'_kernel_2<char,100> > >::remove_any(unsigned long &)', 00H
$SG-712	DB	'.', 0aH, 00H
	ORG $+1
$SG-713	DB	'this->size() != 0', 00H
	ORG $+2
$SG-714	DB	'Failing expression was ', 00H
$SG-715	DB	0aH, 00H
	ORG $+2
$SG-716	DB	0aH, 09H, 'this: ', 00H
	ORG $+3
$SG-717	DB	0aH, 09H, 'size must be greater than zero if an item is t'
	DB	'o be removed', 00H
	ORG $+3
$SG-718	DB	09H, 'void set::remove_any', 00H
	ORG $+2
$SG-719	DB	'.', 0aH, 00H
	ORG $+1
$SG-720	DB	0aH, 0aH, 'Error detected at line ', 00H
	ORG $+2
$SG-721	DB	'.', 0aH, 00H
	ORG $+1
$SG-722	DB	'e:\library\dlib\dlib\set/set_kernel_c.h', 00H
$SG-723	DB	'Error detected in file ', 00H
$SG-724	DB	'.', 0aH, 0aH, 00H
$SG-726	DB	'Error detected in function ', 00H
$SG-725	DB	'const unsigned long &__thiscall dlib::set_kernel_c<class'
	DB	' dlib::set_kernel_1<unsigned long,class dlib::binary_search_t'
	DB	'ree_kernel_2<unsigned long,char,class dlib::memory_manager_ke'
	DB	'rnel_2<char,100>,struct std::less<unsigned long> >,class dlib'
	DB	'::memory_manager_kernel_2<char,100> > >::element(void) const', 00H
$SG-727	DB	'.', 0aH, 00H
	ORG $+1
$SG-728	DB	'this->current_element_valid() == true', 00H
	ORG $+2
$SG-729	DB	'Failing expression was ', 00H
$SG-730	DB	0aH, 00H
	ORG $+2
$SG-731	DB	0aH, 09H, 'this: ', 00H
	ORG $+3
$SG-732	DB	0aH, 09H, 'you can''t access the current element if it do'
	DB	'esn''t exist', 00H
	ORG $+1
$SG-733	DB	09H, 'const T& set::element() const', 00H
	ORG $+1
$SG-734	DB	'.', 0aH, 00H
	ORG $+1
$SG-735	DB	0aH, 0aH, 'Error detected at line ', 00H
	ORG $+2
$SG-736	DB	'.', 0aH, 00H
	ORG $+1
$SG-737	DB	'e:\library\dlib\dlib\set/set_kernel_c.h', 00H
$SG-738	DB	'Error detected in file ', 00H
$SG-739	DB	'.', 0aH, 0aH, 00H
$SG-741	DB	'Error detected in function ', 00H
$SG-740	DB	'const unsigned long &__thiscall dlib::set_kernel_c<class'
	DB	' dlib::set_kernel_1<unsigned long,class dlib::binary_search_t'
	DB	'ree_kernel_2<unsigned long,char,class dlib::memory_manager_ke'
	DB	'rnel_2<char,100>,struct std::less<unsigned long> >,class dlib'
	DB	'::memory_manager_kernel_2<char,100> > >::element(void)', 00H
	ORG $+2
$SG-742	DB	'.', 0aH, 00H
	ORG $+1
$SG-743	DB	'this->current_element_valid() == true', 00H
	ORG $+2
$SG-744	DB	'Failing expression was ', 00H
$SG-745	DB	0aH, 00H
	ORG $+2
$SG-746	DB	0aH, 09H, 'this: ', 00H
	ORG $+3
$SG-747	DB	0aH, 09H, 'you can''t access the current element if it do'
	DB	'esn''t exist', 00H
	ORG $+1
$SG-748	DB	09H, 'const T& set::element', 00H
	ORG $+1
$SG-749	DB	'.', 0aH, 00H
	ORG $+1
$SG-750	DB	0aH, 0aH, 'Error detected at line ', 00H
	ORG $+2
$SG-751	DB	'.', 0aH, 00H
	ORG $+1
$SG-753	DB	'Error detected in file ', 00H
$SG-754	DB	'.', 0aH, 0aH, 00H
$SG-752	DB	'e:\library\dlib\dlib\binary_search_tree/binary_search_tr'
	DB	'ee_kernel_c.h', 00H
	ORG $+2
$SG-755	DB	'void __thiscall dlib::binary_search_tree_kernel_c<class '
	DB	'dlib::binary_search_tree_kernel_2<unsigned long,class dlib::m'
	DB	'ember_function_pointer<void,void,void,void>,class dlib::memor'
	DB	'y_manager_kernel_2<char,10>,struct std::less<unsigned long> >'
	DB	' >::remove_any(unsigned long &,class dlib::member_function_po'
	DB	'inter<void,void,void,void> &)', 00H
	ORG $+2
$SG-756	DB	'Error detected in function ', 00H
$SG-757	DB	'.', 0aH, 00H
	ORG $+1
$SG-759	DB	'Failing expression was ', 00H
$SG-760	DB	0aH, 00H
	ORG $+2
$SG-758	DB	'this->size() != 0 && (static_cast<const void*>(&d) != st'
	DB	'atic_cast<void*>(&r))', 00H
	ORG $+2
$SG-761	DB	0aH, 09H, '&r:   ', 00H
	ORG $+3
$SG-762	DB	0aH, 09H, '&d:   ', 00H
	ORG $+3
$SG-763	DB	0aH, 09H, 'this: ', 00H
	ORG $+3
$SG-764	DB	0aH, 09H, 'tree must not be empty if something is going t'
	DB	'o be removed', 00H
	ORG $+3
$SG-765	DB	09H, 'void binary_search_tree::remove_any', 00H
	ORG $+3
$SG-766	DB	'.', 0aH, 00H
	ORG $+1
$SG-767	DB	0aH, 0aH, 'Error detected at line ', 00H
	ORG $+2
$SG-768	DB	'.', 0aH, 00H
	ORG $+1
$SG-769	DB	'e:\library\dlib\dlib\binary_search_tree/binary_search_tr'
	DB	'ee_kernel_c.h', 00H
	ORG $+2
$SG-770	DB	'Error detected in file ', 00H
$SG-771	DB	'.', 0aH, 0aH, 00H
$SG-773	DB	'Error detected in function ', 00H
$SG-772	DB	'class dlib::map_pair<unsigned long,class dlib::member_fu'
	DB	'nction_pointer<void,void,void,void> > &__thiscall dlib::binar'
	DB	'y_search_tree_kernel_c<class dlib::binary_search_tree_kernel_'
	DB	'2<unsigned long,class dlib::member_function_pointer<void,void'
	DB	',void,void>,class dlib::memory_manager_kernel_2<char,10>,stru'
	DB	'ct std::less<unsigned long> > >::element(void)', 00H
	ORG $+1
$SG-774	DB	'.', 0aH, 00H
	ORG $+1
$SG-775	DB	'this->current_element_valid() == true', 00H
	ORG $+2
$SG-776	DB	'Failing expression was ', 00H
$SG-777	DB	0aH, 00H
	ORG $+2
$SG-778	DB	0aH, 09H, 'this: ', 00H
	ORG $+3
$SG-779	DB	0aH, 09H, 'you can''t access the current element if it do'
	DB	'esn''t exist', 00H
	ORG $+1
$SG-780	DB	09H, 'map_pair<domain,range>& binary_search_tree::element'
	DB	'()', 00H
	ORG $+1
$SG-781	DB	'.', 0aH, 00H
	ORG $+1
$SG-782	DB	0aH, 0aH, 'Error detected at line ', 00H
	ORG $+2
$SG-783	DB	'.', 0aH, 00H
	ORG $+1
$SG-784	DB	'e:\library\dlib\dlib\binary_search_tree/binary_search_tr'
	DB	'ee_kernel_c.h', 00H
	ORG $+2
$SG-785	DB	'Error detected in file ', 00H
$SG-786	DB	'.', 0aH, 0aH, 00H
$SG-788	DB	'Error detected in function ', 00H
$SG-787	DB	'const class dlib::map_pair<unsigned long,class dlib::mem'
	DB	'ber_function_pointer<void,void,void,void> > &__thiscall dlib:'
	DB	':binary_search_tree_kernel_c<class dlib::binary_search_tree_k'
	DB	'ernel_2<unsigned long,class dlib::member_function_pointer<voi'
	DB	'd,void,void,void>,class dlib::memory_manager_kernel_2<char,10'
	DB	'>,struct std::less<unsigned long> > >::element(void) const', 00H
	ORG $+1
$SG-789	DB	'.', 0aH, 00H
	ORG $+1
$SG-790	DB	'this->current_element_valid() == true', 00H
	ORG $+2
$SG-791	DB	'Failing expression was ', 00H
$SG-792	DB	0aH, 00H
	ORG $+2
$SG-793	DB	0aH, 09H, 'this: ', 00H
	ORG $+3
$SG-794	DB	0aH, 09H, 'you can''t access the current element if it do'
	DB	'esn''t exist', 00H
	ORG $+1
$SG-795	DB	09H, 'const map_pair<domain,range>& binary_search_tree::e'
	DB	'lement() const', 00H
; Function compile flags: /Odtp
;	COMDAT ??$_Val_type@PAV?$basic_string@DU?$char_traits@D@std@@V?$allocator@D@2@@std@@@std@@YAPAV?$basic_string@DU?$char_traits@D@std@@V?$allocator@D@2@@0@PAV10@@Z
_TEXT	SEGMENT
___formal$ = 8						; size = 4
??$_Val_type@PAV?$basic_string@DU?$char_traits@D@std@@V?$allocator@D@2@@std@@@std@@YAPAV?$basic_string@DU?$char_traits@D@std@@V?$allocator@D@2@@0@PAV10@@Z PROC ; std::_Val_type<std::basic_string<char,std::char_traits<char>,std::allocator<char> > *>, COMDAT
; File e:\program files (x86)\microsoft visual studio 10.0\vc\include\xutility
; Line 801
	push	ebp
	mov	ebp, esp
; Line 802
	xor	eax, eax
; Line 803
	pop	ebp
	ret	0
??$_Val_type@PAV?$basic_string@DU?$char_traits@D@std@@V?$allocator@D@2@@std@@@std@@YAPAV?$basic_string@DU?$char_traits@D@std@@V?$allocator@D@2@@0@PAV10@@Z ENDP ; std::_Val_type<std::basic_string<char,std::char_traits<char>,std::allocator<char> > *>
; Function compile flags: /Odtp
_TEXT	ENDS
;	COMDAT ??$_Ptr_cat@V?$_Vector_const_iterator@V?$_Vector_val@V?$basic_string@DU?$char_traits@D@std@@V?$allocator@D@2@@std@@V?$allocator@V?$basic_string@DU?$char_traits@D@std@@V?$allocator@D@2@@std@@@2@@std@@@std@@PAV?$basic_string@DU?$char_traits@D@std@@V?$allocator@D@2@@2@@std@@YA?AU_Nonscalar_ptr_iterator_tag@0@AAV?$_Vector_const_iterator@V?$_Vector_val@V?$basic_string@DU?$char_traits@D@std@@V?$allocator@D@2@@std@@V?$allocator@V?$basic_string@DU?$char_traits@D@std@@V?$allocator@D@2@@std@@@2@@std@@@0@AAPAV?$basic_string@DU?$char_traits@D@std@@V?$allocator@D@2@@0@@Z
_TEXT	SEGMENT
__Cat$ = -1						; size = 1
___formal$ = 8						; size = 4
___formal$ = 12						; size = 4
??$_Ptr_cat@V?$_Vector_const_iterator@V?$_Vector_val@V?$basic_string@DU?$char_traits@D@std@@V?$allocator@D@2@@std@@V?$allocator@V?$basic_string@DU?$char_traits@D@std@@V?$allocator@D@2@@std@@@2@@std@@@std@@PAV?$basic_string@DU?$char_traits@D@std@@V?$allocator@D@2@@2@@std@@YA?AU_Nonscalar_ptr_iterator_tag@0@AAV?$_Vector_const_iterator@V?$_Vector_val@V?$basic_string@DU?$char_traits@D@std@@V?$allocator@D@2@@std@@V?$allocator@V?$basic_string@DU?$char_traits@D@std@@V?$allocator@D@2@@std@@@2@@std@@@0@AAPAV?$basic_string@DU?$char_traits@D@std@@V?$allocator@D@2@@0@@Z PROC ; std::_Ptr_cat<std::_Vector_const_iterator<std::_Vector_val<std::basic_string<char,std::char_traits<char>,std::allocator<char> >,std::allocator<std::basic_string<char,std::char_traits<char>,std::allocator<char> > > > >,std::basic_string<char,std::char_traits<char>,std::allocator<char> > *>, COMDAT
; Line 497
	push	ebp
	mov	ebp, esp
	push	ecx
; Line 499
	mov	al, BYTE PTR __Cat$[ebp]
; Line 500
	mov	esp, ebp
	pop	ebp
	ret	0
??$_Ptr_cat@V?$_Vector_const_iterator@V?$_Vector_val@V?$basic_string@DU?$char_traits@D@std@@V?$allocator@D@2@@std@@V?$allocator@V?$basic_string@DU?$char_traits@D@std@@V?$allocator@D@2@@std@@@2@@std@@@std@@PAV?$basic_string@DU?$char_traits@D@std@@V?$allocator@D@2@@2@@std@@YA?AU_Nonscalar_ptr_iterator_tag@0@AAV?$_Vector_const_iterator@V?$_Vector_val@V?$basic_string@DU?$char_traits@D@std@@V?$allocator@D@2@@std@@V?$allocator@V?$basic_string@DU?$char_traits@D@std@@V?$allocator@D@2@@std@@@2@@std@@@0@AAPAV?$basic_string@DU?$char_traits@D@std@@V?$allocator@D@2@@0@@Z ENDP ; std::_Ptr_cat<std::_Vector_const_iterator<std::_Vector_val<std::basic_string<char,std::char_traits<char>,std::allocator<char> >,std::allocator<std::basic_string<char,std::char_traits<char>,std::allocator<char> > > > >,std::basic_string<char,std::char_traits<char>,std::allocator<char> > *>
; Function compile flags: /Odtp
_TEXT	ENDS
;	COMDAT ??$_Move@AAV?$basic_string@DU?$char_traits@D@std@@V?$allocator@D@2@@std@@@std@@YA$$QAV?$basic_string@DU?$char_traits@D@std@@V?$allocator@D@2@@0@AAV10@@Z
_TEXT	SEGMENT
__Arg$ = 8						; size = 4
??$_Move@AAV?$basic_string@DU?$char_traits@D@std@@V?$allocator@D@2@@std@@@std@@YA$$QAV?$basic_string@DU?$char_traits@D@std@@V?$allocator@D@2@@0@AAV10@@Z PROC ; std::_Move<std::basic_string<char,std::char_traits<char>,std::allocator<char> > &>, COMDAT
; File e:\program files (x86)\microsoft visual studio 10.0\vc\include\utility
; Line 94
	push	ebp
	mov	ebp, esp
; Line 95
	mov	eax, DWORD PTR __Arg$[ebp]
; Line 96
	pop	ebp
	ret	0
??$_Move@AAV?$basic_string@DU?$char_traits@D@std@@V?$allocator@D@2@@std@@@std@@YA$$QAV?$basic_string@DU?$char_traits@D@std@@V?$allocator@D@2@@0@AAV10@@Z ENDP ; std::_Move<std::basic_string<char,std::char_traits<char>,std::allocator<char> > &>
; Function compile flags: /Odtp
_TEXT	ENDS
;	COMDAT ??8?$_List_const_iterator@V?$_List_val@Ustruct_chat@Battlefield@@V?$allocator@Ustruct_chat@Battlefield@@@std@@@std@@@std@@QBE_NABV01@@Z
_TEXT	SEGMENT
_this$ = -4						; size = 4
__Right$ = 8						; size = 4
??8?$_List_const_iterator@V?$_List_val@Ustruct_chat@Battlefield@@V?$allocator@Ustruct_chat@Battlefield@@@std@@@std@@@std@@QBE_NABV01@@Z PROC ; std::_List_const_iterator<std::_List_val<Battlefield::struct_chat,std::allocator<Battlefield::struct_chat> > >::operator==, COMDAT
; _this$ = ecx
; File e:\program files (x86)\microsoft visual studio 10.0\vc\include\list
; Line 281
	push	ebp
	mov	ebp, esp
	push	ecx
	mov	DWORD PTR _this$[ebp], ecx
; Line 295
	mov	eax, DWORD PTR _this$[ebp]
	mov	ecx, DWORD PTR __Right$[ebp]
	mov	edx, DWORD PTR [eax]
	xor	eax, eax
	cmp	edx, DWORD PTR [ecx]
	sete	al
; Line 296
	mov	esp, ebp
	pop	ebp
	ret	4
??8?$_List_const_iterator@V?$_List_val@Ustruct_chat@Battlefield@@V?$allocator@Ustruct_chat@Battlefield@@@std@@@std@@@std@@QBE_NABV01@@Z ENDP ; std::_List_const_iterator<std::_List_val<Battlefield::struct_chat,std::allocator<Battlefield::struct_chat> > >::operator==
; Function compile flags: /Odtp
_TEXT	ENDS
;	COMDAT ??9?$_List_const_iterator@V?$_List_val@Ustruct_chat@Battlefield@@V?$allocator@Ustruct_chat@Battlefield@@@std@@@std@@@std@@QBE_NABV01@@Z
_TEXT	SEGMENT
_this$ = -4						; size = 4
__Right$ = 8						; size = 4
??9?$_List_const_iterator@V?$_List_val@Ustruct_chat@Battlefield@@V?$allocator@Ustruct_chat@Battlefield@@@std@@@std@@@std@@QBE_NABV01@@Z PROC ; std::_List_const_iterator<std::_List_val<Battlefield::struct_chat,std::allocator<Battlefield::struct_chat> > >::operator!=, COMDAT
; _this$ = ecx
; Line 299
	push	ebp
	mov	ebp, esp
	push	ecx
	mov	DWORD PTR _this$[ebp], ecx
; Line 300
	mov	eax, DWORD PTR __Right$[ebp]
	push	eax
	mov	ecx, DWORD PTR _this$[ebp]
	call	??8?$_List_const_iterator@V?$_List_val@Ustruct_chat@Battlefield@@V?$allocator@Ustruct_chat@Battlefield@@@std@@@std@@@std@@QBE_NABV01@@Z ; std::_List_const_iterator<std::_List_val<Battlefield::struct_chat,std::allocator<Battlefield::struct_chat> > >::operator==
	movzx	eax, al
	neg	eax
	sbb	eax, eax
	add	eax, 1
; Line 301
	mov	esp, ebp
	pop	ebp
	ret	4
??9?$_List_const_iterator@V?$_List_val@Ustruct_chat@Battlefield@@V?$allocator@Ustruct_chat@Battlefield@@@std@@@std@@@std@@QBE_NABV01@@Z ENDP ; std::_List_const_iterator<std::_List_val<Battlefield::struct_chat,std::allocator<Battlefield::struct_chat> > >::operator!=
; Function compile flags: /Odtp
_TEXT	ENDS
;	COMDAT ?_Unchecked@?$_Vector_iterator@V?$_Vector_val@V?$basic_string@DU?$char_traits@D@std@@V?$allocator@D@2@@std@@V?$allocator@V?$basic_string@DU?$char_traits@D@std@@V?$allocator@D@2@@std@@@2@@std@@@std@@QBEPAV?$basic_string@DU?$char_traits@D@std@@V?$allocator@D@2@@2@XZ
_TEXT	SEGMENT
_this$ = -4						; size = 4
?_Unchecked@?$_Vector_iterator@V?$_Vector_val@V?$basic_string@DU?$char_traits@D@std@@V?$allocator@D@2@@std@@V?$allocator@V?$basic_string@DU?$char_traits@D@std@@V?$allocator@D@2@@std@@@2@@std@@@std@@QBEPAV?$basic_string@DU?$char_traits@D@std@@V?$allocator@D@2@@2@XZ PROC ; std::_Vector_iterator<std::_Vector_val<std::basic_string<char,std::char_traits<char>,std::allocator<char> >,std::allocator<std::basic_string<char,std::char_traits<char>,std::allocator<char> > > > >::_Unchecked, COMDAT
; _this$ = ecx
; File e:\program files (x86)\microsoft visual studio 10.0\vc\include\vector
; Line 316
	push	ebp
	mov	ebp, esp
	push	ecx
	mov	DWORD PTR _this$[ebp], ecx
; Line 317
	mov	eax, DWORD PTR _this$[ebp]
	mov	eax, DWORD PTR [eax]
; Line 318
	mov	esp, ebp
	pop	ebp
	ret	0
?_Unchecked@?$_Vector_iterator@V?$_Vector_val@V?$basic_string@DU?$char_traits@D@std@@V?$allocator@D@2@@std@@V?$allocator@V?$basic_string@DU?$char_traits@D@std@@V?$allocator@D@2@@std@@@2@@std@@@std@@QBEPAV?$basic_string@DU?$char_traits@D@std@@V?$allocator@D@2@@2@XZ ENDP ; std::_Vector_iterator<std::_Vector_val<std::basic_string<char,std::char_traits<char>,std::allocator<char> >,std::allocator<std::basic_string<char,std::char_traits<char>,std::allocator<char> > > > >::_Unchecked
; Function compile flags: /Odtp
_TEXT	ENDS
;	COMDAT ?_Rechecked@?$_Vector_iterator@V?$_Vector_val@V?$basic_string@DU?$char_traits@D@std@@V?$allocator@D@2@@std@@V?$allocator@V?$basic_string@DU?$char_traits@D@std@@V?$allocator@D@2@@std@@@2@@std@@@std@@QAEAAV12@PAV?$basic_string@DU?$char_traits@D@std@@V?$allocator@D@2@@2@@Z
_TEXT	SEGMENT
_this$ = -4						; size = 4
__Right$ = 8						; size = 4
?_Rechecked@?$_Vector_iterator@V?$_Vector_val@V?$basic_string@DU?$char_traits@D@std@@V?$allocator@D@2@@std@@V?$allocator@V?$basic_string@DU?$char_traits@D@std@@V?$allocator@D@2@@std@@@2@@std@@@std@@QAEAAV12@PAV?$basic_string@DU?$char_traits@D@std@@V?$allocator@D@2@@2@@Z PROC ; std::_Vector_iterator<std::_Vector_val<std::basic_string<char,std::char_traits<char>,std::allocator<char> >,std::allocator<std::basic_string<char,std::char_traits<char>,std::allocator<char> > > > >::_Rechecked, COMDAT
; _this$ = ecx
; Line 310
	push	ebp
	mov	ebp, esp
	push	ecx
	mov	DWORD PTR _this$[ebp], ecx
; Line 311
	mov	eax, DWORD PTR _this$[ebp]
	mov	ecx, DWORD PTR __Right$[ebp]
	mov	DWORD PTR [eax], ecx
; Line 312
	mov	eax, DWORD PTR _this$[ebp]
; Line 313
	mov	esp, ebp
	pop	ebp
	ret	4
?_Rechecked@?$_Vector_iterator@V?$_Vector_val@V?$basic_string@DU?$char_traits@D@std@@V?$allocator@D@2@@std@@V?$allocator@V?$basic_string@DU?$char_traits@D@std@@V?$allocator@D@2@@std@@@2@@std@@@std@@QAEAAV12@PAV?$basic_string@DU?$char_traits@D@std@@V?$allocator@D@2@@2@@Z ENDP ; std::_Vector_iterator<std::_Vector_val<std::basic_string<char,std::char_traits<char>,std::allocator<char> >,std::allocator<std::basic_string<char,std::char_traits<char>,std::allocator<char> > > > >::_Rechecked
; Function compile flags: /Odtp
_TEXT	ENDS
;	COMDAT ??$_Ptr_cat@Uban@Database@@U12@@std@@YA?AU_Nonscalar_ptr_iterator_tag@0@PAUban@Database@@0@Z
_TEXT	SEGMENT
__Cat$ = -1						; size = 1
___formal$ = 8						; size = 4
___formal$ = 12						; size = 4
??$_Ptr_cat@Uban@Database@@U12@@std@@YA?AU_Nonscalar_ptr_iterator_tag@0@PAUban@Database@@0@Z PROC ; std::_Ptr_cat<Database::ban,Database::ban>, COMDAT
; File e:\program files (x86)\microsoft visual studio 10.0\vc\include\xutility
; Line 528
	push	ebp
	mov	ebp, esp
	push	ecx
; Line 530
	mov	al, BYTE PTR __Cat$[ebp]
; Line 531
	mov	esp, ebp
	pop	ebp
	ret	0
??$_Ptr_cat@Uban@Database@@U12@@std@@YA?AU_Nonscalar_ptr_iterator_tag@0@PAUban@Database@@0@Z ENDP ; std::_Ptr_cat<Database::ban,Database::ban>
; Function compile flags: /Odtp
_TEXT	ENDS
;	COMDAT ??$_Ptr_cat@Uadmin@Database@@U12@@std@@YA?AU_Nonscalar_ptr_iterator_tag@0@PAUadmin@Database@@0@Z
_TEXT	SEGMENT
__Cat$ = -1						; size = 1
___formal$ = 8						; size = 4
___formal$ = 12						; size = 4
??$_Ptr_cat@Uadmin@Database@@U12@@std@@YA?AU_Nonscalar_ptr_iterator_tag@0@PAUadmin@Database@@0@Z PROC ; std::_Ptr_cat<Database::admin,Database::admin>, COMDAT
; Line 528
	push	ebp
	mov	ebp, esp
	push	ecx
; Line 530
	mov	al, BYTE PTR __Cat$[ebp]
; Line 531
	mov	esp, ebp
	pop	ebp
	ret	0
??$_Ptr_cat@Uadmin@Database@@U12@@std@@YA?AU_Nonscalar_ptr_iterator_tag@0@PAUadmin@Database@@0@Z ENDP ; std::_Ptr_cat<Database::admin,Database::admin>
; Function compile flags: /Odtp
_TEXT	ENDS
;	COMDAT ??$forward@ABUstruct_chat@Battlefield@@@std@@YAABUstruct_chat@Battlefield@@ABU12@@Z
_TEXT	SEGMENT
__Arg$ = 8						; size = 4
??$forward@ABUstruct_chat@Battlefield@@@std@@YAABUstruct_chat@Battlefield@@ABU12@@Z PROC ; std::forward<Battlefield::struct_chat const &>, COMDAT
; File e:\program files (x86)\microsoft visual studio 10.0\vc\include\utility
; Line 78
	push	ebp
	mov	ebp, esp
; Line 79
	mov	eax, DWORD PTR __Arg$[ebp]
; Line 80
	pop	ebp
	ret	0
??$forward@ABUstruct_chat@Battlefield@@@std@@YAABUstruct_chat@Battlefield@@ABU12@@Z ENDP ; std::forward<Battlefield::struct_chat const &>
; Function compile flags: /Odtp
_TEXT	ENDS
;	COMDAT ??$_Ptr_cat@Ustruct_Vote@Battlefield@@U12@@std@@YA?AU_Nonscalar_ptr_iterator_tag@0@PAUstruct_Vote@Battlefield@@0@Z
_TEXT	SEGMENT
__Cat$ = -1						; size = 1
___formal$ = 8						; size = 4
___formal$ = 12						; size = 4
??$_Ptr_cat@Ustruct_Vote@Battlefield@@U12@@std@@YA?AU_Nonscalar_ptr_iterator_tag@0@PAUstruct_Vote@Battlefield@@0@Z PROC ; std::_Ptr_cat<Battlefield::struct_Vote,Battlefield::struct_Vote>, COMDAT
; File e:\program files (x86)\microsoft visual studio 10.0\vc\include\xutility
; Line 528
	push	ebp
	mov	ebp, esp
	push	ecx
; Line 530
	mov	al, BYTE PTR __Cat$[ebp]
; Line 531
	mov	esp, ebp
	pop	ebp
	ret	0
??$_Ptr_cat@Ustruct_Vote@Battlefield@@U12@@std@@YA?AU_Nonscalar_ptr_iterator_tag@0@PAUstruct_Vote@Battlefield@@0@Z ENDP ; std::_Ptr_cat<Battlefield::struct_Vote,Battlefield::struct_Vote>
; Function compile flags: /Odtp
_TEXT	ENDS
;	COMDAT ??$?8V?$basic_string@DU?$char_traits@D@std@@V?$allocator@D@2@@std@@V01@@std@@YA_NABV?$allocator@V?$basic_string@DU?$char_traits@D@std@@V?$allocator@D@2@@std@@@0@0@Z
_TEXT	SEGMENT
___formal$ = 8						; size = 4
___formal$ = 12						; size = 4
??$?8V?$basic_string@DU?$char_traits@D@std@@V?$allocator@D@2@@std@@V01@@std@@YA_NABV?$allocator@V?$basic_string@DU?$char_traits@D@std@@V?$allocator@D@2@@std@@@0@0@Z PROC ; std::operator==<std::basic_string<char,std::char_traits<char>,std::allocator<char> >,std::basic_string<char,std::char_traits<char>,std::allocator<char> > >, COMDAT
; File e:\program files (x86)\microsoft visual studio 10.0\vc\include\xmemory
; Line 262
	push	ebp
	mov	ebp, esp
; Line 263
	mov	al, 1
; Line 264
	pop	ebp
	ret	0
??$?8V?$basic_string@DU?$char_traits@D@std@@V?$allocator@D@2@@std@@V01@@std@@YA_NABV?$allocator@V?$basic_string@DU?$char_traits@D@std@@V?$allocator@D@2@@std@@@0@0@Z ENDP ; std::operator==<std::basic_string<char,std::char_traits<char>,std::allocator<char> >,std::basic_string<char,std::char_traits<char>,std::allocator<char> > >
; Function compile flags: /Odtp
_TEXT	ENDS
;	COMDAT ??$?8DD@std@@YA_NABV?$allocator@D@0@0@Z
_TEXT	SEGMENT
___formal$ = 8						; size = 4
___formal$ = 12						; size = 4
??$?8DD@std@@YA_NABV?$allocator@D@0@0@Z PROC		; std::operator==<char,char>, COMDAT
; Line 262
	push	ebp
	mov	ebp, esp
; Line 263
	mov	al, 1
; Line 264
	pop	ebp
	ret	0
??$?8DD@std@@YA_NABV?$allocator@D@0@0@Z ENDP		; std::operator==<char,char>
; Function compile flags: /Odtp
_TEXT	ENDS
;	COMDAT ??$_Iter_cat@V?$_List_const_iterator@V?$_List_val@Ustruct_chat@Battlefield@@V?$allocator@Ustruct_chat@Battlefield@@@std@@@std@@@std@@@std@@YA?AUbidirectional_iterator_tag@0@ABV?$_List_const_iterator@V?$_List_val@Ustruct_chat@Battlefield@@V?$allocator@Ustruct_chat@Battlefield@@@std@@@std@@@0@@Z
_TEXT	SEGMENT
__Cat$ = -1						; size = 1
___$ReturnUdt$ = 8					; size = 4
___formal$ = 12						; size = 4
??$_Iter_cat@V?$_List_const_iterator@V?$_List_val@Ustruct_chat@Battlefield@@V?$allocator@Ustruct_chat@Battlefield@@@std@@@std@@@std@@@std@@YA?AUbidirectional_iterator_tag@0@ABV?$_List_const_iterator@V?$_List_val@Ustruct_chat@Battlefield@@V?$allocator@Ustruct_chat@Battlefield@@@std@@@std@@@0@@Z PROC ; std::_Iter_cat<std::_List_const_iterator<std::_List_val<Battlefield::struct_chat,std::allocator<Battlefield::struct_chat> > > >, COMDAT
; File e:\program files (x86)\microsoft visual studio 10.0\vc\include\xutility
; Line 488
	push	ebp
	mov	ebp, esp
	push	ecx
; Line 490
	mov	eax, DWORD PTR ___$ReturnUdt$[ebp]
	mov	cl, BYTE PTR __Cat$[ebp]
	mov	BYTE PTR [eax], cl
	mov	eax, DWORD PTR ___$ReturnUdt$[ebp]
; Line 491
	mov	esp, ebp
	pop	ebp
	ret	0
??$_Iter_cat@V?$_List_const_iterator@V?$_List_val@Ustruct_chat@Battlefield@@V?$allocator@Ustruct_chat@Battlefield@@@std@@@std@@@std@@@std@@YA?AUbidirectional_iterator_tag@0@ABV?$_List_const_iterator@V?$_List_val@Ustruct_chat@Battlefield@@V?$allocator@Ustruct_chat@Battlefield@@@std@@@std@@@0@@Z ENDP ; std::_Iter_cat<std::_List_const_iterator<std::_List_val<Battlefield::struct_chat,std::allocator<Battlefield::struct_chat> > > >
; Function compile flags: /Odtp
_TEXT	ENDS
;	COMDAT ??$_Ptr_cat@V?$basic_string@DU?$char_traits@D@std@@V?$allocator@D@2@@std@@V12@@std@@YA?AU_Nonscalar_ptr_iterator_tag@0@PAV?$basic_string@DU?$char_traits@D@std@@V?$allocator@D@2@@0@0@Z
_TEXT	SEGMENT
__Cat$ = -1						; size = 1
___formal$ = 8						; size = 4
___formal$ = 12						; size = 4
??$_Ptr_cat@V?$basic_string@DU?$char_traits@D@std@@V?$allocator@D@2@@std@@V12@@std@@YA?AU_Nonscalar_ptr_iterator_tag@0@PAV?$basic_string@DU?$char_traits@D@std@@V?$allocator@D@2@@0@0@Z PROC ; std::_Ptr_cat<std::basic_string<char,std::char_traits<char>,std::allocator<char> >,std::basic_string<char,std::char_traits<char>,std::allocator<char> > >, COMDAT
; Line 528
	push	ebp
	mov	ebp, esp
	push	ecx
; Line 530
	mov	al, BYTE PTR __Cat$[ebp]
; Line 531
	mov	esp, ebp
	pop	ebp
	ret	0
??$_Ptr_cat@V?$basic_string@DU?$char_traits@D@std@@V?$allocator@D@2@@std@@V12@@std@@YA?AU_Nonscalar_ptr_iterator_tag@0@PAV?$basic_string@DU?$char_traits@D@std@@V?$allocator@D@2@@0@0@Z ENDP ; std::_Ptr_cat<std::basic_string<char,std::char_traits<char>,std::allocator<char> >,std::basic_string<char,std::char_traits<char>,std::allocator<char> > >
; Function compile flags: /Odtp
_TEXT	ENDS
;	COMDAT ??$forward@ABV?$basic_string@DU?$char_traits@D@std@@V?$allocator@D@2@@std@@@std@@YAABV?$basic_string@DU?$char_traits@D@std@@V?$allocator@D@2@@0@ABV10@@Z
_TEXT	SEGMENT
__Arg$ = 8						; size = 4
??$forward@ABV?$basic_string@DU?$char_traits@D@std@@V?$allocator@D@2@@std@@@std@@YAABV?$basic_string@DU?$char_traits@D@std@@V?$allocator@D@2@@0@ABV10@@Z PROC ; std::forward<std::basic_string<char,std::char_traits<char>,std::allocator<char> > const &>, COMDAT
; File e:\program files (x86)\microsoft visual studio 10.0\vc\include\utility
; Line 78
	push	ebp
	mov	ebp, esp
; Line 79
	mov	eax, DWORD PTR __Arg$[ebp]
; Line 80
	pop	ebp
	ret	0
??$forward@ABV?$basic_string@DU?$char_traits@D@std@@V?$allocator@D@2@@std@@@std@@YAABV?$basic_string@DU?$char_traits@D@std@@V?$allocator@D@2@@0@ABV10@@Z ENDP ; std::forward<std::basic_string<char,std::char_traits<char>,std::allocator<char> > const &>
; Function compile flags: /Odtp
_TEXT	ENDS
;	COMDAT ??$forward@AAV?$basic_string@DU?$char_traits@D@std@@V?$allocator@D@2@@std@@@std@@YAAAV?$basic_string@DU?$char_traits@D@std@@V?$allocator@D@2@@0@AAV10@@Z
_TEXT	SEGMENT
__Arg$ = 8						; size = 4
??$forward@AAV?$basic_string@DU?$char_traits@D@std@@V?$allocator@D@2@@std@@@std@@YAAAV?$basic_string@DU?$char_traits@D@std@@V?$allocator@D@2@@0@AAV10@@Z PROC ; std::forward<std::basic_string<char,std::char_traits<char>,std::allocator<char> > &>, COMDAT
; Line 78
	push	ebp
	mov	ebp, esp
; Line 79
	mov	eax, DWORD PTR __Arg$[ebp]
; Line 80
	pop	ebp
	ret	0
??$forward@AAV?$basic_string@DU?$char_traits@D@std@@V?$allocator@D@2@@std@@@std@@YAAAV?$basic_string@DU?$char_traits@D@std@@V?$allocator@D@2@@0@AAV10@@Z ENDP ; std::forward<std::basic_string<char,std::char_traits<char>,std::allocator<char> > &>
; Function compile flags: /Odtp
_TEXT	ENDS
;	COMDAT ??$_Rechecked@V?$_Vector_val@V?$basic_string@DU?$char_traits@D@std@@V?$allocator@D@2@@std@@V?$allocator@V?$basic_string@DU?$char_traits@D@std@@V?$allocator@D@2@@std@@@2@@std@@@std@@YAAAV?$_Vector_iterator@V?$_Vector_val@V?$basic_string@DU?$char_traits@D@std@@V?$allocator@D@2@@std@@V?$allocator@V?$basic_string@DU?$char_traits@D@std@@V?$allocator@D@2@@std@@@2@@std@@@0@AAV10@PAV?$basic_string@DU?$char_traits@D@std@@V?$allocator@D@2@@0@@Z
_TEXT	SEGMENT
__Iter$ = 8						; size = 4
__Right$ = 12						; size = 4
??$_Rechecked@V?$_Vector_val@V?$basic_string@DU?$char_traits@D@std@@V?$allocator@D@2@@std@@V?$allocator@V?$basic_string@DU?$char_traits@D@std@@V?$allocator@D@2@@std@@@2@@std@@@std@@YAAAV?$_Vector_iterator@V?$_Vector_val@V?$basic_string@DU?$char_traits@D@std@@V?$allocator@D@2@@std@@V?$allocator@V?$basic_string@DU?$char_traits@D@std@@V?$allocator@D@2@@std@@@2@@std@@@0@AAV10@PAV?$basic_string@DU?$char_traits@D@std@@V?$allocator@D@2@@0@@Z PROC ; std::_Rechecked<std::_Vector_val<std::basic_string<char,std::char_traits<char>,std::allocator<char> >,std::allocator<std::basic_string<char,std::char_traits<char>,std::allocator<char> > > > >, COMDAT
; File e:\program files (x86)\microsoft visual studio 10.0\vc\include\vector
; Line 402
	push	ebp
	mov	ebp, esp
; Line 403
	mov	eax, DWORD PTR __Right$[ebp]
	push	eax
	mov	ecx, DWORD PTR __Iter$[ebp]
	call	?_Rechecked@?$_Vector_iterator@V?$_Vector_val@V?$basic_string@DU?$char_traits@D@std@@V?$allocator@D@2@@std@@V?$allocator@V?$basic_string@DU?$char_traits@D@std@@V?$allocator@D@2@@std@@@2@@std@@@std@@QAEAAV12@PAV?$basic_string@DU?$char_traits@D@std@@V?$allocator@D@2@@2@@Z ; std::_Vector_iterator<std::_Vector_val<std::basic_string<char,std::char_traits<char>,std::allocator<char> >,std::allocator<std::basic_string<char,std::char_traits<char>,std::allocator<char> > > > >::_Rechecked
; Line 404
	pop	ebp
	ret	0
??$_Rechecked@V?$_Vector_val@V?$basic_string@DU?$char_traits@D@std@@V?$allocator@D@2@@std@@V?$allocator@V?$basic_string@DU?$char_traits@D@std@@V?$allocator@D@2@@std@@@2@@std@@@std@@YAAAV?$_Vector_iterator@V?$_Vector_val@V?$basic_string@DU?$char_traits@D@std@@V?$allocator@D@2@@std@@V?$allocator@V?$basic_string@DU?$char_traits@D@std@@V?$allocator@D@2@@std@@@2@@std@@@0@AAV10@PAV?$basic_string@DU?$char_traits@D@std@@V?$allocator@D@2@@0@@Z ENDP ; std::_Rechecked<std::_Vector_val<std::basic_string<char,std::char_traits<char>,std::allocator<char> >,std::allocator<std::basic_string<char,std::char_traits<char>,std::allocator<char> > > > >
; Function compile flags: /Odtp
_TEXT	ENDS
;	COMDAT ??$_Unchecked@V?$_Vector_val@V?$basic_string@DU?$char_traits@D@std@@V?$allocator@D@2@@std@@V?$allocator@V?$basic_string@DU?$char_traits@D@std@@V?$allocator@D@2@@std@@@2@@std@@@std@@YAPAV?$basic_string@DU?$char_traits@D@std@@V?$allocator@D@2@@0@V?$_Vector_iterator@V?$_Vector_val@V?$basic_string@DU?$char_traits@D@std@@V?$allocator@D@2@@std@@V?$allocator@V?$basic_string@DU?$char_traits@D@std@@V?$allocator@D@2@@std@@@2@@std@@@0@@Z
_TEXT	SEGMENT
__Iter$ = 8						; size = 4
??$_Unchecked@V?$_Vector_val@V?$basic_string@DU?$char_traits@D@std@@V?$allocator@D@2@@std@@V?$allocator@V?$basic_string@DU?$char_traits@D@std@@V?$allocator@D@2@@std@@@2@@std@@@std@@YAPAV?$basic_string@DU?$char_traits@D@std@@V?$allocator@D@2@@0@V?$_Vector_iterator@V?$_Vector_val@V?$basic_string@DU?$char_traits@D@std@@V?$allocator@D@2@@std@@V?$allocator@V?$basic_string@DU?$char_traits@D@std@@V?$allocator@D@2@@std@@@2@@std@@@0@@Z PROC ; std::_Unchecked<std::_Vector_val<std::basic_string<char,std::char_traits<char>,std::allocator<char> >,std::allocator<std::basic_string<char,std::char_traits<char>,std::allocator<char> > > > >, COMDAT
; Line 393
	push	ebp
	mov	ebp, esp
; Line 394
	lea	ecx, DWORD PTR __Iter$[ebp]
	call	?_Unchecked@?$_Vector_iterator@V?$_Vector_val@V?$basic_string@DU?$char_traits@D@std@@V?$allocator@D@2@@std@@V?$allocator@V?$basic_string@DU?$char_traits@D@std@@V?$allocator@D@2@@std@@@2@@std@@@std@@QBEPAV?$basic_string@DU?$char_traits@D@std@@V?$allocator@D@2@@2@XZ ; std::_Vector_iterator<std::_Vector_val<std::basic_string<char,std::char_traits<char>,std::allocator<char> >,std::allocator<std::basic_string<char,std::char_traits<char>,std::allocator<char> > > > >::_Unchecked
; Line 395
	pop	ebp
	ret	0
??$_Unchecked@V?$_Vector_val@V?$basic_string@DU?$char_traits@D@std@@V?$allocator@D@2@@std@@V?$allocator@V?$basic_string@DU?$char_traits@D@std@@V?$allocator@D@2@@std@@@2@@std@@@std@@YAPAV?$basic_string@DU?$char_traits@D@std@@V?$allocator@D@2@@0@V?$_Vector_iterator@V?$_Vector_val@V?$basic_string@DU?$char_traits@D@std@@V?$allocator@D@2@@std@@V?$allocator@V?$basic_string@DU?$char_traits@D@std@@V?$allocator@D@2@@std@@@2@@std@@@0@@Z ENDP ; std::_Unchecked<std::_Vector_val<std::basic_string<char,std::char_traits<char>,std::allocator<char> >,std::allocator<std::basic_string<char,std::char_traits<char>,std::allocator<char> > > > >
; Function compile flags: /Odtp
_TEXT	ENDS
;	COMDAT ??$move@AAV?$basic_string@DU?$char_traits@D@std@@V?$allocator@D@2@@std@@@std@@YA$$QAV?$basic_string@DU?$char_traits@D@std@@V?$allocator@D@2@@0@AAV10@@Z
_TEXT	SEGMENT
__Arg$ = 8						; size = 4
??$move@AAV?$basic_string@DU?$char_traits@D@std@@V?$allocator@D@2@@std@@@std@@YA$$QAV?$basic_string@DU?$char_traits@D@std@@V?$allocator@D@2@@0@AAV10@@Z PROC ; std::move<std::basic_string<char,std::char_traits<char>,std::allocator<char> > &>, COMDAT
; File e:\program files (x86)\microsoft visual studio 10.0\vc\include\utility
; Line 86
	push	ebp
	mov	ebp, esp
; Line 87
	mov	eax, DWORD PTR __Arg$[ebp]
; Line 88
	pop	ebp
	ret	0
??$move@AAV?$basic_string@DU?$char_traits@D@std@@V?$allocator@D@2@@std@@@std@@YA$$QAV?$basic_string@DU?$char_traits@D@std@@V?$allocator@D@2@@0@AAV10@@Z ENDP ; std::move<std::basic_string<char,std::char_traits<char>,std::allocator<char> > &>
; Function compile flags: /Odtp
_TEXT	ENDS
;	COMDAT ??0bad_alloc@std@@QAE@ABV01@@Z
_TEXT	SEGMENT
_this$ = -4						; size = 4
___that$ = 8						; size = 4
??0bad_alloc@std@@QAE@ABV01@@Z PROC			; std::bad_alloc::bad_alloc, COMDAT
; _this$ = ecx
	push	ebp
	mov	ebp, esp
	push	ecx
	mov	DWORD PTR _this$[ebp], ecx
	mov	eax, DWORD PTR ___that$[ebp]
	push	eax
	mov	ecx, DWORD PTR _this$[ebp]
	call	DWORD PTR __imp_??0exception@std@@QAE@ABV01@@Z
	mov	ecx, DWORD PTR _this$[ebp]
	mov	DWORD PTR [ecx], OFFSET ??_7bad_alloc@std@@6B@
	mov	eax, DWORD PTR _this$[ebp]
	mov	esp, ebp
	pop	ebp
	ret	4
??0bad_alloc@std@@QAE@ABV01@@Z ENDP			; std::bad_alloc::bad_alloc
; Function compile flags: /Odtp
_TEXT	ENDS
;	COMDAT ??$?0Ustruct_chat@Battlefield@@@?$allocator@U_Node@?$_List_nod@Ustruct_chat@Battlefield@@V?$allocator@Ustruct_chat@Battlefield@@@std@@@std@@@std@@QAE@ABV?$allocator@Ustruct_chat@Battlefield@@@1@@Z
_TEXT	SEGMENT
_this$ = -4						; size = 4
___formal$ = 8						; size = 4
??$?0Ustruct_chat@Battlefield@@@?$allocator@U_Node@?$_List_nod@Ustruct_chat@Battlefield@@V?$allocator@Ustruct_chat@Battlefield@@@std@@@std@@@std@@QAE@ABV?$allocator@Ustruct_chat@Battlefield@@@1@@Z PROC ; std::allocator<std::_List_nod<Battlefield::struct_chat,std::allocator<Battlefield::struct_chat> >::_Node>::allocator<std::_List_nod<Battlefield::struct_chat,std::allocator<Battlefield::struct_chat> >::_Node><Battlefield::struct_chat>, COMDAT
; _this$ = ecx
; File e:\program files (x86)\microsoft visual studio 10.0\vc\include\xmemory
; Line 170
	push	ebp
	mov	ebp, esp
	push	ecx
	mov	DWORD PTR _this$[ebp], ecx
; Line 172
	mov	eax, DWORD PTR _this$[ebp]
	mov	esp, ebp
	pop	ebp
	ret	4
??$?0Ustruct_chat@Battlefield@@@?$allocator@U_Node@?$_List_nod@Ustruct_chat@Battlefield@@V?$allocator@Ustruct_chat@Battlefield@@@std@@@std@@@std@@QAE@ABV?$allocator@Ustruct_chat@Battlefield@@@1@@Z ENDP ; std::allocator<std::_List_nod<Battlefield::struct_chat,std::allocator<Battlefield::struct_chat> >::_Node>::allocator<std::_List_nod<Battlefield::struct_chat,std::allocator<Battlefield::struct_chat> >::_Node><Battlefield::struct_chat>
; Function compile flags: /Odtp
_TEXT	ENDS
;	COMDAT ??$addressof@Ustruct_chat@Battlefield@@@std@@YAPAUstruct_chat@Battlefield@@AAU12@@Z
_TEXT	SEGMENT
__Val$ = 8						; size = 4
??$addressof@Ustruct_chat@Battlefield@@@std@@YAPAUstruct_chat@Battlefield@@AAU12@@Z PROC ; std::addressof<Battlefield::struct_chat>, COMDAT
; Line 110
	push	ebp
	mov	ebp, esp
; Line 111
	mov	eax, DWORD PTR __Val$[ebp]
; Line 112
	pop	ebp
	ret	0
??$addressof@Ustruct_chat@Battlefield@@@std@@YAPAUstruct_chat@Battlefield@@AAU12@@Z ENDP ; std::addressof<Battlefield::struct_chat>
; Function compile flags: /Odtp
_TEXT	ENDS
;	COMDAT ??$?9V?$basic_string@DU?$char_traits@D@std@@V?$allocator@D@2@@std@@V01@@std@@YA_NABV?$allocator@V?$basic_string@DU?$char_traits@D@std@@V?$allocator@D@2@@std@@@0@0@Z
_TEXT	SEGMENT
__Left$ = 8						; size = 4
__Right$ = 12						; size = 4
??$?9V?$basic_string@DU?$char_traits@D@std@@V?$allocator@D@2@@std@@V01@@std@@YA_NABV?$allocator@V?$basic_string@DU?$char_traits@D@std@@V?$allocator@D@2@@std@@@0@0@Z PROC ; std::operator!=<std::basic_string<char,std::char_traits<char>,std::allocator<char> >,std::basic_string<char,std::char_traits<char>,std::allocator<char> > >, COMDAT
; Line 270
	push	ebp
	mov	ebp, esp
; Line 271
	mov	eax, DWORD PTR __Right$[ebp]
	push	eax
	mov	ecx, DWORD PTR __Left$[ebp]
	push	ecx
	call	??$?8V?$basic_string@DU?$char_traits@D@std@@V?$allocator@D@2@@std@@V01@@std@@YA_NABV?$allocator@V?$basic_string@DU?$char_traits@D@std@@V?$allocator@D@2@@std@@@0@0@Z ; std::operator==<std::basic_string<char,std::char_traits<char>,std::allocator<char> >,std::basic_string<char,std::char_traits<char>,std::allocator<char> > >
	add	esp, 8
	movzx	eax, al
	neg	eax
	sbb	eax, eax
	add	eax, 1
; Line 272
	pop	ebp
	ret	0
??$?9V?$basic_string@DU?$char_traits@D@std@@V?$allocator@D@2@@std@@V01@@std@@YA_NABV?$allocator@V?$basic_string@DU?$char_traits@D@std@@V?$allocator@D@2@@std@@@0@0@Z ENDP ; std::operator!=<std::basic_string<char,std::char_traits<char>,std::allocator<char> >,std::basic_string<char,std::char_traits<char>,std::allocator<char> > >
; Function compile flags: /Odtp
_TEXT	ENDS
;	COMDAT ??$?9DD@std@@YA_NABV?$allocator@D@0@0@Z
_TEXT	SEGMENT
__Left$ = 8						; size = 4
__Right$ = 12						; size = 4
??$?9DD@std@@YA_NABV?$allocator@D@0@0@Z PROC		; std::operator!=<char,char>, COMDAT
; Line 270
	push	ebp
	mov	ebp, esp
; Line 271
	mov	eax, DWORD PTR __Right$[ebp]
	push	eax
	mov	ecx, DWORD PTR __Left$[ebp]
	push	ecx
	call	??$?8DD@std@@YA_NABV?$allocator@D@0@0@Z	; std::operator==<char,char>
	add	esp, 8
	movzx	eax, al
	neg	eax
	sbb	eax, eax
	add	eax, 1
; Line 272
	pop	ebp
	ret	0
??$?9DD@std@@YA_NABV?$allocator@D@0@0@Z ENDP		; std::operator!=<char,char>
; Function compile flags: /Odtp
_TEXT	ENDS
;	COMDAT ??$addressof@$$CBV?$basic_string@DU?$char_traits@D@std@@V?$allocator@D@2@@std@@@std@@YAPBV?$basic_string@DU?$char_traits@D@std@@V?$allocator@D@2@@0@ABV10@@Z
_TEXT	SEGMENT
__Val$ = 8						; size = 4
??$addressof@$$CBV?$basic_string@DU?$char_traits@D@std@@V?$allocator@D@2@@std@@@std@@YAPBV?$basic_string@DU?$char_traits@D@std@@V?$allocator@D@2@@0@ABV10@@Z PROC ; std::addressof<std::basic_string<char,std::char_traits<char>,std::allocator<char> > const >, COMDAT
; Line 110
	push	ebp
	mov	ebp, esp
; Line 111
	mov	eax, DWORD PTR __Val$[ebp]
; Line 112
	pop	ebp
	ret	0
??$addressof@$$CBV?$basic_string@DU?$char_traits@D@std@@V?$allocator@D@2@@std@@@std@@YAPBV?$basic_string@DU?$char_traits@D@std@@V?$allocator@D@2@@0@ABV10@@Z ENDP ; std::addressof<std::basic_string<char,std::char_traits<char>,std::allocator<char> > const >
; Function compile flags: /Odtp
_TEXT	ENDS
;	COMDAT ??$addressof@V?$basic_string@DU?$char_traits@D@std@@V?$allocator@D@2@@std@@@std@@YAPAV?$basic_string@DU?$char_traits@D@std@@V?$allocator@D@2@@0@AAV10@@Z
_TEXT	SEGMENT
__Val$ = 8						; size = 4
??$addressof@V?$basic_string@DU?$char_traits@D@std@@V?$allocator@D@2@@std@@@std@@YAPAV?$basic_string@DU?$char_traits@D@std@@V?$allocator@D@2@@0@AAV10@@Z PROC ; std::addressof<std::basic_string<char,std::char_traits<char>,std::allocator<char> > >, COMDAT
; Line 110
	push	ebp
	mov	ebp, esp
; Line 111
	mov	eax, DWORD PTR __Val$[ebp]
; Line 112
	pop	ebp
	ret	0
??$addressof@V?$basic_string@DU?$char_traits@D@std@@V?$allocator@D@2@@std@@@std@@YAPAV?$basic_string@DU?$char_traits@D@std@@V?$allocator@D@2@@0@AAV10@@Z ENDP ; std::addressof<std::basic_string<char,std::char_traits<char>,std::allocator<char> > >
; Function compile flags: /Odtp
_TEXT	ENDS
;	COMDAT ??$forward@V?$vector@V?$basic_string@DU?$char_traits@D@std@@V?$allocator@D@2@@std@@V?$allocator@V?$basic_string@DU?$char_traits@D@std@@V?$allocator@D@2@@std@@@2@@std@@@std@@YA$$QAV?$vector@V?$basic_string@DU?$char_traits@D@std@@V?$allocator@D@2@@std@@V?$allocator@V?$basic_string@DU?$char_traits@D@std@@V?$allocator@D@2@@std@@@2@@0@AAV10@@Z
_TEXT	SEGMENT
__Arg$ = 8						; size = 4
??$forward@V?$vector@V?$basic_string@DU?$char_traits@D@std@@V?$allocator@D@2@@std@@V?$allocator@V?$basic_string@DU?$char_traits@D@std@@V?$allocator@D@2@@std@@@2@@std@@@std@@YA$$QAV?$vector@V?$basic_string@DU?$char_traits@D@std@@V?$allocator@D@2@@std@@V?$allocator@V?$basic_string@DU?$char_traits@D@std@@V?$allocator@D@2@@std@@@2@@0@AAV10@@Z PROC ; std::forward<std::vector<std::basic_string<char,std::char_traits<char>,std::allocator<char> >,std::allocator<std::basic_string<char,std::char_traits<char>,std::allocator<char> > > > >, COMDAT
; File e:\program files (x86)\microsoft visual studio 10.0\vc\include\utility
; Line 78
	push	ebp
	mov	ebp, esp
; Line 79
	mov	eax, DWORD PTR __Arg$[ebp]
; Line 80
	pop	ebp
	ret	0
??$forward@V?$vector@V?$basic_string@DU?$char_traits@D@std@@V?$allocator@D@2@@std@@V?$allocator@V?$basic_string@DU?$char_traits@D@std@@V?$allocator@D@2@@std@@@2@@std@@@std@@YA$$QAV?$vector@V?$basic_string@DU?$char_traits@D@std@@V?$allocator@D@2@@std@@V?$allocator@V?$basic_string@DU?$char_traits@D@std@@V?$allocator@D@2@@std@@@2@@0@AAV10@@Z ENDP ; std::forward<std::vector<std::basic_string<char,std::char_traits<char>,std::allocator<char> >,std::allocator<std::basic_string<char,std::char_traits<char>,std::allocator<char> > > > >
; Function compile flags: /Odtp
_TEXT	ENDS
;	COMDAT ??$forward@V?$basic_string@DU?$char_traits@D@std@@V?$allocator@D@2@@std@@@std@@YA$$QAV?$basic_string@DU?$char_traits@D@std@@V?$allocator@D@2@@0@AAV10@@Z
_TEXT	SEGMENT
__Arg$ = 8						; size = 4
??$forward@V?$basic_string@DU?$char_traits@D@std@@V?$allocator@D@2@@std@@@std@@YA$$QAV?$basic_string@DU?$char_traits@D@std@@V?$allocator@D@2@@0@AAV10@@Z PROC ; std::forward<std::basic_string<char,std::char_traits<char>,std::allocator<char> > >, COMDAT
; Line 78
	push	ebp
	mov	ebp, esp
; Line 79
	mov	eax, DWORD PTR __Arg$[ebp]
; Line 80
	pop	ebp
	ret	0
??$forward@V?$basic_string@DU?$char_traits@D@std@@V?$allocator@D@2@@std@@@std@@YA$$QAV?$basic_string@DU?$char_traits@D@std@@V?$allocator@D@2@@0@AAV10@@Z ENDP ; std::forward<std::basic_string<char,std::char_traits<char>,std::allocator<char> > >
; Function compile flags: /Odtp
_TEXT	ENDS
;	COMDAT ??$forward@V?$allocator@D@std@@@std@@YA$$QAV?$allocator@D@0@AAV10@@Z
_TEXT	SEGMENT
__Arg$ = 8						; size = 4
??$forward@V?$allocator@D@std@@@std@@YA$$QAV?$allocator@D@0@AAV10@@Z PROC ; std::forward<std::allocator<char> >, COMDAT
; Line 78
	push	ebp
	mov	ebp, esp
; Line 79
	mov	eax, DWORD PTR __Arg$[ebp]
; Line 80
	pop	ebp
	ret	0
??$forward@V?$allocator@D@std@@@std@@YA$$QAV?$allocator@D@0@AAV10@@Z ENDP ; std::forward<std::allocator<char> >
; Function compile flags: /Odtp
_TEXT	ENDS
;	COMDAT ?max_size@?$allocator@Ustruct_chat@Battlefield@@@std@@QBEIXZ
_TEXT	SEGMENT
tv65 = -12						; size = 4
_this$ = -8						; size = 4
__Count$ = -4						; size = 4
?max_size@?$allocator@Ustruct_chat@Battlefield@@@std@@QBEIXZ PROC ; std::allocator<Battlefield::struct_chat>::max_size, COMDAT
; _this$ = ecx
; File e:\program files (x86)\microsoft visual studio 10.0\vc\include\xmemory
; Line 217
	push	ebp
	mov	ebp, esp
	sub	esp, 12					; 0000000cH
	mov	DWORD PTR _this$[ebp], ecx
; Line 218
	mov	DWORD PTR __Count$[ebp], 48806446	; 02e8ba2eH
; Line 219
	cmp	DWORD PTR __Count$[ebp], 0
	jbe	SHORT $LN3@max_size@16
	mov	eax, DWORD PTR __Count$[ebp]
	mov	DWORD PTR tv65[ebp], eax
	jmp	SHORT $LN4@max_size@16
$LN3@max_size@16:
	mov	DWORD PTR tv65[ebp], 1
$LN4@max_size@16:
	mov	eax, DWORD PTR tv65[ebp]
; Line 220
	mov	esp, ebp
	pop	ebp
	ret	0
?max_size@?$allocator@Ustruct_chat@Battlefield@@@std@@QBEIXZ ENDP ; std::allocator<Battlefield::struct_chat>::max_size
; Function compile flags: /Odtp
_TEXT	ENDS
;	COMDAT ?max_size@?$allocator@D@std@@QBEIXZ
_TEXT	SEGMENT
tv65 = -12						; size = 4
_this$ = -8						; size = 4
__Count$ = -4						; size = 4
?max_size@?$allocator@D@std@@QBEIXZ PROC		; std::allocator<char>::max_size, COMDAT
; _this$ = ecx
; Line 217
	push	ebp
	mov	ebp, esp
	sub	esp, 12					; 0000000cH
	mov	DWORD PTR _this$[ebp], ecx
; Line 218
	mov	DWORD PTR __Count$[ebp], -1
; Line 219
	cmp	DWORD PTR __Count$[ebp], 0
	jbe	SHORT $LN3@max_size@17
	mov	eax, DWORD PTR __Count$[ebp]
	mov	DWORD PTR tv65[ebp], eax
	jmp	SHORT $LN4@max_size@17
$LN3@max_size@17:
	mov	DWORD PTR tv65[ebp], 1
$LN4@max_size@17:
	mov	eax, DWORD PTR tv65[ebp]
; Line 220
	mov	esp, ebp
	pop	ebp
	ret	0
?max_size@?$allocator@D@std@@QBEIXZ ENDP		; std::allocator<char>::max_size
; Function compile flags: /Odtp
_TEXT	ENDS
;	COMDAT ?_Compat@?$_String_const_iterator@DU?$char_traits@D@std@@V?$allocator@D@2@@std@@QBEXABV12@@Z
_TEXT	SEGMENT
_this$ = -4						; size = 4
___formal$ = 8						; size = 4
?_Compat@?$_String_const_iterator@DU?$char_traits@D@std@@V?$allocator@D@2@@std@@QBEXABV12@@Z PROC ; std::_String_const_iterator<char,std::char_traits<char>,std::allocator<char> >::_Compat, COMDAT
; _this$ = ecx
; File e:\program files (x86)\microsoft visual studio 10.0\vc\include\xstring
; Line 263
	push	ebp
	mov	ebp, esp
	push	ecx
	mov	DWORD PTR _this$[ebp], ecx
; Line 264
	mov	esp, ebp
	pop	ebp
	ret	4
?_Compat@?$_String_const_iterator@DU?$char_traits@D@std@@V?$allocator@D@2@@std@@QBEXABV12@@Z ENDP ; std::_String_const_iterator<char,std::char_traits<char>,std::allocator<char> >::_Compat
; Function compile flags: /Odtp
_TEXT	ENDS
;	COMDAT ?_Myval@?$_List_val@Ustruct_chat@Battlefield@@V?$allocator@Ustruct_chat@Battlefield@@@std@@@std@@SAAAUstruct_chat@Battlefield@@PAU_Node@?$_List_nod@Ustruct_chat@Battlefield@@V?$allocator@Ustruct_chat@Battlefield@@@std@@@2@@Z
_TEXT	SEGMENT
__Pnode$ = 8						; size = 4
?_Myval@?$_List_val@Ustruct_chat@Battlefield@@V?$allocator@Ustruct_chat@Battlefield@@@std@@@std@@SAAAUstruct_chat@Battlefield@@PAU_Node@?$_List_nod@Ustruct_chat@Battlefield@@V?$allocator@Ustruct_chat@Battlefield@@@std@@@2@@Z PROC ; std::_List_val<Battlefield::struct_chat,std::allocator<Battlefield::struct_chat> >::_Myval, COMDAT
; File e:\program files (x86)\microsoft visual studio 10.0\vc\include\list
; Line 570
	push	ebp
	mov	ebp, esp
; Line 571
	mov	eax, DWORD PTR __Pnode$[ebp]
	add	eax, 8
; Line 572
	pop	ebp
	ret	0
?_Myval@?$_List_val@Ustruct_chat@Battlefield@@V?$allocator@Ustruct_chat@Battlefield@@@std@@@std@@SAAAUstruct_chat@Battlefield@@PAU_Node@?$_List_nod@Ustruct_chat@Battlefield@@V?$allocator@Ustruct_chat@Battlefield@@@std@@@2@@Z ENDP ; std::_List_val<Battlefield::struct_chat,std::allocator<Battlefield::struct_chat> >::_Myval
; Function compile flags: /Odtp
_TEXT	ENDS
;	COMDAT ?max_size@?$list@Ustruct_chat@Battlefield@@V?$allocator@Ustruct_chat@Battlefield@@@std@@@std@@QBEIXZ
_TEXT	SEGMENT
_this$ = -4						; size = 4
?max_size@?$list@Ustruct_chat@Battlefield@@V?$allocator@Ustruct_chat@Battlefield@@@std@@@std@@QBEIXZ PROC ; std::list<Battlefield::struct_chat,std::allocator<Battlefield::struct_chat> >::max_size, COMDAT
; _this$ = ecx
; Line 881
	push	ebp
	mov	ebp, esp
	push	ecx
	mov	DWORD PTR _this$[ebp], ecx
; Line 882
	mov	ecx, DWORD PTR _this$[ebp]
	add	ecx, 9
	call	?max_size@?$allocator@Ustruct_chat@Battlefield@@@std@@QBEIXZ ; std::allocator<Battlefield::struct_chat>::max_size
; Line 883
	mov	esp, ebp
	pop	ebp
	ret	0
?max_size@?$list@Ustruct_chat@Battlefield@@V?$allocator@Ustruct_chat@Battlefield@@@std@@@std@@QBEIXZ ENDP ; std::list<Battlefield::struct_chat,std::allocator<Battlefield::struct_chat> >::max_size
; Function compile flags: /Odtp
_TEXT	ENDS
;	COMDAT ?max_size@?$allocator@V?$basic_string@DU?$char_traits@D@std@@V?$allocator@D@2@@std@@@std@@QBEIXZ
_TEXT	SEGMENT
tv65 = -12						; size = 4
_this$ = -8						; size = 4
__Count$ = -4						; size = 4
?max_size@?$allocator@V?$basic_string@DU?$char_traits@D@std@@V?$allocator@D@2@@std@@@std@@QBEIXZ PROC ; std::allocator<std::basic_string<char,std::char_traits<char>,std::allocator<char> > >::max_size, COMDAT
; _this$ = ecx
; File e:\program files (x86)\microsoft visual studio 10.0\vc\include\xmemory
; Line 217
	push	ebp
	mov	ebp, esp
	sub	esp, 12					; 0000000cH
	mov	DWORD PTR _this$[ebp], ecx
; Line 218
	mov	DWORD PTR __Count$[ebp], 153391689	; 09249249H
; Line 219
	cmp	DWORD PTR __Count$[ebp], 0
	jbe	SHORT $LN3@max_size@18
	mov	eax, DWORD PTR __Count$[ebp]
	mov	DWORD PTR tv65[ebp], eax
	jmp	SHORT $LN4@max_size@18
$LN3@max_size@18:
	mov	DWORD PTR tv65[ebp], 1
$LN4@max_size@18:
	mov	eax, DWORD PTR tv65[ebp]
; Line 220
	mov	esp, ebp
	pop	ebp
	ret	0
?max_size@?$allocator@V?$basic_string@DU?$char_traits@D@std@@V?$allocator@D@2@@std@@@std@@QBEIXZ ENDP ; std::allocator<std::basic_string<char,std::char_traits<char>,std::allocator<char> > >::max_size
; Function compile flags: /Odtp
_TEXT	ENDS
;	COMDAT ?max_size@?$basic_string@DU?$char_traits@D@std@@V?$allocator@D@2@@std@@QBEIXZ
_TEXT	SEGMENT
tv73 = -12						; size = 4
_this$ = -8						; size = 4
__Num$ = -4						; size = 4
?max_size@?$basic_string@DU?$char_traits@D@std@@V?$allocator@D@2@@std@@QBEIXZ PROC ; std::basic_string<char,std::char_traits<char>,std::allocator<char> >::max_size, COMDAT
; _this$ = ecx
; File e:\program files (x86)\microsoft visual studio 10.0\vc\include\xstring
; Line 1515
	push	ebp
	mov	ebp, esp
	sub	esp, 12					; 0000000cH
	mov	DWORD PTR _this$[ebp], ecx
; Line 1516
	mov	ecx, DWORD PTR _this$[ebp]
	add	ecx, 24					; 00000018H
	call	?max_size@?$allocator@D@std@@QBEIXZ	; std::allocator<char>::max_size
	mov	DWORD PTR __Num$[ebp], eax
; Line 1517
	cmp	DWORD PTR __Num$[ebp], 1
	ja	SHORT $LN3@max_size@19
	mov	DWORD PTR tv73[ebp], 1
	jmp	SHORT $LN4@max_size@19
$LN3@max_size@19:
	mov	eax, DWORD PTR __Num$[ebp]
	sub	eax, 1
	mov	DWORD PTR tv73[ebp], eax
$LN4@max_size@19:
	mov	eax, DWORD PTR tv73[ebp]
; Line 1518
	mov	esp, ebp
	pop	ebp
	ret	0
?max_size@?$basic_string@DU?$char_traits@D@std@@V?$allocator@D@2@@std@@QBEIXZ ENDP ; std::basic_string<char,std::char_traits<char>,std::allocator<char> >::max_size
; Function compile flags: /Odtp
_TEXT	ENDS
;	COMDAT ?_Mynode@?$_List_unchecked_const_iterator@V?$_List_val@Ustruct_chat@Battlefield@@V?$allocator@Ustruct_chat@Battlefield@@@std@@@std@@U_Iterator_base0@2@@std@@QBEPAU_Node@?$_List_nod@Ustruct_chat@Battlefield@@V?$allocator@Ustruct_chat@Battlefield@@@std@@@2@XZ
_TEXT	SEGMENT
_this$ = -4						; size = 4
?_Mynode@?$_List_unchecked_const_iterator@V?$_List_val@Ustruct_chat@Battlefield@@V?$allocator@Ustruct_chat@Battlefield@@@std@@@std@@U_Iterator_base0@2@@std@@QBEPAU_Node@?$_List_nod@Ustruct_chat@Battlefield@@V?$allocator@Ustruct_chat@Battlefield@@@std@@@2@XZ PROC ; std::_List_unchecked_const_iterator<std::_List_val<Battlefield::struct_chat,std::allocator<Battlefield::struct_chat> >,std::_Iterator_base0>::_Mynode, COMDAT
; _this$ = ecx
; File e:\program files (x86)\microsoft visual studio 10.0\vc\include\list
; Line 92
	push	ebp
	mov	ebp, esp
	push	ecx
	mov	DWORD PTR _this$[ebp], ecx
; Line 93
	mov	eax, DWORD PTR _this$[ebp]
	mov	eax, DWORD PTR [eax]
; Line 94
	mov	esp, ebp
	pop	ebp
	ret	0
?_Mynode@?$_List_unchecked_const_iterator@V?$_List_val@Ustruct_chat@Battlefield@@V?$allocator@Ustruct_chat@Battlefield@@@std@@@std@@U_Iterator_base0@2@@std@@QBEPAU_Node@?$_List_nod@Ustruct_chat@Battlefield@@V?$allocator@Ustruct_chat@Battlefield@@@std@@@2@XZ ENDP ; std::_List_unchecked_const_iterator<std::_List_val<Battlefield::struct_chat,std::allocator<Battlefield::struct_chat> >,std::_Iterator_base0>::_Mynode
; Function compile flags: /Odtp
_TEXT	ENDS
;	COMDAT ??D?$_List_const_iterator@V?$_List_val@Ustruct_chat@Battlefield@@V?$allocator@Ustruct_chat@Battlefield@@@std@@@std@@@std@@QBEABUstruct_chat@Battlefield@@XZ
_TEXT	SEGMENT
_this$ = -4						; size = 4
??D?$_List_const_iterator@V?$_List_val@Ustruct_chat@Battlefield@@V?$allocator@Ustruct_chat@Battlefield@@@std@@@std@@@std@@QBEABUstruct_chat@Battlefield@@XZ PROC ; std::_List_const_iterator<std::_List_val<Battlefield::struct_chat,std::allocator<Battlefield::struct_chat> > >::operator*, COMDAT
; _this$ = ecx
; Line 201
	push	ebp
	mov	ebp, esp
	push	ecx
	mov	DWORD PTR _this$[ebp], ecx
; Line 217
	mov	eax, DWORD PTR _this$[ebp]
	mov	ecx, DWORD PTR [eax]
	push	ecx
	call	?_Myval@?$_List_val@Ustruct_chat@Battlefield@@V?$allocator@Ustruct_chat@Battlefield@@@std@@@std@@SAAAUstruct_chat@Battlefield@@PAU_Node@?$_List_nod@Ustruct_chat@Battlefield@@V?$allocator@Ustruct_chat@Battlefield@@@std@@@2@@Z ; std::_List_val<Battlefield::struct_chat,std::allocator<Battlefield::struct_chat> >::_Myval
	add	esp, 4
; Line 218
	mov	esp, ebp
	pop	ebp
	ret	0
??D?$_List_const_iterator@V?$_List_val@Ustruct_chat@Battlefield@@V?$allocator@Ustruct_chat@Battlefield@@@std@@@std@@@std@@QBEABUstruct_chat@Battlefield@@XZ ENDP ; std::_List_const_iterator<std::_List_val<Battlefield::struct_chat,std::allocator<Battlefield::struct_chat> > >::operator*
; Function compile flags: /Odtp
_TEXT	ENDS
;	COMDAT ??1_Sentry_base@?$basic_ostream@DU?$char_traits@D@std@@@std@@QAE@XZ
_TEXT	SEGMENT
tv90 = -8						; size = 4
_this$ = -4						; size = 4
??1_Sentry_base@?$basic_ostream@DU?$char_traits@D@std@@@std@@QAE@XZ PROC ; std::basic_ostream<char,std::char_traits<char> >::_Sentry_base::~_Sentry_base, COMDAT
; _this$ = ecx
; File e:\program files (x86)\microsoft visual studio 10.0\vc\include\ostream
; Line 97
	push	ebp
	mov	ebp, esp
	sub	esp, 8
	mov	DWORD PTR _this$[ebp], ecx
; Line 98
	mov	eax, DWORD PTR _this$[ebp]
	mov	ecx, DWORD PTR [eax]
	mov	edx, DWORD PTR [ecx]
	mov	eax, DWORD PTR _this$[ebp]
	mov	ecx, DWORD PTR [eax]
	add	ecx, DWORD PTR [edx+4]
	call	DWORD PTR __imp_?rdbuf@?$basic_ios@DU?$char_traits@D@std@@@std@@QBEPAV?$basic_streambuf@DU?$char_traits@D@std@@@2@XZ
	test	eax, eax
	je	SHORT $LN2@Sentry_bas@3
; Line 99
	mov	ecx, DWORD PTR _this$[ebp]
	mov	edx, DWORD PTR [ecx]
	mov	eax, DWORD PTR [edx]
	mov	ecx, DWORD PTR _this$[ebp]
	mov	ecx, DWORD PTR [ecx]
	add	ecx, DWORD PTR [eax+4]
	call	DWORD PTR __imp_?rdbuf@?$basic_ios@DU?$char_traits@D@std@@@std@@QBEPAV?$basic_streambuf@DU?$char_traits@D@std@@@2@XZ
	mov	DWORD PTR tv90[ebp], eax
	mov	edx, DWORD PTR tv90[ebp]
	mov	eax, DWORD PTR [edx]
	mov	ecx, DWORD PTR tv90[ebp]
	mov	edx, DWORD PTR [eax+8]
	call	edx
$LN2@Sentry_bas@3:
; Line 100
	mov	esp, ebp
	pop	ebp
	ret	0
??1_Sentry_base@?$basic_ostream@DU?$char_traits@D@std@@@std@@QAE@XZ ENDP ; std::basic_ostream<char,std::char_traits<char> >::_Sentry_base::~_Sentry_base
; Function compile flags: /Odtp
_TEXT	ENDS
;	COMDAT ??0_Sentry_base@?$basic_ostream@DU?$char_traits@D@std@@@std@@QAE@AAV12@@Z
_TEXT	SEGMENT
tv90 = -8						; size = 4
_this$ = -4						; size = 4
__Ostr$ = 8						; size = 4
??0_Sentry_base@?$basic_ostream@DU?$char_traits@D@std@@@std@@QAE@AAV12@@Z PROC ; std::basic_ostream<char,std::char_traits<char> >::_Sentry_base::_Sentry_base, COMDAT
; _this$ = ecx
; Line 91
	push	ebp
	mov	ebp, esp
	sub	esp, 8
	mov	DWORD PTR _this$[ebp], ecx
	mov	eax, DWORD PTR _this$[ebp]
	mov	ecx, DWORD PTR __Ostr$[ebp]
	mov	DWORD PTR [eax], ecx
; Line 92
	mov	edx, DWORD PTR _this$[ebp]
	mov	eax, DWORD PTR [edx]
	mov	ecx, DWORD PTR [eax]
	mov	edx, DWORD PTR _this$[ebp]
	mov	eax, DWORD PTR [edx]
	add	eax, DWORD PTR [ecx+4]
	mov	ecx, eax
	call	DWORD PTR __imp_?rdbuf@?$basic_ios@DU?$char_traits@D@std@@@std@@QBEPAV?$basic_streambuf@DU?$char_traits@D@std@@@2@XZ
	test	eax, eax
	je	SHORT $LN2@Sentry_bas@4
; Line 93
	mov	ecx, DWORD PTR _this$[ebp]
	mov	edx, DWORD PTR [ecx]
	mov	eax, DWORD PTR [edx]
	mov	ecx, DWORD PTR _this$[ebp]
	mov	ecx, DWORD PTR [ecx]
	add	ecx, DWORD PTR [eax+4]
	call	DWORD PTR __imp_?rdbuf@?$basic_ios@DU?$char_traits@D@std@@@std@@QBEPAV?$basic_streambuf@DU?$char_traits@D@std@@@2@XZ
	mov	DWORD PTR tv90[ebp], eax
	mov	edx, DWORD PTR tv90[ebp]
	mov	eax, DWORD PTR [edx]
	mov	ecx, DWORD PTR tv90[ebp]
	mov	edx, DWORD PTR [eax+4]
	call	edx
$LN2@Sentry_bas@4:
; Line 94
	mov	eax, DWORD PTR _this$[ebp]
	mov	esp, ebp
	pop	ebp
	ret	4
??0_Sentry_base@?$basic_ostream@DU?$char_traits@D@std@@@std@@QAE@AAV12@@Z ENDP ; std::basic_ostream<char,std::char_traits<char> >::_Sentry_base::_Sentry_base
; Function compile flags: /Odtp
_TEXT	ENDS
;	COMDAT ?_Compat@?$_Vector_const_iterator@V?$_Vector_val@Uban@Database@@V?$allocator@Uban@Database@@@std@@@std@@@std@@QBEXABV12@@Z
_TEXT	SEGMENT
_this$ = -4						; size = 4
___formal$ = 8						; size = 4
?_Compat@?$_Vector_const_iterator@V?$_Vector_val@Uban@Database@@V?$allocator@Uban@Database@@@std@@@std@@@std@@QBEXABV12@@Z PROC ; std::_Vector_const_iterator<std::_Vector_val<Database::ban,std::allocator<Database::ban> > >::_Compat, COMDAT
; _this$ = ecx
; File e:\program files (x86)\microsoft visual studio 10.0\vc\include\vector
; Line 252
	push	ebp
	mov	ebp, esp
	push	ecx
	mov	DWORD PTR _this$[ebp], ecx
; Line 253
	mov	esp, ebp
	pop	ebp
	ret	4
?_Compat@?$_Vector_const_iterator@V?$_Vector_val@Uban@Database@@V?$allocator@Uban@Database@@@std@@@std@@@std@@QBEXABV12@@Z ENDP ; std::_Vector_const_iterator<std::_Vector_val<Database::ban,std::allocator<Database::ban> > >::_Compat
; Function compile flags: /Odtp
_TEXT	ENDS
;	COMDAT ?deallocate@?$allocator@Uban@Database@@@std@@QAEXPAUban@Database@@I@Z
_TEXT	SEGMENT
_this$ = -4						; size = 4
__Ptr$ = 8						; size = 4
___formal$ = 12						; size = 4
?deallocate@?$allocator@Uban@Database@@@std@@QAEXPAUban@Database@@I@Z PROC ; std::allocator<Database::ban>::deallocate, COMDAT
; _this$ = ecx
; File e:\program files (x86)\microsoft visual studio 10.0\vc\include\xmemory
; Line 181
	push	ebp
	mov	ebp, esp
	push	ecx
	mov	DWORD PTR _this$[ebp], ecx
; Line 182
	mov	eax, DWORD PTR __Ptr$[ebp]
	push	eax
	call	DWORD PTR __imp_??3@YAXPAX@Z
	add	esp, 4
; Line 183
	mov	esp, ebp
	pop	ebp
	ret	8
?deallocate@?$allocator@Uban@Database@@@std@@QAEXPAUban@Database@@I@Z ENDP ; std::allocator<Database::ban>::deallocate
; Function compile flags: /Odtp
_TEXT	ENDS
;	COMDAT ?_Compat@?$_Vector_const_iterator@V?$_Vector_val@Uadmin@Database@@V?$allocator@Uadmin@Database@@@std@@@std@@@std@@QBEXABV12@@Z
_TEXT	SEGMENT
_this$ = -4						; size = 4
___formal$ = 8						; size = 4
?_Compat@?$_Vector_const_iterator@V?$_Vector_val@Uadmin@Database@@V?$allocator@Uadmin@Database@@@std@@@std@@@std@@QBEXABV12@@Z PROC ; std::_Vector_const_iterator<std::_Vector_val<Database::admin,std::allocator<Database::admin> > >::_Compat, COMDAT
; _this$ = ecx
; File e:\program files (x86)\microsoft visual studio 10.0\vc\include\vector
; Line 252
	push	ebp
	mov	ebp, esp
	push	ecx
	mov	DWORD PTR _this$[ebp], ecx
; Line 253
	mov	esp, ebp
	pop	ebp
	ret	4
?_Compat@?$_Vector_const_iterator@V?$_Vector_val@Uadmin@Database@@V?$allocator@Uadmin@Database@@@std@@@std@@@std@@QBEXABV12@@Z ENDP ; std::_Vector_const_iterator<std::_Vector_val<Database::admin,std::allocator<Database::admin> > >::_Compat
; Function compile flags: /Odtp
_TEXT	ENDS
;	COMDAT ?deallocate@?$allocator@Uadmin@Database@@@std@@QAEXPAUadmin@Database@@I@Z
_TEXT	SEGMENT
_this$ = -4						; size = 4
__Ptr$ = 8						; size = 4
___formal$ = 12						; size = 4
?deallocate@?$allocator@Uadmin@Database@@@std@@QAEXPAUadmin@Database@@I@Z PROC ; std::allocator<Database::admin>::deallocate, COMDAT
; _this$ = ecx
; File e:\program files (x86)\microsoft visual studio 10.0\vc\include\xmemory
; Line 181
	push	ebp
	mov	ebp, esp
	push	ecx
	mov	DWORD PTR _this$[ebp], ecx
; Line 182
	mov	eax, DWORD PTR __Ptr$[ebp]
	push	eax
	call	DWORD PTR __imp_??3@YAXPAX@Z
	add	esp, 4
; Line 183
	mov	esp, ebp
	pop	ebp
	ret	8
?deallocate@?$allocator@Uadmin@Database@@@std@@QAEXPAUadmin@Database@@I@Z ENDP ; std::allocator<Database::admin>::deallocate
; Function compile flags: /Odtp
_TEXT	ENDS
;	COMDAT ?_Compat@?$_Vector_const_iterator@V?$_Vector_val@V?$basic_string@DU?$char_traits@D@std@@V?$allocator@D@2@@std@@V?$allocator@V?$basic_string@DU?$char_traits@D@std@@V?$allocator@D@2@@std@@@2@@std@@@std@@QBEXABV12@@Z
_TEXT	SEGMENT
_this$ = -4						; size = 4
___formal$ = 8						; size = 4
?_Compat@?$_Vector_const_iterator@V?$_Vector_val@V?$basic_string@DU?$char_traits@D@std@@V?$allocator@D@2@@std@@V?$allocator@V?$basic_string@DU?$char_traits@D@std@@V?$allocator@D@2@@std@@@2@@std@@@std@@QBEXABV12@@Z PROC ; std::_Vector_const_iterator<std::_Vector_val<std::basic_string<char,std::char_traits<char>,std::allocator<char> >,std::allocator<std::basic_string<char,std::char_traits<char>,std::allocator<char> > > > >::_Compat, COMDAT
; _this$ = ecx
; File e:\program files (x86)\microsoft visual studio 10.0\vc\include\vector
; Line 252
	push	ebp
	mov	ebp, esp
	push	ecx
	mov	DWORD PTR _this$[ebp], ecx
; Line 253
	mov	esp, ebp
	pop	ebp
	ret	4
?_Compat@?$_Vector_const_iterator@V?$_Vector_val@V?$basic_string@DU?$char_traits@D@std@@V?$allocator@D@2@@std@@V?$allocator@V?$basic_string@DU?$char_traits@D@std@@V?$allocator@D@2@@std@@@2@@std@@@std@@QBEXABV12@@Z ENDP ; std::_Vector_const_iterator<std::_Vector_val<std::basic_string<char,std::char_traits<char>,std::allocator<char> >,std::allocator<std::basic_string<char,std::char_traits<char>,std::allocator<char> > > > >::_Compat
; Function compile flags: /Odtp
_TEXT	ENDS
;	COMDAT ??G?$_String_const_iterator@DU?$char_traits@D@std@@V?$allocator@D@2@@std@@QBEHABV01@@Z
_TEXT	SEGMENT
_this$ = -4						; size = 4
__Right$ = 8						; size = 4
??G?$_String_const_iterator@DU?$char_traits@D@std@@V?$allocator@D@2@@std@@QBEHABV01@@Z PROC ; std::_String_const_iterator<char,std::char_traits<char>,std::allocator<char> >::operator-, COMDAT
; _this$ = ecx
; File e:\program files (x86)\microsoft visual studio 10.0\vc\include\xstring
; Line 201
	push	ebp
	mov	ebp, esp
	push	ecx
	mov	DWORD PTR _this$[ebp], ecx
; Line 202
	mov	eax, DWORD PTR __Right$[ebp]
	push	eax
	mov	ecx, DWORD PTR _this$[ebp]
	call	?_Compat@?$_String_const_iterator@DU?$char_traits@D@std@@V?$allocator@D@2@@std@@QBEXABV12@@Z ; std::_String_const_iterator<char,std::char_traits<char>,std::allocator<char> >::_Compat
; Line 203
	mov	ecx, DWORD PTR _this$[ebp]
	mov	edx, DWORD PTR __Right$[ebp]
	mov	eax, DWORD PTR [ecx]
	sub	eax, DWORD PTR [edx]
; Line 204
	mov	esp, ebp
	pop	ebp
	ret	4
??G?$_String_const_iterator@DU?$char_traits@D@std@@V?$allocator@D@2@@std@@QBEHABV01@@Z ENDP ; std::_String_const_iterator<char,std::char_traits<char>,std::allocator<char> >::operator-
; Function compile flags: /Odtp
_TEXT	ENDS
;	COMDAT ?deallocate@?$allocator@U_Node@?$_List_nod@Ustruct_chat@Battlefield@@V?$allocator@Ustruct_chat@Battlefield@@@std@@@std@@@std@@QAEXPAU_Node@?$_List_nod@Ustruct_chat@Battlefield@@V?$allocator@Ustruct_chat@Battlefield@@@std@@@2@I@Z
_TEXT	SEGMENT
_this$ = -4						; size = 4
__Ptr$ = 8						; size = 4
___formal$ = 12						; size = 4
?deallocate@?$allocator@U_Node@?$_List_nod@Ustruct_chat@Battlefield@@V?$allocator@Ustruct_chat@Battlefield@@@std@@@std@@@std@@QAEXPAU_Node@?$_List_nod@Ustruct_chat@Battlefield@@V?$allocator@Ustruct_chat@Battlefield@@@std@@@2@I@Z PROC ; std::allocator<std::_List_nod<Battlefield::struct_chat,std::allocator<Battlefield::struct_chat> >::_Node>::deallocate, COMDAT
; _this$ = ecx
; File e:\program files (x86)\microsoft visual studio 10.0\vc\include\xmemory
; Line 181
	push	ebp
	mov	ebp, esp
	push	ecx
	mov	DWORD PTR _this$[ebp], ecx
; Line 182
	mov	eax, DWORD PTR __Ptr$[ebp]
	push	eax
	call	DWORD PTR __imp_??3@YAXPAX@Z
	add	esp, 4
; Line 183
	mov	esp, ebp
	pop	ebp
	ret	8
?deallocate@?$allocator@U_Node@?$_List_nod@Ustruct_chat@Battlefield@@V?$allocator@Ustruct_chat@Battlefield@@@std@@@std@@@std@@QAEXPAU_Node@?$_List_nod@Ustruct_chat@Battlefield@@V?$allocator@Ustruct_chat@Battlefield@@@std@@@2@I@Z ENDP ; std::allocator<std::_List_nod<Battlefield::struct_chat,std::allocator<Battlefield::struct_chat> >::_Node>::deallocate
; Function compile flags: /Odtp
_TEXT	ENDS
;	COMDAT ?_Prevnode@?$_List_val@Ustruct_chat@Battlefield@@V?$allocator@Ustruct_chat@Battlefield@@@std@@@std@@SAAAPAU_Node@?$_List_nod@Ustruct_chat@Battlefield@@V?$allocator@Ustruct_chat@Battlefield@@@std@@@2@PAU342@@Z
_TEXT	SEGMENT
__Pnode$ = 8						; size = 4
?_Prevnode@?$_List_val@Ustruct_chat@Battlefield@@V?$allocator@Ustruct_chat@Battlefield@@@std@@@std@@SAAAPAU_Node@?$_List_nod@Ustruct_chat@Battlefield@@V?$allocator@Ustruct_chat@Battlefield@@@std@@@2@PAU342@@Z PROC ; std::_List_val<Battlefield::struct_chat,std::allocator<Battlefield::struct_chat> >::_Prevnode, COMDAT
; File e:\program files (x86)\microsoft visual studio 10.0\vc\include\list
; Line 565
	push	ebp
	mov	ebp, esp
; Line 566
	mov	eax, DWORD PTR __Pnode$[ebp]
	add	eax, 4
; Line 567
	pop	ebp
	ret	0
?_Prevnode@?$_List_val@Ustruct_chat@Battlefield@@V?$allocator@Ustruct_chat@Battlefield@@@std@@@std@@SAAAPAU_Node@?$_List_nod@Ustruct_chat@Battlefield@@V?$allocator@Ustruct_chat@Battlefield@@@std@@@2@PAU342@@Z ENDP ; std::_List_val<Battlefield::struct_chat,std::allocator<Battlefield::struct_chat> >::_Prevnode
; Function compile flags: /Odtp
_TEXT	ENDS
;	COMDAT ?_Nextnode@?$_List_val@Ustruct_chat@Battlefield@@V?$allocator@Ustruct_chat@Battlefield@@@std@@@std@@SAAAPAU_Node@?$_List_nod@Ustruct_chat@Battlefield@@V?$allocator@Ustruct_chat@Battlefield@@@std@@@2@PAU342@@Z
_TEXT	SEGMENT
__Pnode$ = 8						; size = 4
?_Nextnode@?$_List_val@Ustruct_chat@Battlefield@@V?$allocator@Ustruct_chat@Battlefield@@@std@@@std@@SAAAPAU_Node@?$_List_nod@Ustruct_chat@Battlefield@@V?$allocator@Ustruct_chat@Battlefield@@@std@@@2@PAU342@@Z PROC ; std::_List_val<Battlefield::struct_chat,std::allocator<Battlefield::struct_chat> >::_Nextnode, COMDAT
; Line 560
	push	ebp
	mov	ebp, esp
; Line 561
	mov	eax, DWORD PTR __Pnode$[ebp]
; Line 562
	pop	ebp
	ret	0
?_Nextnode@?$_List_val@Ustruct_chat@Battlefield@@V?$allocator@Ustruct_chat@Battlefield@@@std@@@std@@SAAAPAU_Node@?$_List_nod@Ustruct_chat@Battlefield@@V?$allocator@Ustruct_chat@Battlefield@@@std@@@2@PAU342@@Z ENDP ; std::_List_val<Battlefield::struct_chat,std::allocator<Battlefield::struct_chat> >::_Nextnode
; Function compile flags: /Odtp
_TEXT	ENDS
;	COMDAT ?_Incsize@?$list@Ustruct_chat@Battlefield@@V?$allocator@Ustruct_chat@Battlefield@@@std@@@std@@QAEXI@Z
_TEXT	SEGMENT
_this$ = -4						; size = 4
__Count$ = 8						; size = 4
?_Incsize@?$list@Ustruct_chat@Battlefield@@V?$allocator@Ustruct_chat@Battlefield@@@std@@@std@@QAEXI@Z PROC ; std::list<Battlefield::struct_chat,std::allocator<Battlefield::struct_chat> >::_Incsize, COMDAT
; _this$ = ecx
; Line 1519
	push	ebp
	mov	ebp, esp
	push	ecx
	mov	DWORD PTR _this$[ebp], ecx
; Line 1520
	mov	ecx, DWORD PTR _this$[ebp]
	call	?max_size@?$list@Ustruct_chat@Battlefield@@V?$allocator@Ustruct_chat@Battlefield@@@std@@@std@@QBEIXZ ; std::list<Battlefield::struct_chat,std::allocator<Battlefield::struct_chat> >::max_size
	mov	ecx, DWORD PTR _this$[ebp]
	sub	eax, DWORD PTR [ecx+4]
	sub	eax, 1
	cmp	eax, DWORD PTR __Count$[ebp]
	jae	SHORT $LN1@Incsize
; Line 1521
	push	OFFSET ??_C@_0BB@MOGOBHAF@list?$DMT?$DO?5too?5long?$AA@
	call	DWORD PTR __imp_?_Xlength_error@std@@YAXPBD@Z
$LN1@Incsize:
; Line 1522
	mov	edx, DWORD PTR _this$[ebp]
	mov	eax, DWORD PTR [edx+4]
	add	eax, DWORD PTR __Count$[ebp]
	mov	ecx, DWORD PTR _this$[ebp]
	mov	DWORD PTR [ecx+4], eax
$LN3@Incsize:
; Line 1523
	mov	esp, ebp
	pop	ebp
	ret	4
?_Incsize@?$list@Ustruct_chat@Battlefield@@V?$allocator@Ustruct_chat@Battlefield@@@std@@@std@@QAEXI@Z ENDP ; std::list<Battlefield::struct_chat,std::allocator<Battlefield::struct_chat> >::_Incsize
; Function compile flags: /Odtp
_TEXT	ENDS
;	COMDAT ?deallocate@?$allocator@Ustruct_Vote@Battlefield@@@std@@QAEXPAUstruct_Vote@Battlefield@@I@Z
_TEXT	SEGMENT
_this$ = -4						; size = 4
__Ptr$ = 8						; size = 4
___formal$ = 12						; size = 4
?deallocate@?$allocator@Ustruct_Vote@Battlefield@@@std@@QAEXPAUstruct_Vote@Battlefield@@I@Z PROC ; std::allocator<Battlefield::struct_Vote>::deallocate, COMDAT
; _this$ = ecx
; File e:\program files (x86)\microsoft visual studio 10.0\vc\include\xmemory
; Line 181
	push	ebp
	mov	ebp, esp
	push	ecx
	mov	DWORD PTR _this$[ebp], ecx
; Line 182
	mov	eax, DWORD PTR __Ptr$[ebp]
	push	eax
	call	DWORD PTR __imp_??3@YAXPAX@Z
	add	esp, 4
; Line 183
	mov	esp, ebp
	pop	ebp
	ret	8
?deallocate@?$allocator@Ustruct_Vote@Battlefield@@@std@@QAEXPAUstruct_Vote@Battlefield@@I@Z ENDP ; std::allocator<Battlefield::struct_Vote>::deallocate
; Function compile flags: /Odtp
_TEXT	ENDS
