; Listing generated by Microsoft (R) Optimizing Compiler Version 16.00.40219.01 

	TITLE	C:\Work\daspirum\Source\src\Config.cpp
	.686P
	.XMM
	include listing.inc
	.model	flat

INCLUDELIB OLDNAMES

PUBLIC	??_R4?$memory_manager_stateless_kernel_1@Vnode@?$binary_search_tree_kernel_2@V?$basic_string@DU?$char_traits@D@std@@V?$allocator@D@2@@std@@PAXV?$memory_manager_stateless_kernel_1@D@dlib@@U?$less@V?$basic_string@DU?$char_traits@D@std@@V?$allocator@D@2@@std@@@2@@dlib@@@dlib@@6B@ ; dlib::memory_manager_stateless_kernel_1<dlib::binary_search_tree_kernel_2<std::basic_string<char,std::char_traits<char>,std::allocator<char> >,void *,dlib::memory_manager_stateless_kernel_1<char>,std::less<std::basic_string<char,std::char_traits<char>,std::allocator<char> > > >::node>::`RTTI Complete Object Locator'
PUBLIC	??_R3?$memory_manager_stateless_kernel_1@Vnode@?$binary_search_tree_kernel_2@V?$basic_string@DU?$char_traits@D@std@@V?$allocator@D@2@@std@@PAXV?$memory_manager_stateless_kernel_1@D@dlib@@U?$less@V?$basic_string@DU?$char_traits@D@std@@V?$allocator@D@2@@std@@@2@@dlib@@@dlib@@8 ; dlib::memory_manager_stateless_kernel_1<dlib::binary_search_tree_kernel_2<std::basic_string<char,std::char_traits<char>,std::allocator<char> >,void *,dlib::memory_manager_stateless_kernel_1<char>,std::less<std::basic_string<char,std::char_traits<char>,std::allocator<char> > > >::node>::`RTTI Class Hierarchy Descriptor'
PUBLIC	??_R2?$memory_manager_stateless_kernel_1@Vnode@?$binary_search_tree_kernel_2@V?$basic_string@DU?$char_traits@D@std@@V?$allocator@D@2@@std@@PAXV?$memory_manager_stateless_kernel_1@D@dlib@@U?$less@V?$basic_string@DU?$char_traits@D@std@@V?$allocator@D@2@@std@@@2@@dlib@@@dlib@@8 ; dlib::memory_manager_stateless_kernel_1<dlib::binary_search_tree_kernel_2<std::basic_string<char,std::char_traits<char>,std::allocator<char> >,void *,dlib::memory_manager_stateless_kernel_1<char>,std::less<std::basic_string<char,std::char_traits<char>,std::allocator<char> > > >::node>::`RTTI Base Class Array'
PUBLIC	??_R1A@?0A@EA@?$memory_manager_stateless_kernel_1@Vnode@?$binary_search_tree_kernel_2@V?$basic_string@DU?$char_traits@D@std@@V?$allocator@D@2@@std@@PAXV?$memory_manager_stateless_kernel_1@D@dlib@@U?$less@V?$basic_string@DU?$char_traits@D@std@@V?$allocator@D@2@@std@@@2@@dlib@@@dlib@@8 ; dlib::memory_manager_stateless_kernel_1<dlib::binary_search_tree_kernel_2<std::basic_string<char,std::char_traits<char>,std::allocator<char> >,void *,dlib::memory_manager_stateless_kernel_1<char>,std::less<std::basic_string<char,std::char_traits<char>,std::allocator<char> > > >::node>::`RTTI Base Class Descriptor at (0,-1,0,64)'
PUBLIC	??_R0?AV?$memory_manager_stateless_kernel_1@Vnode@?$binary_search_tree_kernel_2@V?$basic_string@DU?$char_traits@D@std@@V?$allocator@D@2@@std@@PAXV?$memory_manager_stateless_kernel_1@D@dlib@@U?$less@V?$basic_string@DU?$char_traits@D@std@@V?$allocator@D@2@@std@@@2@@dlib@@@dlib@@@8 ; dlib::memory_manager_stateless_kernel_1<dlib::binary_search_tree_kernel_2<std::basic_string<char,std::char_traits<char>,std::allocator<char> >,void *,dlib::memory_manager_stateless_kernel_1<char>,std::less<std::basic_string<char,std::char_traits<char>,std::allocator<char> > > >::node> `RTTI Type Descriptor'
PUBLIC	??_R4mpair@?$binary_search_tree_kernel_2@V?$basic_string@DU?$char_traits@D@std@@V?$allocator@D@2@@std@@PAXV?$memory_manager_stateless_kernel_1@D@dlib@@U?$less@V?$basic_string@DU?$char_traits@D@std@@V?$allocator@D@2@@std@@@2@@dlib@@6B@ ; dlib::binary_search_tree_kernel_2<std::basic_string<char,std::char_traits<char>,std::allocator<char> >,void *,dlib::memory_manager_stateless_kernel_1<char>,std::less<std::basic_string<char,std::char_traits<char>,std::allocator<char> > > >::mpair::`RTTI Complete Object Locator'
PUBLIC	??_R3mpair@?$binary_search_tree_kernel_2@V?$basic_string@DU?$char_traits@D@std@@V?$allocator@D@2@@std@@PAXV?$memory_manager_stateless_kernel_1@D@dlib@@U?$less@V?$basic_string@DU?$char_traits@D@std@@V?$allocator@D@2@@std@@@2@@dlib@@8 ; dlib::binary_search_tree_kernel_2<std::basic_string<char,std::char_traits<char>,std::allocator<char> >,void *,dlib::memory_manager_stateless_kernel_1<char>,std::less<std::basic_string<char,std::char_traits<char>,std::allocator<char> > > >::mpair::`RTTI Class Hierarchy Descriptor'
PUBLIC	??_R2mpair@?$binary_search_tree_kernel_2@V?$basic_string@DU?$char_traits@D@std@@V?$allocator@D@2@@std@@PAXV?$memory_manager_stateless_kernel_1@D@dlib@@U?$less@V?$basic_string@DU?$char_traits@D@std@@V?$allocator@D@2@@std@@@2@@dlib@@8 ; dlib::binary_search_tree_kernel_2<std::basic_string<char,std::char_traits<char>,std::allocator<char> >,void *,dlib::memory_manager_stateless_kernel_1<char>,std::less<std::basic_string<char,std::char_traits<char>,std::allocator<char> > > >::mpair::`RTTI Base Class Array'
PUBLIC	??_R1A@?0A@EA@mpair@?$binary_search_tree_kernel_2@V?$basic_string@DU?$char_traits@D@std@@V?$allocator@D@2@@std@@PAXV?$memory_manager_stateless_kernel_1@D@dlib@@U?$less@V?$basic_string@DU?$char_traits@D@std@@V?$allocator@D@2@@std@@@2@@dlib@@8 ; dlib::binary_search_tree_kernel_2<std::basic_string<char,std::char_traits<char>,std::allocator<char> >,void *,dlib::memory_manager_stateless_kernel_1<char>,std::less<std::basic_string<char,std::char_traits<char>,std::allocator<char> > > >::mpair::`RTTI Base Class Descriptor at (0,-1,0,64)'
PUBLIC	??_R0?AVmpair@?$binary_search_tree_kernel_2@V?$basic_string@DU?$char_traits@D@std@@V?$allocator@D@2@@std@@PAXV?$memory_manager_stateless_kernel_1@D@dlib@@U?$less@V?$basic_string@DU?$char_traits@D@std@@V?$allocator@D@2@@std@@@2@@dlib@@@8 ; dlib::binary_search_tree_kernel_2<std::basic_string<char,std::char_traits<char>,std::allocator<char> >,void *,dlib::memory_manager_stateless_kernel_1<char>,std::less<std::basic_string<char,std::char_traits<char>,std::allocator<char> > > >::mpair `RTTI Type Descriptor'
PUBLIC	??_R4?$pair_remover@V?$basic_string@DU?$char_traits@D@std@@V?$allocator@D@2@@std@@PAX@dlib@@6B@ ; dlib::pair_remover<std::basic_string<char,std::char_traits<char>,std::allocator<char> >,void *>::`RTTI Complete Object Locator'
PUBLIC	??_R4?$asc_pair_remover@V?$basic_string@DU?$char_traits@D@std@@V?$allocator@D@2@@std@@PAXU?$less@V?$basic_string@DU?$char_traits@D@std@@V?$allocator@D@2@@std@@@2@@dlib@@6B@ ; dlib::asc_pair_remover<std::basic_string<char,std::char_traits<char>,std::allocator<char> >,void *,std::less<std::basic_string<char,std::char_traits<char>,std::allocator<char> > > >::`RTTI Complete Object Locator'
PUBLIC	??_R4?$enumerable@V?$map_pair@V?$basic_string@DU?$char_traits@D@std@@V?$allocator@D@2@@std@@PAX@dlib@@@dlib@@6B@ ; dlib::enumerable<dlib::map_pair<std::basic_string<char,std::char_traits<char>,std::allocator<char> >,void *> >::`RTTI Complete Object Locator'
PUBLIC	??_R4?$map_pair@V?$basic_string@DU?$char_traits@D@std@@V?$allocator@D@2@@std@@PAX@dlib@@6B@ ; dlib::map_pair<std::basic_string<char,std::char_traits<char>,std::allocator<char> >,void *>::`RTTI Complete Object Locator'
PUBLIC	??_R3?$map_pair@V?$basic_string@DU?$char_traits@D@std@@V?$allocator@D@2@@std@@PAX@dlib@@8 ; dlib::map_pair<std::basic_string<char,std::char_traits<char>,std::allocator<char> >,void *>::`RTTI Class Hierarchy Descriptor'
PUBLIC	??_R2?$map_pair@V?$basic_string@DU?$char_traits@D@std@@V?$allocator@D@2@@std@@PAX@dlib@@8 ; dlib::map_pair<std::basic_string<char,std::char_traits<char>,std::allocator<char> >,void *>::`RTTI Base Class Array'
PUBLIC	??_R1A@?0A@EA@?$map_pair@V?$basic_string@DU?$char_traits@D@std@@V?$allocator@D@2@@std@@PAX@dlib@@8 ; dlib::map_pair<std::basic_string<char,std::char_traits<char>,std::allocator<char> >,void *>::`RTTI Base Class Descriptor at (0,-1,0,64)'
PUBLIC	??_R0?AV?$map_pair@V?$basic_string@DU?$char_traits@D@std@@V?$allocator@D@2@@std@@PAX@dlib@@@8 ; dlib::map_pair<std::basic_string<char,std::char_traits<char>,std::allocator<char> >,void *> `RTTI Type Descriptor'
PUBLIC	??_R4?$memory_manager_stateless_kernel_1@Vnode@?$binary_search_tree_kernel_2@V?$basic_string@DU?$char_traits@D@std@@V?$allocator@D@2@@std@@V12@V?$memory_manager_stateless_kernel_1@D@dlib@@U?$less@V?$basic_string@DU?$char_traits@D@std@@V?$allocator@D@2@@std@@@2@@dlib@@@dlib@@6B@ ; dlib::memory_manager_stateless_kernel_1<dlib::binary_search_tree_kernel_2<std::basic_string<char,std::char_traits<char>,std::allocator<char> >,std::basic_string<char,std::char_traits<char>,std::allocator<char> >,dlib::memory_manager_stateless_kernel_1<char>,std::less<std::basic_string<char,std::char_traits<char>,std::allocator<char> > > >::node>::`RTTI Complete Object Locator'
PUBLIC	??_R3?$memory_manager_stateless_kernel_1@Vnode@?$binary_search_tree_kernel_2@V?$basic_string@DU?$char_traits@D@std@@V?$allocator@D@2@@std@@V12@V?$memory_manager_stateless_kernel_1@D@dlib@@U?$less@V?$basic_string@DU?$char_traits@D@std@@V?$allocator@D@2@@std@@@2@@dlib@@@dlib@@8 ; dlib::memory_manager_stateless_kernel_1<dlib::binary_search_tree_kernel_2<std::basic_string<char,std::char_traits<char>,std::allocator<char> >,std::basic_string<char,std::char_traits<char>,std::allocator<char> >,dlib::memory_manager_stateless_kernel_1<char>,std::less<std::basic_string<char,std::char_traits<char>,std::allocator<char> > > >::node>::`RTTI Class Hierarchy Descriptor'
PUBLIC	??_R2?$memory_manager_stateless_kernel_1@Vnode@?$binary_search_tree_kernel_2@V?$basic_string@DU?$char_traits@D@std@@V?$allocator@D@2@@std@@V12@V?$memory_manager_stateless_kernel_1@D@dlib@@U?$less@V?$basic_string@DU?$char_traits@D@std@@V?$allocator@D@2@@std@@@2@@dlib@@@dlib@@8 ; dlib::memory_manager_stateless_kernel_1<dlib::binary_search_tree_kernel_2<std::basic_string<char,std::char_traits<char>,std::allocator<char> >,std::basic_string<char,std::char_traits<char>,std::allocator<char> >,dlib::memory_manager_stateless_kernel_1<char>,std::less<std::basic_string<char,std::char_traits<char>,std::allocator<char> > > >::node>::`RTTI Base Class Array'
PUBLIC	??_R1A@?0A@EA@?$memory_manager_stateless_kernel_1@Vnode@?$binary_search_tree_kernel_2@V?$basic_string@DU?$char_traits@D@std@@V?$allocator@D@2@@std@@V12@V?$memory_manager_stateless_kernel_1@D@dlib@@U?$less@V?$basic_string@DU?$char_traits@D@std@@V?$allocator@D@2@@std@@@2@@dlib@@@dlib@@8 ; dlib::memory_manager_stateless_kernel_1<dlib::binary_search_tree_kernel_2<std::basic_string<char,std::char_traits<char>,std::allocator<char> >,std::basic_string<char,std::char_traits<char>,std::allocator<char> >,dlib::memory_manager_stateless_kernel_1<char>,std::less<std::basic_string<char,std::char_traits<char>,std::allocator<char> > > >::node>::`RTTI Base Class Descriptor at (0,-1,0,64)'
PUBLIC	??_R0?AV?$memory_manager_stateless_kernel_1@Vnode@?$binary_search_tree_kernel_2@V?$basic_string@DU?$char_traits@D@std@@V?$allocator@D@2@@std@@V12@V?$memory_manager_stateless_kernel_1@D@dlib@@U?$less@V?$basic_string@DU?$char_traits@D@std@@V?$allocator@D@2@@std@@@2@@dlib@@@dlib@@@8 ; dlib::memory_manager_stateless_kernel_1<dlib::binary_search_tree_kernel_2<std::basic_string<char,std::char_traits<char>,std::allocator<char> >,std::basic_string<char,std::char_traits<char>,std::allocator<char> >,dlib::memory_manager_stateless_kernel_1<char>,std::less<std::basic_string<char,std::char_traits<char>,std::allocator<char> > > >::node> `RTTI Type Descriptor'
PUBLIC	??_R4mpair@?$binary_search_tree_kernel_2@V?$basic_string@DU?$char_traits@D@std@@V?$allocator@D@2@@std@@V12@V?$memory_manager_stateless_kernel_1@D@dlib@@U?$less@V?$basic_string@DU?$char_traits@D@std@@V?$allocator@D@2@@std@@@2@@dlib@@6B@ ; dlib::binary_search_tree_kernel_2<std::basic_string<char,std::char_traits<char>,std::allocator<char> >,std::basic_string<char,std::char_traits<char>,std::allocator<char> >,dlib::memory_manager_stateless_kernel_1<char>,std::less<std::basic_string<char,std::char_traits<char>,std::allocator<char> > > >::mpair::`RTTI Complete Object Locator'
PUBLIC	??_R3mpair@?$binary_search_tree_kernel_2@V?$basic_string@DU?$char_traits@D@std@@V?$allocator@D@2@@std@@V12@V?$memory_manager_stateless_kernel_1@D@dlib@@U?$less@V?$basic_string@DU?$char_traits@D@std@@V?$allocator@D@2@@std@@@2@@dlib@@8 ; dlib::binary_search_tree_kernel_2<std::basic_string<char,std::char_traits<char>,std::allocator<char> >,std::basic_string<char,std::char_traits<char>,std::allocator<char> >,dlib::memory_manager_stateless_kernel_1<char>,std::less<std::basic_string<char,std::char_traits<char>,std::allocator<char> > > >::mpair::`RTTI Class Hierarchy Descriptor'
PUBLIC	??_R2mpair@?$binary_search_tree_kernel_2@V?$basic_string@DU?$char_traits@D@std@@V?$allocator@D@2@@std@@V12@V?$memory_manager_stateless_kernel_1@D@dlib@@U?$less@V?$basic_string@DU?$char_traits@D@std@@V?$allocator@D@2@@std@@@2@@dlib@@8 ; dlib::binary_search_tree_kernel_2<std::basic_string<char,std::char_traits<char>,std::allocator<char> >,std::basic_string<char,std::char_traits<char>,std::allocator<char> >,dlib::memory_manager_stateless_kernel_1<char>,std::less<std::basic_string<char,std::char_traits<char>,std::allocator<char> > > >::mpair::`RTTI Base Class Array'
PUBLIC	??_R1A@?0A@EA@mpair@?$binary_search_tree_kernel_2@V?$basic_string@DU?$char_traits@D@std@@V?$allocator@D@2@@std@@V12@V?$memory_manager_stateless_kernel_1@D@dlib@@U?$less@V?$basic_string@DU?$char_traits@D@std@@V?$allocator@D@2@@std@@@2@@dlib@@8 ; dlib::binary_search_tree_kernel_2<std::basic_string<char,std::char_traits<char>,std::allocator<char> >,std::basic_string<char,std::char_traits<char>,std::allocator<char> >,dlib::memory_manager_stateless_kernel_1<char>,std::less<std::basic_string<char,std::char_traits<char>,std::allocator<char> > > >::mpair::`RTTI Base Class Descriptor at (0,-1,0,64)'
PUBLIC	??_R0?AVmpair@?$binary_search_tree_kernel_2@V?$basic_string@DU?$char_traits@D@std@@V?$allocator@D@2@@std@@V12@V?$memory_manager_stateless_kernel_1@D@dlib@@U?$less@V?$basic_string@DU?$char_traits@D@std@@V?$allocator@D@2@@std@@@2@@dlib@@@8 ; dlib::binary_search_tree_kernel_2<std::basic_string<char,std::char_traits<char>,std::allocator<char> >,std::basic_string<char,std::char_traits<char>,std::allocator<char> >,dlib::memory_manager_stateless_kernel_1<char>,std::less<std::basic_string<char,std::char_traits<char>,std::allocator<char> > > >::mpair `RTTI Type Descriptor'
PUBLIC	??_R4?$pair_remover@V?$basic_string@DU?$char_traits@D@std@@V?$allocator@D@2@@std@@V12@@dlib@@6B@ ; dlib::pair_remover<std::basic_string<char,std::char_traits<char>,std::allocator<char> >,std::basic_string<char,std::char_traits<char>,std::allocator<char> > >::`RTTI Complete Object Locator'
PUBLIC	??_R4?$asc_pair_remover@V?$basic_string@DU?$char_traits@D@std@@V?$allocator@D@2@@std@@V12@U?$less@V?$basic_string@DU?$char_traits@D@std@@V?$allocator@D@2@@std@@@2@@dlib@@6B@ ; dlib::asc_pair_remover<std::basic_string<char,std::char_traits<char>,std::allocator<char> >,std::basic_string<char,std::char_traits<char>,std::allocator<char> >,std::less<std::basic_string<char,std::char_traits<char>,std::allocator<char> > > >::`RTTI Complete Object Locator'
PUBLIC	??_R4?$enumerable@V?$map_pair@V?$basic_string@DU?$char_traits@D@std@@V?$allocator@D@2@@std@@V12@@dlib@@@dlib@@6B@ ; dlib::enumerable<dlib::map_pair<std::basic_string<char,std::char_traits<char>,std::allocator<char> >,std::basic_string<char,std::char_traits<char>,std::allocator<char> > > >::`RTTI Complete Object Locator'
PUBLIC	??_R4?$map_pair@V?$basic_string@DU?$char_traits@D@std@@V?$allocator@D@2@@std@@V12@@dlib@@6B@ ; dlib::map_pair<std::basic_string<char,std::char_traits<char>,std::allocator<char> >,std::basic_string<char,std::char_traits<char>,std::allocator<char> > >::`RTTI Complete Object Locator'
PUBLIC	??_R3?$map_pair@V?$basic_string@DU?$char_traits@D@std@@V?$allocator@D@2@@std@@V12@@dlib@@8 ; dlib::map_pair<std::basic_string<char,std::char_traits<char>,std::allocator<char> >,std::basic_string<char,std::char_traits<char>,std::allocator<char> > >::`RTTI Class Hierarchy Descriptor'
PUBLIC	??_R2?$map_pair@V?$basic_string@DU?$char_traits@D@std@@V?$allocator@D@2@@std@@V12@@dlib@@8 ; dlib::map_pair<std::basic_string<char,std::char_traits<char>,std::allocator<char> >,std::basic_string<char,std::char_traits<char>,std::allocator<char> > >::`RTTI Base Class Array'
PUBLIC	??_R1A@?0A@EA@?$map_pair@V?$basic_string@DU?$char_traits@D@std@@V?$allocator@D@2@@std@@V12@@dlib@@8 ; dlib::map_pair<std::basic_string<char,std::char_traits<char>,std::allocator<char> >,std::basic_string<char,std::char_traits<char>,std::allocator<char> > >::`RTTI Base Class Descriptor at (0,-1,0,64)'
PUBLIC	??_R0?AV?$map_pair@V?$basic_string@DU?$char_traits@D@std@@V?$allocator@D@2@@std@@V12@@dlib@@@8 ; dlib::map_pair<std::basic_string<char,std::char_traits<char>,std::allocator<char> >,std::basic_string<char,std::char_traits<char>,std::allocator<char> > > `RTTI Type Descriptor'
PUBLIC	??_R4config_reader_access_error@?$config_reader_kernel_1@V?$map_kernel_1@V?$basic_string@DU?$char_traits@D@std@@V?$allocator@D@2@@std@@V12@V?$binary_search_tree_kernel_2@V?$basic_string@DU?$char_traits@D@std@@V?$allocator@D@2@@std@@V12@V?$memory_manager_stateless_kernel_1@D@dlib@@U?$less@V?$basic_string@DU?$char_traits@D@std@@V?$allocator@D@2@@std@@@2@@dlib@@V?$memory_manager_stateless_kernel_1@D@4@@dlib@@V?$map_kernel_1@V?$basic_string@DU?$char_traits@D@std@@V?$allocator@D@2@@std@@PAXV?$binary_search_tree_kernel_2@V?$basic_string@DU?$char_traits@D@std@@V?$allocator@D@2@@std@@PAXV?$memory_manager_stateless_kernel_1@D@dlib@@U?$less@V?$basic_string@DU?$char_traits@D@std@@V?$allocator@D@2@@std@@@2@@dlib@@V?$memory_manager_stateless_kernel_1@D@4@@2@Vtokenizer_kernel_1@2@@dlib@@6B@ ; dlib::config_reader_kernel_1<dlib::map_kernel_1<std::basic_string<char,std::char_traits<char>,std::allocator<char> >,std::basic_string<char,std::char_traits<char>,std::allocator<char> >,dlib::binary_search_tree_kernel_2<std::basic_string<char,std::char_traits<char>,std::allocator<char> >,std::basic_string<char,std::char_traits<char>,std::allocator<char> >,dlib::memory_manager_stateless_kernel_1<char>,std::less<std::basic_string<char,std::char_traits<char>,std::allocator<char> > > >,dlib::memory_manager_stateless_kernel_1<char> >,dlib::map_kernel_1<std::basic_string<char,std::char_traits<char>,std::allocator<char> >,void *,dlib::binary_search_tree_kernel_2<std::basic_string<char,std::char_traits<char>,std::allocator<char> >,void *,dlib::memory_manager_stateless_kernel_1<char>,std::less<std::basic_string<char,std::char_traits<char>,std::allocator<char> > > >,dlib::memory_manager_stateless_kernel_1<char> >,dlib::tokenizer_kernel_1>::config_reader_access_error::`RTTI Complete Object Locator'
PUBLIC	??_R3config_reader_access_error@?$config_reader_kernel_1@V?$map_kernel_1@V?$basic_string@DU?$char_traits@D@std@@V?$allocator@D@2@@std@@V12@V?$binary_search_tree_kernel_2@V?$basic_string@DU?$char_traits@D@std@@V?$allocator@D@2@@std@@V12@V?$memory_manager_stateless_kernel_1@D@dlib@@U?$less@V?$basic_string@DU?$char_traits@D@std@@V?$allocator@D@2@@std@@@2@@dlib@@V?$memory_manager_stateless_kernel_1@D@4@@dlib@@V?$map_kernel_1@V?$basic_string@DU?$char_traits@D@std@@V?$allocator@D@2@@std@@PAXV?$binary_search_tree_kernel_2@V?$basic_string@DU?$char_traits@D@std@@V?$allocator@D@2@@std@@PAXV?$memory_manager_stateless_kernel_1@D@dlib@@U?$less@V?$basic_string@DU?$char_traits@D@std@@V?$allocator@D@2@@std@@@2@@dlib@@V?$memory_manager_stateless_kernel_1@D@4@@2@Vtokenizer_kernel_1@2@@dlib@@8 ; dlib::config_reader_kernel_1<dlib::map_kernel_1<std::basic_string<char,std::char_traits<char>,std::allocator<char> >,std::basic_string<char,std::char_traits<char>,std::allocator<char> >,dlib::binary_search_tree_kernel_2<std::basic_string<char,std::char_traits<char>,std::allocator<char> >,std::basic_string<char,std::char_traits<char>,std::allocator<char> >,dlib::memory_manager_stateless_kernel_1<char>,std::less<std::basic_string<char,std::char_traits<char>,std::allocator<char> > > >,dlib::memory_manager_stateless_kernel_1<char> >,dlib::map_kernel_1<std::basic_string<char,std::char_traits<char>,std::allocator<char> >,void *,dlib::binary_search_tree_kernel_2<std::basic_string<char,std::char_traits<char>,std::allocator<char> >,void *,dlib::memory_manager_stateless_kernel_1<char>,std::less<std::basic_string<char,std::char_traits<char>,std::allocator<char> > > >,dlib::memory_manager_stateless_kernel_1<char> >,dlib::tokenizer_kernel_1>::config_reader_access_error::`RTTI Class Hierarchy Descriptor'
PUBLIC	??_R2config_reader_access_error@?$config_reader_kernel_1@V?$map_kernel_1@V?$basic_string@DU?$char_traits@D@std@@V?$allocator@D@2@@std@@V12@V?$binary_search_tree_kernel_2@V?$basic_string@DU?$char_traits@D@std@@V?$allocator@D@2@@std@@V12@V?$memory_manager_stateless_kernel_1@D@dlib@@U?$less@V?$basic_string@DU?$char_traits@D@std@@V?$allocator@D@2@@std@@@2@@dlib@@V?$memory_manager_stateless_kernel_1@D@4@@dlib@@V?$map_kernel_1@V?$basic_string@DU?$char_traits@D@std@@V?$allocator@D@2@@std@@PAXV?$binary_search_tree_kernel_2@V?$basic_string@DU?$char_traits@D@std@@V?$allocator@D@2@@std@@PAXV?$memory_manager_stateless_kernel_1@D@dlib@@U?$less@V?$basic_string@DU?$char_traits@D@std@@V?$allocator@D@2@@std@@@2@@dlib@@V?$memory_manager_stateless_kernel_1@D@4@@2@Vtokenizer_kernel_1@2@@dlib@@8 ; dlib::config_reader_kernel_1<dlib::map_kernel_1<std::basic_string<char,std::char_traits<char>,std::allocator<char> >,std::basic_string<char,std::char_traits<char>,std::allocator<char> >,dlib::binary_search_tree_kernel_2<std::basic_string<char,std::char_traits<char>,std::allocator<char> >,std::basic_string<char,std::char_traits<char>,std::allocator<char> >,dlib::memory_manager_stateless_kernel_1<char>,std::less<std::basic_string<char,std::char_traits<char>,std::allocator<char> > > >,dlib::memory_manager_stateless_kernel_1<char> >,dlib::map_kernel_1<std::basic_string<char,std::char_traits<char>,std::allocator<char> >,void *,dlib::binary_search_tree_kernel_2<std::basic_string<char,std::char_traits<char>,std::allocator<char> >,void *,dlib::memory_manager_stateless_kernel_1<char>,std::less<std::basic_string<char,std::char_traits<char>,std::allocator<char> > > >,dlib::memory_manager_stateless_kernel_1<char> >,dlib::tokenizer_kernel_1>::config_reader_access_error::`RTTI Base Class Array'
PUBLIC	??_R1A@?0A@EA@config_reader_access_error@?$config_reader_kernel_1@V?$map_kernel_1@V?$basic_string@DU?$char_traits@D@std@@V?$allocator@D@2@@std@@V12@V?$binary_search_tree_kernel_2@V?$basic_string@DU?$char_traits@D@std@@V?$allocator@D@2@@std@@V12@V?$memory_manager_stateless_kernel_1@D@dlib@@U?$less@V?$basic_string@DU?$char_traits@D@std@@V?$allocator@D@2@@std@@@2@@dlib@@V?$memory_manager_stateless_kernel_1@D@4@@dlib@@V?$map_kernel_1@V?$basic_string@DU?$char_traits@D@std@@V?$allocator@D@2@@std@@PAXV?$binary_search_tree_kernel_2@V?$basic_string@DU?$char_traits@D@std@@V?$allocator@D@2@@std@@PAXV?$memory_manager_stateless_kernel_1@D@dlib@@U?$less@V?$basic_string@DU?$char_traits@D@std@@V?$allocator@D@2@@std@@@2@@dlib@@V?$memory_manager_stateless_kernel_1@D@4@@2@Vtokenizer_kernel_1@2@@dlib@@8 ; dlib::config_reader_kernel_1<dlib::map_kernel_1<std::basic_string<char,std::char_traits<char>,std::allocator<char> >,std::basic_string<char,std::char_traits<char>,std::allocator<char> >,dlib::binary_search_tree_kernel_2<std::basic_string<char,std::char_traits<char>,std::allocator<char> >,std::basic_string<char,std::char_traits<char>,std::allocator<char> >,dlib::memory_manager_stateless_kernel_1<char>,std::less<std::basic_string<char,std::char_traits<char>,std::allocator<char> > > >,dlib::memory_manager_stateless_kernel_1<char> >,dlib::map_kernel_1<std::basic_string<char,std::char_traits<char>,std::allocator<char> >,void *,dlib::binary_search_tree_kernel_2<std::basic_string<char,std::char_traits<char>,std::allocator<char> >,void *,dlib::memory_manager_stateless_kernel_1<char>,std::less<std::basic_string<char,std::char_traits<char>,std::allocator<char> > > >,dlib::memory_manager_stateless_kernel_1<char> >,dlib::tokenizer_kernel_1>::config_reader_access_error::`RTTI Base Class Descriptor at (0,-1,0,64)'
PUBLIC	??_R4file_not_found@?$config_reader_kernel_1@V?$map_kernel_1@V?$basic_string@DU?$char_traits@D@std@@V?$allocator@D@2@@std@@V12@V?$binary_search_tree_kernel_2@V?$basic_string@DU?$char_traits@D@std@@V?$allocator@D@2@@std@@V12@V?$memory_manager_stateless_kernel_1@D@dlib@@U?$less@V?$basic_string@DU?$char_traits@D@std@@V?$allocator@D@2@@std@@@2@@dlib@@V?$memory_manager_stateless_kernel_1@D@4@@dlib@@V?$map_kernel_1@V?$basic_string@DU?$char_traits@D@std@@V?$allocator@D@2@@std@@PAXV?$binary_search_tree_kernel_2@V?$basic_string@DU?$char_traits@D@std@@V?$allocator@D@2@@std@@PAXV?$memory_manager_stateless_kernel_1@D@dlib@@U?$less@V?$basic_string@DU?$char_traits@D@std@@V?$allocator@D@2@@std@@@2@@dlib@@V?$memory_manager_stateless_kernel_1@D@4@@2@Vtokenizer_kernel_1@2@@dlib@@6B@ ; dlib::config_reader_kernel_1<dlib::map_kernel_1<std::basic_string<char,std::char_traits<char>,std::allocator<char> >,std::basic_string<char,std::char_traits<char>,std::allocator<char> >,dlib::binary_search_tree_kernel_2<std::basic_string<char,std::char_traits<char>,std::allocator<char> >,std::basic_string<char,std::char_traits<char>,std::allocator<char> >,dlib::memory_manager_stateless_kernel_1<char>,std::less<std::basic_string<char,std::char_traits<char>,std::allocator<char> > > >,dlib::memory_manager_stateless_kernel_1<char> >,dlib::map_kernel_1<std::basic_string<char,std::char_traits<char>,std::allocator<char> >,void *,dlib::binary_search_tree_kernel_2<std::basic_string<char,std::char_traits<char>,std::allocator<char> >,void *,dlib::memory_manager_stateless_kernel_1<char>,std::less<std::basic_string<char,std::char_traits<char>,std::allocator<char> > > >,dlib::memory_manager_stateless_kernel_1<char> >,dlib::tokenizer_kernel_1>::file_not_found::`RTTI Complete Object Locator'
PUBLIC	??_R3file_not_found@?$config_reader_kernel_1@V?$map_kernel_1@V?$basic_string@DU?$char_traits@D@std@@V?$allocator@D@2@@std@@V12@V?$binary_search_tree_kernel_2@V?$basic_string@DU?$char_traits@D@std@@V?$allocator@D@2@@std@@V12@V?$memory_manager_stateless_kernel_1@D@dlib@@U?$less@V?$basic_string@DU?$char_traits@D@std@@V?$allocator@D@2@@std@@@2@@dlib@@V?$memory_manager_stateless_kernel_1@D@4@@dlib@@V?$map_kernel_1@V?$basic_string@DU?$char_traits@D@std@@V?$allocator@D@2@@std@@PAXV?$binary_search_tree_kernel_2@V?$basic_string@DU?$char_traits@D@std@@V?$allocator@D@2@@std@@PAXV?$memory_manager_stateless_kernel_1@D@dlib@@U?$less@V?$basic_string@DU?$char_traits@D@std@@V?$allocator@D@2@@std@@@2@@dlib@@V?$memory_manager_stateless_kernel_1@D@4@@2@Vtokenizer_kernel_1@2@@dlib@@8 ; dlib::config_reader_kernel_1<dlib::map_kernel_1<std::basic_string<char,std::char_traits<char>,std::allocator<char> >,std::basic_string<char,std::char_traits<char>,std::allocator<char> >,dlib::binary_search_tree_kernel_2<std::basic_string<char,std::char_traits<char>,std::allocator<char> >,std::basic_string<char,std::char_traits<char>,std::allocator<char> >,dlib::memory_manager_stateless_kernel_1<char>,std::less<std::basic_string<char,std::char_traits<char>,std::allocator<char> > > >,dlib::memory_manager_stateless_kernel_1<char> >,dlib::map_kernel_1<std::basic_string<char,std::char_traits<char>,std::allocator<char> >,void *,dlib::binary_search_tree_kernel_2<std::basic_string<char,std::char_traits<char>,std::allocator<char> >,void *,dlib::memory_manager_stateless_kernel_1<char>,std::less<std::basic_string<char,std::char_traits<char>,std::allocator<char> > > >,dlib::memory_manager_stateless_kernel_1<char> >,dlib::tokenizer_kernel_1>::file_not_found::`RTTI Class Hierarchy Descriptor'
PUBLIC	??_R2file_not_found@?$config_reader_kernel_1@V?$map_kernel_1@V?$basic_string@DU?$char_traits@D@std@@V?$allocator@D@2@@std@@V12@V?$binary_search_tree_kernel_2@V?$basic_string@DU?$char_traits@D@std@@V?$allocator@D@2@@std@@V12@V?$memory_manager_stateless_kernel_1@D@dlib@@U?$less@V?$basic_string@DU?$char_traits@D@std@@V?$allocator@D@2@@std@@@2@@dlib@@V?$memory_manager_stateless_kernel_1@D@4@@dlib@@V?$map_kernel_1@V?$basic_string@DU?$char_traits@D@std@@V?$allocator@D@2@@std@@PAXV?$binary_search_tree_kernel_2@V?$basic_string@DU?$char_traits@D@std@@V?$allocator@D@2@@std@@PAXV?$memory_manager_stateless_kernel_1@D@dlib@@U?$less@V?$basic_string@DU?$char_traits@D@std@@V?$allocator@D@2@@std@@@2@@dlib@@V?$memory_manager_stateless_kernel_1@D@4@@2@Vtokenizer_kernel_1@2@@dlib@@8 ; dlib::config_reader_kernel_1<dlib::map_kernel_1<std::basic_string<char,std::char_traits<char>,std::allocator<char> >,std::basic_string<char,std::char_traits<char>,std::allocator<char> >,dlib::binary_search_tree_kernel_2<std::basic_string<char,std::char_traits<char>,std::allocator<char> >,std::basic_string<char,std::char_traits<char>,std::allocator<char> >,dlib::memory_manager_stateless_kernel_1<char>,std::less<std::basic_string<char,std::char_traits<char>,std::allocator<char> > > >,dlib::memory_manager_stateless_kernel_1<char> >,dlib::map_kernel_1<std::basic_string<char,std::char_traits<char>,std::allocator<char> >,void *,dlib::binary_search_tree_kernel_2<std::basic_string<char,std::char_traits<char>,std::allocator<char> >,void *,dlib::memory_manager_stateless_kernel_1<char>,std::less<std::basic_string<char,std::char_traits<char>,std::allocator<char> > > >,dlib::memory_manager_stateless_kernel_1<char> >,dlib::tokenizer_kernel_1>::file_not_found::`RTTI Base Class Array'
PUBLIC	??_R1A@?0A@EA@file_not_found@?$config_reader_kernel_1@V?$map_kernel_1@V?$basic_string@DU?$char_traits@D@std@@V?$allocator@D@2@@std@@V12@V?$binary_search_tree_kernel_2@V?$basic_string@DU?$char_traits@D@std@@V?$allocator@D@2@@std@@V12@V?$memory_manager_stateless_kernel_1@D@dlib@@U?$less@V?$basic_string@DU?$char_traits@D@std@@V?$allocator@D@2@@std@@@2@@dlib@@V?$memory_manager_stateless_kernel_1@D@4@@dlib@@V?$map_kernel_1@V?$basic_string@DU?$char_traits@D@std@@V?$allocator@D@2@@std@@PAXV?$binary_search_tree_kernel_2@V?$basic_string@DU?$char_traits@D@std@@V?$allocator@D@2@@std@@PAXV?$memory_manager_stateless_kernel_1@D@dlib@@U?$less@V?$basic_string@DU?$char_traits@D@std@@V?$allocator@D@2@@std@@@2@@dlib@@V?$memory_manager_stateless_kernel_1@D@4@@2@Vtokenizer_kernel_1@2@@dlib@@8 ; dlib::config_reader_kernel_1<dlib::map_kernel_1<std::basic_string<char,std::char_traits<char>,std::allocator<char> >,std::basic_string<char,std::char_traits<char>,std::allocator<char> >,dlib::binary_search_tree_kernel_2<std::basic_string<char,std::char_traits<char>,std::allocator<char> >,std::basic_string<char,std::char_traits<char>,std::allocator<char> >,dlib::memory_manager_stateless_kernel_1<char>,std::less<std::basic_string<char,std::char_traits<char>,std::allocator<char> > > >,dlib::memory_manager_stateless_kernel_1<char> >,dlib::map_kernel_1<std::basic_string<char,std::char_traits<char>,std::allocator<char> >,void *,dlib::binary_search_tree_kernel_2<std::basic_string<char,std::char_traits<char>,std::allocator<char> >,void *,dlib::memory_manager_stateless_kernel_1<char>,std::less<std::basic_string<char,std::char_traits<char>,std::allocator<char> > > >,dlib::memory_manager_stateless_kernel_1<char> >,dlib::tokenizer_kernel_1>::file_not_found::`RTTI Base Class Descriptor at (0,-1,0,64)'
PUBLIC	??_R4config_reader_error@?$config_reader_kernel_1@V?$map_kernel_1@V?$basic_string@DU?$char_traits@D@std@@V?$allocator@D@2@@std@@V12@V?$binary_search_tree_kernel_2@V?$basic_string@DU?$char_traits@D@std@@V?$allocator@D@2@@std@@V12@V?$memory_manager_stateless_kernel_1@D@dlib@@U?$less@V?$basic_string@DU?$char_traits@D@std@@V?$allocator@D@2@@std@@@2@@dlib@@V?$memory_manager_stateless_kernel_1@D@4@@dlib@@V?$map_kernel_1@V?$basic_string@DU?$char_traits@D@std@@V?$allocator@D@2@@std@@PAXV?$binary_search_tree_kernel_2@V?$basic_string@DU?$char_traits@D@std@@V?$allocator@D@2@@std@@PAXV?$memory_manager_stateless_kernel_1@D@dlib@@U?$less@V?$basic_string@DU?$char_traits@D@std@@V?$allocator@D@2@@std@@@2@@dlib@@V?$memory_manager_stateless_kernel_1@D@4@@2@Vtokenizer_kernel_1@2@@dlib@@6B@ ; dlib::config_reader_kernel_1<dlib::map_kernel_1<std::basic_string<char,std::char_traits<char>,std::allocator<char> >,std::basic_string<char,std::char_traits<char>,std::allocator<char> >,dlib::binary_search_tree_kernel_2<std::basic_string<char,std::char_traits<char>,std::allocator<char> >,std::basic_string<char,std::char_traits<char>,std::allocator<char> >,dlib::memory_manager_stateless_kernel_1<char>,std::less<std::basic_string<char,std::char_traits<char>,std::allocator<char> > > >,dlib::memory_manager_stateless_kernel_1<char> >,dlib::map_kernel_1<std::basic_string<char,std::char_traits<char>,std::allocator<char> >,void *,dlib::binary_search_tree_kernel_2<std::basic_string<char,std::char_traits<char>,std::allocator<char> >,void *,dlib::memory_manager_stateless_kernel_1<char>,std::less<std::basic_string<char,std::char_traits<char>,std::allocator<char> > > >,dlib::memory_manager_stateless_kernel_1<char> >,dlib::tokenizer_kernel_1>::config_reader_error::`RTTI Complete Object Locator'
PUBLIC	??_R3config_reader_error@?$config_reader_kernel_1@V?$map_kernel_1@V?$basic_string@DU?$char_traits@D@std@@V?$allocator@D@2@@std@@V12@V?$binary_search_tree_kernel_2@V?$basic_string@DU?$char_traits@D@std@@V?$allocator@D@2@@std@@V12@V?$memory_manager_stateless_kernel_1@D@dlib@@U?$less@V?$basic_string@DU?$char_traits@D@std@@V?$allocator@D@2@@std@@@2@@dlib@@V?$memory_manager_stateless_kernel_1@D@4@@dlib@@V?$map_kernel_1@V?$basic_string@DU?$char_traits@D@std@@V?$allocator@D@2@@std@@PAXV?$binary_search_tree_kernel_2@V?$basic_string@DU?$char_traits@D@std@@V?$allocator@D@2@@std@@PAXV?$memory_manager_stateless_kernel_1@D@dlib@@U?$less@V?$basic_string@DU?$char_traits@D@std@@V?$allocator@D@2@@std@@@2@@dlib@@V?$memory_manager_stateless_kernel_1@D@4@@2@Vtokenizer_kernel_1@2@@dlib@@8 ; dlib::config_reader_kernel_1<dlib::map_kernel_1<std::basic_string<char,std::char_traits<char>,std::allocator<char> >,std::basic_string<char,std::char_traits<char>,std::allocator<char> >,dlib::binary_search_tree_kernel_2<std::basic_string<char,std::char_traits<char>,std::allocator<char> >,std::basic_string<char,std::char_traits<char>,std::allocator<char> >,dlib::memory_manager_stateless_kernel_1<char>,std::less<std::basic_string<char,std::char_traits<char>,std::allocator<char> > > >,dlib::memory_manager_stateless_kernel_1<char> >,dlib::map_kernel_1<std::basic_string<char,std::char_traits<char>,std::allocator<char> >,void *,dlib::binary_search_tree_kernel_2<std::basic_string<char,std::char_traits<char>,std::allocator<char> >,void *,dlib::memory_manager_stateless_kernel_1<char>,std::less<std::basic_string<char,std::char_traits<char>,std::allocator<char> > > >,dlib::memory_manager_stateless_kernel_1<char> >,dlib::tokenizer_kernel_1>::config_reader_error::`RTTI Class Hierarchy Descriptor'
PUBLIC	??_R2config_reader_error@?$config_reader_kernel_1@V?$map_kernel_1@V?$basic_string@DU?$char_traits@D@std@@V?$allocator@D@2@@std@@V12@V?$binary_search_tree_kernel_2@V?$basic_string@DU?$char_traits@D@std@@V?$allocator@D@2@@std@@V12@V?$memory_manager_stateless_kernel_1@D@dlib@@U?$less@V?$basic_string@DU?$char_traits@D@std@@V?$allocator@D@2@@std@@@2@@dlib@@V?$memory_manager_stateless_kernel_1@D@4@@dlib@@V?$map_kernel_1@V?$basic_string@DU?$char_traits@D@std@@V?$allocator@D@2@@std@@PAXV?$binary_search_tree_kernel_2@V?$basic_string@DU?$char_traits@D@std@@V?$allocator@D@2@@std@@PAXV?$memory_manager_stateless_kernel_1@D@dlib@@U?$less@V?$basic_string@DU?$char_traits@D@std@@V?$allocator@D@2@@std@@@2@@dlib@@V?$memory_manager_stateless_kernel_1@D@4@@2@Vtokenizer_kernel_1@2@@dlib@@8 ; dlib::config_reader_kernel_1<dlib::map_kernel_1<std::basic_string<char,std::char_traits<char>,std::allocator<char> >,std::basic_string<char,std::char_traits<char>,std::allocator<char> >,dlib::binary_search_tree_kernel_2<std::basic_string<char,std::char_traits<char>,std::allocator<char> >,std::basic_string<char,std::char_traits<char>,std::allocator<char> >,dlib::memory_manager_stateless_kernel_1<char>,std::less<std::basic_string<char,std::char_traits<char>,std::allocator<char> > > >,dlib::memory_manager_stateless_kernel_1<char> >,dlib::map_kernel_1<std::basic_string<char,std::char_traits<char>,std::allocator<char> >,void *,dlib::binary_search_tree_kernel_2<std::basic_string<char,std::char_traits<char>,std::allocator<char> >,void *,dlib::memory_manager_stateless_kernel_1<char>,std::less<std::basic_string<char,std::char_traits<char>,std::allocator<char> > > >,dlib::memory_manager_stateless_kernel_1<char> >,dlib::tokenizer_kernel_1>::config_reader_error::`RTTI Base Class Array'
PUBLIC	??_R1A@?0A@EA@config_reader_error@?$config_reader_kernel_1@V?$map_kernel_1@V?$basic_string@DU?$char_traits@D@std@@V?$allocator@D@2@@std@@V12@V?$binary_search_tree_kernel_2@V?$basic_string@DU?$char_traits@D@std@@V?$allocator@D@2@@std@@V12@V?$memory_manager_stateless_kernel_1@D@dlib@@U?$less@V?$basic_string@DU?$char_traits@D@std@@V?$allocator@D@2@@std@@@2@@dlib@@V?$memory_manager_stateless_kernel_1@D@4@@dlib@@V?$map_kernel_1@V?$basic_string@DU?$char_traits@D@std@@V?$allocator@D@2@@std@@PAXV?$binary_search_tree_kernel_2@V?$basic_string@DU?$char_traits@D@std@@V?$allocator@D@2@@std@@PAXV?$memory_manager_stateless_kernel_1@D@dlib@@U?$less@V?$basic_string@DU?$char_traits@D@std@@V?$allocator@D@2@@std@@@2@@dlib@@V?$memory_manager_stateless_kernel_1@D@4@@2@Vtokenizer_kernel_1@2@@dlib@@8 ; dlib::config_reader_kernel_1<dlib::map_kernel_1<std::basic_string<char,std::char_traits<char>,std::allocator<char> >,std::basic_string<char,std::char_traits<char>,std::allocator<char> >,dlib::binary_search_tree_kernel_2<std::basic_string<char,std::char_traits<char>,std::allocator<char> >,std::basic_string<char,std::char_traits<char>,std::allocator<char> >,dlib::memory_manager_stateless_kernel_1<char>,std::less<std::basic_string<char,std::char_traits<char>,std::allocator<char> > > >,dlib::memory_manager_stateless_kernel_1<char> >,dlib::map_kernel_1<std::basic_string<char,std::char_traits<char>,std::allocator<char> >,void *,dlib::binary_search_tree_kernel_2<std::basic_string<char,std::char_traits<char>,std::allocator<char> >,void *,dlib::memory_manager_stateless_kernel_1<char>,std::less<std::basic_string<char,std::char_traits<char>,std::allocator<char> > > >,dlib::memory_manager_stateless_kernel_1<char> >,dlib::tokenizer_kernel_1>::config_reader_error::`RTTI Base Class Descriptor at (0,-1,0,64)'
PUBLIC	??_R4?$config_reader_kernel_1@V?$map_kernel_1@V?$basic_string@DU?$char_traits@D@std@@V?$allocator@D@2@@std@@V12@V?$binary_search_tree_kernel_2@V?$basic_string@DU?$char_traits@D@std@@V?$allocator@D@2@@std@@V12@V?$memory_manager_stateless_kernel_1@D@dlib@@U?$less@V?$basic_string@DU?$char_traits@D@std@@V?$allocator@D@2@@std@@@2@@dlib@@V?$memory_manager_stateless_kernel_1@D@4@@dlib@@V?$map_kernel_1@V?$basic_string@DU?$char_traits@D@std@@V?$allocator@D@2@@std@@PAXV?$binary_search_tree_kernel_2@V?$basic_string@DU?$char_traits@D@std@@V?$allocator@D@2@@std@@PAXV?$memory_manager_stateless_kernel_1@D@dlib@@U?$less@V?$basic_string@DU?$char_traits@D@std@@V?$allocator@D@2@@std@@@2@@dlib@@V?$memory_manager_stateless_kernel_1@D@4@@2@Vtokenizer_kernel_1@2@@dlib@@6B@ ; dlib::config_reader_kernel_1<dlib::map_kernel_1<std::basic_string<char,std::char_traits<char>,std::allocator<char> >,std::basic_string<char,std::char_traits<char>,std::allocator<char> >,dlib::binary_search_tree_kernel_2<std::basic_string<char,std::char_traits<char>,std::allocator<char> >,std::basic_string<char,std::char_traits<char>,std::allocator<char> >,dlib::memory_manager_stateless_kernel_1<char>,std::less<std::basic_string<char,std::char_traits<char>,std::allocator<char> > > >,dlib::memory_manager_stateless_kernel_1<char> >,dlib::map_kernel_1<std::basic_string<char,std::char_traits<char>,std::allocator<char> >,void *,dlib::binary_search_tree_kernel_2<std::basic_string<char,std::char_traits<char>,std::allocator<char> >,void *,dlib::memory_manager_stateless_kernel_1<char>,std::less<std::basic_string<char,std::char_traits<char>,std::allocator<char> > > >,dlib::memory_manager_stateless_kernel_1<char> >,dlib::tokenizer_kernel_1>::`RTTI Complete Object Locator'
PUBLIC	??_R3?$config_reader_kernel_1@V?$map_kernel_1@V?$basic_string@DU?$char_traits@D@std@@V?$allocator@D@2@@std@@V12@V?$binary_search_tree_kernel_2@V?$basic_string@DU?$char_traits@D@std@@V?$allocator@D@2@@std@@V12@V?$memory_manager_stateless_kernel_1@D@dlib@@U?$less@V?$basic_string@DU?$char_traits@D@std@@V?$allocator@D@2@@std@@@2@@dlib@@V?$memory_manager_stateless_kernel_1@D@4@@dlib@@V?$map_kernel_1@V?$basic_string@DU?$char_traits@D@std@@V?$allocator@D@2@@std@@PAXV?$binary_search_tree_kernel_2@V?$basic_string@DU?$char_traits@D@std@@V?$allocator@D@2@@std@@PAXV?$memory_manager_stateless_kernel_1@D@dlib@@U?$less@V?$basic_string@DU?$char_traits@D@std@@V?$allocator@D@2@@std@@@2@@dlib@@V?$memory_manager_stateless_kernel_1@D@4@@2@Vtokenizer_kernel_1@2@@dlib@@8 ; dlib::config_reader_kernel_1<dlib::map_kernel_1<std::basic_string<char,std::char_traits<char>,std::allocator<char> >,std::basic_string<char,std::char_traits<char>,std::allocator<char> >,dlib::binary_search_tree_kernel_2<std::basic_string<char,std::char_traits<char>,std::allocator<char> >,std::basic_string<char,std::char_traits<char>,std::allocator<char> >,dlib::memory_manager_stateless_kernel_1<char>,std::less<std::basic_string<char,std::char_traits<char>,std::allocator<char> > > >,dlib::memory_manager_stateless_kernel_1<char> >,dlib::map_kernel_1<std::basic_string<char,std::char_traits<char>,std::allocator<char> >,void *,dlib::binary_search_tree_kernel_2<std::basic_string<char,std::char_traits<char>,std::allocator<char> >,void *,dlib::memory_manager_stateless_kernel_1<char>,std::less<std::basic_string<char,std::char_traits<char>,std::allocator<char> > > >,dlib::memory_manager_stateless_kernel_1<char> >,dlib::tokenizer_kernel_1>::`RTTI Class Hierarchy Descriptor'
PUBLIC	??_R2?$config_reader_kernel_1@V?$map_kernel_1@V?$basic_string@DU?$char_traits@D@std@@V?$allocator@D@2@@std@@V12@V?$binary_search_tree_kernel_2@V?$basic_string@DU?$char_traits@D@std@@V?$allocator@D@2@@std@@V12@V?$memory_manager_stateless_kernel_1@D@dlib@@U?$less@V?$basic_string@DU?$char_traits@D@std@@V?$allocator@D@2@@std@@@2@@dlib@@V?$memory_manager_stateless_kernel_1@D@4@@dlib@@V?$map_kernel_1@V?$basic_string@DU?$char_traits@D@std@@V?$allocator@D@2@@std@@PAXV?$binary_search_tree_kernel_2@V?$basic_string@DU?$char_traits@D@std@@V?$allocator@D@2@@std@@PAXV?$memory_manager_stateless_kernel_1@D@dlib@@U?$less@V?$basic_string@DU?$char_traits@D@std@@V?$allocator@D@2@@std@@@2@@dlib@@V?$memory_manager_stateless_kernel_1@D@4@@2@Vtokenizer_kernel_1@2@@dlib@@8 ; dlib::config_reader_kernel_1<dlib::map_kernel_1<std::basic_string<char,std::char_traits<char>,std::allocator<char> >,std::basic_string<char,std::char_traits<char>,std::allocator<char> >,dlib::binary_search_tree_kernel_2<std::basic_string<char,std::char_traits<char>,std::allocator<char> >,std::basic_string<char,std::char_traits<char>,std::allocator<char> >,dlib::memory_manager_stateless_kernel_1<char>,std::less<std::basic_string<char,std::char_traits<char>,std::allocator<char> > > >,dlib::memory_manager_stateless_kernel_1<char> >,dlib::map_kernel_1<std::basic_string<char,std::char_traits<char>,std::allocator<char> >,void *,dlib::binary_search_tree_kernel_2<std::basic_string<char,std::char_traits<char>,std::allocator<char> >,void *,dlib::memory_manager_stateless_kernel_1<char>,std::less<std::basic_string<char,std::char_traits<char>,std::allocator<char> > > >,dlib::memory_manager_stateless_kernel_1<char> >,dlib::tokenizer_kernel_1>::`RTTI Base Class Array'
PUBLIC	??_R1A@?0A@EA@?$config_reader_kernel_1@V?$map_kernel_1@V?$basic_string@DU?$char_traits@D@std@@V?$allocator@D@2@@std@@V12@V?$binary_search_tree_kernel_2@V?$basic_string@DU?$char_traits@D@std@@V?$allocator@D@2@@std@@V12@V?$memory_manager_stateless_kernel_1@D@dlib@@U?$less@V?$basic_string@DU?$char_traits@D@std@@V?$allocator@D@2@@std@@@2@@dlib@@V?$memory_manager_stateless_kernel_1@D@4@@dlib@@V?$map_kernel_1@V?$basic_string@DU?$char_traits@D@std@@V?$allocator@D@2@@std@@PAXV?$binary_search_tree_kernel_2@V?$basic_string@DU?$char_traits@D@std@@V?$allocator@D@2@@std@@PAXV?$memory_manager_stateless_kernel_1@D@dlib@@U?$less@V?$basic_string@DU?$char_traits@D@std@@V?$allocator@D@2@@std@@@2@@dlib@@V?$memory_manager_stateless_kernel_1@D@4@@2@Vtokenizer_kernel_1@2@@dlib@@8 ; dlib::config_reader_kernel_1<dlib::map_kernel_1<std::basic_string<char,std::char_traits<char>,std::allocator<char> >,std::basic_string<char,std::char_traits<char>,std::allocator<char> >,dlib::binary_search_tree_kernel_2<std::basic_string<char,std::char_traits<char>,std::allocator<char> >,std::basic_string<char,std::char_traits<char>,std::allocator<char> >,dlib::memory_manager_stateless_kernel_1<char>,std::less<std::basic_string<char,std::char_traits<char>,std::allocator<char> > > >,dlib::memory_manager_stateless_kernel_1<char> >,dlib::map_kernel_1<std::basic_string<char,std::char_traits<char>,std::allocator<char> >,void *,dlib::binary_search_tree_kernel_2<std::basic_string<char,std::char_traits<char>,std::allocator<char> >,void *,dlib::memory_manager_stateless_kernel_1<char>,std::less<std::basic_string<char,std::char_traits<char>,std::allocator<char> > > >,dlib::memory_manager_stateless_kernel_1<char> >,dlib::tokenizer_kernel_1>::`RTTI Base Class Descriptor at (0,-1,0,64)'
PUBLIC	??_R0?AV?$config_reader_kernel_1@V?$map_kernel_1@V?$basic_string@DU?$char_traits@D@std@@V?$allocator@D@2@@std@@V12@V?$binary_search_tree_kernel_2@V?$basic_string@DU?$char_traits@D@std@@V?$allocator@D@2@@std@@V12@V?$memory_manager_stateless_kernel_1@D@dlib@@U?$less@V?$basic_string@DU?$char_traits@D@std@@V?$allocator@D@2@@std@@@2@@dlib@@V?$memory_manager_stateless_kernel_1@D@4@@dlib@@V?$map_kernel_1@V?$basic_string@DU?$char_traits@D@std@@V?$allocator@D@2@@std@@PAXV?$binary_search_tree_kernel_2@V?$basic_string@DU?$char_traits@D@std@@V?$allocator@D@2@@std@@PAXV?$memory_manager_stateless_kernel_1@D@dlib@@U?$less@V?$basic_string@DU?$char_traits@D@std@@V?$allocator@D@2@@std@@@2@@dlib@@V?$memory_manager_stateless_kernel_1@D@4@@2@Vtokenizer_kernel_1@2@@dlib@@@8 ; dlib::config_reader_kernel_1<dlib::map_kernel_1<std::basic_string<char,std::char_traits<char>,std::allocator<char> >,std::basic_string<char,std::char_traits<char>,std::allocator<char> >,dlib::binary_search_tree_kernel_2<std::basic_string<char,std::char_traits<char>,std::allocator<char> >,std::basic_string<char,std::char_traits<char>,std::allocator<char> >,dlib::memory_manager_stateless_kernel_1<char>,std::less<std::basic_string<char,std::char_traits<char>,std::allocator<char> > > >,dlib::memory_manager_stateless_kernel_1<char> >,dlib::map_kernel_1<std::basic_string<char,std::char_traits<char>,std::allocator<char> >,void *,dlib::binary_search_tree_kernel_2<std::basic_string<char,std::char_traits<char>,std::allocator<char> >,void *,dlib::memory_manager_stateless_kernel_1<char>,std::less<std::basic_string<char,std::char_traits<char>,std::allocator<char> > > >,dlib::memory_manager_stateless_kernel_1<char> >,dlib::tokenizer_kernel_1> `RTTI Type Descriptor'
PUBLIC	??_R4?$map_kernel_1@V?$basic_string@DU?$char_traits@D@std@@V?$allocator@D@2@@std@@PAXV?$binary_search_tree_kernel_2@V?$basic_string@DU?$char_traits@D@std@@V?$allocator@D@2@@std@@PAXV?$memory_manager_stateless_kernel_1@D@dlib@@U?$less@V?$basic_string@DU?$char_traits@D@std@@V?$allocator@D@2@@std@@@2@@dlib@@V?$memory_manager_stateless_kernel_1@D@4@@dlib@@6B?$asc_pair_remover@V?$basic_string@DU?$char_traits@D@std@@V?$allocator@D@2@@std@@PAXU?$less@V?$basic_string@DU?$char_traits@D@std@@V?$allocator@D@2@@std@@@2@@1@@ ; dlib::map_kernel_1<std::basic_string<char,std::char_traits<char>,std::allocator<char> >,void *,dlib::binary_search_tree_kernel_2<std::basic_string<char,std::char_traits<char>,std::allocator<char> >,void *,dlib::memory_manager_stateless_kernel_1<char>,std::less<std::basic_string<char,std::char_traits<char>,std::allocator<char> > > >,dlib::memory_manager_stateless_kernel_1<char> >::`RTTI Complete Object Locator'
PUBLIC	??_R4?$map_kernel_1@V?$basic_string@DU?$char_traits@D@std@@V?$allocator@D@2@@std@@PAXV?$binary_search_tree_kernel_2@V?$basic_string@DU?$char_traits@D@std@@V?$allocator@D@2@@std@@PAXV?$memory_manager_stateless_kernel_1@D@dlib@@U?$less@V?$basic_string@DU?$char_traits@D@std@@V?$allocator@D@2@@std@@@2@@dlib@@V?$memory_manager_stateless_kernel_1@D@4@@dlib@@6B?$enumerable@V?$map_pair@V?$basic_string@DU?$char_traits@D@std@@V?$allocator@D@2@@std@@PAX@dlib@@@1@@ ; dlib::map_kernel_1<std::basic_string<char,std::char_traits<char>,std::allocator<char> >,void *,dlib::binary_search_tree_kernel_2<std::basic_string<char,std::char_traits<char>,std::allocator<char> >,void *,dlib::memory_manager_stateless_kernel_1<char>,std::less<std::basic_string<char,std::char_traits<char>,std::allocator<char> > > >,dlib::memory_manager_stateless_kernel_1<char> >::`RTTI Complete Object Locator'
PUBLIC	??_R3?$map_kernel_1@V?$basic_string@DU?$char_traits@D@std@@V?$allocator@D@2@@std@@PAXV?$binary_search_tree_kernel_2@V?$basic_string@DU?$char_traits@D@std@@V?$allocator@D@2@@std@@PAXV?$memory_manager_stateless_kernel_1@D@dlib@@U?$less@V?$basic_string@DU?$char_traits@D@std@@V?$allocator@D@2@@std@@@2@@dlib@@V?$memory_manager_stateless_kernel_1@D@4@@dlib@@8 ; dlib::map_kernel_1<std::basic_string<char,std::char_traits<char>,std::allocator<char> >,void *,dlib::binary_search_tree_kernel_2<std::basic_string<char,std::char_traits<char>,std::allocator<char> >,void *,dlib::memory_manager_stateless_kernel_1<char>,std::less<std::basic_string<char,std::char_traits<char>,std::allocator<char> > > >,dlib::memory_manager_stateless_kernel_1<char> >::`RTTI Class Hierarchy Descriptor'
PUBLIC	??_R2?$map_kernel_1@V?$basic_string@DU?$char_traits@D@std@@V?$allocator@D@2@@std@@PAXV?$binary_search_tree_kernel_2@V?$basic_string@DU?$char_traits@D@std@@V?$allocator@D@2@@std@@PAXV?$memory_manager_stateless_kernel_1@D@dlib@@U?$less@V?$basic_string@DU?$char_traits@D@std@@V?$allocator@D@2@@std@@@2@@dlib@@V?$memory_manager_stateless_kernel_1@D@4@@dlib@@8 ; dlib::map_kernel_1<std::basic_string<char,std::char_traits<char>,std::allocator<char> >,void *,dlib::binary_search_tree_kernel_2<std::basic_string<char,std::char_traits<char>,std::allocator<char> >,void *,dlib::memory_manager_stateless_kernel_1<char>,std::less<std::basic_string<char,std::char_traits<char>,std::allocator<char> > > >,dlib::memory_manager_stateless_kernel_1<char> >::`RTTI Base Class Array'
PUBLIC	??_R1A@?0A@EA@?$map_kernel_1@V?$basic_string@DU?$char_traits@D@std@@V?$allocator@D@2@@std@@PAXV?$binary_search_tree_kernel_2@V?$basic_string@DU?$char_traits@D@std@@V?$allocator@D@2@@std@@PAXV?$memory_manager_stateless_kernel_1@D@dlib@@U?$less@V?$basic_string@DU?$char_traits@D@std@@V?$allocator@D@2@@std@@@2@@dlib@@V?$memory_manager_stateless_kernel_1@D@4@@dlib@@8 ; dlib::map_kernel_1<std::basic_string<char,std::char_traits<char>,std::allocator<char> >,void *,dlib::binary_search_tree_kernel_2<std::basic_string<char,std::char_traits<char>,std::allocator<char> >,void *,dlib::memory_manager_stateless_kernel_1<char>,std::less<std::basic_string<char,std::char_traits<char>,std::allocator<char> > > >,dlib::memory_manager_stateless_kernel_1<char> >::`RTTI Base Class Descriptor at (0,-1,0,64)'
PUBLIC	??_R0?AV?$map_kernel_1@V?$basic_string@DU?$char_traits@D@std@@V?$allocator@D@2@@std@@PAXV?$binary_search_tree_kernel_2@V?$basic_string@DU?$char_traits@D@std@@V?$allocator@D@2@@std@@PAXV?$memory_manager_stateless_kernel_1@D@dlib@@U?$less@V?$basic_string@DU?$char_traits@D@std@@V?$allocator@D@2@@std@@@2@@dlib@@V?$memory_manager_stateless_kernel_1@D@4@@dlib@@@8 ; dlib::map_kernel_1<std::basic_string<char,std::char_traits<char>,std::allocator<char> >,void *,dlib::binary_search_tree_kernel_2<std::basic_string<char,std::char_traits<char>,std::allocator<char> >,void *,dlib::memory_manager_stateless_kernel_1<char>,std::less<std::basic_string<char,std::char_traits<char>,std::allocator<char> > > >,dlib::memory_manager_stateless_kernel_1<char> > `RTTI Type Descriptor'
PUBLIC	??_R4?$binary_search_tree_kernel_2@V?$basic_string@DU?$char_traits@D@std@@V?$allocator@D@2@@std@@PAXV?$memory_manager_stateless_kernel_1@D@dlib@@U?$less@V?$basic_string@DU?$char_traits@D@std@@V?$allocator@D@2@@std@@@2@@dlib@@6B?$asc_pair_remover@V?$basic_string@DU?$char_traits@D@std@@V?$allocator@D@2@@std@@PAXU?$less@V?$basic_string@DU?$char_traits@D@std@@V?$allocator@D@2@@std@@@2@@1@@ ; dlib::binary_search_tree_kernel_2<std::basic_string<char,std::char_traits<char>,std::allocator<char> >,void *,dlib::memory_manager_stateless_kernel_1<char>,std::less<std::basic_string<char,std::char_traits<char>,std::allocator<char> > > >::`RTTI Complete Object Locator'
PUBLIC	??_R4?$binary_search_tree_kernel_2@V?$basic_string@DU?$char_traits@D@std@@V?$allocator@D@2@@std@@PAXV?$memory_manager_stateless_kernel_1@D@dlib@@U?$less@V?$basic_string@DU?$char_traits@D@std@@V?$allocator@D@2@@std@@@2@@dlib@@6B?$enumerable@V?$map_pair@V?$basic_string@DU?$char_traits@D@std@@V?$allocator@D@2@@std@@PAX@dlib@@@1@@ ; dlib::binary_search_tree_kernel_2<std::basic_string<char,std::char_traits<char>,std::allocator<char> >,void *,dlib::memory_manager_stateless_kernel_1<char>,std::less<std::basic_string<char,std::char_traits<char>,std::allocator<char> > > >::`RTTI Complete Object Locator'
PUBLIC	??_R3?$binary_search_tree_kernel_2@V?$basic_string@DU?$char_traits@D@std@@V?$allocator@D@2@@std@@PAXV?$memory_manager_stateless_kernel_1@D@dlib@@U?$less@V?$basic_string@DU?$char_traits@D@std@@V?$allocator@D@2@@std@@@2@@dlib@@8 ; dlib::binary_search_tree_kernel_2<std::basic_string<char,std::char_traits<char>,std::allocator<char> >,void *,dlib::memory_manager_stateless_kernel_1<char>,std::less<std::basic_string<char,std::char_traits<char>,std::allocator<char> > > >::`RTTI Class Hierarchy Descriptor'
PUBLIC	??_R2?$binary_search_tree_kernel_2@V?$basic_string@DU?$char_traits@D@std@@V?$allocator@D@2@@std@@PAXV?$memory_manager_stateless_kernel_1@D@dlib@@U?$less@V?$basic_string@DU?$char_traits@D@std@@V?$allocator@D@2@@std@@@2@@dlib@@8 ; dlib::binary_search_tree_kernel_2<std::basic_string<char,std::char_traits<char>,std::allocator<char> >,void *,dlib::memory_manager_stateless_kernel_1<char>,std::less<std::basic_string<char,std::char_traits<char>,std::allocator<char> > > >::`RTTI Base Class Array'
PUBLIC	??_R13?0A@EA@?$pair_remover@V?$basic_string@DU?$char_traits@D@std@@V?$allocator@D@2@@std@@PAX@dlib@@8 ; dlib::pair_remover<std::basic_string<char,std::char_traits<char>,std::allocator<char> >,void *>::`RTTI Base Class Descriptor at (4,-1,0,64)'
PUBLIC	??_R13?0A@EA@?$asc_pair_remover@V?$basic_string@DU?$char_traits@D@std@@V?$allocator@D@2@@std@@PAXU?$less@V?$basic_string@DU?$char_traits@D@std@@V?$allocator@D@2@@std@@@2@@dlib@@8 ; dlib::asc_pair_remover<std::basic_string<char,std::char_traits<char>,std::allocator<char> >,void *,std::less<std::basic_string<char,std::char_traits<char>,std::allocator<char> > > >::`RTTI Base Class Descriptor at (4,-1,0,64)'
PUBLIC	??_R3?$asc_pair_remover@V?$basic_string@DU?$char_traits@D@std@@V?$allocator@D@2@@std@@PAXU?$less@V?$basic_string@DU?$char_traits@D@std@@V?$allocator@D@2@@std@@@2@@dlib@@8 ; dlib::asc_pair_remover<std::basic_string<char,std::char_traits<char>,std::allocator<char> >,void *,std::less<std::basic_string<char,std::char_traits<char>,std::allocator<char> > > >::`RTTI Class Hierarchy Descriptor'
PUBLIC	??_R2?$asc_pair_remover@V?$basic_string@DU?$char_traits@D@std@@V?$allocator@D@2@@std@@PAXU?$less@V?$basic_string@DU?$char_traits@D@std@@V?$allocator@D@2@@std@@@2@@dlib@@8 ; dlib::asc_pair_remover<std::basic_string<char,std::char_traits<char>,std::allocator<char> >,void *,std::less<std::basic_string<char,std::char_traits<char>,std::allocator<char> > > >::`RTTI Base Class Array'
PUBLIC	??_R1A@?0A@EA@?$pair_remover@V?$basic_string@DU?$char_traits@D@std@@V?$allocator@D@2@@std@@PAX@dlib@@8 ; dlib::pair_remover<std::basic_string<char,std::char_traits<char>,std::allocator<char> >,void *>::`RTTI Base Class Descriptor at (0,-1,0,64)'
PUBLIC	??_R3?$pair_remover@V?$basic_string@DU?$char_traits@D@std@@V?$allocator@D@2@@std@@PAX@dlib@@8 ; dlib::pair_remover<std::basic_string<char,std::char_traits<char>,std::allocator<char> >,void *>::`RTTI Class Hierarchy Descriptor'
PUBLIC	??_R2?$pair_remover@V?$basic_string@DU?$char_traits@D@std@@V?$allocator@D@2@@std@@PAX@dlib@@8 ; dlib::pair_remover<std::basic_string<char,std::char_traits<char>,std::allocator<char> >,void *>::`RTTI Base Class Array'
PUBLIC	??_R0?AV?$pair_remover@V?$basic_string@DU?$char_traits@D@std@@V?$allocator@D@2@@std@@PAX@dlib@@@8 ; dlib::pair_remover<std::basic_string<char,std::char_traits<char>,std::allocator<char> >,void *> `RTTI Type Descriptor'
PUBLIC	??_R1A@?0A@EA@?$asc_pair_remover@V?$basic_string@DU?$char_traits@D@std@@V?$allocator@D@2@@std@@PAXU?$less@V?$basic_string@DU?$char_traits@D@std@@V?$allocator@D@2@@std@@@2@@dlib@@8 ; dlib::asc_pair_remover<std::basic_string<char,std::char_traits<char>,std::allocator<char> >,void *,std::less<std::basic_string<char,std::char_traits<char>,std::allocator<char> > > >::`RTTI Base Class Descriptor at (0,-1,0,64)'
PUBLIC	??_R0?AV?$asc_pair_remover@V?$basic_string@DU?$char_traits@D@std@@V?$allocator@D@2@@std@@PAXU?$less@V?$basic_string@DU?$char_traits@D@std@@V?$allocator@D@2@@std@@@2@@dlib@@@8 ; dlib::asc_pair_remover<std::basic_string<char,std::char_traits<char>,std::allocator<char> >,void *,std::less<std::basic_string<char,std::char_traits<char>,std::allocator<char> > > > `RTTI Type Descriptor'
PUBLIC	??_R1A@?0A@EA@?$enumerable@V?$map_pair@V?$basic_string@DU?$char_traits@D@std@@V?$allocator@D@2@@std@@PAX@dlib@@@dlib@@8 ; dlib::enumerable<dlib::map_pair<std::basic_string<char,std::char_traits<char>,std::allocator<char> >,void *> >::`RTTI Base Class Descriptor at (0,-1,0,64)'
PUBLIC	??_R3?$enumerable@V?$map_pair@V?$basic_string@DU?$char_traits@D@std@@V?$allocator@D@2@@std@@PAX@dlib@@@dlib@@8 ; dlib::enumerable<dlib::map_pair<std::basic_string<char,std::char_traits<char>,std::allocator<char> >,void *> >::`RTTI Class Hierarchy Descriptor'
PUBLIC	??_R2?$enumerable@V?$map_pair@V?$basic_string@DU?$char_traits@D@std@@V?$allocator@D@2@@std@@PAX@dlib@@@dlib@@8 ; dlib::enumerable<dlib::map_pair<std::basic_string<char,std::char_traits<char>,std::allocator<char> >,void *> >::`RTTI Base Class Array'
PUBLIC	??_R0?AV?$enumerable@V?$map_pair@V?$basic_string@DU?$char_traits@D@std@@V?$allocator@D@2@@std@@PAX@dlib@@@dlib@@@8 ; dlib::enumerable<dlib::map_pair<std::basic_string<char,std::char_traits<char>,std::allocator<char> >,void *> > `RTTI Type Descriptor'
PUBLIC	??_R1A@?0A@EA@?$binary_search_tree_kernel_2@V?$basic_string@DU?$char_traits@D@std@@V?$allocator@D@2@@std@@PAXV?$memory_manager_stateless_kernel_1@D@dlib@@U?$less@V?$basic_string@DU?$char_traits@D@std@@V?$allocator@D@2@@std@@@2@@dlib@@8 ; dlib::binary_search_tree_kernel_2<std::basic_string<char,std::char_traits<char>,std::allocator<char> >,void *,dlib::memory_manager_stateless_kernel_1<char>,std::less<std::basic_string<char,std::char_traits<char>,std::allocator<char> > > >::`RTTI Base Class Descriptor at (0,-1,0,64)'
PUBLIC	??_R0?AV?$binary_search_tree_kernel_2@V?$basic_string@DU?$char_traits@D@std@@V?$allocator@D@2@@std@@PAXV?$memory_manager_stateless_kernel_1@D@dlib@@U?$less@V?$basic_string@DU?$char_traits@D@std@@V?$allocator@D@2@@std@@@2@@dlib@@@8 ; dlib::binary_search_tree_kernel_2<std::basic_string<char,std::char_traits<char>,std::allocator<char> >,void *,dlib::memory_manager_stateless_kernel_1<char>,std::less<std::basic_string<char,std::char_traits<char>,std::allocator<char> > > > `RTTI Type Descriptor'
PUBLIC	??_R4?$map_kernel_1@V?$basic_string@DU?$char_traits@D@std@@V?$allocator@D@2@@std@@V12@V?$binary_search_tree_kernel_2@V?$basic_string@DU?$char_traits@D@std@@V?$allocator@D@2@@std@@V12@V?$memory_manager_stateless_kernel_1@D@dlib@@U?$less@V?$basic_string@DU?$char_traits@D@std@@V?$allocator@D@2@@std@@@2@@dlib@@V?$memory_manager_stateless_kernel_1@D@4@@dlib@@6B?$asc_pair_remover@V?$basic_string@DU?$char_traits@D@std@@V?$allocator@D@2@@std@@V12@U?$less@V?$basic_string@DU?$char_traits@D@std@@V?$allocator@D@2@@std@@@2@@1@@ ; dlib::map_kernel_1<std::basic_string<char,std::char_traits<char>,std::allocator<char> >,std::basic_string<char,std::char_traits<char>,std::allocator<char> >,dlib::binary_search_tree_kernel_2<std::basic_string<char,std::char_traits<char>,std::allocator<char> >,std::basic_string<char,std::char_traits<char>,std::allocator<char> >,dlib::memory_manager_stateless_kernel_1<char>,std::less<std::basic_string<char,std::char_traits<char>,std::allocator<char> > > >,dlib::memory_manager_stateless_kernel_1<char> >::`RTTI Complete Object Locator'
PUBLIC	??_R4?$map_kernel_1@V?$basic_string@DU?$char_traits@D@std@@V?$allocator@D@2@@std@@V12@V?$binary_search_tree_kernel_2@V?$basic_string@DU?$char_traits@D@std@@V?$allocator@D@2@@std@@V12@V?$memory_manager_stateless_kernel_1@D@dlib@@U?$less@V?$basic_string@DU?$char_traits@D@std@@V?$allocator@D@2@@std@@@2@@dlib@@V?$memory_manager_stateless_kernel_1@D@4@@dlib@@6B?$enumerable@V?$map_pair@V?$basic_string@DU?$char_traits@D@std@@V?$allocator@D@2@@std@@V12@@dlib@@@1@@ ; dlib::map_kernel_1<std::basic_string<char,std::char_traits<char>,std::allocator<char> >,std::basic_string<char,std::char_traits<char>,std::allocator<char> >,dlib::binary_search_tree_kernel_2<std::basic_string<char,std::char_traits<char>,std::allocator<char> >,std::basic_string<char,std::char_traits<char>,std::allocator<char> >,dlib::memory_manager_stateless_kernel_1<char>,std::less<std::basic_string<char,std::char_traits<char>,std::allocator<char> > > >,dlib::memory_manager_stateless_kernel_1<char> >::`RTTI Complete Object Locator'
PUBLIC	??_R3?$map_kernel_1@V?$basic_string@DU?$char_traits@D@std@@V?$allocator@D@2@@std@@V12@V?$binary_search_tree_kernel_2@V?$basic_string@DU?$char_traits@D@std@@V?$allocator@D@2@@std@@V12@V?$memory_manager_stateless_kernel_1@D@dlib@@U?$less@V?$basic_string@DU?$char_traits@D@std@@V?$allocator@D@2@@std@@@2@@dlib@@V?$memory_manager_stateless_kernel_1@D@4@@dlib@@8 ; dlib::map_kernel_1<std::basic_string<char,std::char_traits<char>,std::allocator<char> >,std::basic_string<char,std::char_traits<char>,std::allocator<char> >,dlib::binary_search_tree_kernel_2<std::basic_string<char,std::char_traits<char>,std::allocator<char> >,std::basic_string<char,std::char_traits<char>,std::allocator<char> >,dlib::memory_manager_stateless_kernel_1<char>,std::less<std::basic_string<char,std::char_traits<char>,std::allocator<char> > > >,dlib::memory_manager_stateless_kernel_1<char> >::`RTTI Class Hierarchy Descriptor'
PUBLIC	??_R2?$map_kernel_1@V?$basic_string@DU?$char_traits@D@std@@V?$allocator@D@2@@std@@V12@V?$binary_search_tree_kernel_2@V?$basic_string@DU?$char_traits@D@std@@V?$allocator@D@2@@std@@V12@V?$memory_manager_stateless_kernel_1@D@dlib@@U?$less@V?$basic_string@DU?$char_traits@D@std@@V?$allocator@D@2@@std@@@2@@dlib@@V?$memory_manager_stateless_kernel_1@D@4@@dlib@@8 ; dlib::map_kernel_1<std::basic_string<char,std::char_traits<char>,std::allocator<char> >,std::basic_string<char,std::char_traits<char>,std::allocator<char> >,dlib::binary_search_tree_kernel_2<std::basic_string<char,std::char_traits<char>,std::allocator<char> >,std::basic_string<char,std::char_traits<char>,std::allocator<char> >,dlib::memory_manager_stateless_kernel_1<char>,std::less<std::basic_string<char,std::char_traits<char>,std::allocator<char> > > >,dlib::memory_manager_stateless_kernel_1<char> >::`RTTI Base Class Array'
PUBLIC	??_R1A@?0A@EA@?$map_kernel_1@V?$basic_string@DU?$char_traits@D@std@@V?$allocator@D@2@@std@@V12@V?$binary_search_tree_kernel_2@V?$basic_string@DU?$char_traits@D@std@@V?$allocator@D@2@@std@@V12@V?$memory_manager_stateless_kernel_1@D@dlib@@U?$less@V?$basic_string@DU?$char_traits@D@std@@V?$allocator@D@2@@std@@@2@@dlib@@V?$memory_manager_stateless_kernel_1@D@4@@dlib@@8 ; dlib::map_kernel_1<std::basic_string<char,std::char_traits<char>,std::allocator<char> >,std::basic_string<char,std::char_traits<char>,std::allocator<char> >,dlib::binary_search_tree_kernel_2<std::basic_string<char,std::char_traits<char>,std::allocator<char> >,std::basic_string<char,std::char_traits<char>,std::allocator<char> >,dlib::memory_manager_stateless_kernel_1<char>,std::less<std::basic_string<char,std::char_traits<char>,std::allocator<char> > > >,dlib::memory_manager_stateless_kernel_1<char> >::`RTTI Base Class Descriptor at (0,-1,0,64)'
PUBLIC	??_R0?AV?$map_kernel_1@V?$basic_string@DU?$char_traits@D@std@@V?$allocator@D@2@@std@@V12@V?$binary_search_tree_kernel_2@V?$basic_string@DU?$char_traits@D@std@@V?$allocator@D@2@@std@@V12@V?$memory_manager_stateless_kernel_1@D@dlib@@U?$less@V?$basic_string@DU?$char_traits@D@std@@V?$allocator@D@2@@std@@@2@@dlib@@V?$memory_manager_stateless_kernel_1@D@4@@dlib@@@8 ; dlib::map_kernel_1<std::basic_string<char,std::char_traits<char>,std::allocator<char> >,std::basic_string<char,std::char_traits<char>,std::allocator<char> >,dlib::binary_search_tree_kernel_2<std::basic_string<char,std::char_traits<char>,std::allocator<char> >,std::basic_string<char,std::char_traits<char>,std::allocator<char> >,dlib::memory_manager_stateless_kernel_1<char>,std::less<std::basic_string<char,std::char_traits<char>,std::allocator<char> > > >,dlib::memory_manager_stateless_kernel_1<char> > `RTTI Type Descriptor'
PUBLIC	??_R4?$binary_search_tree_kernel_2@V?$basic_string@DU?$char_traits@D@std@@V?$allocator@D@2@@std@@V12@V?$memory_manager_stateless_kernel_1@D@dlib@@U?$less@V?$basic_string@DU?$char_traits@D@std@@V?$allocator@D@2@@std@@@2@@dlib@@6B?$asc_pair_remover@V?$basic_string@DU?$char_traits@D@std@@V?$allocator@D@2@@std@@V12@U?$less@V?$basic_string@DU?$char_traits@D@std@@V?$allocator@D@2@@std@@@2@@1@@ ; dlib::binary_search_tree_kernel_2<std::basic_string<char,std::char_traits<char>,std::allocator<char> >,std::basic_string<char,std::char_traits<char>,std::allocator<char> >,dlib::memory_manager_stateless_kernel_1<char>,std::less<std::basic_string<char,std::char_traits<char>,std::allocator<char> > > >::`RTTI Complete Object Locator'
PUBLIC	??_R4?$binary_search_tree_kernel_2@V?$basic_string@DU?$char_traits@D@std@@V?$allocator@D@2@@std@@V12@V?$memory_manager_stateless_kernel_1@D@dlib@@U?$less@V?$basic_string@DU?$char_traits@D@std@@V?$allocator@D@2@@std@@@2@@dlib@@6B?$enumerable@V?$map_pair@V?$basic_string@DU?$char_traits@D@std@@V?$allocator@D@2@@std@@V12@@dlib@@@1@@ ; dlib::binary_search_tree_kernel_2<std::basic_string<char,std::char_traits<char>,std::allocator<char> >,std::basic_string<char,std::char_traits<char>,std::allocator<char> >,dlib::memory_manager_stateless_kernel_1<char>,std::less<std::basic_string<char,std::char_traits<char>,std::allocator<char> > > >::`RTTI Complete Object Locator'
PUBLIC	??_R3?$binary_search_tree_kernel_2@V?$basic_string@DU?$char_traits@D@std@@V?$allocator@D@2@@std@@V12@V?$memory_manager_stateless_kernel_1@D@dlib@@U?$less@V?$basic_string@DU?$char_traits@D@std@@V?$allocator@D@2@@std@@@2@@dlib@@8 ; dlib::binary_search_tree_kernel_2<std::basic_string<char,std::char_traits<char>,std::allocator<char> >,std::basic_string<char,std::char_traits<char>,std::allocator<char> >,dlib::memory_manager_stateless_kernel_1<char>,std::less<std::basic_string<char,std::char_traits<char>,std::allocator<char> > > >::`RTTI Class Hierarchy Descriptor'
PUBLIC	??_R2?$binary_search_tree_kernel_2@V?$basic_string@DU?$char_traits@D@std@@V?$allocator@D@2@@std@@V12@V?$memory_manager_stateless_kernel_1@D@dlib@@U?$less@V?$basic_string@DU?$char_traits@D@std@@V?$allocator@D@2@@std@@@2@@dlib@@8 ; dlib::binary_search_tree_kernel_2<std::basic_string<char,std::char_traits<char>,std::allocator<char> >,std::basic_string<char,std::char_traits<char>,std::allocator<char> >,dlib::memory_manager_stateless_kernel_1<char>,std::less<std::basic_string<char,std::char_traits<char>,std::allocator<char> > > >::`RTTI Base Class Array'
PUBLIC	??_R13?0A@EA@?$pair_remover@V?$basic_string@DU?$char_traits@D@std@@V?$allocator@D@2@@std@@V12@@dlib@@8 ; dlib::pair_remover<std::basic_string<char,std::char_traits<char>,std::allocator<char> >,std::basic_string<char,std::char_traits<char>,std::allocator<char> > >::`RTTI Base Class Descriptor at (4,-1,0,64)'
PUBLIC	??_R13?0A@EA@?$asc_pair_remover@V?$basic_string@DU?$char_traits@D@std@@V?$allocator@D@2@@std@@V12@U?$less@V?$basic_string@DU?$char_traits@D@std@@V?$allocator@D@2@@std@@@2@@dlib@@8 ; dlib::asc_pair_remover<std::basic_string<char,std::char_traits<char>,std::allocator<char> >,std::basic_string<char,std::char_traits<char>,std::allocator<char> >,std::less<std::basic_string<char,std::char_traits<char>,std::allocator<char> > > >::`RTTI Base Class Descriptor at (4,-1,0,64)'
PUBLIC	??_R3?$asc_pair_remover@V?$basic_string@DU?$char_traits@D@std@@V?$allocator@D@2@@std@@V12@U?$less@V?$basic_string@DU?$char_traits@D@std@@V?$allocator@D@2@@std@@@2@@dlib@@8 ; dlib::asc_pair_remover<std::basic_string<char,std::char_traits<char>,std::allocator<char> >,std::basic_string<char,std::char_traits<char>,std::allocator<char> >,std::less<std::basic_string<char,std::char_traits<char>,std::allocator<char> > > >::`RTTI Class Hierarchy Descriptor'
PUBLIC	??_R2?$asc_pair_remover@V?$basic_string@DU?$char_traits@D@std@@V?$allocator@D@2@@std@@V12@U?$less@V?$basic_string@DU?$char_traits@D@std@@V?$allocator@D@2@@std@@@2@@dlib@@8 ; dlib::asc_pair_remover<std::basic_string<char,std::char_traits<char>,std::allocator<char> >,std::basic_string<char,std::char_traits<char>,std::allocator<char> >,std::less<std::basic_string<char,std::char_traits<char>,std::allocator<char> > > >::`RTTI Base Class Array'
PUBLIC	??_R1A@?0A@EA@?$pair_remover@V?$basic_string@DU?$char_traits@D@std@@V?$allocator@D@2@@std@@V12@@dlib@@8 ; dlib::pair_remover<std::basic_string<char,std::char_traits<char>,std::allocator<char> >,std::basic_string<char,std::char_traits<char>,std::allocator<char> > >::`RTTI Base Class Descriptor at (0,-1,0,64)'
PUBLIC	??_R3?$pair_remover@V?$basic_string@DU?$char_traits@D@std@@V?$allocator@D@2@@std@@V12@@dlib@@8 ; dlib::pair_remover<std::basic_string<char,std::char_traits<char>,std::allocator<char> >,std::basic_string<char,std::char_traits<char>,std::allocator<char> > >::`RTTI Class Hierarchy Descriptor'
PUBLIC	??_R2?$pair_remover@V?$basic_string@DU?$char_traits@D@std@@V?$allocator@D@2@@std@@V12@@dlib@@8 ; dlib::pair_remover<std::basic_string<char,std::char_traits<char>,std::allocator<char> >,std::basic_string<char,std::char_traits<char>,std::allocator<char> > >::`RTTI Base Class Array'
PUBLIC	??_R0?AV?$pair_remover@V?$basic_string@DU?$char_traits@D@std@@V?$allocator@D@2@@std@@V12@@dlib@@@8 ; dlib::pair_remover<std::basic_string<char,std::char_traits<char>,std::allocator<char> >,std::basic_string<char,std::char_traits<char>,std::allocator<char> > > `RTTI Type Descriptor'
PUBLIC	??_R1A@?0A@EA@?$asc_pair_remover@V?$basic_string@DU?$char_traits@D@std@@V?$allocator@D@2@@std@@V12@U?$less@V?$basic_string@DU?$char_traits@D@std@@V?$allocator@D@2@@std@@@2@@dlib@@8 ; dlib::asc_pair_remover<std::basic_string<char,std::char_traits<char>,std::allocator<char> >,std::basic_string<char,std::char_traits<char>,std::allocator<char> >,std::less<std::basic_string<char,std::char_traits<char>,std::allocator<char> > > >::`RTTI Base Class Descriptor at (0,-1,0,64)'
PUBLIC	??_R0?AV?$asc_pair_remover@V?$basic_string@DU?$char_traits@D@std@@V?$allocator@D@2@@std@@V12@U?$less@V?$basic_string@DU?$char_traits@D@std@@V?$allocator@D@2@@std@@@2@@dlib@@@8 ; dlib::asc_pair_remover<std::basic_string<char,std::char_traits<char>,std::allocator<char> >,std::basic_string<char,std::char_traits<char>,std::allocator<char> >,std::less<std::basic_string<char,std::char_traits<char>,std::allocator<char> > > > `RTTI Type Descriptor'
PUBLIC	??_R1A@?0A@EA@?$enumerable@V?$map_pair@V?$basic_string@DU?$char_traits@D@std@@V?$allocator@D@2@@std@@V12@@dlib@@@dlib@@8 ; dlib::enumerable<dlib::map_pair<std::basic_string<char,std::char_traits<char>,std::allocator<char> >,std::basic_string<char,std::char_traits<char>,std::allocator<char> > > >::`RTTI Base Class Descriptor at (0,-1,0,64)'
PUBLIC	??_R3?$enumerable@V?$map_pair@V?$basic_string@DU?$char_traits@D@std@@V?$allocator@D@2@@std@@V12@@dlib@@@dlib@@8 ; dlib::enumerable<dlib::map_pair<std::basic_string<char,std::char_traits<char>,std::allocator<char> >,std::basic_string<char,std::char_traits<char>,std::allocator<char> > > >::`RTTI Class Hierarchy Descriptor'
PUBLIC	??_R2?$enumerable@V?$map_pair@V?$basic_string@DU?$char_traits@D@std@@V?$allocator@D@2@@std@@V12@@dlib@@@dlib@@8 ; dlib::enumerable<dlib::map_pair<std::basic_string<char,std::char_traits<char>,std::allocator<char> >,std::basic_string<char,std::char_traits<char>,std::allocator<char> > > >::`RTTI Base Class Array'
PUBLIC	??_R0?AV?$enumerable@V?$map_pair@V?$basic_string@DU?$char_traits@D@std@@V?$allocator@D@2@@std@@V12@@dlib@@@dlib@@@8 ; dlib::enumerable<dlib::map_pair<std::basic_string<char,std::char_traits<char>,std::allocator<char> >,std::basic_string<char,std::char_traits<char>,std::allocator<char> > > > `RTTI Type Descriptor'
PUBLIC	??_R1A@?0A@EA@?$binary_search_tree_kernel_2@V?$basic_string@DU?$char_traits@D@std@@V?$allocator@D@2@@std@@V12@V?$memory_manager_stateless_kernel_1@D@dlib@@U?$less@V?$basic_string@DU?$char_traits@D@std@@V?$allocator@D@2@@std@@@2@@dlib@@8 ; dlib::binary_search_tree_kernel_2<std::basic_string<char,std::char_traits<char>,std::allocator<char> >,std::basic_string<char,std::char_traits<char>,std::allocator<char> >,dlib::memory_manager_stateless_kernel_1<char>,std::less<std::basic_string<char,std::char_traits<char>,std::allocator<char> > > >::`RTTI Base Class Descriptor at (0,-1,0,64)'
PUBLIC	??_R0?AV?$binary_search_tree_kernel_2@V?$basic_string@DU?$char_traits@D@std@@V?$allocator@D@2@@std@@V12@V?$memory_manager_stateless_kernel_1@D@dlib@@U?$less@V?$basic_string@DU?$char_traits@D@std@@V?$allocator@D@2@@std@@@2@@dlib@@@8 ; dlib::binary_search_tree_kernel_2<std::basic_string<char,std::char_traits<char>,std::allocator<char> >,std::basic_string<char,std::char_traits<char>,std::allocator<char> >,dlib::memory_manager_stateless_kernel_1<char>,std::less<std::basic_string<char,std::char_traits<char>,std::allocator<char> > > > `RTTI Type Descriptor'
PUBLIC	??_R4?$basic_ifstream@DU?$char_traits@D@std@@@std@@6B@ ; std::basic_ifstream<char,std::char_traits<char> >::`RTTI Complete Object Locator'
PUBLIC	??_R3?$basic_ifstream@DU?$char_traits@D@std@@@std@@8 ; std::basic_ifstream<char,std::char_traits<char> >::`RTTI Class Hierarchy Descriptor'
PUBLIC	??_R2?$basic_ifstream@DU?$char_traits@D@std@@@std@@8 ; std::basic_ifstream<char,std::char_traits<char> >::`RTTI Base Class Array'
PUBLIC	??_R1A@?0A@EA@?$basic_ifstream@DU?$char_traits@D@std@@@std@@8 ; std::basic_ifstream<char,std::char_traits<char> >::`RTTI Base Class Descriptor at (0,-1,0,64)'
PUBLIC	??_R0?AV?$basic_ifstream@DU?$char_traits@D@std@@@std@@@8 ; std::basic_ifstream<char,std::char_traits<char> > `RTTI Type Descriptor'
PUBLIC	??_R4?$basic_filebuf@DU?$char_traits@D@std@@@std@@6B@ ; std::basic_filebuf<char,std::char_traits<char> >::`RTTI Complete Object Locator'
PUBLIC	??_R3?$basic_filebuf@DU?$char_traits@D@std@@@std@@8 ; std::basic_filebuf<char,std::char_traits<char> >::`RTTI Class Hierarchy Descriptor'
PUBLIC	??_R2?$basic_filebuf@DU?$char_traits@D@std@@@std@@8 ; std::basic_filebuf<char,std::char_traits<char> >::`RTTI Base Class Array'
PUBLIC	??_R1A@?0A@EA@?$basic_filebuf@DU?$char_traits@D@std@@@std@@8 ; std::basic_filebuf<char,std::char_traits<char> >::`RTTI Base Class Descriptor at (0,-1,0,64)'
PUBLIC	??_R0?AV?$basic_filebuf@DU?$char_traits@D@std@@@std@@@8 ; std::basic_filebuf<char,std::char_traits<char> > `RTTI Type Descriptor'
PUBLIC	?_Stinit@?1??_Init@?$basic_filebuf@DU?$char_traits@D@std@@@std@@IAEXPAU_iobuf@@W4_Initfl@23@@Z@4HA ; `std::basic_filebuf<char,std::char_traits<char> >::_Init'::`2'::_Stinit
PUBLIC	??0?$basic_filebuf@DU?$char_traits@D@std@@@std@@QAE@PAU_iobuf@@@Z ; std::basic_filebuf<char,std::char_traits<char> >::basic_filebuf<char,std::char_traits<char> >
PUBLIC	??1locale@std@@QAE@XZ				; std::locale::~locale
PUBLIC	?open@?$basic_filebuf@DU?$char_traits@D@std@@@std@@QAEPAV12@PBDHH@Z ; std::basic_filebuf<char,std::char_traits<char> >::open
PUBLIC	??0?$basic_ifstream@DU?$char_traits@D@std@@@std@@QAE@PBDHH@Z ; std::basic_ifstream<char,std::char_traits<char> >::basic_ifstream<char,std::char_traits<char> >
PUBLIC	?close@?$basic_filebuf@DU?$char_traits@D@std@@@std@@QAEPAV12@XZ ; std::basic_filebuf<char,std::char_traits<char> >::close
PUBLIC	?_Lock@?$basic_filebuf@DU?$char_traits@D@std@@@std@@UAEXXZ ; std::basic_filebuf<char,std::char_traits<char> >::_Lock
PUBLIC	?_Unlock@?$basic_filebuf@DU?$char_traits@D@std@@@std@@UAEXXZ ; std::basic_filebuf<char,std::char_traits<char> >::_Unlock
PUBLIC	??$_Fputc@D@std@@YA_NDPAU_iobuf@@@Z		; std::_Fputc<char>
PUBLIC	?overflow@?$basic_filebuf@DU?$char_traits@D@std@@@std@@MAEHH@Z ; std::basic_filebuf<char,std::char_traits<char> >::overflow
PUBLIC	??$_Ungetc@D@std@@YA_NABDPAU_iobuf@@@Z		; std::_Ungetc<char>
PUBLIC	?_Set_back@?$basic_filebuf@DU?$char_traits@D@std@@@std@@AAEXXZ ; std::basic_filebuf<char,std::char_traits<char> >::_Set_back
PUBLIC	?pbackfail@?$basic_filebuf@DU?$char_traits@D@std@@@std@@MAEHH@Z ; std::basic_filebuf<char,std::char_traits<char> >::pbackfail
PUBLIC	?underflow@?$basic_filebuf@DU?$char_traits@D@std@@@std@@MAEHXZ ; std::basic_filebuf<char,std::char_traits<char> >::underflow
PUBLIC	??$_Fgetc@D@std@@YA_NAADPAU_iobuf@@@Z		; std::_Fgetc<char>
PUBLIC	?uflow@?$basic_filebuf@DU?$char_traits@D@std@@@std@@MAEHXZ ; std::basic_filebuf<char,std::char_traits<char> >::uflow
PUBLIC	?seekoff@?$basic_filebuf@DU?$char_traits@D@std@@@std@@MAE?AV?$fpos@H@2@_JHH@Z ; std::basic_filebuf<char,std::char_traits<char> >::seekoff
PUBLIC	?assign@?$basic_string@DU?$char_traits@D@std@@V?$allocator@D@2@@std@@QAEAAV12@ID@Z ; std::basic_string<char,std::char_traits<char>,std::allocator<char> >::assign
PUBLIC	??0?$basic_string@DU?$char_traits@D@std@@V?$allocator@D@2@@std@@QAE@ID@Z ; std::basic_string<char,std::char_traits<char>,std::allocator<char> >::basic_string<char,std::char_traits<char>,std::allocator<char> >
PUBLIC	??D?$_String_const_iterator@DU?$char_traits@D@std@@V?$allocator@D@2@@std@@QBEABDXZ ; std::_String_const_iterator<char,std::char_traits<char>,std::allocator<char> >::operator*
PUBLIC	??D?$_String_iterator@DU?$char_traits@D@std@@V?$allocator@D@2@@std@@QBEAADXZ ; std::_String_iterator<char,std::char_traits<char>,std::allocator<char> >::operator*
PUBLIC	?_Endwrite@?$basic_filebuf@DU?$char_traits@D@std@@@std@@IAE_NXZ ; std::basic_filebuf<char,std::char_traits<char> >::_Endwrite
PUBLIC	?_Reset_back@?$basic_filebuf@DU?$char_traits@D@std@@@std@@AAEXXZ ; std::basic_filebuf<char,std::char_traits<char> >::_Reset_back
PUBLIC	??0?$fpos@H@std@@QAE@H_J@Z			; std::fpos<int>::fpos<int>
PUBLIC	?state@?$fpos@H@std@@QBEHXZ			; std::fpos<int>::state
PUBLIC	?seekpos@?$fpos@H@std@@QBE_JXZ			; std::fpos<int>::seekpos
PUBLIC	?seekpos@?$basic_filebuf@DU?$char_traits@D@std@@@std@@MAE?AV?$fpos@H@2@V32@H@Z ; std::basic_filebuf<char,std::char_traits<char> >::seekpos
PUBLIC	?_Init@?$basic_filebuf@DU?$char_traits@D@std@@@std@@IAEXPAU_iobuf@@W4_Initfl@12@@Z ; std::basic_filebuf<char,std::char_traits<char> >::_Init
PUBLIC	?setbuf@?$basic_filebuf@DU?$char_traits@D@std@@@std@@MAEPAV?$basic_streambuf@DU?$char_traits@D@std@@@2@PAD_J@Z ; std::basic_filebuf<char,std::char_traits<char> >::setbuf
PUBLIC	?sync@?$basic_filebuf@DU?$char_traits@D@std@@@std@@MAEHXZ ; std::basic_filebuf<char,std::char_traits<char> >::sync
PUBLIC	?_Initcvt@?$basic_filebuf@DU?$char_traits@D@std@@@std@@IAEXPBV?$codecvt@DDH@2@@Z ; std::basic_filebuf<char,std::char_traits<char> >::_Initcvt
PUBLIC	?_Register@facet@locale@std@@QAEXXZ		; std::locale::facet::_Register
PUBLIC	?_Getfacet@locale@std@@QBEPBVfacet@12@I@Z	; std::locale::_Getfacet
PUBLIC	??$use_facet@V?$codecvt@DDH@std@@@std@@YAABV?$codecvt@DDH@0@ABVlocale@0@@Z ; std::use_facet<std::codecvt<char,char,int> >
PUBLIC	?imbue@?$basic_filebuf@DU?$char_traits@D@std@@@std@@MAEXABVlocale@2@@Z ; std::basic_filebuf<char,std::char_traits<char> >::imbue
PUBLIC	??_G?$basic_filebuf@DU?$char_traits@D@std@@@std@@UAEPAXI@Z ; std::basic_filebuf<char,std::char_traits<char> >::`scalar deleting destructor'
PUBLIC	??1?$basic_filebuf@DU?$char_traits@D@std@@@std@@UAE@XZ ; std::basic_filebuf<char,std::char_traits<char> >::~basic_filebuf<char,std::char_traits<char> >
PUBLIC	??_G?$basic_ifstream@DU?$char_traits@D@std@@@std@@UAEPAXI@Z ; std::basic_ifstream<char,std::char_traits<char> >::`scalar deleting destructor'
PUBLIC	??1?$basic_ifstream@DU?$char_traits@D@std@@@std@@UAE@XZ ; std::basic_ifstream<char,std::char_traits<char> >::~basic_ifstream<char,std::char_traits<char> >
PUBLIC	??_D?$basic_ifstream@DU?$char_traits@D@std@@@std@@QAEXXZ ; std::basic_ifstream<char,std::char_traits<char> >::`vbase destructor'
PUBLIC	?find_last_not_of@?$basic_string@DU?$char_traits@D@std@@V?$allocator@D@2@@std@@QBEIPBDII@Z ; std::basic_string<char,std::char_traits<char>,std::allocator<char> >::find_last_not_of
PUBLIC	?find_last_not_of@?$basic_string@DU?$char_traits@D@std@@V?$allocator@D@2@@std@@QBEIPBDI@Z ; std::basic_string<char,std::char_traits<char>,std::allocator<char> >::find_last_not_of
PUBLIC	??0?$config_reader_kernel_1@V?$map_kernel_1@V?$basic_string@DU?$char_traits@D@std@@V?$allocator@D@2@@std@@V12@V?$binary_search_tree_kernel_2@V?$basic_string@DU?$char_traits@D@std@@V?$allocator@D@2@@std@@V12@V?$memory_manager_stateless_kernel_1@D@dlib@@U?$less@V?$basic_string@DU?$char_traits@D@std@@V?$allocator@D@2@@std@@@2@@dlib@@V?$memory_manager_stateless_kernel_1@D@4@@dlib@@V?$map_kernel_1@V?$basic_string@DU?$char_traits@D@std@@V?$allocator@D@2@@std@@PAXV?$binary_search_tree_kernel_2@V?$basic_string@DU?$char_traits@D@std@@V?$allocator@D@2@@std@@PAXV?$memory_manager_stateless_kernel_1@D@dlib@@U?$less@V?$basic_string@DU?$char_traits@D@std@@V?$allocator@D@2@@std@@@2@@dlib@@V?$memory_manager_stateless_kernel_1@D@4@@2@Vtokenizer_kernel_1@2@@dlib@@QAE@XZ ; dlib::config_reader_kernel_1<dlib::map_kernel_1<std::basic_string<char,std::char_traits<char>,std::allocator<char> >,std::basic_string<char,std::char_traits<char>,std::allocator<char> >,dlib::binary_search_tree_kernel_2<std::basic_string<char,std::char_traits<char>,std::allocator<char> >,std::basic_string<char,std::char_traits<char>,std::allocator<char> >,dlib::memory_manager_stateless_kernel_1<char>,std::less<std::basic_string<char,std::char_traits<char>,std::allocator<char> > > >,dlib::memory_manager_stateless_kernel_1<char> >,dlib::map_kernel_1<std::basic_string<char,std::char_traits<char>,std::allocator<char> >,void *,dlib::binary_search_tree_kernel_2<std::basic_string<char,std::char_traits<char>,std::allocator<char> >,void *,dlib::memory_manager_stateless_kernel_1<char>,std::less<std::basic_string<char,std::char_traits<char>,std::allocator<char> > > >,dlib::memory_manager_stateless_kernel_1<char> >,dlib::tokenizer_kernel_1>::config_reader_kernel_1<dlib::map_kernel_1<std::basic_string<char,std::char_traits<char>,std::allocator<char> >,std::basic_string<char,std::char_traits<char>,std::allocator<char> >,dlib::binary_search_tree_kernel_2<std::basic_string<char,std::char_traits<char>,std::allocator<char> >,std::basic_string<char,std::char_traits<char>,std::allocator<char> >,dlib::memory_manager_stateless_kernel_1<char>,std::less<std::basic_string<char,std::char_traits<char>,std::allocator<char> > > >,dlib::memory_manager_stateless_kernel_1<char> >,dlib::map_kernel_1<std::basic_string<char,std::char_traits<char>,std::allocator<char> >,void *,dlib::binary_search_tree_kernel_2<std::basic_string<char,std::char_traits<char>,std::allocator<char> >,void *,dlib::memory_manager_stateless_kernel_1<char>,std::less<std::basic_string<char,std::char_traits<char>,std::allocator<char> > > >,dlib::memory_manager_stateless_kernel_1<char> >,dlib::tokenizer_kernel_1>
PUBLIC	?double_rotate_right@?$binary_search_tree_kernel_2@V?$basic_string@DU?$char_traits@D@std@@V?$allocator@D@2@@std@@V12@V?$memory_manager_stateless_kernel_1@D@dlib@@U?$less@V?$basic_string@DU?$char_traits@D@std@@V?$allocator@D@2@@std@@@2@@dlib@@AAEXPAVnode@12@@Z ; dlib::binary_search_tree_kernel_2<std::basic_string<char,std::char_traits<char>,std::allocator<char> >,std::basic_string<char,std::char_traits<char>,std::allocator<char> >,dlib::memory_manager_stateless_kernel_1<char>,std::less<std::basic_string<char,std::char_traits<char>,std::allocator<char> > > >::double_rotate_right
PUBLIC	?double_rotate_left@?$binary_search_tree_kernel_2@V?$basic_string@DU?$char_traits@D@std@@V?$allocator@D@2@@std@@V12@V?$memory_manager_stateless_kernel_1@D@dlib@@U?$less@V?$basic_string@DU?$char_traits@D@std@@V?$allocator@D@2@@std@@@2@@dlib@@AAEXPAVnode@12@@Z ; dlib::binary_search_tree_kernel_2<std::basic_string<char,std::char_traits<char>,std::allocator<char> >,std::basic_string<char,std::char_traits<char>,std::allocator<char> >,dlib::memory_manager_stateless_kernel_1<char>,std::less<std::basic_string<char,std::char_traits<char>,std::allocator<char> > > >::double_rotate_left
PUBLIC	?fix_after_add@?$binary_search_tree_kernel_2@V?$basic_string@DU?$char_traits@D@std@@V?$allocator@D@2@@std@@V12@V?$memory_manager_stateless_kernel_1@D@dlib@@U?$less@V?$basic_string@DU?$char_traits@D@std@@V?$allocator@D@2@@std@@@2@@dlib@@AAEXPAVnode@12@@Z ; dlib::binary_search_tree_kernel_2<std::basic_string<char,std::char_traits<char>,std::allocator<char> >,std::basic_string<char,std::char_traits<char>,std::allocator<char> >,dlib::memory_manager_stateless_kernel_1<char>,std::less<std::basic_string<char,std::char_traits<char>,std::allocator<char> > > >::fix_after_add
PUBLIC	?add_to_tree@?$binary_search_tree_kernel_2@V?$basic_string@DU?$char_traits@D@std@@V?$allocator@D@2@@std@@V12@V?$memory_manager_stateless_kernel_1@D@dlib@@U?$less@V?$basic_string@DU?$char_traits@D@std@@V?$allocator@D@2@@std@@@2@@dlib@@AAEXPAVnode@12@AAV?$basic_string@DU?$char_traits@D@std@@V?$allocator@D@2@@std@@1@Z ; dlib::binary_search_tree_kernel_2<std::basic_string<char,std::char_traits<char>,std::allocator<char> >,std::basic_string<char,std::char_traits<char>,std::allocator<char> >,dlib::memory_manager_stateless_kernel_1<char>,std::less<std::basic_string<char,std::char_traits<char>,std::allocator<char> > > >::add_to_tree
PUBLIC	?add@?$binary_search_tree_kernel_2@V?$basic_string@DU?$char_traits@D@std@@V?$allocator@D@2@@std@@V12@V?$memory_manager_stateless_kernel_1@D@dlib@@U?$less@V?$basic_string@DU?$char_traits@D@std@@V?$allocator@D@2@@std@@@2@@dlib@@QAEXAAV?$basic_string@DU?$char_traits@D@std@@V?$allocator@D@2@@std@@0@Z ; dlib::binary_search_tree_kernel_2<std::basic_string<char,std::char_traits<char>,std::allocator<char> >,std::basic_string<char,std::char_traits<char>,std::allocator<char> >,dlib::memory_manager_stateless_kernel_1<char>,std::less<std::basic_string<char,std::char_traits<char>,std::allocator<char> > > >::add
PUBLIC	?add@?$map_kernel_1@V?$basic_string@DU?$char_traits@D@std@@V?$allocator@D@2@@std@@V12@V?$binary_search_tree_kernel_2@V?$basic_string@DU?$char_traits@D@std@@V?$allocator@D@2@@std@@V12@V?$memory_manager_stateless_kernel_1@D@dlib@@U?$less@V?$basic_string@DU?$char_traits@D@std@@V?$allocator@D@2@@std@@@2@@dlib@@V?$memory_manager_stateless_kernel_1@D@4@@dlib@@QAEXAAV?$basic_string@DU?$char_traits@D@std@@V?$allocator@D@2@@std@@0@Z ; dlib::map_kernel_1<std::basic_string<char,std::char_traits<char>,std::allocator<char> >,std::basic_string<char,std::char_traits<char>,std::allocator<char> >,dlib::binary_search_tree_kernel_2<std::basic_string<char,std::char_traits<char>,std::allocator<char> >,std::basic_string<char,std::char_traits<char>,std::allocator<char> >,dlib::memory_manager_stateless_kernel_1<char>,std::less<std::basic_string<char,std::char_traits<char>,std::allocator<char> > > >,dlib::memory_manager_stateless_kernel_1<char> >::add
PUBLIC	?double_rotate_right@?$binary_search_tree_kernel_2@V?$basic_string@DU?$char_traits@D@std@@V?$allocator@D@2@@std@@PAXV?$memory_manager_stateless_kernel_1@D@dlib@@U?$less@V?$basic_string@DU?$char_traits@D@std@@V?$allocator@D@2@@std@@@2@@dlib@@AAEXPAVnode@12@@Z ; dlib::binary_search_tree_kernel_2<std::basic_string<char,std::char_traits<char>,std::allocator<char> >,void *,dlib::memory_manager_stateless_kernel_1<char>,std::less<std::basic_string<char,std::char_traits<char>,std::allocator<char> > > >::double_rotate_right
PUBLIC	?double_rotate_left@?$binary_search_tree_kernel_2@V?$basic_string@DU?$char_traits@D@std@@V?$allocator@D@2@@std@@PAXV?$memory_manager_stateless_kernel_1@D@dlib@@U?$less@V?$basic_string@DU?$char_traits@D@std@@V?$allocator@D@2@@std@@@2@@dlib@@AAEXPAVnode@12@@Z ; dlib::binary_search_tree_kernel_2<std::basic_string<char,std::char_traits<char>,std::allocator<char> >,void *,dlib::memory_manager_stateless_kernel_1<char>,std::less<std::basic_string<char,std::char_traits<char>,std::allocator<char> > > >::double_rotate_left
PUBLIC	?fix_after_add@?$binary_search_tree_kernel_2@V?$basic_string@DU?$char_traits@D@std@@V?$allocator@D@2@@std@@PAXV?$memory_manager_stateless_kernel_1@D@dlib@@U?$less@V?$basic_string@DU?$char_traits@D@std@@V?$allocator@D@2@@std@@@2@@dlib@@AAEXPAVnode@12@@Z ; dlib::binary_search_tree_kernel_2<std::basic_string<char,std::char_traits<char>,std::allocator<char> >,void *,dlib::memory_manager_stateless_kernel_1<char>,std::less<std::basic_string<char,std::char_traits<char>,std::allocator<char> > > >::fix_after_add
PUBLIC	?add_to_tree@?$binary_search_tree_kernel_2@V?$basic_string@DU?$char_traits@D@std@@V?$allocator@D@2@@std@@PAXV?$memory_manager_stateless_kernel_1@D@dlib@@U?$less@V?$basic_string@DU?$char_traits@D@std@@V?$allocator@D@2@@std@@@2@@dlib@@AAEXPAVnode@12@AAV?$basic_string@DU?$char_traits@D@std@@V?$allocator@D@2@@std@@AAPAX@Z ; dlib::binary_search_tree_kernel_2<std::basic_string<char,std::char_traits<char>,std::allocator<char> >,void *,dlib::memory_manager_stateless_kernel_1<char>,std::less<std::basic_string<char,std::char_traits<char>,std::allocator<char> > > >::add_to_tree
PUBLIC	?add@?$binary_search_tree_kernel_2@V?$basic_string@DU?$char_traits@D@std@@V?$allocator@D@2@@std@@PAXV?$memory_manager_stateless_kernel_1@D@dlib@@U?$less@V?$basic_string@DU?$char_traits@D@std@@V?$allocator@D@2@@std@@@2@@dlib@@QAEXAAV?$basic_string@DU?$char_traits@D@std@@V?$allocator@D@2@@std@@AAPAX@Z ; dlib::binary_search_tree_kernel_2<std::basic_string<char,std::char_traits<char>,std::allocator<char> >,void *,dlib::memory_manager_stateless_kernel_1<char>,std::less<std::basic_string<char,std::char_traits<char>,std::allocator<char> > > >::add
PUBLIC	?add@?$map_kernel_1@V?$basic_string@DU?$char_traits@D@std@@V?$allocator@D@2@@std@@PAXV?$binary_search_tree_kernel_2@V?$basic_string@DU?$char_traits@D@std@@V?$allocator@D@2@@std@@PAXV?$memory_manager_stateless_kernel_1@D@dlib@@U?$less@V?$basic_string@DU?$char_traits@D@std@@V?$allocator@D@2@@std@@@2@@dlib@@V?$memory_manager_stateless_kernel_1@D@4@@dlib@@QAEXAAV?$basic_string@DU?$char_traits@D@std@@V?$allocator@D@2@@std@@AAPAX@Z ; dlib::map_kernel_1<std::basic_string<char,std::char_traits<char>,std::allocator<char> >,void *,dlib::binary_search_tree_kernel_2<std::basic_string<char,std::char_traits<char>,std::allocator<char> >,void *,dlib::memory_manager_stateless_kernel_1<char>,std::less<std::basic_string<char,std::char_traits<char>,std::allocator<char> > > >,dlib::memory_manager_stateless_kernel_1<char> >::add
PUBLIC	??0config_reader_error@?$config_reader_kernel_1@V?$map_kernel_1@V?$basic_string@DU?$char_traits@D@std@@V?$allocator@D@2@@std@@V12@V?$binary_search_tree_kernel_2@V?$basic_string@DU?$char_traits@D@std@@V?$allocator@D@2@@std@@V12@V?$memory_manager_stateless_kernel_1@D@dlib@@U?$less@V?$basic_string@DU?$char_traits@D@std@@V?$allocator@D@2@@std@@@2@@dlib@@V?$memory_manager_stateless_kernel_1@D@4@@dlib@@V?$map_kernel_1@V?$basic_string@DU?$char_traits@D@std@@V?$allocator@D@2@@std@@PAXV?$binary_search_tree_kernel_2@V?$basic_string@DU?$char_traits@D@std@@V?$allocator@D@2@@std@@PAXV?$memory_manager_stateless_kernel_1@D@dlib@@U?$less@V?$basic_string@DU?$char_traits@D@std@@V?$allocator@D@2@@std@@@2@@dlib@@V?$memory_manager_stateless_kernel_1@D@4@@2@Vtokenizer_kernel_1@2@@dlib@@AAE@K_N@Z ; dlib::config_reader_kernel_1<dlib::map_kernel_1<std::basic_string<char,std::char_traits<char>,std::allocator<char> >,std::basic_string<char,std::char_traits<char>,std::allocator<char> >,dlib::binary_search_tree_kernel_2<std::basic_string<char,std::char_traits<char>,std::allocator<char> >,std::basic_string<char,std::char_traits<char>,std::allocator<char> >,dlib::memory_manager_stateless_kernel_1<char>,std::less<std::basic_string<char,std::char_traits<char>,std::allocator<char> > > >,dlib::memory_manager_stateless_kernel_1<char> >,dlib::map_kernel_1<std::basic_string<char,std::char_traits<char>,std::allocator<char> >,void *,dlib::binary_search_tree_kernel_2<std::basic_string<char,std::char_traits<char>,std::allocator<char> >,void *,dlib::memory_manager_stateless_kernel_1<char>,std::less<std::basic_string<char,std::char_traits<char>,std::allocator<char> > > >,dlib::memory_manager_stateless_kernel_1<char> >,dlib::tokenizer_kernel_1>::config_reader_error::config_reader_error
PUBLIC	??1config_reader_error@?$config_reader_kernel_1@V?$map_kernel_1@V?$basic_string@DU?$char_traits@D@std@@V?$allocator@D@2@@std@@V12@V?$binary_search_tree_kernel_2@V?$basic_string@DU?$char_traits@D@std@@V?$allocator@D@2@@std@@V12@V?$memory_manager_stateless_kernel_1@D@dlib@@U?$less@V?$basic_string@DU?$char_traits@D@std@@V?$allocator@D@2@@std@@@2@@dlib@@V?$memory_manager_stateless_kernel_1@D@4@@dlib@@V?$map_kernel_1@V?$basic_string@DU?$char_traits@D@std@@V?$allocator@D@2@@std@@PAXV?$binary_search_tree_kernel_2@V?$basic_string@DU?$char_traits@D@std@@V?$allocator@D@2@@std@@PAXV?$memory_manager_stateless_kernel_1@D@dlib@@U?$less@V?$basic_string@DU?$char_traits@D@std@@V?$allocator@D@2@@std@@@2@@dlib@@V?$memory_manager_stateless_kernel_1@D@4@@2@Vtokenizer_kernel_1@2@@dlib@@UAE@XZ ; dlib::config_reader_kernel_1<dlib::map_kernel_1<std::basic_string<char,std::char_traits<char>,std::allocator<char> >,std::basic_string<char,std::char_traits<char>,std::allocator<char> >,dlib::binary_search_tree_kernel_2<std::basic_string<char,std::char_traits<char>,std::allocator<char> >,std::basic_string<char,std::char_traits<char>,std::allocator<char> >,dlib::memory_manager_stateless_kernel_1<char>,std::less<std::basic_string<char,std::char_traits<char>,std::allocator<char> > > >,dlib::memory_manager_stateless_kernel_1<char> >,dlib::map_kernel_1<std::basic_string<char,std::char_traits<char>,std::allocator<char> >,void *,dlib::binary_search_tree_kernel_2<std::basic_string<char,std::char_traits<char>,std::allocator<char> >,void *,dlib::memory_manager_stateless_kernel_1<char>,std::less<std::basic_string<char,std::char_traits<char>,std::allocator<char> > > >,dlib::memory_manager_stateless_kernel_1<char> >,dlib::tokenizer_kernel_1>::config_reader_error::~config_reader_error
PUBLIC	??_Gconfig_reader_error@?$config_reader_kernel_1@V?$map_kernel_1@V?$basic_string@DU?$char_traits@D@std@@V?$allocator@D@2@@std@@V12@V?$binary_search_tree_kernel_2@V?$basic_string@DU?$char_traits@D@std@@V?$allocator@D@2@@std@@V12@V?$memory_manager_stateless_kernel_1@D@dlib@@U?$less@V?$basic_string@DU?$char_traits@D@std@@V?$allocator@D@2@@std@@@2@@dlib@@V?$memory_manager_stateless_kernel_1@D@4@@dlib@@V?$map_kernel_1@V?$basic_string@DU?$char_traits@D@std@@V?$allocator@D@2@@std@@PAXV?$binary_search_tree_kernel_2@V?$basic_string@DU?$char_traits@D@std@@V?$allocator@D@2@@std@@PAXV?$memory_manager_stateless_kernel_1@D@dlib@@U?$less@V?$basic_string@DU?$char_traits@D@std@@V?$allocator@D@2@@std@@@2@@dlib@@V?$memory_manager_stateless_kernel_1@D@4@@2@Vtokenizer_kernel_1@2@@dlib@@UAEPAXI@Z ; dlib::config_reader_kernel_1<dlib::map_kernel_1<std::basic_string<char,std::char_traits<char>,std::allocator<char> >,std::basic_string<char,std::char_traits<char>,std::allocator<char> >,dlib::binary_search_tree_kernel_2<std::basic_string<char,std::char_traits<char>,std::allocator<char> >,std::basic_string<char,std::char_traits<char>,std::allocator<char> >,dlib::memory_manager_stateless_kernel_1<char>,std::less<std::basic_string<char,std::char_traits<char>,std::allocator<char> > > >,dlib::memory_manager_stateless_kernel_1<char> >,dlib::map_kernel_1<std::basic_string<char,std::char_traits<char>,std::allocator<char> >,void *,dlib::binary_search_tree_kernel_2<std::basic_string<char,std::char_traits<char>,std::allocator<char> >,void *,dlib::memory_manager_stateless_kernel_1<char>,std::less<std::basic_string<char,std::char_traits<char>,std::allocator<char> > > >,dlib::memory_manager_stateless_kernel_1<char> >,dlib::tokenizer_kernel_1>::config_reader_error::`scalar deleting destructor'
PUBLIC	??0config_reader_error@?$config_reader_kernel_1@V?$map_kernel_1@V?$basic_string@DU?$char_traits@D@std@@V?$allocator@D@2@@std@@V12@V?$binary_search_tree_kernel_2@V?$basic_string@DU?$char_traits@D@std@@V?$allocator@D@2@@std@@V12@V?$memory_manager_stateless_kernel_1@D@dlib@@U?$less@V?$basic_string@DU?$char_traits@D@std@@V?$allocator@D@2@@std@@@2@@dlib@@V?$memory_manager_stateless_kernel_1@D@4@@dlib@@V?$map_kernel_1@V?$basic_string@DU?$char_traits@D@std@@V?$allocator@D@2@@std@@PAXV?$binary_search_tree_kernel_2@V?$basic_string@DU?$char_traits@D@std@@V?$allocator@D@2@@std@@PAXV?$memory_manager_stateless_kernel_1@D@dlib@@U?$less@V?$basic_string@DU?$char_traits@D@std@@V?$allocator@D@2@@std@@@2@@dlib@@V?$memory_manager_stateless_kernel_1@D@4@@2@Vtokenizer_kernel_1@2@@dlib@@QAE@ABV012@@Z ; dlib::config_reader_kernel_1<dlib::map_kernel_1<std::basic_string<char,std::char_traits<char>,std::allocator<char> >,std::basic_string<char,std::char_traits<char>,std::allocator<char> >,dlib::binary_search_tree_kernel_2<std::basic_string<char,std::char_traits<char>,std::allocator<char> >,std::basic_string<char,std::char_traits<char>,std::allocator<char> >,dlib::memory_manager_stateless_kernel_1<char>,std::less<std::basic_string<char,std::char_traits<char>,std::allocator<char> > > >,dlib::memory_manager_stateless_kernel_1<char> >,dlib::map_kernel_1<std::basic_string<char,std::char_traits<char>,std::allocator<char> >,void *,dlib::binary_search_tree_kernel_2<std::basic_string<char,std::char_traits<char>,std::allocator<char> >,void *,dlib::memory_manager_stateless_kernel_1<char>,std::less<std::basic_string<char,std::char_traits<char>,std::allocator<char> > > >,dlib::memory_manager_stateless_kernel_1<char> >,dlib::tokenizer_kernel_1>::config_reader_error::config_reader_error
PUBLIC	?parse_config_file@?$config_reader_kernel_1@V?$map_kernel_1@V?$basic_string@DU?$char_traits@D@std@@V?$allocator@D@2@@std@@V12@V?$binary_search_tree_kernel_2@V?$basic_string@DU?$char_traits@D@std@@V?$allocator@D@2@@std@@V12@V?$memory_manager_stateless_kernel_1@D@dlib@@U?$less@V?$basic_string@DU?$char_traits@D@std@@V?$allocator@D@2@@std@@@2@@dlib@@V?$memory_manager_stateless_kernel_1@D@4@@dlib@@V?$map_kernel_1@V?$basic_string@DU?$char_traits@D@std@@V?$allocator@D@2@@std@@PAXV?$binary_search_tree_kernel_2@V?$basic_string@DU?$char_traits@D@std@@V?$allocator@D@2@@std@@PAXV?$memory_manager_stateless_kernel_1@D@dlib@@U?$less@V?$basic_string@DU?$char_traits@D@std@@V?$allocator@D@2@@std@@@2@@dlib@@V?$memory_manager_stateless_kernel_1@D@4@@2@Vtokenizer_kernel_1@2@@dlib@@CAXAAV12@AAVtokenizer_kernel_1@2@AAK_N@Z ; dlib::config_reader_kernel_1<dlib::map_kernel_1<std::basic_string<char,std::char_traits<char>,std::allocator<char> >,std::basic_string<char,std::char_traits<char>,std::allocator<char> >,dlib::binary_search_tree_kernel_2<std::basic_string<char,std::char_traits<char>,std::allocator<char> >,std::basic_string<char,std::char_traits<char>,std::allocator<char> >,dlib::memory_manager_stateless_kernel_1<char>,std::less<std::basic_string<char,std::char_traits<char>,std::allocator<char> > > >,dlib::memory_manager_stateless_kernel_1<char> >,dlib::map_kernel_1<std::basic_string<char,std::char_traits<char>,std::allocator<char> >,void *,dlib::binary_search_tree_kernel_2<std::basic_string<char,std::char_traits<char>,std::allocator<char> >,void *,dlib::memory_manager_stateless_kernel_1<char>,std::less<std::basic_string<char,std::char_traits<char>,std::allocator<char> > > >,dlib::memory_manager_stateless_kernel_1<char> >,dlib::tokenizer_kernel_1>::parse_config_file
PUBLIC	?load_from@?$config_reader_kernel_1@V?$map_kernel_1@V?$basic_string@DU?$char_traits@D@std@@V?$allocator@D@2@@std@@V12@V?$binary_search_tree_kernel_2@V?$basic_string@DU?$char_traits@D@std@@V?$allocator@D@2@@std@@V12@V?$memory_manager_stateless_kernel_1@D@dlib@@U?$less@V?$basic_string@DU?$char_traits@D@std@@V?$allocator@D@2@@std@@@2@@dlib@@V?$memory_manager_stateless_kernel_1@D@4@@dlib@@V?$map_kernel_1@V?$basic_string@DU?$char_traits@D@std@@V?$allocator@D@2@@std@@PAXV?$binary_search_tree_kernel_2@V?$basic_string@DU?$char_traits@D@std@@V?$allocator@D@2@@std@@PAXV?$memory_manager_stateless_kernel_1@D@dlib@@U?$less@V?$basic_string@DU?$char_traits@D@std@@V?$allocator@D@2@@std@@@2@@dlib@@V?$memory_manager_stateless_kernel_1@D@4@@2@Vtokenizer_kernel_1@2@@dlib@@QAEXAAV?$basic_istream@DU?$char_traits@D@std@@@std@@@Z ; dlib::config_reader_kernel_1<dlib::map_kernel_1<std::basic_string<char,std::char_traits<char>,std::allocator<char> >,std::basic_string<char,std::char_traits<char>,std::allocator<char> >,dlib::binary_search_tree_kernel_2<std::basic_string<char,std::char_traits<char>,std::allocator<char> >,std::basic_string<char,std::char_traits<char>,std::allocator<char> >,dlib::memory_manager_stateless_kernel_1<char>,std::less<std::basic_string<char,std::char_traits<char>,std::allocator<char> > > >,dlib::memory_manager_stateless_kernel_1<char> >,dlib::map_kernel_1<std::basic_string<char,std::char_traits<char>,std::allocator<char> >,void *,dlib::binary_search_tree_kernel_2<std::basic_string<char,std::char_traits<char>,std::allocator<char> >,void *,dlib::memory_manager_stateless_kernel_1<char>,std::less<std::basic_string<char,std::char_traits<char>,std::allocator<char> > > >,dlib::memory_manager_stateless_kernel_1<char> >,dlib::tokenizer_kernel_1>::load_from
PUBLIC	??0file_not_found@?$config_reader_kernel_1@V?$map_kernel_1@V?$basic_string@DU?$char_traits@D@std@@V?$allocator@D@2@@std@@V12@V?$binary_search_tree_kernel_2@V?$basic_string@DU?$char_traits@D@std@@V?$allocator@D@2@@std@@V12@V?$memory_manager_stateless_kernel_1@D@dlib@@U?$less@V?$basic_string@DU?$char_traits@D@std@@V?$allocator@D@2@@std@@@2@@dlib@@V?$memory_manager_stateless_kernel_1@D@4@@dlib@@V?$map_kernel_1@V?$basic_string@DU?$char_traits@D@std@@V?$allocator@D@2@@std@@PAXV?$binary_search_tree_kernel_2@V?$basic_string@DU?$char_traits@D@std@@V?$allocator@D@2@@std@@PAXV?$memory_manager_stateless_kernel_1@D@dlib@@U?$less@V?$basic_string@DU?$char_traits@D@std@@V?$allocator@D@2@@std@@@2@@dlib@@V?$memory_manager_stateless_kernel_1@D@4@@2@Vtokenizer_kernel_1@2@@dlib@@AAE@ABV?$basic_string@DU?$char_traits@D@std@@V?$allocator@D@2@@std@@@Z ; dlib::config_reader_kernel_1<dlib::map_kernel_1<std::basic_string<char,std::char_traits<char>,std::allocator<char> >,std::basic_string<char,std::char_traits<char>,std::allocator<char> >,dlib::binary_search_tree_kernel_2<std::basic_string<char,std::char_traits<char>,std::allocator<char> >,std::basic_string<char,std::char_traits<char>,std::allocator<char> >,dlib::memory_manager_stateless_kernel_1<char>,std::less<std::basic_string<char,std::char_traits<char>,std::allocator<char> > > >,dlib::memory_manager_stateless_kernel_1<char> >,dlib::map_kernel_1<std::basic_string<char,std::char_traits<char>,std::allocator<char> >,void *,dlib::binary_search_tree_kernel_2<std::basic_string<char,std::char_traits<char>,std::allocator<char> >,void *,dlib::memory_manager_stateless_kernel_1<char>,std::less<std::basic_string<char,std::char_traits<char>,std::allocator<char> > > >,dlib::memory_manager_stateless_kernel_1<char> >,dlib::tokenizer_kernel_1>::file_not_found::file_not_found
PUBLIC	??1file_not_found@?$config_reader_kernel_1@V?$map_kernel_1@V?$basic_string@DU?$char_traits@D@std@@V?$allocator@D@2@@std@@V12@V?$binary_search_tree_kernel_2@V?$basic_string@DU?$char_traits@D@std@@V?$allocator@D@2@@std@@V12@V?$memory_manager_stateless_kernel_1@D@dlib@@U?$less@V?$basic_string@DU?$char_traits@D@std@@V?$allocator@D@2@@std@@@2@@dlib@@V?$memory_manager_stateless_kernel_1@D@4@@dlib@@V?$map_kernel_1@V?$basic_string@DU?$char_traits@D@std@@V?$allocator@D@2@@std@@PAXV?$binary_search_tree_kernel_2@V?$basic_string@DU?$char_traits@D@std@@V?$allocator@D@2@@std@@PAXV?$memory_manager_stateless_kernel_1@D@dlib@@U?$less@V?$basic_string@DU?$char_traits@D@std@@V?$allocator@D@2@@std@@@2@@dlib@@V?$memory_manager_stateless_kernel_1@D@4@@2@Vtokenizer_kernel_1@2@@dlib@@EAE@XZ ; dlib::config_reader_kernel_1<dlib::map_kernel_1<std::basic_string<char,std::char_traits<char>,std::allocator<char> >,std::basic_string<char,std::char_traits<char>,std::allocator<char> >,dlib::binary_search_tree_kernel_2<std::basic_string<char,std::char_traits<char>,std::allocator<char> >,std::basic_string<char,std::char_traits<char>,std::allocator<char> >,dlib::memory_manager_stateless_kernel_1<char>,std::less<std::basic_string<char,std::char_traits<char>,std::allocator<char> > > >,dlib::memory_manager_stateless_kernel_1<char> >,dlib::map_kernel_1<std::basic_string<char,std::char_traits<char>,std::allocator<char> >,void *,dlib::binary_search_tree_kernel_2<std::basic_string<char,std::char_traits<char>,std::allocator<char> >,void *,dlib::memory_manager_stateless_kernel_1<char>,std::less<std::basic_string<char,std::char_traits<char>,std::allocator<char> > > >,dlib::memory_manager_stateless_kernel_1<char> >,dlib::tokenizer_kernel_1>::file_not_found::~file_not_found
PUBLIC	??_Gfile_not_found@?$config_reader_kernel_1@V?$map_kernel_1@V?$basic_string@DU?$char_traits@D@std@@V?$allocator@D@2@@std@@V12@V?$binary_search_tree_kernel_2@V?$basic_string@DU?$char_traits@D@std@@V?$allocator@D@2@@std@@V12@V?$memory_manager_stateless_kernel_1@D@dlib@@U?$less@V?$basic_string@DU?$char_traits@D@std@@V?$allocator@D@2@@std@@@2@@dlib@@V?$memory_manager_stateless_kernel_1@D@4@@dlib@@V?$map_kernel_1@V?$basic_string@DU?$char_traits@D@std@@V?$allocator@D@2@@std@@PAXV?$binary_search_tree_kernel_2@V?$basic_string@DU?$char_traits@D@std@@V?$allocator@D@2@@std@@PAXV?$memory_manager_stateless_kernel_1@D@dlib@@U?$less@V?$basic_string@DU?$char_traits@D@std@@V?$allocator@D@2@@std@@@2@@dlib@@V?$memory_manager_stateless_kernel_1@D@4@@2@Vtokenizer_kernel_1@2@@dlib@@EAEPAXI@Z ; dlib::config_reader_kernel_1<dlib::map_kernel_1<std::basic_string<char,std::char_traits<char>,std::allocator<char> >,std::basic_string<char,std::char_traits<char>,std::allocator<char> >,dlib::binary_search_tree_kernel_2<std::basic_string<char,std::char_traits<char>,std::allocator<char> >,std::basic_string<char,std::char_traits<char>,std::allocator<char> >,dlib::memory_manager_stateless_kernel_1<char>,std::less<std::basic_string<char,std::char_traits<char>,std::allocator<char> > > >,dlib::memory_manager_stateless_kernel_1<char> >,dlib::map_kernel_1<std::basic_string<char,std::char_traits<char>,std::allocator<char> >,void *,dlib::binary_search_tree_kernel_2<std::basic_string<char,std::char_traits<char>,std::allocator<char> >,void *,dlib::memory_manager_stateless_kernel_1<char>,std::less<std::basic_string<char,std::char_traits<char>,std::allocator<char> > > >,dlib::memory_manager_stateless_kernel_1<char> >,dlib::tokenizer_kernel_1>::file_not_found::`scalar deleting destructor'
PUBLIC	??0file_not_found@?$config_reader_kernel_1@V?$map_kernel_1@V?$basic_string@DU?$char_traits@D@std@@V?$allocator@D@2@@std@@V12@V?$binary_search_tree_kernel_2@V?$basic_string@DU?$char_traits@D@std@@V?$allocator@D@2@@std@@V12@V?$memory_manager_stateless_kernel_1@D@dlib@@U?$less@V?$basic_string@DU?$char_traits@D@std@@V?$allocator@D@2@@std@@@2@@dlib@@V?$memory_manager_stateless_kernel_1@D@4@@dlib@@V?$map_kernel_1@V?$basic_string@DU?$char_traits@D@std@@V?$allocator@D@2@@std@@PAXV?$binary_search_tree_kernel_2@V?$basic_string@DU?$char_traits@D@std@@V?$allocator@D@2@@std@@PAXV?$memory_manager_stateless_kernel_1@D@dlib@@U?$less@V?$basic_string@DU?$char_traits@D@std@@V?$allocator@D@2@@std@@@2@@dlib@@V?$memory_manager_stateless_kernel_1@D@4@@2@Vtokenizer_kernel_1@2@@dlib@@QAE@ABV012@@Z ; dlib::config_reader_kernel_1<dlib::map_kernel_1<std::basic_string<char,std::char_traits<char>,std::allocator<char> >,std::basic_string<char,std::char_traits<char>,std::allocator<char> >,dlib::binary_search_tree_kernel_2<std::basic_string<char,std::char_traits<char>,std::allocator<char> >,std::basic_string<char,std::char_traits<char>,std::allocator<char> >,dlib::memory_manager_stateless_kernel_1<char>,std::less<std::basic_string<char,std::char_traits<char>,std::allocator<char> > > >,dlib::memory_manager_stateless_kernel_1<char> >,dlib::map_kernel_1<std::basic_string<char,std::char_traits<char>,std::allocator<char> >,void *,dlib::binary_search_tree_kernel_2<std::basic_string<char,std::char_traits<char>,std::allocator<char> >,void *,dlib::memory_manager_stateless_kernel_1<char>,std::less<std::basic_string<char,std::char_traits<char>,std::allocator<char> > > >,dlib::memory_manager_stateless_kernel_1<char> >,dlib::tokenizer_kernel_1>::file_not_found::file_not_found
PUBLIC	?load_from@?$config_reader_kernel_1@V?$map_kernel_1@V?$basic_string@DU?$char_traits@D@std@@V?$allocator@D@2@@std@@V12@V?$binary_search_tree_kernel_2@V?$basic_string@DU?$char_traits@D@std@@V?$allocator@D@2@@std@@V12@V?$memory_manager_stateless_kernel_1@D@dlib@@U?$less@V?$basic_string@DU?$char_traits@D@std@@V?$allocator@D@2@@std@@@2@@dlib@@V?$memory_manager_stateless_kernel_1@D@4@@dlib@@V?$map_kernel_1@V?$basic_string@DU?$char_traits@D@std@@V?$allocator@D@2@@std@@PAXV?$binary_search_tree_kernel_2@V?$basic_string@DU?$char_traits@D@std@@V?$allocator@D@2@@std@@PAXV?$memory_manager_stateless_kernel_1@D@dlib@@U?$less@V?$basic_string@DU?$char_traits@D@std@@V?$allocator@D@2@@std@@@2@@dlib@@V?$memory_manager_stateless_kernel_1@D@4@@2@Vtokenizer_kernel_1@2@@dlib@@QAEXABV?$basic_string@DU?$char_traits@D@std@@V?$allocator@D@2@@std@@@Z ; dlib::config_reader_kernel_1<dlib::map_kernel_1<std::basic_string<char,std::char_traits<char>,std::allocator<char> >,std::basic_string<char,std::char_traits<char>,std::allocator<char> >,dlib::binary_search_tree_kernel_2<std::basic_string<char,std::char_traits<char>,std::allocator<char> >,std::basic_string<char,std::char_traits<char>,std::allocator<char> >,dlib::memory_manager_stateless_kernel_1<char>,std::less<std::basic_string<char,std::char_traits<char>,std::allocator<char> > > >,dlib::memory_manager_stateless_kernel_1<char> >,dlib::map_kernel_1<std::basic_string<char,std::char_traits<char>,std::allocator<char> >,void *,dlib::binary_search_tree_kernel_2<std::basic_string<char,std::char_traits<char>,std::allocator<char> >,void *,dlib::memory_manager_stateless_kernel_1<char>,std::less<std::basic_string<char,std::char_traits<char>,std::allocator<char> > > >,dlib::memory_manager_stateless_kernel_1<char> >,dlib::tokenizer_kernel_1>::load_from
PUBLIC	??0?$enumerable@V?$map_pair@V?$basic_string@DU?$char_traits@D@std@@V?$allocator@D@2@@std@@V12@@dlib@@@dlib@@QAE@XZ ; dlib::enumerable<dlib::map_pair<std::basic_string<char,std::char_traits<char>,std::allocator<char> >,std::basic_string<char,std::char_traits<char>,std::allocator<char> > > >::enumerable<dlib::map_pair<std::basic_string<char,std::char_traits<char>,std::allocator<char> >,std::basic_string<char,std::char_traits<char>,std::allocator<char> > > >
PUBLIC	??0?$pair_remover@V?$basic_string@DU?$char_traits@D@std@@V?$allocator@D@2@@std@@V12@@dlib@@QAE@XZ ; dlib::pair_remover<std::basic_string<char,std::char_traits<char>,std::allocator<char> >,std::basic_string<char,std::char_traits<char>,std::allocator<char> > >::pair_remover<std::basic_string<char,std::char_traits<char>,std::allocator<char> >,std::basic_string<char,std::char_traits<char>,std::allocator<char> > >
PUBLIC	??_G?$asc_pair_remover@V?$basic_string@DU?$char_traits@D@std@@V?$allocator@D@2@@std@@V12@U?$less@V?$basic_string@DU?$char_traits@D@std@@V?$allocator@D@2@@std@@@2@@dlib@@UAEPAXI@Z ; dlib::asc_pair_remover<std::basic_string<char,std::char_traits<char>,std::allocator<char> >,std::basic_string<char,std::char_traits<char>,std::allocator<char> >,std::less<std::basic_string<char,std::char_traits<char>,std::allocator<char> > > >::`scalar deleting destructor'
PUBLIC	??0?$asc_pair_remover@V?$basic_string@DU?$char_traits@D@std@@V?$allocator@D@2@@std@@V12@U?$less@V?$basic_string@DU?$char_traits@D@std@@V?$allocator@D@2@@std@@@2@@dlib@@QAE@XZ ; dlib::asc_pair_remover<std::basic_string<char,std::char_traits<char>,std::allocator<char> >,std::basic_string<char,std::char_traits<char>,std::allocator<char> >,std::less<std::basic_string<char,std::char_traits<char>,std::allocator<char> > > >::asc_pair_remover<std::basic_string<char,std::char_traits<char>,std::allocator<char> >,std::basic_string<char,std::char_traits<char>,std::allocator<char> >,std::less<std::basic_string<char,std::char_traits<char>,std::allocator<char> > > >
PUBLIC	??0?$memory_manager_stateless_kernel_1@Vnode@?$binary_search_tree_kernel_2@V?$basic_string@DU?$char_traits@D@std@@V?$allocator@D@2@@std@@V12@V?$memory_manager_stateless_kernel_1@D@dlib@@U?$less@V?$basic_string@DU?$char_traits@D@std@@V?$allocator@D@2@@std@@@2@@dlib@@@dlib@@QAE@XZ ; dlib::memory_manager_stateless_kernel_1<dlib::binary_search_tree_kernel_2<std::basic_string<char,std::char_traits<char>,std::allocator<char> >,std::basic_string<char,std::char_traits<char>,std::allocator<char> >,dlib::memory_manager_stateless_kernel_1<char>,std::less<std::basic_string<char,std::char_traits<char>,std::allocator<char> > > >::node>::memory_manager_stateless_kernel_1<dlib::binary_search_tree_kernel_2<std::basic_string<char,std::char_traits<char>,std::allocator<char> >,std::basic_string<char,std::char_traits<char>,std::allocator<char> >,dlib::memory_manager_stateless_kernel_1<char>,std::less<std::basic_string<char,std::char_traits<char>,std::allocator<char> > > >::node>
PUBLIC	??0node@?$binary_search_tree_kernel_2@V?$basic_string@DU?$char_traits@D@std@@V?$allocator@D@2@@std@@V12@V?$memory_manager_stateless_kernel_1@D@dlib@@U?$less@V?$basic_string@DU?$char_traits@D@std@@V?$allocator@D@2@@std@@@2@@dlib@@QAE@XZ ; dlib::binary_search_tree_kernel_2<std::basic_string<char,std::char_traits<char>,std::allocator<char> >,std::basic_string<char,std::char_traits<char>,std::allocator<char> >,dlib::memory_manager_stateless_kernel_1<char>,std::less<std::basic_string<char,std::char_traits<char>,std::allocator<char> > > >::node::node
PUBLIC	?allocate@?$memory_manager_stateless_kernel_1@Vnode@?$binary_search_tree_kernel_2@V?$basic_string@DU?$char_traits@D@std@@V?$allocator@D@2@@std@@V12@V?$memory_manager_stateless_kernel_1@D@dlib@@U?$less@V?$basic_string@DU?$char_traits@D@std@@V?$allocator@D@2@@std@@@2@@dlib@@@dlib@@QAEPAVnode@?$binary_search_tree_kernel_2@V?$basic_string@DU?$char_traits@D@std@@V?$allocator@D@2@@std@@V12@V?$memory_manager_stateless_kernel_1@D@dlib@@U?$less@V?$basic_string@DU?$char_traits@D@std@@V?$allocator@D@2@@std@@@2@@2@XZ ; dlib::memory_manager_stateless_kernel_1<dlib::binary_search_tree_kernel_2<std::basic_string<char,std::char_traits<char>,std::allocator<char> >,std::basic_string<char,std::char_traits<char>,std::allocator<char> >,dlib::memory_manager_stateless_kernel_1<char>,std::less<std::basic_string<char,std::char_traits<char>,std::allocator<char> > > >::node>::allocate
PUBLIC	??0?$map_pair@V?$basic_string@DU?$char_traits@D@std@@V?$allocator@D@2@@std@@V12@@dlib@@QAE@XZ ; dlib::map_pair<std::basic_string<char,std::char_traits<char>,std::allocator<char> >,std::basic_string<char,std::char_traits<char>,std::allocator<char> > >::map_pair<std::basic_string<char,std::char_traits<char>,std::allocator<char> >,std::basic_string<char,std::char_traits<char>,std::allocator<char> > >
PUBLIC	?key@mpair@?$binary_search_tree_kernel_2@V?$basic_string@DU?$char_traits@D@std@@V?$allocator@D@2@@std@@V12@V?$memory_manager_stateless_kernel_1@D@dlib@@U?$less@V?$basic_string@DU?$char_traits@D@std@@V?$allocator@D@2@@std@@@2@@dlib@@UBEABV?$basic_string@DU?$char_traits@D@std@@V?$allocator@D@2@@std@@XZ ; dlib::binary_search_tree_kernel_2<std::basic_string<char,std::char_traits<char>,std::allocator<char> >,std::basic_string<char,std::char_traits<char>,std::allocator<char> >,dlib::memory_manager_stateless_kernel_1<char>,std::less<std::basic_string<char,std::char_traits<char>,std::allocator<char> > > >::mpair::key
PUBLIC	?value@mpair@?$binary_search_tree_kernel_2@V?$basic_string@DU?$char_traits@D@std@@V?$allocator@D@2@@std@@V12@V?$memory_manager_stateless_kernel_1@D@dlib@@U?$less@V?$basic_string@DU?$char_traits@D@std@@V?$allocator@D@2@@std@@@2@@dlib@@UBEABV?$basic_string@DU?$char_traits@D@std@@V?$allocator@D@2@@std@@XZ ; dlib::binary_search_tree_kernel_2<std::basic_string<char,std::char_traits<char>,std::allocator<char> >,std::basic_string<char,std::char_traits<char>,std::allocator<char> >,dlib::memory_manager_stateless_kernel_1<char>,std::less<std::basic_string<char,std::char_traits<char>,std::allocator<char> > > >::mpair::value
PUBLIC	?value@mpair@?$binary_search_tree_kernel_2@V?$basic_string@DU?$char_traits@D@std@@V?$allocator@D@2@@std@@V12@V?$memory_manager_stateless_kernel_1@D@dlib@@U?$less@V?$basic_string@DU?$char_traits@D@std@@V?$allocator@D@2@@std@@@2@@dlib@@UAEAAV?$basic_string@DU?$char_traits@D@std@@V?$allocator@D@2@@std@@XZ ; dlib::binary_search_tree_kernel_2<std::basic_string<char,std::char_traits<char>,std::allocator<char> >,std::basic_string<char,std::char_traits<char>,std::allocator<char> >,dlib::memory_manager_stateless_kernel_1<char>,std::less<std::basic_string<char,std::char_traits<char>,std::allocator<char> > > >::mpair::value
PUBLIC	??_Gmpair@?$binary_search_tree_kernel_2@V?$basic_string@DU?$char_traits@D@std@@V?$allocator@D@2@@std@@V12@V?$memory_manager_stateless_kernel_1@D@dlib@@U?$less@V?$basic_string@DU?$char_traits@D@std@@V?$allocator@D@2@@std@@@2@@dlib@@UAEPAXI@Z ; dlib::binary_search_tree_kernel_2<std::basic_string<char,std::char_traits<char>,std::allocator<char> >,std::basic_string<char,std::char_traits<char>,std::allocator<char> >,dlib::memory_manager_stateless_kernel_1<char>,std::less<std::basic_string<char,std::char_traits<char>,std::allocator<char> > > >::mpair::`scalar deleting destructor'
PUBLIC	??0mpair@?$binary_search_tree_kernel_2@V?$basic_string@DU?$char_traits@D@std@@V?$allocator@D@2@@std@@V12@V?$memory_manager_stateless_kernel_1@D@dlib@@U?$less@V?$basic_string@DU?$char_traits@D@std@@V?$allocator@D@2@@std@@@2@@dlib@@QAE@XZ ; dlib::binary_search_tree_kernel_2<std::basic_string<char,std::char_traits<char>,std::allocator<char> >,std::basic_string<char,std::char_traits<char>,std::allocator<char> >,dlib::memory_manager_stateless_kernel_1<char>,std::less<std::basic_string<char,std::char_traits<char>,std::allocator<char> > > >::mpair::mpair
PUBLIC	??0?$binary_search_tree_kernel_2@V?$basic_string@DU?$char_traits@D@std@@V?$allocator@D@2@@std@@V12@V?$memory_manager_stateless_kernel_1@D@dlib@@U?$less@V?$basic_string@DU?$char_traits@D@std@@V?$allocator@D@2@@std@@@2@@dlib@@QAE@XZ ; dlib::binary_search_tree_kernel_2<std::basic_string<char,std::char_traits<char>,std::allocator<char> >,std::basic_string<char,std::char_traits<char>,std::allocator<char> >,dlib::memory_manager_stateless_kernel_1<char>,std::less<std::basic_string<char,std::char_traits<char>,std::allocator<char> > > >::binary_search_tree_kernel_2<std::basic_string<char,std::char_traits<char>,std::allocator<char> >,std::basic_string<char,std::char_traits<char>,std::allocator<char> >,dlib::memory_manager_stateless_kernel_1<char>,std::less<std::basic_string<char,std::char_traits<char>,std::allocator<char> > > >
PUBLIC	??0?$map_kernel_1@V?$basic_string@DU?$char_traits@D@std@@V?$allocator@D@2@@std@@V12@V?$binary_search_tree_kernel_2@V?$basic_string@DU?$char_traits@D@std@@V?$allocator@D@2@@std@@V12@V?$memory_manager_stateless_kernel_1@D@dlib@@U?$less@V?$basic_string@DU?$char_traits@D@std@@V?$allocator@D@2@@std@@@2@@dlib@@V?$memory_manager_stateless_kernel_1@D@4@@dlib@@QAE@XZ ; dlib::map_kernel_1<std::basic_string<char,std::char_traits<char>,std::allocator<char> >,std::basic_string<char,std::char_traits<char>,std::allocator<char> >,dlib::binary_search_tree_kernel_2<std::basic_string<char,std::char_traits<char>,std::allocator<char> >,std::basic_string<char,std::char_traits<char>,std::allocator<char> >,dlib::memory_manager_stateless_kernel_1<char>,std::less<std::basic_string<char,std::char_traits<char>,std::allocator<char> > > >,dlib::memory_manager_stateless_kernel_1<char> >::map_kernel_1<std::basic_string<char,std::char_traits<char>,std::allocator<char> >,std::basic_string<char,std::char_traits<char>,std::allocator<char> >,dlib::binary_search_tree_kernel_2<std::basic_string<char,std::char_traits<char>,std::allocator<char> >,std::basic_string<char,std::char_traits<char>,std::allocator<char> >,dlib::memory_manager_stateless_kernel_1<char>,std::less<std::basic_string<char,std::char_traits<char>,std::allocator<char> > > >,dlib::memory_manager_stateless_kernel_1<char> >
PUBLIC	??0?$enumerable@V?$map_pair@V?$basic_string@DU?$char_traits@D@std@@V?$allocator@D@2@@std@@PAX@dlib@@@dlib@@QAE@XZ ; dlib::enumerable<dlib::map_pair<std::basic_string<char,std::char_traits<char>,std::allocator<char> >,void *> >::enumerable<dlib::map_pair<std::basic_string<char,std::char_traits<char>,std::allocator<char> >,void *> >
PUBLIC	??0?$pair_remover@V?$basic_string@DU?$char_traits@D@std@@V?$allocator@D@2@@std@@PAX@dlib@@QAE@XZ ; dlib::pair_remover<std::basic_string<char,std::char_traits<char>,std::allocator<char> >,void *>::pair_remover<std::basic_string<char,std::char_traits<char>,std::allocator<char> >,void *>
PUBLIC	??_G?$asc_pair_remover@V?$basic_string@DU?$char_traits@D@std@@V?$allocator@D@2@@std@@PAXU?$less@V?$basic_string@DU?$char_traits@D@std@@V?$allocator@D@2@@std@@@2@@dlib@@UAEPAXI@Z ; dlib::asc_pair_remover<std::basic_string<char,std::char_traits<char>,std::allocator<char> >,void *,std::less<std::basic_string<char,std::char_traits<char>,std::allocator<char> > > >::`scalar deleting destructor'
PUBLIC	??0?$asc_pair_remover@V?$basic_string@DU?$char_traits@D@std@@V?$allocator@D@2@@std@@PAXU?$less@V?$basic_string@DU?$char_traits@D@std@@V?$allocator@D@2@@std@@@2@@dlib@@QAE@XZ ; dlib::asc_pair_remover<std::basic_string<char,std::char_traits<char>,std::allocator<char> >,void *,std::less<std::basic_string<char,std::char_traits<char>,std::allocator<char> > > >::asc_pair_remover<std::basic_string<char,std::char_traits<char>,std::allocator<char> >,void *,std::less<std::basic_string<char,std::char_traits<char>,std::allocator<char> > > >
PUBLIC	??0?$memory_manager_stateless_kernel_1@Vnode@?$binary_search_tree_kernel_2@V?$basic_string@DU?$char_traits@D@std@@V?$allocator@D@2@@std@@PAXV?$memory_manager_stateless_kernel_1@D@dlib@@U?$less@V?$basic_string@DU?$char_traits@D@std@@V?$allocator@D@2@@std@@@2@@dlib@@@dlib@@QAE@XZ ; dlib::memory_manager_stateless_kernel_1<dlib::binary_search_tree_kernel_2<std::basic_string<char,std::char_traits<char>,std::allocator<char> >,void *,dlib::memory_manager_stateless_kernel_1<char>,std::less<std::basic_string<char,std::char_traits<char>,std::allocator<char> > > >::node>::memory_manager_stateless_kernel_1<dlib::binary_search_tree_kernel_2<std::basic_string<char,std::char_traits<char>,std::allocator<char> >,void *,dlib::memory_manager_stateless_kernel_1<char>,std::less<std::basic_string<char,std::char_traits<char>,std::allocator<char> > > >::node>
PUBLIC	??0node@?$binary_search_tree_kernel_2@V?$basic_string@DU?$char_traits@D@std@@V?$allocator@D@2@@std@@PAXV?$memory_manager_stateless_kernel_1@D@dlib@@U?$less@V?$basic_string@DU?$char_traits@D@std@@V?$allocator@D@2@@std@@@2@@dlib@@QAE@XZ ; dlib::binary_search_tree_kernel_2<std::basic_string<char,std::char_traits<char>,std::allocator<char> >,void *,dlib::memory_manager_stateless_kernel_1<char>,std::less<std::basic_string<char,std::char_traits<char>,std::allocator<char> > > >::node::node
PUBLIC	?allocate@?$memory_manager_stateless_kernel_1@Vnode@?$binary_search_tree_kernel_2@V?$basic_string@DU?$char_traits@D@std@@V?$allocator@D@2@@std@@PAXV?$memory_manager_stateless_kernel_1@D@dlib@@U?$less@V?$basic_string@DU?$char_traits@D@std@@V?$allocator@D@2@@std@@@2@@dlib@@@dlib@@QAEPAVnode@?$binary_search_tree_kernel_2@V?$basic_string@DU?$char_traits@D@std@@V?$allocator@D@2@@std@@PAXV?$memory_manager_stateless_kernel_1@D@dlib@@U?$less@V?$basic_string@DU?$char_traits@D@std@@V?$allocator@D@2@@std@@@2@@2@XZ ; dlib::memory_manager_stateless_kernel_1<dlib::binary_search_tree_kernel_2<std::basic_string<char,std::char_traits<char>,std::allocator<char> >,void *,dlib::memory_manager_stateless_kernel_1<char>,std::less<std::basic_string<char,std::char_traits<char>,std::allocator<char> > > >::node>::allocate
PUBLIC	??0?$map_pair@V?$basic_string@DU?$char_traits@D@std@@V?$allocator@D@2@@std@@PAX@dlib@@QAE@XZ ; dlib::map_pair<std::basic_string<char,std::char_traits<char>,std::allocator<char> >,void *>::map_pair<std::basic_string<char,std::char_traits<char>,std::allocator<char> >,void *>
PUBLIC	?key@mpair@?$binary_search_tree_kernel_2@V?$basic_string@DU?$char_traits@D@std@@V?$allocator@D@2@@std@@PAXV?$memory_manager_stateless_kernel_1@D@dlib@@U?$less@V?$basic_string@DU?$char_traits@D@std@@V?$allocator@D@2@@std@@@2@@dlib@@UBEABV?$basic_string@DU?$char_traits@D@std@@V?$allocator@D@2@@std@@XZ ; dlib::binary_search_tree_kernel_2<std::basic_string<char,std::char_traits<char>,std::allocator<char> >,void *,dlib::memory_manager_stateless_kernel_1<char>,std::less<std::basic_string<char,std::char_traits<char>,std::allocator<char> > > >::mpair::key
PUBLIC	?value@mpair@?$binary_search_tree_kernel_2@V?$basic_string@DU?$char_traits@D@std@@V?$allocator@D@2@@std@@PAXV?$memory_manager_stateless_kernel_1@D@dlib@@U?$less@V?$basic_string@DU?$char_traits@D@std@@V?$allocator@D@2@@std@@@2@@dlib@@UBEABQAXXZ ; dlib::binary_search_tree_kernel_2<std::basic_string<char,std::char_traits<char>,std::allocator<char> >,void *,dlib::memory_manager_stateless_kernel_1<char>,std::less<std::basic_string<char,std::char_traits<char>,std::allocator<char> > > >::mpair::value
PUBLIC	?value@mpair@?$binary_search_tree_kernel_2@V?$basic_string@DU?$char_traits@D@std@@V?$allocator@D@2@@std@@PAXV?$memory_manager_stateless_kernel_1@D@dlib@@U?$less@V?$basic_string@DU?$char_traits@D@std@@V?$allocator@D@2@@std@@@2@@dlib@@UAEAAPAXXZ ; dlib::binary_search_tree_kernel_2<std::basic_string<char,std::char_traits<char>,std::allocator<char> >,void *,dlib::memory_manager_stateless_kernel_1<char>,std::less<std::basic_string<char,std::char_traits<char>,std::allocator<char> > > >::mpair::value
PUBLIC	??_Gmpair@?$binary_search_tree_kernel_2@V?$basic_string@DU?$char_traits@D@std@@V?$allocator@D@2@@std@@PAXV?$memory_manager_stateless_kernel_1@D@dlib@@U?$less@V?$basic_string@DU?$char_traits@D@std@@V?$allocator@D@2@@std@@@2@@dlib@@UAEPAXI@Z ; dlib::binary_search_tree_kernel_2<std::basic_string<char,std::char_traits<char>,std::allocator<char> >,void *,dlib::memory_manager_stateless_kernel_1<char>,std::less<std::basic_string<char,std::char_traits<char>,std::allocator<char> > > >::mpair::`scalar deleting destructor'
PUBLIC	??0mpair@?$binary_search_tree_kernel_2@V?$basic_string@DU?$char_traits@D@std@@V?$allocator@D@2@@std@@PAXV?$memory_manager_stateless_kernel_1@D@dlib@@U?$less@V?$basic_string@DU?$char_traits@D@std@@V?$allocator@D@2@@std@@@2@@dlib@@QAE@XZ ; dlib::binary_search_tree_kernel_2<std::basic_string<char,std::char_traits<char>,std::allocator<char> >,void *,dlib::memory_manager_stateless_kernel_1<char>,std::less<std::basic_string<char,std::char_traits<char>,std::allocator<char> > > >::mpair::mpair
PUBLIC	??0?$binary_search_tree_kernel_2@V?$basic_string@DU?$char_traits@D@std@@V?$allocator@D@2@@std@@PAXV?$memory_manager_stateless_kernel_1@D@dlib@@U?$less@V?$basic_string@DU?$char_traits@D@std@@V?$allocator@D@2@@std@@@2@@dlib@@QAE@XZ ; dlib::binary_search_tree_kernel_2<std::basic_string<char,std::char_traits<char>,std::allocator<char> >,void *,dlib::memory_manager_stateless_kernel_1<char>,std::less<std::basic_string<char,std::char_traits<char>,std::allocator<char> > > >::binary_search_tree_kernel_2<std::basic_string<char,std::char_traits<char>,std::allocator<char> >,void *,dlib::memory_manager_stateless_kernel_1<char>,std::less<std::basic_string<char,std::char_traits<char>,std::allocator<char> > > >
PUBLIC	??0?$map_kernel_1@V?$basic_string@DU?$char_traits@D@std@@V?$allocator@D@2@@std@@PAXV?$binary_search_tree_kernel_2@V?$basic_string@DU?$char_traits@D@std@@V?$allocator@D@2@@std@@PAXV?$memory_manager_stateless_kernel_1@D@dlib@@U?$less@V?$basic_string@DU?$char_traits@D@std@@V?$allocator@D@2@@std@@@2@@dlib@@V?$memory_manager_stateless_kernel_1@D@4@@dlib@@QAE@XZ ; dlib::map_kernel_1<std::basic_string<char,std::char_traits<char>,std::allocator<char> >,void *,dlib::binary_search_tree_kernel_2<std::basic_string<char,std::char_traits<char>,std::allocator<char> >,void *,dlib::memory_manager_stateless_kernel_1<char>,std::less<std::basic_string<char,std::char_traits<char>,std::allocator<char> > > >,dlib::memory_manager_stateless_kernel_1<char> >::map_kernel_1<std::basic_string<char,std::char_traits<char>,std::allocator<char> >,void *,dlib::binary_search_tree_kernel_2<std::basic_string<char,std::char_traits<char>,std::allocator<char> >,void *,dlib::memory_manager_stateless_kernel_1<char>,std::less<std::basic_string<char,std::char_traits<char>,std::allocator<char> > > >,dlib::memory_manager_stateless_kernel_1<char> >
PUBLIC	??0?$config_reader_kernel_1@V?$map_kernel_1@V?$basic_string@DU?$char_traits@D@std@@V?$allocator@D@2@@std@@V12@V?$binary_search_tree_kernel_2@V?$basic_string@DU?$char_traits@D@std@@V?$allocator@D@2@@std@@V12@V?$memory_manager_stateless_kernel_1@D@dlib@@U?$less@V?$basic_string@DU?$char_traits@D@std@@V?$allocator@D@2@@std@@@2@@dlib@@V?$memory_manager_stateless_kernel_1@D@4@@dlib@@V?$map_kernel_1@V?$basic_string@DU?$char_traits@D@std@@V?$allocator@D@2@@std@@PAXV?$binary_search_tree_kernel_2@V?$basic_string@DU?$char_traits@D@std@@V?$allocator@D@2@@std@@PAXV?$memory_manager_stateless_kernel_1@D@dlib@@U?$less@V?$basic_string@DU?$char_traits@D@std@@V?$allocator@D@2@@std@@@2@@dlib@@V?$memory_manager_stateless_kernel_1@D@4@@2@Vtokenizer_kernel_1@2@@dlib@@QAE@ABV?$basic_string@DU?$char_traits@D@std@@V?$allocator@D@2@@std@@@Z ; dlib::config_reader_kernel_1<dlib::map_kernel_1<std::basic_string<char,std::char_traits<char>,std::allocator<char> >,std::basic_string<char,std::char_traits<char>,std::allocator<char> >,dlib::binary_search_tree_kernel_2<std::basic_string<char,std::char_traits<char>,std::allocator<char> >,std::basic_string<char,std::char_traits<char>,std::allocator<char> >,dlib::memory_manager_stateless_kernel_1<char>,std::less<std::basic_string<char,std::char_traits<char>,std::allocator<char> > > >,dlib::memory_manager_stateless_kernel_1<char> >,dlib::map_kernel_1<std::basic_string<char,std::char_traits<char>,std::allocator<char> >,void *,dlib::binary_search_tree_kernel_2<std::basic_string<char,std::char_traits<char>,std::allocator<char> >,void *,dlib::memory_manager_stateless_kernel_1<char>,std::less<std::basic_string<char,std::char_traits<char>,std::allocator<char> > > >,dlib::memory_manager_stateless_kernel_1<char> >,dlib::tokenizer_kernel_1>::config_reader_kernel_1<dlib::map_kernel_1<std::basic_string<char,std::char_traits<char>,std::allocator<char> >,std::basic_string<char,std::char_traits<char>,std::allocator<char> >,dlib::binary_search_tree_kernel_2<std::basic_string<char,std::char_traits<char>,std::allocator<char> >,std::basic_string<char,std::char_traits<char>,std::allocator<char> >,dlib::memory_manager_stateless_kernel_1<char>,std::less<std::basic_string<char,std::char_traits<char>,std::allocator<char> > > >,dlib::memory_manager_stateless_kernel_1<char> >,dlib::map_kernel_1<std::basic_string<char,std::char_traits<char>,std::allocator<char> >,void *,dlib::binary_search_tree_kernel_2<std::basic_string<char,std::char_traits<char>,std::allocator<char> >,void *,dlib::memory_manager_stateless_kernel_1<char>,std::less<std::basic_string<char,std::char_traits<char>,std::allocator<char> > > >,dlib::memory_manager_stateless_kernel_1<char> >,dlib::tokenizer_kernel_1>
PUBLIC	?clear@?$binary_search_tree_kernel_2@V?$basic_string@DU?$char_traits@D@std@@V?$allocator@D@2@@std@@V12@V?$memory_manager_stateless_kernel_1@D@dlib@@U?$less@V?$basic_string@DU?$char_traits@D@std@@V?$allocator@D@2@@std@@@2@@dlib@@QAEXXZ ; dlib::binary_search_tree_kernel_2<std::basic_string<char,std::char_traits<char>,std::allocator<char> >,std::basic_string<char,std::char_traits<char>,std::allocator<char> >,dlib::memory_manager_stateless_kernel_1<char>,std::less<std::basic_string<char,std::char_traits<char>,std::allocator<char> > > >::clear
PUBLIC	?clear@?$map_kernel_1@V?$basic_string@DU?$char_traits@D@std@@V?$allocator@D@2@@std@@V12@V?$binary_search_tree_kernel_2@V?$basic_string@DU?$char_traits@D@std@@V?$allocator@D@2@@std@@V12@V?$memory_manager_stateless_kernel_1@D@dlib@@U?$less@V?$basic_string@DU?$char_traits@D@std@@V?$allocator@D@2@@std@@@2@@dlib@@V?$memory_manager_stateless_kernel_1@D@4@@dlib@@QAEXXZ ; dlib::map_kernel_1<std::basic_string<char,std::char_traits<char>,std::allocator<char> >,std::basic_string<char,std::char_traits<char>,std::allocator<char> >,dlib::binary_search_tree_kernel_2<std::basic_string<char,std::char_traits<char>,std::allocator<char> >,std::basic_string<char,std::char_traits<char>,std::allocator<char> >,dlib::memory_manager_stateless_kernel_1<char>,std::less<std::basic_string<char,std::char_traits<char>,std::allocator<char> > > >,dlib::memory_manager_stateless_kernel_1<char> >::clear
PUBLIC	?clear@?$binary_search_tree_kernel_2@V?$basic_string@DU?$char_traits@D@std@@V?$allocator@D@2@@std@@PAXV?$memory_manager_stateless_kernel_1@D@dlib@@U?$less@V?$basic_string@DU?$char_traits@D@std@@V?$allocator@D@2@@std@@@2@@dlib@@QAEXXZ ; dlib::binary_search_tree_kernel_2<std::basic_string<char,std::char_traits<char>,std::allocator<char> >,void *,dlib::memory_manager_stateless_kernel_1<char>,std::less<std::basic_string<char,std::char_traits<char>,std::allocator<char> > > >::clear
PUBLIC	?clear@?$map_kernel_1@V?$basic_string@DU?$char_traits@D@std@@V?$allocator@D@2@@std@@PAXV?$binary_search_tree_kernel_2@V?$basic_string@DU?$char_traits@D@std@@V?$allocator@D@2@@std@@PAXV?$memory_manager_stateless_kernel_1@D@dlib@@U?$less@V?$basic_string@DU?$char_traits@D@std@@V?$allocator@D@2@@std@@@2@@dlib@@V?$memory_manager_stateless_kernel_1@D@4@@dlib@@QAEXXZ ; dlib::map_kernel_1<std::basic_string<char,std::char_traits<char>,std::allocator<char> >,void *,dlib::binary_search_tree_kernel_2<std::basic_string<char,std::char_traits<char>,std::allocator<char> >,void *,dlib::memory_manager_stateless_kernel_1<char>,std::less<std::basic_string<char,std::char_traits<char>,std::allocator<char> > > >,dlib::memory_manager_stateless_kernel_1<char> >::clear
PUBLIC	?clear@?$config_reader_kernel_1@V?$map_kernel_1@V?$basic_string@DU?$char_traits@D@std@@V?$allocator@D@2@@std@@V12@V?$binary_search_tree_kernel_2@V?$basic_string@DU?$char_traits@D@std@@V?$allocator@D@2@@std@@V12@V?$memory_manager_stateless_kernel_1@D@dlib@@U?$less@V?$basic_string@DU?$char_traits@D@std@@V?$allocator@D@2@@std@@@2@@dlib@@V?$memory_manager_stateless_kernel_1@D@4@@dlib@@V?$map_kernel_1@V?$basic_string@DU?$char_traits@D@std@@V?$allocator@D@2@@std@@PAXV?$binary_search_tree_kernel_2@V?$basic_string@DU?$char_traits@D@std@@V?$allocator@D@2@@std@@PAXV?$memory_manager_stateless_kernel_1@D@dlib@@U?$less@V?$basic_string@DU?$char_traits@D@std@@V?$allocator@D@2@@std@@@2@@dlib@@V?$memory_manager_stateless_kernel_1@D@4@@2@Vtokenizer_kernel_1@2@@dlib@@QAEXXZ ; dlib::config_reader_kernel_1<dlib::map_kernel_1<std::basic_string<char,std::char_traits<char>,std::allocator<char> >,std::basic_string<char,std::char_traits<char>,std::allocator<char> >,dlib::binary_search_tree_kernel_2<std::basic_string<char,std::char_traits<char>,std::allocator<char> >,std::basic_string<char,std::char_traits<char>,std::allocator<char> >,dlib::memory_manager_stateless_kernel_1<char>,std::less<std::basic_string<char,std::char_traits<char>,std::allocator<char> > > >,dlib::memory_manager_stateless_kernel_1<char> >,dlib::map_kernel_1<std::basic_string<char,std::char_traits<char>,std::allocator<char> >,void *,dlib::binary_search_tree_kernel_2<std::basic_string<char,std::char_traits<char>,std::allocator<char> >,void *,dlib::memory_manager_stateless_kernel_1<char>,std::less<std::basic_string<char,std::char_traits<char>,std::allocator<char> > > >,dlib::memory_manager_stateless_kernel_1<char> >,dlib::tokenizer_kernel_1>::clear
PUBLIC	??1?$enumerable@V?$map_pair@V?$basic_string@DU?$char_traits@D@std@@V?$allocator@D@2@@std@@V12@@dlib@@@dlib@@UAE@XZ ; dlib::enumerable<dlib::map_pair<std::basic_string<char,std::char_traits<char>,std::allocator<char> >,std::basic_string<char,std::char_traits<char>,std::allocator<char> > > >::~enumerable<dlib::map_pair<std::basic_string<char,std::char_traits<char>,std::allocator<char> >,std::basic_string<char,std::char_traits<char>,std::allocator<char> > > >
PUBLIC	??_G?$pair_remover@V?$basic_string@DU?$char_traits@D@std@@V?$allocator@D@2@@std@@V12@@dlib@@UAEPAXI@Z ; dlib::pair_remover<std::basic_string<char,std::char_traits<char>,std::allocator<char> >,std::basic_string<char,std::char_traits<char>,std::allocator<char> > >::`scalar deleting destructor'
PUBLIC	??1?$pair_remover@V?$basic_string@DU?$char_traits@D@std@@V?$allocator@D@2@@std@@V12@@dlib@@UAE@XZ ; dlib::pair_remover<std::basic_string<char,std::char_traits<char>,std::allocator<char> >,std::basic_string<char,std::char_traits<char>,std::allocator<char> > >::~pair_remover<std::basic_string<char,std::char_traits<char>,std::allocator<char> >,std::basic_string<char,std::char_traits<char>,std::allocator<char> > >
PUBLIC	??1?$asc_pair_remover@V?$basic_string@DU?$char_traits@D@std@@V?$allocator@D@2@@std@@V12@U?$less@V?$basic_string@DU?$char_traits@D@std@@V?$allocator@D@2@@std@@@2@@dlib@@UAE@XZ ; dlib::asc_pair_remover<std::basic_string<char,std::char_traits<char>,std::allocator<char> >,std::basic_string<char,std::char_traits<char>,std::allocator<char> >,std::less<std::basic_string<char,std::char_traits<char>,std::allocator<char> > > >::~asc_pair_remover<std::basic_string<char,std::char_traits<char>,std::allocator<char> >,std::basic_string<char,std::char_traits<char>,std::allocator<char> >,std::less<std::basic_string<char,std::char_traits<char>,std::allocator<char> > > >
PUBLIC	?delete_tree@?$binary_search_tree_kernel_2@V?$basic_string@DU?$char_traits@D@std@@V?$allocator@D@2@@std@@V12@V?$memory_manager_stateless_kernel_1@D@dlib@@U?$less@V?$basic_string@DU?$char_traits@D@std@@V?$allocator@D@2@@std@@@2@@dlib@@AAEXPAVnode@12@@Z ; dlib::binary_search_tree_kernel_2<std::basic_string<char,std::char_traits<char>,std::allocator<char> >,std::basic_string<char,std::char_traits<char>,std::allocator<char> >,dlib::memory_manager_stateless_kernel_1<char>,std::less<std::basic_string<char,std::char_traits<char>,std::allocator<char> > > >::delete_tree
PUBLIC	??_G?$memory_manager_stateless_kernel_1@Vnode@?$binary_search_tree_kernel_2@V?$basic_string@DU?$char_traits@D@std@@V?$allocator@D@2@@std@@V12@V?$memory_manager_stateless_kernel_1@D@dlib@@U?$less@V?$basic_string@DU?$char_traits@D@std@@V?$allocator@D@2@@std@@@2@@dlib@@@dlib@@UAEPAXI@Z ; dlib::memory_manager_stateless_kernel_1<dlib::binary_search_tree_kernel_2<std::basic_string<char,std::char_traits<char>,std::allocator<char> >,std::basic_string<char,std::char_traits<char>,std::allocator<char> >,dlib::memory_manager_stateless_kernel_1<char>,std::less<std::basic_string<char,std::char_traits<char>,std::allocator<char> > > >::node>::`scalar deleting destructor'
PUBLIC	??1?$memory_manager_stateless_kernel_1@Vnode@?$binary_search_tree_kernel_2@V?$basic_string@DU?$char_traits@D@std@@V?$allocator@D@2@@std@@V12@V?$memory_manager_stateless_kernel_1@D@dlib@@U?$less@V?$basic_string@DU?$char_traits@D@std@@V?$allocator@D@2@@std@@@2@@dlib@@@dlib@@UAE@XZ ; dlib::memory_manager_stateless_kernel_1<dlib::binary_search_tree_kernel_2<std::basic_string<char,std::char_traits<char>,std::allocator<char> >,std::basic_string<char,std::char_traits<char>,std::allocator<char> >,dlib::memory_manager_stateless_kernel_1<char>,std::less<std::basic_string<char,std::char_traits<char>,std::allocator<char> > > >::node>::~memory_manager_stateless_kernel_1<dlib::binary_search_tree_kernel_2<std::basic_string<char,std::char_traits<char>,std::allocator<char> >,std::basic_string<char,std::char_traits<char>,std::allocator<char> >,dlib::memory_manager_stateless_kernel_1<char>,std::less<std::basic_string<char,std::char_traits<char>,std::allocator<char> > > >::node>
PUBLIC	??1?$map_pair@V?$basic_string@DU?$char_traits@D@std@@V?$allocator@D@2@@std@@V12@@dlib@@UAE@XZ ; dlib::map_pair<std::basic_string<char,std::char_traits<char>,std::allocator<char> >,std::basic_string<char,std::char_traits<char>,std::allocator<char> > >::~map_pair<std::basic_string<char,std::char_traits<char>,std::allocator<char> >,std::basic_string<char,std::char_traits<char>,std::allocator<char> > >
PUBLIC	??1mpair@?$binary_search_tree_kernel_2@V?$basic_string@DU?$char_traits@D@std@@V?$allocator@D@2@@std@@V12@V?$memory_manager_stateless_kernel_1@D@dlib@@U?$less@V?$basic_string@DU?$char_traits@D@std@@V?$allocator@D@2@@std@@@2@@dlib@@UAE@XZ ; dlib::binary_search_tree_kernel_2<std::basic_string<char,std::char_traits<char>,std::allocator<char> >,std::basic_string<char,std::char_traits<char>,std::allocator<char> >,dlib::memory_manager_stateless_kernel_1<char>,std::less<std::basic_string<char,std::char_traits<char>,std::allocator<char> > > >::mpair::~mpair
PUBLIC	?at_start@?$binary_search_tree_kernel_2@V?$basic_string@DU?$char_traits@D@std@@V?$allocator@D@2@@std@@V12@V?$memory_manager_stateless_kernel_1@D@dlib@@U?$less@V?$basic_string@DU?$char_traits@D@std@@V?$allocator@D@2@@std@@@2@@dlib@@UBE_NXZ ; dlib::binary_search_tree_kernel_2<std::basic_string<char,std::char_traits<char>,std::allocator<char> >,std::basic_string<char,std::char_traits<char>,std::allocator<char> >,dlib::memory_manager_stateless_kernel_1<char>,std::less<std::basic_string<char,std::char_traits<char>,std::allocator<char> > > >::at_start
PUBLIC	?reset@?$binary_search_tree_kernel_2@V?$basic_string@DU?$char_traits@D@std@@V?$allocator@D@2@@std@@V12@V?$memory_manager_stateless_kernel_1@D@dlib@@U?$less@V?$basic_string@DU?$char_traits@D@std@@V?$allocator@D@2@@std@@@2@@dlib@@UBEXXZ ; dlib::binary_search_tree_kernel_2<std::basic_string<char,std::char_traits<char>,std::allocator<char> >,std::basic_string<char,std::char_traits<char>,std::allocator<char> >,dlib::memory_manager_stateless_kernel_1<char>,std::less<std::basic_string<char,std::char_traits<char>,std::allocator<char> > > >::reset
PUBLIC	?current_element_valid@?$binary_search_tree_kernel_2@V?$basic_string@DU?$char_traits@D@std@@V?$allocator@D@2@@std@@V12@V?$memory_manager_stateless_kernel_1@D@dlib@@U?$less@V?$basic_string@DU?$char_traits@D@std@@V?$allocator@D@2@@std@@@2@@dlib@@UBE_NXZ ; dlib::binary_search_tree_kernel_2<std::basic_string<char,std::char_traits<char>,std::allocator<char> >,std::basic_string<char,std::char_traits<char>,std::allocator<char> >,dlib::memory_manager_stateless_kernel_1<char>,std::less<std::basic_string<char,std::char_traits<char>,std::allocator<char> > > >::current_element_valid
PUBLIC	?element@?$binary_search_tree_kernel_2@V?$basic_string@DU?$char_traits@D@std@@V?$allocator@D@2@@std@@V12@V?$memory_manager_stateless_kernel_1@D@dlib@@U?$less@V?$basic_string@DU?$char_traits@D@std@@V?$allocator@D@2@@std@@@2@@dlib@@UBEABV?$map_pair@V?$basic_string@DU?$char_traits@D@std@@V?$allocator@D@2@@std@@V12@@2@XZ ; dlib::binary_search_tree_kernel_2<std::basic_string<char,std::char_traits<char>,std::allocator<char> >,std::basic_string<char,std::char_traits<char>,std::allocator<char> >,dlib::memory_manager_stateless_kernel_1<char>,std::less<std::basic_string<char,std::char_traits<char>,std::allocator<char> > > >::element
PUBLIC	?element@?$binary_search_tree_kernel_2@V?$basic_string@DU?$char_traits@D@std@@V?$allocator@D@2@@std@@V12@V?$memory_manager_stateless_kernel_1@D@dlib@@U?$less@V?$basic_string@DU?$char_traits@D@std@@V?$allocator@D@2@@std@@@2@@dlib@@UAEAAV?$map_pair@V?$basic_string@DU?$char_traits@D@std@@V?$allocator@D@2@@std@@V12@@2@XZ ; dlib::binary_search_tree_kernel_2<std::basic_string<char,std::char_traits<char>,std::allocator<char> >,std::basic_string<char,std::char_traits<char>,std::allocator<char> >,dlib::memory_manager_stateless_kernel_1<char>,std::less<std::basic_string<char,std::char_traits<char>,std::allocator<char> > > >::element
PUBLIC	?move_next@?$binary_search_tree_kernel_2@V?$basic_string@DU?$char_traits@D@std@@V?$allocator@D@2@@std@@V12@V?$memory_manager_stateless_kernel_1@D@dlib@@U?$less@V?$basic_string@DU?$char_traits@D@std@@V?$allocator@D@2@@std@@@2@@dlib@@UBE_NXZ ; dlib::binary_search_tree_kernel_2<std::basic_string<char,std::char_traits<char>,std::allocator<char> >,std::basic_string<char,std::char_traits<char>,std::allocator<char> >,dlib::memory_manager_stateless_kernel_1<char>,std::less<std::basic_string<char,std::char_traits<char>,std::allocator<char> > > >::move_next
PUBLIC	?rotate_left@?$binary_search_tree_kernel_2@V?$basic_string@DU?$char_traits@D@std@@V?$allocator@D@2@@std@@V12@V?$memory_manager_stateless_kernel_1@D@dlib@@U?$less@V?$basic_string@DU?$char_traits@D@std@@V?$allocator@D@2@@std@@@2@@dlib@@AAEXPAVnode@12@@Z ; dlib::binary_search_tree_kernel_2<std::basic_string<char,std::char_traits<char>,std::allocator<char> >,std::basic_string<char,std::char_traits<char>,std::allocator<char> >,dlib::memory_manager_stateless_kernel_1<char>,std::less<std::basic_string<char,std::char_traits<char>,std::allocator<char> > > >::rotate_left
PUBLIC	?rotate_right@?$binary_search_tree_kernel_2@V?$basic_string@DU?$char_traits@D@std@@V?$allocator@D@2@@std@@V12@V?$memory_manager_stateless_kernel_1@D@dlib@@U?$less@V?$basic_string@DU?$char_traits@D@std@@V?$allocator@D@2@@std@@@2@@dlib@@AAEXPAVnode@12@@Z ; dlib::binary_search_tree_kernel_2<std::basic_string<char,std::char_traits<char>,std::allocator<char> >,std::basic_string<char,std::char_traits<char>,std::allocator<char> >,dlib::memory_manager_stateless_kernel_1<char>,std::less<std::basic_string<char,std::char_traits<char>,std::allocator<char> > > >::rotate_right
PUBLIC	?fix_after_remove@?$binary_search_tree_kernel_2@V?$basic_string@DU?$char_traits@D@std@@V?$allocator@D@2@@std@@V12@V?$memory_manager_stateless_kernel_1@D@dlib@@U?$less@V?$basic_string@DU?$char_traits@D@std@@V?$allocator@D@2@@std@@@2@@dlib@@AAEXPAVnode@12@@Z ; dlib::binary_search_tree_kernel_2<std::basic_string<char,std::char_traits<char>,std::allocator<char> >,std::basic_string<char,std::char_traits<char>,std::allocator<char> >,dlib::memory_manager_stateless_kernel_1<char>,std::less<std::basic_string<char,std::char_traits<char>,std::allocator<char> > > >::fix_after_remove
PUBLIC	??1node@?$binary_search_tree_kernel_2@V?$basic_string@DU?$char_traits@D@std@@V?$allocator@D@2@@std@@V12@V?$memory_manager_stateless_kernel_1@D@dlib@@U?$less@V?$basic_string@DU?$char_traits@D@std@@V?$allocator@D@2@@std@@@2@@dlib@@QAE@XZ ; dlib::binary_search_tree_kernel_2<std::basic_string<char,std::char_traits<char>,std::allocator<char> >,std::basic_string<char,std::char_traits<char>,std::allocator<char> >,dlib::memory_manager_stateless_kernel_1<char>,std::less<std::basic_string<char,std::char_traits<char>,std::allocator<char> > > >::node::~node
PUBLIC	??_Gnode@?$binary_search_tree_kernel_2@V?$basic_string@DU?$char_traits@D@std@@V?$allocator@D@2@@std@@V12@V?$memory_manager_stateless_kernel_1@D@dlib@@U?$less@V?$basic_string@DU?$char_traits@D@std@@V?$allocator@D@2@@std@@@2@@dlib@@QAEPAXI@Z ; dlib::binary_search_tree_kernel_2<std::basic_string<char,std::char_traits<char>,std::allocator<char> >,std::basic_string<char,std::char_traits<char>,std::allocator<char> >,dlib::memory_manager_stateless_kernel_1<char>,std::less<std::basic_string<char,std::char_traits<char>,std::allocator<char> > > >::node::`scalar deleting destructor'
PUBLIC	?deallocate@?$memory_manager_stateless_kernel_1@Vnode@?$binary_search_tree_kernel_2@V?$basic_string@DU?$char_traits@D@std@@V?$allocator@D@2@@std@@V12@V?$memory_manager_stateless_kernel_1@D@dlib@@U?$less@V?$basic_string@DU?$char_traits@D@std@@V?$allocator@D@2@@std@@@2@@dlib@@@dlib@@QAEXPAVnode@?$binary_search_tree_kernel_2@V?$basic_string@DU?$char_traits@D@std@@V?$allocator@D@2@@std@@V12@V?$memory_manager_stateless_kernel_1@D@dlib@@U?$less@V?$basic_string@DU?$char_traits@D@std@@V?$allocator@D@2@@std@@@2@@2@@Z ; dlib::memory_manager_stateless_kernel_1<dlib::binary_search_tree_kernel_2<std::basic_string<char,std::char_traits<char>,std::allocator<char> >,std::basic_string<char,std::char_traits<char>,std::allocator<char> >,dlib::memory_manager_stateless_kernel_1<char>,std::less<std::basic_string<char,std::char_traits<char>,std::allocator<char> > > >::node>::deallocate
PUBLIC	?remove_least_element_in_tree@?$binary_search_tree_kernel_2@V?$basic_string@DU?$char_traits@D@std@@V?$allocator@D@2@@std@@V12@V?$memory_manager_stateless_kernel_1@D@dlib@@U?$less@V?$basic_string@DU?$char_traits@D@std@@V?$allocator@D@2@@std@@@2@@dlib@@AAE_NPAVnode@12@AAV?$basic_string@DU?$char_traits@D@std@@V?$allocator@D@2@@std@@1@Z ; dlib::binary_search_tree_kernel_2<std::basic_string<char,std::char_traits<char>,std::allocator<char> >,std::basic_string<char,std::char_traits<char>,std::allocator<char> >,dlib::memory_manager_stateless_kernel_1<char>,std::less<std::basic_string<char,std::char_traits<char>,std::allocator<char> > > >::remove_least_element_in_tree
PUBLIC	?remove_any@?$binary_search_tree_kernel_2@V?$basic_string@DU?$char_traits@D@std@@V?$allocator@D@2@@std@@V12@V?$memory_manager_stateless_kernel_1@D@dlib@@U?$less@V?$basic_string@DU?$char_traits@D@std@@V?$allocator@D@2@@std@@@2@@dlib@@UAEXAAV?$basic_string@DU?$char_traits@D@std@@V?$allocator@D@2@@std@@0@Z ; dlib::binary_search_tree_kernel_2<std::basic_string<char,std::char_traits<char>,std::allocator<char> >,std::basic_string<char,std::char_traits<char>,std::allocator<char> >,dlib::memory_manager_stateless_kernel_1<char>,std::less<std::basic_string<char,std::char_traits<char>,std::allocator<char> > > >::remove_any
PUBLIC	??_G?$binary_search_tree_kernel_2@V?$basic_string@DU?$char_traits@D@std@@V?$allocator@D@2@@std@@V12@V?$memory_manager_stateless_kernel_1@D@dlib@@U?$less@V?$basic_string@DU?$char_traits@D@std@@V?$allocator@D@2@@std@@@2@@dlib@@UAEPAXI@Z ; dlib::binary_search_tree_kernel_2<std::basic_string<char,std::char_traits<char>,std::allocator<char> >,std::basic_string<char,std::char_traits<char>,std::allocator<char> >,dlib::memory_manager_stateless_kernel_1<char>,std::less<std::basic_string<char,std::char_traits<char>,std::allocator<char> > > >::`scalar deleting destructor'
PUBLIC	??_E?$binary_search_tree_kernel_2@V?$basic_string@DU?$char_traits@D@std@@V?$allocator@D@2@@std@@V12@V?$memory_manager_stateless_kernel_1@D@dlib@@U?$less@V?$basic_string@DU?$char_traits@D@std@@V?$allocator@D@2@@std@@@2@@dlib@@W3AEPAXI@Z ; [thunk]:dlib::binary_search_tree_kernel_2<std::basic_string<char,std::char_traits<char>,std::allocator<char> >,std::basic_string<char,std::char_traits<char>,std::allocator<char> >,dlib::memory_manager_stateless_kernel_1<char>,std::less<std::basic_string<char,std::char_traits<char>,std::allocator<char> > > >::`vector deleting destructor'
PUBLIC	?size@?$binary_search_tree_kernel_2@V?$basic_string@DU?$char_traits@D@std@@V?$allocator@D@2@@std@@V12@V?$memory_manager_stateless_kernel_1@D@dlib@@U?$less@V?$basic_string@DU?$char_traits@D@std@@V?$allocator@D@2@@std@@@2@@dlib@@UBEKXZ ; dlib::binary_search_tree_kernel_2<std::basic_string<char,std::char_traits<char>,std::allocator<char> >,std::basic_string<char,std::char_traits<char>,std::allocator<char> >,dlib::memory_manager_stateless_kernel_1<char>,std::less<std::basic_string<char,std::char_traits<char>,std::allocator<char> > > >::size
PUBLIC	?size@?$binary_search_tree_kernel_2@V?$basic_string@DU?$char_traits@D@std@@V?$allocator@D@2@@std@@V12@V?$memory_manager_stateless_kernel_1@D@dlib@@U?$less@V?$basic_string@DU?$char_traits@D@std@@V?$allocator@D@2@@std@@@2@@dlib@@W3BEKXZ ; [thunk]:dlib::binary_search_tree_kernel_2<std::basic_string<char,std::char_traits<char>,std::allocator<char> >,std::basic_string<char,std::char_traits<char>,std::allocator<char> >,dlib::memory_manager_stateless_kernel_1<char>,std::less<std::basic_string<char,std::char_traits<char>,std::allocator<char> > > >::size`adjustor{4}'
PUBLIC	??1?$binary_search_tree_kernel_2@V?$basic_string@DU?$char_traits@D@std@@V?$allocator@D@2@@std@@V12@V?$memory_manager_stateless_kernel_1@D@dlib@@U?$less@V?$basic_string@DU?$char_traits@D@std@@V?$allocator@D@2@@std@@@2@@dlib@@UAE@XZ ; dlib::binary_search_tree_kernel_2<std::basic_string<char,std::char_traits<char>,std::allocator<char> >,std::basic_string<char,std::char_traits<char>,std::allocator<char> >,dlib::memory_manager_stateless_kernel_1<char>,std::less<std::basic_string<char,std::char_traits<char>,std::allocator<char> > > >::~binary_search_tree_kernel_2<std::basic_string<char,std::char_traits<char>,std::allocator<char> >,std::basic_string<char,std::char_traits<char>,std::allocator<char> >,dlib::memory_manager_stateless_kernel_1<char>,std::less<std::basic_string<char,std::char_traits<char>,std::allocator<char> > > >
PUBLIC	?at_start@?$map_kernel_1@V?$basic_string@DU?$char_traits@D@std@@V?$allocator@D@2@@std@@V12@V?$binary_search_tree_kernel_2@V?$basic_string@DU?$char_traits@D@std@@V?$allocator@D@2@@std@@V12@V?$memory_manager_stateless_kernel_1@D@dlib@@U?$less@V?$basic_string@DU?$char_traits@D@std@@V?$allocator@D@2@@std@@@2@@dlib@@V?$memory_manager_stateless_kernel_1@D@4@@dlib@@UBE_NXZ ; dlib::map_kernel_1<std::basic_string<char,std::char_traits<char>,std::allocator<char> >,std::basic_string<char,std::char_traits<char>,std::allocator<char> >,dlib::binary_search_tree_kernel_2<std::basic_string<char,std::char_traits<char>,std::allocator<char> >,std::basic_string<char,std::char_traits<char>,std::allocator<char> >,dlib::memory_manager_stateless_kernel_1<char>,std::less<std::basic_string<char,std::char_traits<char>,std::allocator<char> > > >,dlib::memory_manager_stateless_kernel_1<char> >::at_start
PUBLIC	?reset@?$map_kernel_1@V?$basic_string@DU?$char_traits@D@std@@V?$allocator@D@2@@std@@V12@V?$binary_search_tree_kernel_2@V?$basic_string@DU?$char_traits@D@std@@V?$allocator@D@2@@std@@V12@V?$memory_manager_stateless_kernel_1@D@dlib@@U?$less@V?$basic_string@DU?$char_traits@D@std@@V?$allocator@D@2@@std@@@2@@dlib@@V?$memory_manager_stateless_kernel_1@D@4@@dlib@@UBEXXZ ; dlib::map_kernel_1<std::basic_string<char,std::char_traits<char>,std::allocator<char> >,std::basic_string<char,std::char_traits<char>,std::allocator<char> >,dlib::binary_search_tree_kernel_2<std::basic_string<char,std::char_traits<char>,std::allocator<char> >,std::basic_string<char,std::char_traits<char>,std::allocator<char> >,dlib::memory_manager_stateless_kernel_1<char>,std::less<std::basic_string<char,std::char_traits<char>,std::allocator<char> > > >,dlib::memory_manager_stateless_kernel_1<char> >::reset
PUBLIC	?current_element_valid@?$map_kernel_1@V?$basic_string@DU?$char_traits@D@std@@V?$allocator@D@2@@std@@V12@V?$binary_search_tree_kernel_2@V?$basic_string@DU?$char_traits@D@std@@V?$allocator@D@2@@std@@V12@V?$memory_manager_stateless_kernel_1@D@dlib@@U?$less@V?$basic_string@DU?$char_traits@D@std@@V?$allocator@D@2@@std@@@2@@dlib@@V?$memory_manager_stateless_kernel_1@D@4@@dlib@@UBE_NXZ ; dlib::map_kernel_1<std::basic_string<char,std::char_traits<char>,std::allocator<char> >,std::basic_string<char,std::char_traits<char>,std::allocator<char> >,dlib::binary_search_tree_kernel_2<std::basic_string<char,std::char_traits<char>,std::allocator<char> >,std::basic_string<char,std::char_traits<char>,std::allocator<char> >,dlib::memory_manager_stateless_kernel_1<char>,std::less<std::basic_string<char,std::char_traits<char>,std::allocator<char> > > >,dlib::memory_manager_stateless_kernel_1<char> >::current_element_valid
PUBLIC	?element@?$map_kernel_1@V?$basic_string@DU?$char_traits@D@std@@V?$allocator@D@2@@std@@V12@V?$binary_search_tree_kernel_2@V?$basic_string@DU?$char_traits@D@std@@V?$allocator@D@2@@std@@V12@V?$memory_manager_stateless_kernel_1@D@dlib@@U?$less@V?$basic_string@DU?$char_traits@D@std@@V?$allocator@D@2@@std@@@2@@dlib@@V?$memory_manager_stateless_kernel_1@D@4@@dlib@@UBEABV?$map_pair@V?$basic_string@DU?$char_traits@D@std@@V?$allocator@D@2@@std@@V12@@2@XZ ; dlib::map_kernel_1<std::basic_string<char,std::char_traits<char>,std::allocator<char> >,std::basic_string<char,std::char_traits<char>,std::allocator<char> >,dlib::binary_search_tree_kernel_2<std::basic_string<char,std::char_traits<char>,std::allocator<char> >,std::basic_string<char,std::char_traits<char>,std::allocator<char> >,dlib::memory_manager_stateless_kernel_1<char>,std::less<std::basic_string<char,std::char_traits<char>,std::allocator<char> > > >,dlib::memory_manager_stateless_kernel_1<char> >::element
PUBLIC	?element@?$map_kernel_1@V?$basic_string@DU?$char_traits@D@std@@V?$allocator@D@2@@std@@V12@V?$binary_search_tree_kernel_2@V?$basic_string@DU?$char_traits@D@std@@V?$allocator@D@2@@std@@V12@V?$memory_manager_stateless_kernel_1@D@dlib@@U?$less@V?$basic_string@DU?$char_traits@D@std@@V?$allocator@D@2@@std@@@2@@dlib@@V?$memory_manager_stateless_kernel_1@D@4@@dlib@@UAEAAV?$map_pair@V?$basic_string@DU?$char_traits@D@std@@V?$allocator@D@2@@std@@V12@@2@XZ ; dlib::map_kernel_1<std::basic_string<char,std::char_traits<char>,std::allocator<char> >,std::basic_string<char,std::char_traits<char>,std::allocator<char> >,dlib::binary_search_tree_kernel_2<std::basic_string<char,std::char_traits<char>,std::allocator<char> >,std::basic_string<char,std::char_traits<char>,std::allocator<char> >,dlib::memory_manager_stateless_kernel_1<char>,std::less<std::basic_string<char,std::char_traits<char>,std::allocator<char> > > >,dlib::memory_manager_stateless_kernel_1<char> >::element
PUBLIC	?move_next@?$map_kernel_1@V?$basic_string@DU?$char_traits@D@std@@V?$allocator@D@2@@std@@V12@V?$binary_search_tree_kernel_2@V?$basic_string@DU?$char_traits@D@std@@V?$allocator@D@2@@std@@V12@V?$memory_manager_stateless_kernel_1@D@dlib@@U?$less@V?$basic_string@DU?$char_traits@D@std@@V?$allocator@D@2@@std@@@2@@dlib@@V?$memory_manager_stateless_kernel_1@D@4@@dlib@@UBE_NXZ ; dlib::map_kernel_1<std::basic_string<char,std::char_traits<char>,std::allocator<char> >,std::basic_string<char,std::char_traits<char>,std::allocator<char> >,dlib::binary_search_tree_kernel_2<std::basic_string<char,std::char_traits<char>,std::allocator<char> >,std::basic_string<char,std::char_traits<char>,std::allocator<char> >,dlib::memory_manager_stateless_kernel_1<char>,std::less<std::basic_string<char,std::char_traits<char>,std::allocator<char> > > >,dlib::memory_manager_stateless_kernel_1<char> >::move_next
PUBLIC	?remove_any@?$map_kernel_1@V?$basic_string@DU?$char_traits@D@std@@V?$allocator@D@2@@std@@V12@V?$binary_search_tree_kernel_2@V?$basic_string@DU?$char_traits@D@std@@V?$allocator@D@2@@std@@V12@V?$memory_manager_stateless_kernel_1@D@dlib@@U?$less@V?$basic_string@DU?$char_traits@D@std@@V?$allocator@D@2@@std@@@2@@dlib@@V?$memory_manager_stateless_kernel_1@D@4@@dlib@@UAEXAAV?$basic_string@DU?$char_traits@D@std@@V?$allocator@D@2@@std@@0@Z ; dlib::map_kernel_1<std::basic_string<char,std::char_traits<char>,std::allocator<char> >,std::basic_string<char,std::char_traits<char>,std::allocator<char> >,dlib::binary_search_tree_kernel_2<std::basic_string<char,std::char_traits<char>,std::allocator<char> >,std::basic_string<char,std::char_traits<char>,std::allocator<char> >,dlib::memory_manager_stateless_kernel_1<char>,std::less<std::basic_string<char,std::char_traits<char>,std::allocator<char> > > >,dlib::memory_manager_stateless_kernel_1<char> >::remove_any
PUBLIC	??_G?$map_kernel_1@V?$basic_string@DU?$char_traits@D@std@@V?$allocator@D@2@@std@@V12@V?$binary_search_tree_kernel_2@V?$basic_string@DU?$char_traits@D@std@@V?$allocator@D@2@@std@@V12@V?$memory_manager_stateless_kernel_1@D@dlib@@U?$less@V?$basic_string@DU?$char_traits@D@std@@V?$allocator@D@2@@std@@@2@@dlib@@V?$memory_manager_stateless_kernel_1@D@4@@dlib@@UAEPAXI@Z ; dlib::map_kernel_1<std::basic_string<char,std::char_traits<char>,std::allocator<char> >,std::basic_string<char,std::char_traits<char>,std::allocator<char> >,dlib::binary_search_tree_kernel_2<std::basic_string<char,std::char_traits<char>,std::allocator<char> >,std::basic_string<char,std::char_traits<char>,std::allocator<char> >,dlib::memory_manager_stateless_kernel_1<char>,std::less<std::basic_string<char,std::char_traits<char>,std::allocator<char> > > >,dlib::memory_manager_stateless_kernel_1<char> >::`scalar deleting destructor'
PUBLIC	??_E?$map_kernel_1@V?$basic_string@DU?$char_traits@D@std@@V?$allocator@D@2@@std@@V12@V?$binary_search_tree_kernel_2@V?$basic_string@DU?$char_traits@D@std@@V?$allocator@D@2@@std@@V12@V?$memory_manager_stateless_kernel_1@D@dlib@@U?$less@V?$basic_string@DU?$char_traits@D@std@@V?$allocator@D@2@@std@@@2@@dlib@@V?$memory_manager_stateless_kernel_1@D@4@@dlib@@W3AEPAXI@Z ; [thunk]:dlib::map_kernel_1<std::basic_string<char,std::char_traits<char>,std::allocator<char> >,std::basic_string<char,std::char_traits<char>,std::allocator<char> >,dlib::binary_search_tree_kernel_2<std::basic_string<char,std::char_traits<char>,std::allocator<char> >,std::basic_string<char,std::char_traits<char>,std::allocator<char> >,dlib::memory_manager_stateless_kernel_1<char>,std::less<std::basic_string<char,std::char_traits<char>,std::allocator<char> > > >,dlib::memory_manager_stateless_kernel_1<char> >::`vector deleting destructor'
PUBLIC	?size@?$map_kernel_1@V?$basic_string@DU?$char_traits@D@std@@V?$allocator@D@2@@std@@V12@V?$binary_search_tree_kernel_2@V?$basic_string@DU?$char_traits@D@std@@V?$allocator@D@2@@std@@V12@V?$memory_manager_stateless_kernel_1@D@dlib@@U?$less@V?$basic_string@DU?$char_traits@D@std@@V?$allocator@D@2@@std@@@2@@dlib@@V?$memory_manager_stateless_kernel_1@D@4@@dlib@@UBEKXZ ; dlib::map_kernel_1<std::basic_string<char,std::char_traits<char>,std::allocator<char> >,std::basic_string<char,std::char_traits<char>,std::allocator<char> >,dlib::binary_search_tree_kernel_2<std::basic_string<char,std::char_traits<char>,std::allocator<char> >,std::basic_string<char,std::char_traits<char>,std::allocator<char> >,dlib::memory_manager_stateless_kernel_1<char>,std::less<std::basic_string<char,std::char_traits<char>,std::allocator<char> > > >,dlib::memory_manager_stateless_kernel_1<char> >::size
PUBLIC	?size@?$map_kernel_1@V?$basic_string@DU?$char_traits@D@std@@V?$allocator@D@2@@std@@V12@V?$binary_search_tree_kernel_2@V?$basic_string@DU?$char_traits@D@std@@V?$allocator@D@2@@std@@V12@V?$memory_manager_stateless_kernel_1@D@dlib@@U?$less@V?$basic_string@DU?$char_traits@D@std@@V?$allocator@D@2@@std@@@2@@dlib@@V?$memory_manager_stateless_kernel_1@D@4@@dlib@@W3BEKXZ ; [thunk]:dlib::map_kernel_1<std::basic_string<char,std::char_traits<char>,std::allocator<char> >,std::basic_string<char,std::char_traits<char>,std::allocator<char> >,dlib::binary_search_tree_kernel_2<std::basic_string<char,std::char_traits<char>,std::allocator<char> >,std::basic_string<char,std::char_traits<char>,std::allocator<char> >,dlib::memory_manager_stateless_kernel_1<char>,std::less<std::basic_string<char,std::char_traits<char>,std::allocator<char> > > >,dlib::memory_manager_stateless_kernel_1<char> >::size`adjustor{4}'
PUBLIC	??1?$map_kernel_1@V?$basic_string@DU?$char_traits@D@std@@V?$allocator@D@2@@std@@V12@V?$binary_search_tree_kernel_2@V?$basic_string@DU?$char_traits@D@std@@V?$allocator@D@2@@std@@V12@V?$memory_manager_stateless_kernel_1@D@dlib@@U?$less@V?$basic_string@DU?$char_traits@D@std@@V?$allocator@D@2@@std@@@2@@dlib@@V?$memory_manager_stateless_kernel_1@D@4@@dlib@@UAE@XZ ; dlib::map_kernel_1<std::basic_string<char,std::char_traits<char>,std::allocator<char> >,std::basic_string<char,std::char_traits<char>,std::allocator<char> >,dlib::binary_search_tree_kernel_2<std::basic_string<char,std::char_traits<char>,std::allocator<char> >,std::basic_string<char,std::char_traits<char>,std::allocator<char> >,dlib::memory_manager_stateless_kernel_1<char>,std::less<std::basic_string<char,std::char_traits<char>,std::allocator<char> > > >,dlib::memory_manager_stateless_kernel_1<char> >::~map_kernel_1<std::basic_string<char,std::char_traits<char>,std::allocator<char> >,std::basic_string<char,std::char_traits<char>,std::allocator<char> >,dlib::binary_search_tree_kernel_2<std::basic_string<char,std::char_traits<char>,std::allocator<char> >,std::basic_string<char,std::char_traits<char>,std::allocator<char> >,dlib::memory_manager_stateless_kernel_1<char>,std::less<std::basic_string<char,std::char_traits<char>,std::allocator<char> > > >,dlib::memory_manager_stateless_kernel_1<char> >
PUBLIC	??1?$enumerable@V?$map_pair@V?$basic_string@DU?$char_traits@D@std@@V?$allocator@D@2@@std@@PAX@dlib@@@dlib@@UAE@XZ ; dlib::enumerable<dlib::map_pair<std::basic_string<char,std::char_traits<char>,std::allocator<char> >,void *> >::~enumerable<dlib::map_pair<std::basic_string<char,std::char_traits<char>,std::allocator<char> >,void *> >
PUBLIC	??_G?$pair_remover@V?$basic_string@DU?$char_traits@D@std@@V?$allocator@D@2@@std@@PAX@dlib@@UAEPAXI@Z ; dlib::pair_remover<std::basic_string<char,std::char_traits<char>,std::allocator<char> >,void *>::`scalar deleting destructor'
PUBLIC	??1?$pair_remover@V?$basic_string@DU?$char_traits@D@std@@V?$allocator@D@2@@std@@PAX@dlib@@UAE@XZ ; dlib::pair_remover<std::basic_string<char,std::char_traits<char>,std::allocator<char> >,void *>::~pair_remover<std::basic_string<char,std::char_traits<char>,std::allocator<char> >,void *>
PUBLIC	??1?$asc_pair_remover@V?$basic_string@DU?$char_traits@D@std@@V?$allocator@D@2@@std@@PAXU?$less@V?$basic_string@DU?$char_traits@D@std@@V?$allocator@D@2@@std@@@2@@dlib@@UAE@XZ ; dlib::asc_pair_remover<std::basic_string<char,std::char_traits<char>,std::allocator<char> >,void *,std::less<std::basic_string<char,std::char_traits<char>,std::allocator<char> > > >::~asc_pair_remover<std::basic_string<char,std::char_traits<char>,std::allocator<char> >,void *,std::less<std::basic_string<char,std::char_traits<char>,std::allocator<char> > > >
PUBLIC	?delete_tree@?$binary_search_tree_kernel_2@V?$basic_string@DU?$char_traits@D@std@@V?$allocator@D@2@@std@@PAXV?$memory_manager_stateless_kernel_1@D@dlib@@U?$less@V?$basic_string@DU?$char_traits@D@std@@V?$allocator@D@2@@std@@@2@@dlib@@AAEXPAVnode@12@@Z ; dlib::binary_search_tree_kernel_2<std::basic_string<char,std::char_traits<char>,std::allocator<char> >,void *,dlib::memory_manager_stateless_kernel_1<char>,std::less<std::basic_string<char,std::char_traits<char>,std::allocator<char> > > >::delete_tree
PUBLIC	??_G?$memory_manager_stateless_kernel_1@Vnode@?$binary_search_tree_kernel_2@V?$basic_string@DU?$char_traits@D@std@@V?$allocator@D@2@@std@@PAXV?$memory_manager_stateless_kernel_1@D@dlib@@U?$less@V?$basic_string@DU?$char_traits@D@std@@V?$allocator@D@2@@std@@@2@@dlib@@@dlib@@UAEPAXI@Z ; dlib::memory_manager_stateless_kernel_1<dlib::binary_search_tree_kernel_2<std::basic_string<char,std::char_traits<char>,std::allocator<char> >,void *,dlib::memory_manager_stateless_kernel_1<char>,std::less<std::basic_string<char,std::char_traits<char>,std::allocator<char> > > >::node>::`scalar deleting destructor'
PUBLIC	??1?$memory_manager_stateless_kernel_1@Vnode@?$binary_search_tree_kernel_2@V?$basic_string@DU?$char_traits@D@std@@V?$allocator@D@2@@std@@PAXV?$memory_manager_stateless_kernel_1@D@dlib@@U?$less@V?$basic_string@DU?$char_traits@D@std@@V?$allocator@D@2@@std@@@2@@dlib@@@dlib@@UAE@XZ ; dlib::memory_manager_stateless_kernel_1<dlib::binary_search_tree_kernel_2<std::basic_string<char,std::char_traits<char>,std::allocator<char> >,void *,dlib::memory_manager_stateless_kernel_1<char>,std::less<std::basic_string<char,std::char_traits<char>,std::allocator<char> > > >::node>::~memory_manager_stateless_kernel_1<dlib::binary_search_tree_kernel_2<std::basic_string<char,std::char_traits<char>,std::allocator<char> >,void *,dlib::memory_manager_stateless_kernel_1<char>,std::less<std::basic_string<char,std::char_traits<char>,std::allocator<char> > > >::node>
PUBLIC	??1?$map_pair@V?$basic_string@DU?$char_traits@D@std@@V?$allocator@D@2@@std@@PAX@dlib@@UAE@XZ ; dlib::map_pair<std::basic_string<char,std::char_traits<char>,std::allocator<char> >,void *>::~map_pair<std::basic_string<char,std::char_traits<char>,std::allocator<char> >,void *>
PUBLIC	??1mpair@?$binary_search_tree_kernel_2@V?$basic_string@DU?$char_traits@D@std@@V?$allocator@D@2@@std@@PAXV?$memory_manager_stateless_kernel_1@D@dlib@@U?$less@V?$basic_string@DU?$char_traits@D@std@@V?$allocator@D@2@@std@@@2@@dlib@@UAE@XZ ; dlib::binary_search_tree_kernel_2<std::basic_string<char,std::char_traits<char>,std::allocator<char> >,void *,dlib::memory_manager_stateless_kernel_1<char>,std::less<std::basic_string<char,std::char_traits<char>,std::allocator<char> > > >::mpair::~mpair
PUBLIC	?at_start@?$binary_search_tree_kernel_2@V?$basic_string@DU?$char_traits@D@std@@V?$allocator@D@2@@std@@PAXV?$memory_manager_stateless_kernel_1@D@dlib@@U?$less@V?$basic_string@DU?$char_traits@D@std@@V?$allocator@D@2@@std@@@2@@dlib@@UBE_NXZ ; dlib::binary_search_tree_kernel_2<std::basic_string<char,std::char_traits<char>,std::allocator<char> >,void *,dlib::memory_manager_stateless_kernel_1<char>,std::less<std::basic_string<char,std::char_traits<char>,std::allocator<char> > > >::at_start
PUBLIC	?reset@?$binary_search_tree_kernel_2@V?$basic_string@DU?$char_traits@D@std@@V?$allocator@D@2@@std@@PAXV?$memory_manager_stateless_kernel_1@D@dlib@@U?$less@V?$basic_string@DU?$char_traits@D@std@@V?$allocator@D@2@@std@@@2@@dlib@@UBEXXZ ; dlib::binary_search_tree_kernel_2<std::basic_string<char,std::char_traits<char>,std::allocator<char> >,void *,dlib::memory_manager_stateless_kernel_1<char>,std::less<std::basic_string<char,std::char_traits<char>,std::allocator<char> > > >::reset
PUBLIC	?current_element_valid@?$binary_search_tree_kernel_2@V?$basic_string@DU?$char_traits@D@std@@V?$allocator@D@2@@std@@PAXV?$memory_manager_stateless_kernel_1@D@dlib@@U?$less@V?$basic_string@DU?$char_traits@D@std@@V?$allocator@D@2@@std@@@2@@dlib@@UBE_NXZ ; dlib::binary_search_tree_kernel_2<std::basic_string<char,std::char_traits<char>,std::allocator<char> >,void *,dlib::memory_manager_stateless_kernel_1<char>,std::less<std::basic_string<char,std::char_traits<char>,std::allocator<char> > > >::current_element_valid
PUBLIC	?element@?$binary_search_tree_kernel_2@V?$basic_string@DU?$char_traits@D@std@@V?$allocator@D@2@@std@@PAXV?$memory_manager_stateless_kernel_1@D@dlib@@U?$less@V?$basic_string@DU?$char_traits@D@std@@V?$allocator@D@2@@std@@@2@@dlib@@UBEABV?$map_pair@V?$basic_string@DU?$char_traits@D@std@@V?$allocator@D@2@@std@@PAX@2@XZ ; dlib::binary_search_tree_kernel_2<std::basic_string<char,std::char_traits<char>,std::allocator<char> >,void *,dlib::memory_manager_stateless_kernel_1<char>,std::less<std::basic_string<char,std::char_traits<char>,std::allocator<char> > > >::element
PUBLIC	?element@?$binary_search_tree_kernel_2@V?$basic_string@DU?$char_traits@D@std@@V?$allocator@D@2@@std@@PAXV?$memory_manager_stateless_kernel_1@D@dlib@@U?$less@V?$basic_string@DU?$char_traits@D@std@@V?$allocator@D@2@@std@@@2@@dlib@@UAEAAV?$map_pair@V?$basic_string@DU?$char_traits@D@std@@V?$allocator@D@2@@std@@PAX@2@XZ ; dlib::binary_search_tree_kernel_2<std::basic_string<char,std::char_traits<char>,std::allocator<char> >,void *,dlib::memory_manager_stateless_kernel_1<char>,std::less<std::basic_string<char,std::char_traits<char>,std::allocator<char> > > >::element
PUBLIC	?move_next@?$binary_search_tree_kernel_2@V?$basic_string@DU?$char_traits@D@std@@V?$allocator@D@2@@std@@PAXV?$memory_manager_stateless_kernel_1@D@dlib@@U?$less@V?$basic_string@DU?$char_traits@D@std@@V?$allocator@D@2@@std@@@2@@dlib@@UBE_NXZ ; dlib::binary_search_tree_kernel_2<std::basic_string<char,std::char_traits<char>,std::allocator<char> >,void *,dlib::memory_manager_stateless_kernel_1<char>,std::less<std::basic_string<char,std::char_traits<char>,std::allocator<char> > > >::move_next
PUBLIC	?rotate_left@?$binary_search_tree_kernel_2@V?$basic_string@DU?$char_traits@D@std@@V?$allocator@D@2@@std@@PAXV?$memory_manager_stateless_kernel_1@D@dlib@@U?$less@V?$basic_string@DU?$char_traits@D@std@@V?$allocator@D@2@@std@@@2@@dlib@@AAEXPAVnode@12@@Z ; dlib::binary_search_tree_kernel_2<std::basic_string<char,std::char_traits<char>,std::allocator<char> >,void *,dlib::memory_manager_stateless_kernel_1<char>,std::less<std::basic_string<char,std::char_traits<char>,std::allocator<char> > > >::rotate_left
PUBLIC	?rotate_right@?$binary_search_tree_kernel_2@V?$basic_string@DU?$char_traits@D@std@@V?$allocator@D@2@@std@@PAXV?$memory_manager_stateless_kernel_1@D@dlib@@U?$less@V?$basic_string@DU?$char_traits@D@std@@V?$allocator@D@2@@std@@@2@@dlib@@AAEXPAVnode@12@@Z ; dlib::binary_search_tree_kernel_2<std::basic_string<char,std::char_traits<char>,std::allocator<char> >,void *,dlib::memory_manager_stateless_kernel_1<char>,std::less<std::basic_string<char,std::char_traits<char>,std::allocator<char> > > >::rotate_right
PUBLIC	?fix_after_remove@?$binary_search_tree_kernel_2@V?$basic_string@DU?$char_traits@D@std@@V?$allocator@D@2@@std@@PAXV?$memory_manager_stateless_kernel_1@D@dlib@@U?$less@V?$basic_string@DU?$char_traits@D@std@@V?$allocator@D@2@@std@@@2@@dlib@@AAEXPAVnode@12@@Z ; dlib::binary_search_tree_kernel_2<std::basic_string<char,std::char_traits<char>,std::allocator<char> >,void *,dlib::memory_manager_stateless_kernel_1<char>,std::less<std::basic_string<char,std::char_traits<char>,std::allocator<char> > > >::fix_after_remove
PUBLIC	??1node@?$binary_search_tree_kernel_2@V?$basic_string@DU?$char_traits@D@std@@V?$allocator@D@2@@std@@PAXV?$memory_manager_stateless_kernel_1@D@dlib@@U?$less@V?$basic_string@DU?$char_traits@D@std@@V?$allocator@D@2@@std@@@2@@dlib@@QAE@XZ ; dlib::binary_search_tree_kernel_2<std::basic_string<char,std::char_traits<char>,std::allocator<char> >,void *,dlib::memory_manager_stateless_kernel_1<char>,std::less<std::basic_string<char,std::char_traits<char>,std::allocator<char> > > >::node::~node
PUBLIC	??_Gnode@?$binary_search_tree_kernel_2@V?$basic_string@DU?$char_traits@D@std@@V?$allocator@D@2@@std@@PAXV?$memory_manager_stateless_kernel_1@D@dlib@@U?$less@V?$basic_string@DU?$char_traits@D@std@@V?$allocator@D@2@@std@@@2@@dlib@@QAEPAXI@Z ; dlib::binary_search_tree_kernel_2<std::basic_string<char,std::char_traits<char>,std::allocator<char> >,void *,dlib::memory_manager_stateless_kernel_1<char>,std::less<std::basic_string<char,std::char_traits<char>,std::allocator<char> > > >::node::`scalar deleting destructor'
PUBLIC	?deallocate@?$memory_manager_stateless_kernel_1@Vnode@?$binary_search_tree_kernel_2@V?$basic_string@DU?$char_traits@D@std@@V?$allocator@D@2@@std@@PAXV?$memory_manager_stateless_kernel_1@D@dlib@@U?$less@V?$basic_string@DU?$char_traits@D@std@@V?$allocator@D@2@@std@@@2@@dlib@@@dlib@@QAEXPAVnode@?$binary_search_tree_kernel_2@V?$basic_string@DU?$char_traits@D@std@@V?$allocator@D@2@@std@@PAXV?$memory_manager_stateless_kernel_1@D@dlib@@U?$less@V?$basic_string@DU?$char_traits@D@std@@V?$allocator@D@2@@std@@@2@@2@@Z ; dlib::memory_manager_stateless_kernel_1<dlib::binary_search_tree_kernel_2<std::basic_string<char,std::char_traits<char>,std::allocator<char> >,void *,dlib::memory_manager_stateless_kernel_1<char>,std::less<std::basic_string<char,std::char_traits<char>,std::allocator<char> > > >::node>::deallocate
PUBLIC	??$_Move@AAT_Bxty@?$_String_val@DV?$allocator@D@std@@@std@@@std@@YA$$QAT_Bxty@?$_String_val@DV?$allocator@D@std@@@0@AAT120@@Z ; std::_Move<std::_String_val<char,std::allocator<char> >::_Bxty &>
PUBLIC	??$swap@T_Bxty@?$_String_val@DV?$allocator@D@std@@@std@@@std@@YAXAAT_Bxty@?$_String_val@DV?$allocator@D@std@@@0@0@Z ; std::swap<std::_String_val<char,std::allocator<char> >::_Bxty>
PUBLIC	??$_Move@AAI@std@@YA$$QAIAAI@Z			; std::_Move<unsigned int &>
PUBLIC	??$swap@I@std@@YAXAAI0@Z			; std::swap<unsigned int>
PUBLIC	?swap@?$basic_string@DU?$char_traits@D@std@@V?$allocator@D@2@@std@@QAEXAAV12@@Z ; std::basic_string<char,std::char_traits<char>,std::allocator<char> >::swap
PUBLIC	??$swap@DU?$char_traits@D@std@@V?$allocator@D@2@@std@@YAXAAV?$basic_string@DU?$char_traits@D@std@@V?$allocator@D@2@@0@0@Z ; std::swap<char,std::char_traits<char>,std::allocator<char> >
PUBLIC	??$exchange@V?$basic_string@DU?$char_traits@D@std@@V?$allocator@D@2@@std@@@dlib@@YAXAAV?$basic_string@DU?$char_traits@D@std@@V?$allocator@D@2@@std@@0@Z ; dlib::exchange<std::basic_string<char,std::char_traits<char>,std::allocator<char> > >
PUBLIC	??$_Move@AAPAX@std@@YA$$QAPAXAAPAX@Z		; std::_Move<void * &>
PUBLIC	??$swap@PAX@std@@YAXAAPAX0@Z			; std::swap<void *>
PUBLIC	??$exchange@PAX@dlib@@YAXAAPAX0@Z		; dlib::exchange<void *>
PUBLIC	?remove_least_element_in_tree@?$binary_search_tree_kernel_2@V?$basic_string@DU?$char_traits@D@std@@V?$allocator@D@2@@std@@PAXV?$memory_manager_stateless_kernel_1@D@dlib@@U?$less@V?$basic_string@DU?$char_traits@D@std@@V?$allocator@D@2@@std@@@2@@dlib@@AAE_NPAVnode@12@AAV?$basic_string@DU?$char_traits@D@std@@V?$allocator@D@2@@std@@AAPAX@Z ; dlib::binary_search_tree_kernel_2<std::basic_string<char,std::char_traits<char>,std::allocator<char> >,void *,dlib::memory_manager_stateless_kernel_1<char>,std::less<std::basic_string<char,std::char_traits<char>,std::allocator<char> > > >::remove_least_element_in_tree
PUBLIC	?remove_any@?$binary_search_tree_kernel_2@V?$basic_string@DU?$char_traits@D@std@@V?$allocator@D@2@@std@@PAXV?$memory_manager_stateless_kernel_1@D@dlib@@U?$less@V?$basic_string@DU?$char_traits@D@std@@V?$allocator@D@2@@std@@@2@@dlib@@UAEXAAV?$basic_string@DU?$char_traits@D@std@@V?$allocator@D@2@@std@@AAPAX@Z ; dlib::binary_search_tree_kernel_2<std::basic_string<char,std::char_traits<char>,std::allocator<char> >,void *,dlib::memory_manager_stateless_kernel_1<char>,std::less<std::basic_string<char,std::char_traits<char>,std::allocator<char> > > >::remove_any
PUBLIC	??_G?$binary_search_tree_kernel_2@V?$basic_string@DU?$char_traits@D@std@@V?$allocator@D@2@@std@@PAXV?$memory_manager_stateless_kernel_1@D@dlib@@U?$less@V?$basic_string@DU?$char_traits@D@std@@V?$allocator@D@2@@std@@@2@@dlib@@UAEPAXI@Z ; dlib::binary_search_tree_kernel_2<std::basic_string<char,std::char_traits<char>,std::allocator<char> >,void *,dlib::memory_manager_stateless_kernel_1<char>,std::less<std::basic_string<char,std::char_traits<char>,std::allocator<char> > > >::`scalar deleting destructor'
PUBLIC	??_E?$binary_search_tree_kernel_2@V?$basic_string@DU?$char_traits@D@std@@V?$allocator@D@2@@std@@PAXV?$memory_manager_stateless_kernel_1@D@dlib@@U?$less@V?$basic_string@DU?$char_traits@D@std@@V?$allocator@D@2@@std@@@2@@dlib@@W3AEPAXI@Z ; [thunk]:dlib::binary_search_tree_kernel_2<std::basic_string<char,std::char_traits<char>,std::allocator<char> >,void *,dlib::memory_manager_stateless_kernel_1<char>,std::less<std::basic_string<char,std::char_traits<char>,std::allocator<char> > > >::`vector deleting destructor'
PUBLIC	?size@?$binary_search_tree_kernel_2@V?$basic_string@DU?$char_traits@D@std@@V?$allocator@D@2@@std@@PAXV?$memory_manager_stateless_kernel_1@D@dlib@@U?$less@V?$basic_string@DU?$char_traits@D@std@@V?$allocator@D@2@@std@@@2@@dlib@@UBEKXZ ; dlib::binary_search_tree_kernel_2<std::basic_string<char,std::char_traits<char>,std::allocator<char> >,void *,dlib::memory_manager_stateless_kernel_1<char>,std::less<std::basic_string<char,std::char_traits<char>,std::allocator<char> > > >::size
PUBLIC	?size@?$binary_search_tree_kernel_2@V?$basic_string@DU?$char_traits@D@std@@V?$allocator@D@2@@std@@PAXV?$memory_manager_stateless_kernel_1@D@dlib@@U?$less@V?$basic_string@DU?$char_traits@D@std@@V?$allocator@D@2@@std@@@2@@dlib@@W3BEKXZ ; [thunk]:dlib::binary_search_tree_kernel_2<std::basic_string<char,std::char_traits<char>,std::allocator<char> >,void *,dlib::memory_manager_stateless_kernel_1<char>,std::less<std::basic_string<char,std::char_traits<char>,std::allocator<char> > > >::size`adjustor{4}'
PUBLIC	??1?$binary_search_tree_kernel_2@V?$basic_string@DU?$char_traits@D@std@@V?$allocator@D@2@@std@@PAXV?$memory_manager_stateless_kernel_1@D@dlib@@U?$less@V?$basic_string@DU?$char_traits@D@std@@V?$allocator@D@2@@std@@@2@@dlib@@UAE@XZ ; dlib::binary_search_tree_kernel_2<std::basic_string<char,std::char_traits<char>,std::allocator<char> >,void *,dlib::memory_manager_stateless_kernel_1<char>,std::less<std::basic_string<char,std::char_traits<char>,std::allocator<char> > > >::~binary_search_tree_kernel_2<std::basic_string<char,std::char_traits<char>,std::allocator<char> >,void *,dlib::memory_manager_stateless_kernel_1<char>,std::less<std::basic_string<char,std::char_traits<char>,std::allocator<char> > > >
PUBLIC	?at_start@?$map_kernel_1@V?$basic_string@DU?$char_traits@D@std@@V?$allocator@D@2@@std@@PAXV?$binary_search_tree_kernel_2@V?$basic_string@DU?$char_traits@D@std@@V?$allocator@D@2@@std@@PAXV?$memory_manager_stateless_kernel_1@D@dlib@@U?$less@V?$basic_string@DU?$char_traits@D@std@@V?$allocator@D@2@@std@@@2@@dlib@@V?$memory_manager_stateless_kernel_1@D@4@@dlib@@UBE_NXZ ; dlib::map_kernel_1<std::basic_string<char,std::char_traits<char>,std::allocator<char> >,void *,dlib::binary_search_tree_kernel_2<std::basic_string<char,std::char_traits<char>,std::allocator<char> >,void *,dlib::memory_manager_stateless_kernel_1<char>,std::less<std::basic_string<char,std::char_traits<char>,std::allocator<char> > > >,dlib::memory_manager_stateless_kernel_1<char> >::at_start
PUBLIC	?reset@?$map_kernel_1@V?$basic_string@DU?$char_traits@D@std@@V?$allocator@D@2@@std@@PAXV?$binary_search_tree_kernel_2@V?$basic_string@DU?$char_traits@D@std@@V?$allocator@D@2@@std@@PAXV?$memory_manager_stateless_kernel_1@D@dlib@@U?$less@V?$basic_string@DU?$char_traits@D@std@@V?$allocator@D@2@@std@@@2@@dlib@@V?$memory_manager_stateless_kernel_1@D@4@@dlib@@UBEXXZ ; dlib::map_kernel_1<std::basic_string<char,std::char_traits<char>,std::allocator<char> >,void *,dlib::binary_search_tree_kernel_2<std::basic_string<char,std::char_traits<char>,std::allocator<char> >,void *,dlib::memory_manager_stateless_kernel_1<char>,std::less<std::basic_string<char,std::char_traits<char>,std::allocator<char> > > >,dlib::memory_manager_stateless_kernel_1<char> >::reset
PUBLIC	?current_element_valid@?$map_kernel_1@V?$basic_string@DU?$char_traits@D@std@@V?$allocator@D@2@@std@@PAXV?$binary_search_tree_kernel_2@V?$basic_string@DU?$char_traits@D@std@@V?$allocator@D@2@@std@@PAXV?$memory_manager_stateless_kernel_1@D@dlib@@U?$less@V?$basic_string@DU?$char_traits@D@std@@V?$allocator@D@2@@std@@@2@@dlib@@V?$memory_manager_stateless_kernel_1@D@4@@dlib@@UBE_NXZ ; dlib::map_kernel_1<std::basic_string<char,std::char_traits<char>,std::allocator<char> >,void *,dlib::binary_search_tree_kernel_2<std::basic_string<char,std::char_traits<char>,std::allocator<char> >,void *,dlib::memory_manager_stateless_kernel_1<char>,std::less<std::basic_string<char,std::char_traits<char>,std::allocator<char> > > >,dlib::memory_manager_stateless_kernel_1<char> >::current_element_valid
PUBLIC	?element@?$map_kernel_1@V?$basic_string@DU?$char_traits@D@std@@V?$allocator@D@2@@std@@PAXV?$binary_search_tree_kernel_2@V?$basic_string@DU?$char_traits@D@std@@V?$allocator@D@2@@std@@PAXV?$memory_manager_stateless_kernel_1@D@dlib@@U?$less@V?$basic_string@DU?$char_traits@D@std@@V?$allocator@D@2@@std@@@2@@dlib@@V?$memory_manager_stateless_kernel_1@D@4@@dlib@@UBEABV?$map_pair@V?$basic_string@DU?$char_traits@D@std@@V?$allocator@D@2@@std@@PAX@2@XZ ; dlib::map_kernel_1<std::basic_string<char,std::char_traits<char>,std::allocator<char> >,void *,dlib::binary_search_tree_kernel_2<std::basic_string<char,std::char_traits<char>,std::allocator<char> >,void *,dlib::memory_manager_stateless_kernel_1<char>,std::less<std::basic_string<char,std::char_traits<char>,std::allocator<char> > > >,dlib::memory_manager_stateless_kernel_1<char> >::element
PUBLIC	?element@?$map_kernel_1@V?$basic_string@DU?$char_traits@D@std@@V?$allocator@D@2@@std@@PAXV?$binary_search_tree_kernel_2@V?$basic_string@DU?$char_traits@D@std@@V?$allocator@D@2@@std@@PAXV?$memory_manager_stateless_kernel_1@D@dlib@@U?$less@V?$basic_string@DU?$char_traits@D@std@@V?$allocator@D@2@@std@@@2@@dlib@@V?$memory_manager_stateless_kernel_1@D@4@@dlib@@UAEAAV?$map_pair@V?$basic_string@DU?$char_traits@D@std@@V?$allocator@D@2@@std@@PAX@2@XZ ; dlib::map_kernel_1<std::basic_string<char,std::char_traits<char>,std::allocator<char> >,void *,dlib::binary_search_tree_kernel_2<std::basic_string<char,std::char_traits<char>,std::allocator<char> >,void *,dlib::memory_manager_stateless_kernel_1<char>,std::less<std::basic_string<char,std::char_traits<char>,std::allocator<char> > > >,dlib::memory_manager_stateless_kernel_1<char> >::element
PUBLIC	?move_next@?$map_kernel_1@V?$basic_string@DU?$char_traits@D@std@@V?$allocator@D@2@@std@@PAXV?$binary_search_tree_kernel_2@V?$basic_string@DU?$char_traits@D@std@@V?$allocator@D@2@@std@@PAXV?$memory_manager_stateless_kernel_1@D@dlib@@U?$less@V?$basic_string@DU?$char_traits@D@std@@V?$allocator@D@2@@std@@@2@@dlib@@V?$memory_manager_stateless_kernel_1@D@4@@dlib@@UBE_NXZ ; dlib::map_kernel_1<std::basic_string<char,std::char_traits<char>,std::allocator<char> >,void *,dlib::binary_search_tree_kernel_2<std::basic_string<char,std::char_traits<char>,std::allocator<char> >,void *,dlib::memory_manager_stateless_kernel_1<char>,std::less<std::basic_string<char,std::char_traits<char>,std::allocator<char> > > >,dlib::memory_manager_stateless_kernel_1<char> >::move_next
PUBLIC	?remove_any@?$map_kernel_1@V?$basic_string@DU?$char_traits@D@std@@V?$allocator@D@2@@std@@PAXV?$binary_search_tree_kernel_2@V?$basic_string@DU?$char_traits@D@std@@V?$allocator@D@2@@std@@PAXV?$memory_manager_stateless_kernel_1@D@dlib@@U?$less@V?$basic_string@DU?$char_traits@D@std@@V?$allocator@D@2@@std@@@2@@dlib@@V?$memory_manager_stateless_kernel_1@D@4@@dlib@@UAEXAAV?$basic_string@DU?$char_traits@D@std@@V?$allocator@D@2@@std@@AAPAX@Z ; dlib::map_kernel_1<std::basic_string<char,std::char_traits<char>,std::allocator<char> >,void *,dlib::binary_search_tree_kernel_2<std::basic_string<char,std::char_traits<char>,std::allocator<char> >,void *,dlib::memory_manager_stateless_kernel_1<char>,std::less<std::basic_string<char,std::char_traits<char>,std::allocator<char> > > >,dlib::memory_manager_stateless_kernel_1<char> >::remove_any
PUBLIC	??_G?$map_kernel_1@V?$basic_string@DU?$char_traits@D@std@@V?$allocator@D@2@@std@@PAXV?$binary_search_tree_kernel_2@V?$basic_string@DU?$char_traits@D@std@@V?$allocator@D@2@@std@@PAXV?$memory_manager_stateless_kernel_1@D@dlib@@U?$less@V?$basic_string@DU?$char_traits@D@std@@V?$allocator@D@2@@std@@@2@@dlib@@V?$memory_manager_stateless_kernel_1@D@4@@dlib@@UAEPAXI@Z ; dlib::map_kernel_1<std::basic_string<char,std::char_traits<char>,std::allocator<char> >,void *,dlib::binary_search_tree_kernel_2<std::basic_string<char,std::char_traits<char>,std::allocator<char> >,void *,dlib::memory_manager_stateless_kernel_1<char>,std::less<std::basic_string<char,std::char_traits<char>,std::allocator<char> > > >,dlib::memory_manager_stateless_kernel_1<char> >::`scalar deleting destructor'
PUBLIC	??_E?$map_kernel_1@V?$basic_string@DU?$char_traits@D@std@@V?$allocator@D@2@@std@@PAXV?$binary_search_tree_kernel_2@V?$basic_string@DU?$char_traits@D@std@@V?$allocator@D@2@@std@@PAXV?$memory_manager_stateless_kernel_1@D@dlib@@U?$less@V?$basic_string@DU?$char_traits@D@std@@V?$allocator@D@2@@std@@@2@@dlib@@V?$memory_manager_stateless_kernel_1@D@4@@dlib@@W3AEPAXI@Z ; [thunk]:dlib::map_kernel_1<std::basic_string<char,std::char_traits<char>,std::allocator<char> >,void *,dlib::binary_search_tree_kernel_2<std::basic_string<char,std::char_traits<char>,std::allocator<char> >,void *,dlib::memory_manager_stateless_kernel_1<char>,std::less<std::basic_string<char,std::char_traits<char>,std::allocator<char> > > >,dlib::memory_manager_stateless_kernel_1<char> >::`vector deleting destructor'
PUBLIC	?size@?$map_kernel_1@V?$basic_string@DU?$char_traits@D@std@@V?$allocator@D@2@@std@@PAXV?$binary_search_tree_kernel_2@V?$basic_string@DU?$char_traits@D@std@@V?$allocator@D@2@@std@@PAXV?$memory_manager_stateless_kernel_1@D@dlib@@U?$less@V?$basic_string@DU?$char_traits@D@std@@V?$allocator@D@2@@std@@@2@@dlib@@V?$memory_manager_stateless_kernel_1@D@4@@dlib@@UBEKXZ ; dlib::map_kernel_1<std::basic_string<char,std::char_traits<char>,std::allocator<char> >,void *,dlib::binary_search_tree_kernel_2<std::basic_string<char,std::char_traits<char>,std::allocator<char> >,void *,dlib::memory_manager_stateless_kernel_1<char>,std::less<std::basic_string<char,std::char_traits<char>,std::allocator<char> > > >,dlib::memory_manager_stateless_kernel_1<char> >::size
PUBLIC	?size@?$map_kernel_1@V?$basic_string@DU?$char_traits@D@std@@V?$allocator@D@2@@std@@PAXV?$binary_search_tree_kernel_2@V?$basic_string@DU?$char_traits@D@std@@V?$allocator@D@2@@std@@PAXV?$memory_manager_stateless_kernel_1@D@dlib@@U?$less@V?$basic_string@DU?$char_traits@D@std@@V?$allocator@D@2@@std@@@2@@dlib@@V?$memory_manager_stateless_kernel_1@D@4@@dlib@@W3BEKXZ ; [thunk]:dlib::map_kernel_1<std::basic_string<char,std::char_traits<char>,std::allocator<char> >,void *,dlib::binary_search_tree_kernel_2<std::basic_string<char,std::char_traits<char>,std::allocator<char> >,void *,dlib::memory_manager_stateless_kernel_1<char>,std::less<std::basic_string<char,std::char_traits<char>,std::allocator<char> > > >,dlib::memory_manager_stateless_kernel_1<char> >::size`adjustor{4}'
PUBLIC	??1?$map_kernel_1@V?$basic_string@DU?$char_traits@D@std@@V?$allocator@D@2@@std@@PAXV?$binary_search_tree_kernel_2@V?$basic_string@DU?$char_traits@D@std@@V?$allocator@D@2@@std@@PAXV?$memory_manager_stateless_kernel_1@D@dlib@@U?$less@V?$basic_string@DU?$char_traits@D@std@@V?$allocator@D@2@@std@@@2@@dlib@@V?$memory_manager_stateless_kernel_1@D@4@@dlib@@UAE@XZ ; dlib::map_kernel_1<std::basic_string<char,std::char_traits<char>,std::allocator<char> >,void *,dlib::binary_search_tree_kernel_2<std::basic_string<char,std::char_traits<char>,std::allocator<char> >,void *,dlib::memory_manager_stateless_kernel_1<char>,std::less<std::basic_string<char,std::char_traits<char>,std::allocator<char> > > >,dlib::memory_manager_stateless_kernel_1<char> >::~map_kernel_1<std::basic_string<char,std::char_traits<char>,std::allocator<char> >,void *,dlib::binary_search_tree_kernel_2<std::basic_string<char,std::char_traits<char>,std::allocator<char> >,void *,dlib::memory_manager_stateless_kernel_1<char>,std::less<std::basic_string<char,std::char_traits<char>,std::allocator<char> > > >,dlib::memory_manager_stateless_kernel_1<char> >
PUBLIC	??_G?$config_reader_kernel_1@V?$map_kernel_1@V?$basic_string@DU?$char_traits@D@std@@V?$allocator@D@2@@std@@V12@V?$binary_search_tree_kernel_2@V?$basic_string@DU?$char_traits@D@std@@V?$allocator@D@2@@std@@V12@V?$memory_manager_stateless_kernel_1@D@dlib@@U?$less@V?$basic_string@DU?$char_traits@D@std@@V?$allocator@D@2@@std@@@2@@dlib@@V?$memory_manager_stateless_kernel_1@D@4@@dlib@@V?$map_kernel_1@V?$basic_string@DU?$char_traits@D@std@@V?$allocator@D@2@@std@@PAXV?$binary_search_tree_kernel_2@V?$basic_string@DU?$char_traits@D@std@@V?$allocator@D@2@@std@@PAXV?$memory_manager_stateless_kernel_1@D@dlib@@U?$less@V?$basic_string@DU?$char_traits@D@std@@V?$allocator@D@2@@std@@@2@@dlib@@V?$memory_manager_stateless_kernel_1@D@4@@2@Vtokenizer_kernel_1@2@@dlib@@UAEPAXI@Z ; dlib::config_reader_kernel_1<dlib::map_kernel_1<std::basic_string<char,std::char_traits<char>,std::allocator<char> >,std::basic_string<char,std::char_traits<char>,std::allocator<char> >,dlib::binary_search_tree_kernel_2<std::basic_string<char,std::char_traits<char>,std::allocator<char> >,std::basic_string<char,std::char_traits<char>,std::allocator<char> >,dlib::memory_manager_stateless_kernel_1<char>,std::less<std::basic_string<char,std::char_traits<char>,std::allocator<char> > > >,dlib::memory_manager_stateless_kernel_1<char> >,dlib::map_kernel_1<std::basic_string<char,std::char_traits<char>,std::allocator<char> >,void *,dlib::binary_search_tree_kernel_2<std::basic_string<char,std::char_traits<char>,std::allocator<char> >,void *,dlib::memory_manager_stateless_kernel_1<char>,std::less<std::basic_string<char,std::char_traits<char>,std::allocator<char> > > >,dlib::memory_manager_stateless_kernel_1<char> >,dlib::tokenizer_kernel_1>::`scalar deleting destructor'
PUBLIC	??1?$config_reader_kernel_1@V?$map_kernel_1@V?$basic_string@DU?$char_traits@D@std@@V?$allocator@D@2@@std@@V12@V?$binary_search_tree_kernel_2@V?$basic_string@DU?$char_traits@D@std@@V?$allocator@D@2@@std@@V12@V?$memory_manager_stateless_kernel_1@D@dlib@@U?$less@V?$basic_string@DU?$char_traits@D@std@@V?$allocator@D@2@@std@@@2@@dlib@@V?$memory_manager_stateless_kernel_1@D@4@@dlib@@V?$map_kernel_1@V?$basic_string@DU?$char_traits@D@std@@V?$allocator@D@2@@std@@PAXV?$binary_search_tree_kernel_2@V?$basic_string@DU?$char_traits@D@std@@V?$allocator@D@2@@std@@PAXV?$memory_manager_stateless_kernel_1@D@dlib@@U?$less@V?$basic_string@DU?$char_traits@D@std@@V?$allocator@D@2@@std@@@2@@dlib@@V?$memory_manager_stateless_kernel_1@D@4@@2@Vtokenizer_kernel_1@2@@dlib@@UAE@XZ ; dlib::config_reader_kernel_1<dlib::map_kernel_1<std::basic_string<char,std::char_traits<char>,std::allocator<char> >,std::basic_string<char,std::char_traits<char>,std::allocator<char> >,dlib::binary_search_tree_kernel_2<std::basic_string<char,std::char_traits<char>,std::allocator<char> >,std::basic_string<char,std::char_traits<char>,std::allocator<char> >,dlib::memory_manager_stateless_kernel_1<char>,std::less<std::basic_string<char,std::char_traits<char>,std::allocator<char> > > >,dlib::memory_manager_stateless_kernel_1<char> >,dlib::map_kernel_1<std::basic_string<char,std::char_traits<char>,std::allocator<char> >,void *,dlib::binary_search_tree_kernel_2<std::basic_string<char,std::char_traits<char>,std::allocator<char> >,void *,dlib::memory_manager_stateless_kernel_1<char>,std::less<std::basic_string<char,std::char_traits<char>,std::allocator<char> > > >,dlib::memory_manager_stateless_kernel_1<char> >,dlib::tokenizer_kernel_1>::~config_reader_kernel_1<dlib::map_kernel_1<std::basic_string<char,std::char_traits<char>,std::allocator<char> >,std::basic_string<char,std::char_traits<char>,std::allocator<char> >,dlib::binary_search_tree_kernel_2<std::basic_string<char,std::char_traits<char>,std::allocator<char> >,std::basic_string<char,std::char_traits<char>,std::allocator<char> >,dlib::memory_manager_stateless_kernel_1<char>,std::less<std::basic_string<char,std::char_traits<char>,std::allocator<char> > > >,dlib::memory_manager_stateless_kernel_1<char> >,dlib::map_kernel_1<std::basic_string<char,std::char_traits<char>,std::allocator<char> >,void *,dlib::binary_search_tree_kernel_2<std::basic_string<char,std::char_traits<char>,std::allocator<char> >,void *,dlib::memory_manager_stateless_kernel_1<char>,std::less<std::basic_string<char,std::char_traits<char>,std::allocator<char> > > >,dlib::memory_manager_stateless_kernel_1<char> >,dlib::tokenizer_kernel_1>
PUBLIC	?is_in_domain@?$map_kernel_1@V?$basic_string@DU?$char_traits@D@std@@V?$allocator@D@2@@std@@PAXV?$binary_search_tree_kernel_2@V?$basic_string@DU?$char_traits@D@std@@V?$allocator@D@2@@std@@PAXV?$memory_manager_stateless_kernel_1@D@dlib@@U?$less@V?$basic_string@DU?$char_traits@D@std@@V?$allocator@D@2@@std@@@2@@dlib@@V?$memory_manager_stateless_kernel_1@D@4@@dlib@@QBE_NABV?$basic_string@DU?$char_traits@D@std@@V?$allocator@D@2@@std@@@Z ; dlib::map_kernel_1<std::basic_string<char,std::char_traits<char>,std::allocator<char> >,void *,dlib::binary_search_tree_kernel_2<std::basic_string<char,std::char_traits<char>,std::allocator<char> >,void *,dlib::memory_manager_stateless_kernel_1<char>,std::less<std::basic_string<char,std::char_traits<char>,std::allocator<char> > > >,dlib::memory_manager_stateless_kernel_1<char> >::is_in_domain
PUBLIC	?is_block_defined@?$config_reader_kernel_1@V?$map_kernel_1@V?$basic_string@DU?$char_traits@D@std@@V?$allocator@D@2@@std@@V12@V?$binary_search_tree_kernel_2@V?$basic_string@DU?$char_traits@D@std@@V?$allocator@D@2@@std@@V12@V?$memory_manager_stateless_kernel_1@D@dlib@@U?$less@V?$basic_string@DU?$char_traits@D@std@@V?$allocator@D@2@@std@@@2@@dlib@@V?$memory_manager_stateless_kernel_1@D@4@@dlib@@V?$map_kernel_1@V?$basic_string@DU?$char_traits@D@std@@V?$allocator@D@2@@std@@PAXV?$binary_search_tree_kernel_2@V?$basic_string@DU?$char_traits@D@std@@V?$allocator@D@2@@std@@PAXV?$memory_manager_stateless_kernel_1@D@dlib@@U?$less@V?$basic_string@DU?$char_traits@D@std@@V?$allocator@D@2@@std@@@2@@dlib@@V?$memory_manager_stateless_kernel_1@D@4@@2@Vtokenizer_kernel_1@2@@dlib@@QBE_NABV?$basic_string@DU?$char_traits@D@std@@V?$allocator@D@2@@std@@@Z ; dlib::config_reader_kernel_1<dlib::map_kernel_1<std::basic_string<char,std::char_traits<char>,std::allocator<char> >,std::basic_string<char,std::char_traits<char>,std::allocator<char> >,dlib::binary_search_tree_kernel_2<std::basic_string<char,std::char_traits<char>,std::allocator<char> >,std::basic_string<char,std::char_traits<char>,std::allocator<char> >,dlib::memory_manager_stateless_kernel_1<char>,std::less<std::basic_string<char,std::char_traits<char>,std::allocator<char> > > >,dlib::memory_manager_stateless_kernel_1<char> >,dlib::map_kernel_1<std::basic_string<char,std::char_traits<char>,std::allocator<char> >,void *,dlib::binary_search_tree_kernel_2<std::basic_string<char,std::char_traits<char>,std::allocator<char> >,void *,dlib::memory_manager_stateless_kernel_1<char>,std::less<std::basic_string<char,std::char_traits<char>,std::allocator<char> > > >,dlib::memory_manager_stateless_kernel_1<char> >,dlib::tokenizer_kernel_1>::is_block_defined
PUBLIC	?return_reference@?$binary_search_tree_kernel_2@V?$basic_string@DU?$char_traits@D@std@@V?$allocator@D@2@@std@@PAXV?$memory_manager_stateless_kernel_1@D@dlib@@U?$less@V?$basic_string@DU?$char_traits@D@std@@V?$allocator@D@2@@std@@@2@@dlib@@ABEPBQAXPBVnode@12@ABV?$basic_string@DU?$char_traits@D@std@@V?$allocator@D@2@@std@@@Z ; dlib::binary_search_tree_kernel_2<std::basic_string<char,std::char_traits<char>,std::allocator<char> >,void *,dlib::memory_manager_stateless_kernel_1<char>,std::less<std::basic_string<char,std::char_traits<char>,std::allocator<char> > > >::return_reference
PUBLIC	??A?$binary_search_tree_kernel_2@V?$basic_string@DU?$char_traits@D@std@@V?$allocator@D@2@@std@@PAXV?$memory_manager_stateless_kernel_1@D@dlib@@U?$less@V?$basic_string@DU?$char_traits@D@std@@V?$allocator@D@2@@std@@@2@@dlib@@QBEPBQAXABV?$basic_string@DU?$char_traits@D@std@@V?$allocator@D@2@@std@@@Z ; dlib::binary_search_tree_kernel_2<std::basic_string<char,std::char_traits<char>,std::allocator<char> >,void *,dlib::memory_manager_stateless_kernel_1<char>,std::less<std::basic_string<char,std::char_traits<char>,std::allocator<char> > > >::operator[]
PUBLIC	??A?$map_kernel_1@V?$basic_string@DU?$char_traits@D@std@@V?$allocator@D@2@@std@@PAXV?$binary_search_tree_kernel_2@V?$basic_string@DU?$char_traits@D@std@@V?$allocator@D@2@@std@@PAXV?$memory_manager_stateless_kernel_1@D@dlib@@U?$less@V?$basic_string@DU?$char_traits@D@std@@V?$allocator@D@2@@std@@@2@@dlib@@V?$memory_manager_stateless_kernel_1@D@4@@dlib@@QBEABQAXABV?$basic_string@DU?$char_traits@D@std@@V?$allocator@D@2@@std@@@Z ; dlib::map_kernel_1<std::basic_string<char,std::char_traits<char>,std::allocator<char> >,void *,dlib::binary_search_tree_kernel_2<std::basic_string<char,std::char_traits<char>,std::allocator<char> >,void *,dlib::memory_manager_stateless_kernel_1<char>,std::less<std::basic_string<char,std::char_traits<char>,std::allocator<char> > > >,dlib::memory_manager_stateless_kernel_1<char> >::operator[]
PUBLIC	?block@?$config_reader_kernel_1@V?$map_kernel_1@V?$basic_string@DU?$char_traits@D@std@@V?$allocator@D@2@@std@@V12@V?$binary_search_tree_kernel_2@V?$basic_string@DU?$char_traits@D@std@@V?$allocator@D@2@@std@@V12@V?$memory_manager_stateless_kernel_1@D@dlib@@U?$less@V?$basic_string@DU?$char_traits@D@std@@V?$allocator@D@2@@std@@@2@@dlib@@V?$memory_manager_stateless_kernel_1@D@4@@dlib@@V?$map_kernel_1@V?$basic_string@DU?$char_traits@D@std@@V?$allocator@D@2@@std@@PAXV?$binary_search_tree_kernel_2@V?$basic_string@DU?$char_traits@D@std@@V?$allocator@D@2@@std@@PAXV?$memory_manager_stateless_kernel_1@D@dlib@@U?$less@V?$basic_string@DU?$char_traits@D@std@@V?$allocator@D@2@@std@@@2@@dlib@@V?$memory_manager_stateless_kernel_1@D@4@@2@Vtokenizer_kernel_1@2@@dlib@@QBEABV12@ABV?$basic_string@DU?$char_traits@D@std@@V?$allocator@D@2@@std@@@Z ; dlib::config_reader_kernel_1<dlib::map_kernel_1<std::basic_string<char,std::char_traits<char>,std::allocator<char> >,std::basic_string<char,std::char_traits<char>,std::allocator<char> >,dlib::binary_search_tree_kernel_2<std::basic_string<char,std::char_traits<char>,std::allocator<char> >,std::basic_string<char,std::char_traits<char>,std::allocator<char> >,dlib::memory_manager_stateless_kernel_1<char>,std::less<std::basic_string<char,std::char_traits<char>,std::allocator<char> > > >,dlib::memory_manager_stateless_kernel_1<char> >,dlib::map_kernel_1<std::basic_string<char,std::char_traits<char>,std::allocator<char> >,void *,dlib::binary_search_tree_kernel_2<std::basic_string<char,std::char_traits<char>,std::allocator<char> >,void *,dlib::memory_manager_stateless_kernel_1<char>,std::less<std::basic_string<char,std::char_traits<char>,std::allocator<char> > > >,dlib::memory_manager_stateless_kernel_1<char> >,dlib::tokenizer_kernel_1>::block
PUBLIC	?is_in_domain@?$map_kernel_1@V?$basic_string@DU?$char_traits@D@std@@V?$allocator@D@2@@std@@V12@V?$binary_search_tree_kernel_2@V?$basic_string@DU?$char_traits@D@std@@V?$allocator@D@2@@std@@V12@V?$memory_manager_stateless_kernel_1@D@dlib@@U?$less@V?$basic_string@DU?$char_traits@D@std@@V?$allocator@D@2@@std@@@2@@dlib@@V?$memory_manager_stateless_kernel_1@D@4@@dlib@@QBE_NABV?$basic_string@DU?$char_traits@D@std@@V?$allocator@D@2@@std@@@Z ; dlib::map_kernel_1<std::basic_string<char,std::char_traits<char>,std::allocator<char> >,std::basic_string<char,std::char_traits<char>,std::allocator<char> >,dlib::binary_search_tree_kernel_2<std::basic_string<char,std::char_traits<char>,std::allocator<char> >,std::basic_string<char,std::char_traits<char>,std::allocator<char> >,dlib::memory_manager_stateless_kernel_1<char>,std::less<std::basic_string<char,std::char_traits<char>,std::allocator<char> > > >,dlib::memory_manager_stateless_kernel_1<char> >::is_in_domain
PUBLIC	?is_key_defined@?$config_reader_kernel_1@V?$map_kernel_1@V?$basic_string@DU?$char_traits@D@std@@V?$allocator@D@2@@std@@V12@V?$binary_search_tree_kernel_2@V?$basic_string@DU?$char_traits@D@std@@V?$allocator@D@2@@std@@V12@V?$memory_manager_stateless_kernel_1@D@dlib@@U?$less@V?$basic_string@DU?$char_traits@D@std@@V?$allocator@D@2@@std@@@2@@dlib@@V?$memory_manager_stateless_kernel_1@D@4@@dlib@@V?$map_kernel_1@V?$basic_string@DU?$char_traits@D@std@@V?$allocator@D@2@@std@@PAXV?$binary_search_tree_kernel_2@V?$basic_string@DU?$char_traits@D@std@@V?$allocator@D@2@@std@@PAXV?$memory_manager_stateless_kernel_1@D@dlib@@U?$less@V?$basic_string@DU?$char_traits@D@std@@V?$allocator@D@2@@std@@@2@@dlib@@V?$memory_manager_stateless_kernel_1@D@4@@2@Vtokenizer_kernel_1@2@@dlib@@QBE_NABV?$basic_string@DU?$char_traits@D@std@@V?$allocator@D@2@@std@@@Z ; dlib::config_reader_kernel_1<dlib::map_kernel_1<std::basic_string<char,std::char_traits<char>,std::allocator<char> >,std::basic_string<char,std::char_traits<char>,std::allocator<char> >,dlib::binary_search_tree_kernel_2<std::basic_string<char,std::char_traits<char>,std::allocator<char> >,std::basic_string<char,std::char_traits<char>,std::allocator<char> >,dlib::memory_manager_stateless_kernel_1<char>,std::less<std::basic_string<char,std::char_traits<char>,std::allocator<char> > > >,dlib::memory_manager_stateless_kernel_1<char> >,dlib::map_kernel_1<std::basic_string<char,std::char_traits<char>,std::allocator<char> >,void *,dlib::binary_search_tree_kernel_2<std::basic_string<char,std::char_traits<char>,std::allocator<char> >,void *,dlib::memory_manager_stateless_kernel_1<char>,std::less<std::basic_string<char,std::char_traits<char>,std::allocator<char> > > >,dlib::memory_manager_stateless_kernel_1<char> >,dlib::tokenizer_kernel_1>::is_key_defined
PUBLIC	??$?MDU?$char_traits@D@std@@V?$allocator@D@1@@std@@YA_NABV?$basic_string@DU?$char_traits@D@std@@V?$allocator@D@2@@0@0@Z ; std::operator<<char,std::char_traits<char>,std::allocator<char> >
PUBLIC	??R?$less@V?$basic_string@DU?$char_traits@D@std@@V?$allocator@D@2@@std@@@std@@QBE_NABV?$basic_string@DU?$char_traits@D@std@@V?$allocator@D@2@@1@0@Z ; std::less<std::basic_string<char,std::char_traits<char>,std::allocator<char> > >::operator()
PUBLIC	?return_reference@?$binary_search_tree_kernel_2@V?$basic_string@DU?$char_traits@D@std@@V?$allocator@D@2@@std@@V12@V?$memory_manager_stateless_kernel_1@D@dlib@@U?$less@V?$basic_string@DU?$char_traits@D@std@@V?$allocator@D@2@@std@@@2@@dlib@@ABEPBV?$basic_string@DU?$char_traits@D@std@@V?$allocator@D@2@@std@@PBVnode@12@ABV34@@Z ; dlib::binary_search_tree_kernel_2<std::basic_string<char,std::char_traits<char>,std::allocator<char> >,std::basic_string<char,std::char_traits<char>,std::allocator<char> >,dlib::memory_manager_stateless_kernel_1<char>,std::less<std::basic_string<char,std::char_traits<char>,std::allocator<char> > > >::return_reference
PUBLIC	??A?$binary_search_tree_kernel_2@V?$basic_string@DU?$char_traits@D@std@@V?$allocator@D@2@@std@@V12@V?$memory_manager_stateless_kernel_1@D@dlib@@U?$less@V?$basic_string@DU?$char_traits@D@std@@V?$allocator@D@2@@std@@@2@@dlib@@QBEPBV?$basic_string@DU?$char_traits@D@std@@V?$allocator@D@2@@std@@ABV23@@Z ; dlib::binary_search_tree_kernel_2<std::basic_string<char,std::char_traits<char>,std::allocator<char> >,std::basic_string<char,std::char_traits<char>,std::allocator<char> >,dlib::memory_manager_stateless_kernel_1<char>,std::less<std::basic_string<char,std::char_traits<char>,std::allocator<char> > > >::operator[]
PUBLIC	??A?$map_kernel_1@V?$basic_string@DU?$char_traits@D@std@@V?$allocator@D@2@@std@@V12@V?$binary_search_tree_kernel_2@V?$basic_string@DU?$char_traits@D@std@@V?$allocator@D@2@@std@@V12@V?$memory_manager_stateless_kernel_1@D@dlib@@U?$less@V?$basic_string@DU?$char_traits@D@std@@V?$allocator@D@2@@std@@@2@@dlib@@V?$memory_manager_stateless_kernel_1@D@4@@dlib@@QBEABV?$basic_string@DU?$char_traits@D@std@@V?$allocator@D@2@@std@@ABV23@@Z ; dlib::map_kernel_1<std::basic_string<char,std::char_traits<char>,std::allocator<char> >,std::basic_string<char,std::char_traits<char>,std::allocator<char> >,dlib::binary_search_tree_kernel_2<std::basic_string<char,std::char_traits<char>,std::allocator<char> >,std::basic_string<char,std::char_traits<char>,std::allocator<char> >,dlib::memory_manager_stateless_kernel_1<char>,std::less<std::basic_string<char,std::char_traits<char>,std::allocator<char> > > >,dlib::memory_manager_stateless_kernel_1<char> >::operator[]
PUBLIC	??0config_reader_access_error@?$config_reader_kernel_1@V?$map_kernel_1@V?$basic_string@DU?$char_traits@D@std@@V?$allocator@D@2@@std@@V12@V?$binary_search_tree_kernel_2@V?$basic_string@DU?$char_traits@D@std@@V?$allocator@D@2@@std@@V12@V?$memory_manager_stateless_kernel_1@D@dlib@@U?$less@V?$basic_string@DU?$char_traits@D@std@@V?$allocator@D@2@@std@@@2@@dlib@@V?$memory_manager_stateless_kernel_1@D@4@@dlib@@V?$map_kernel_1@V?$basic_string@DU?$char_traits@D@std@@V?$allocator@D@2@@std@@PAXV?$binary_search_tree_kernel_2@V?$basic_string@DU?$char_traits@D@std@@V?$allocator@D@2@@std@@PAXV?$memory_manager_stateless_kernel_1@D@dlib@@U?$less@V?$basic_string@DU?$char_traits@D@std@@V?$allocator@D@2@@std@@@2@@dlib@@V?$memory_manager_stateless_kernel_1@D@4@@2@Vtokenizer_kernel_1@2@@dlib@@QAE@ABV?$basic_string@DU?$char_traits@D@std@@V?$allocator@D@2@@std@@0@Z ; dlib::config_reader_kernel_1<dlib::map_kernel_1<std::basic_string<char,std::char_traits<char>,std::allocator<char> >,std::basic_string<char,std::char_traits<char>,std::allocator<char> >,dlib::binary_search_tree_kernel_2<std::basic_string<char,std::char_traits<char>,std::allocator<char> >,std::basic_string<char,std::char_traits<char>,std::allocator<char> >,dlib::memory_manager_stateless_kernel_1<char>,std::less<std::basic_string<char,std::char_traits<char>,std::allocator<char> > > >,dlib::memory_manager_stateless_kernel_1<char> >,dlib::map_kernel_1<std::basic_string<char,std::char_traits<char>,std::allocator<char> >,void *,dlib::binary_search_tree_kernel_2<std::basic_string<char,std::char_traits<char>,std::allocator<char> >,void *,dlib::memory_manager_stateless_kernel_1<char>,std::less<std::basic_string<char,std::char_traits<char>,std::allocator<char> > > >,dlib::memory_manager_stateless_kernel_1<char> >,dlib::tokenizer_kernel_1>::config_reader_access_error::config_reader_access_error
PUBLIC	??1config_reader_access_error@?$config_reader_kernel_1@V?$map_kernel_1@V?$basic_string@DU?$char_traits@D@std@@V?$allocator@D@2@@std@@V12@V?$binary_search_tree_kernel_2@V?$basic_string@DU?$char_traits@D@std@@V?$allocator@D@2@@std@@V12@V?$memory_manager_stateless_kernel_1@D@dlib@@U?$less@V?$basic_string@DU?$char_traits@D@std@@V?$allocator@D@2@@std@@@2@@dlib@@V?$memory_manager_stateless_kernel_1@D@4@@dlib@@V?$map_kernel_1@V?$basic_string@DU?$char_traits@D@std@@V?$allocator@D@2@@std@@PAXV?$binary_search_tree_kernel_2@V?$basic_string@DU?$char_traits@D@std@@V?$allocator@D@2@@std@@PAXV?$memory_manager_stateless_kernel_1@D@dlib@@U?$less@V?$basic_string@DU?$char_traits@D@std@@V?$allocator@D@2@@std@@@2@@dlib@@V?$memory_manager_stateless_kernel_1@D@4@@2@Vtokenizer_kernel_1@2@@dlib@@UAE@XZ ; dlib::config_reader_kernel_1<dlib::map_kernel_1<std::basic_string<char,std::char_traits<char>,std::allocator<char> >,std::basic_string<char,std::char_traits<char>,std::allocator<char> >,dlib::binary_search_tree_kernel_2<std::basic_string<char,std::char_traits<char>,std::allocator<char> >,std::basic_string<char,std::char_traits<char>,std::allocator<char> >,dlib::memory_manager_stateless_kernel_1<char>,std::less<std::basic_string<char,std::char_traits<char>,std::allocator<char> > > >,dlib::memory_manager_stateless_kernel_1<char> >,dlib::map_kernel_1<std::basic_string<char,std::char_traits<char>,std::allocator<char> >,void *,dlib::binary_search_tree_kernel_2<std::basic_string<char,std::char_traits<char>,std::allocator<char> >,void *,dlib::memory_manager_stateless_kernel_1<char>,std::less<std::basic_string<char,std::char_traits<char>,std::allocator<char> > > >,dlib::memory_manager_stateless_kernel_1<char> >,dlib::tokenizer_kernel_1>::config_reader_access_error::~config_reader_access_error
PUBLIC	??_Gconfig_reader_access_error@?$config_reader_kernel_1@V?$map_kernel_1@V?$basic_string@DU?$char_traits@D@std@@V?$allocator@D@2@@std@@V12@V?$binary_search_tree_kernel_2@V?$basic_string@DU?$char_traits@D@std@@V?$allocator@D@2@@std@@V12@V?$memory_manager_stateless_kernel_1@D@dlib@@U?$less@V?$basic_string@DU?$char_traits@D@std@@V?$allocator@D@2@@std@@@2@@dlib@@V?$memory_manager_stateless_kernel_1@D@4@@dlib@@V?$map_kernel_1@V?$basic_string@DU?$char_traits@D@std@@V?$allocator@D@2@@std@@PAXV?$binary_search_tree_kernel_2@V?$basic_string@DU?$char_traits@D@std@@V?$allocator@D@2@@std@@PAXV?$memory_manager_stateless_kernel_1@D@dlib@@U?$less@V?$basic_string@DU?$char_traits@D@std@@V?$allocator@D@2@@std@@@2@@dlib@@V?$memory_manager_stateless_kernel_1@D@4@@2@Vtokenizer_kernel_1@2@@dlib@@UAEPAXI@Z ; dlib::config_reader_kernel_1<dlib::map_kernel_1<std::basic_string<char,std::char_traits<char>,std::allocator<char> >,std::basic_string<char,std::char_traits<char>,std::allocator<char> >,dlib::binary_search_tree_kernel_2<std::basic_string<char,std::char_traits<char>,std::allocator<char> >,std::basic_string<char,std::char_traits<char>,std::allocator<char> >,dlib::memory_manager_stateless_kernel_1<char>,std::less<std::basic_string<char,std::char_traits<char>,std::allocator<char> > > >,dlib::memory_manager_stateless_kernel_1<char> >,dlib::map_kernel_1<std::basic_string<char,std::char_traits<char>,std::allocator<char> >,void *,dlib::binary_search_tree_kernel_2<std::basic_string<char,std::char_traits<char>,std::allocator<char> >,void *,dlib::memory_manager_stateless_kernel_1<char>,std::less<std::basic_string<char,std::char_traits<char>,std::allocator<char> > > >,dlib::memory_manager_stateless_kernel_1<char> >,dlib::tokenizer_kernel_1>::config_reader_access_error::`scalar deleting destructor'
PUBLIC	??0config_reader_access_error@?$config_reader_kernel_1@V?$map_kernel_1@V?$basic_string@DU?$char_traits@D@std@@V?$allocator@D@2@@std@@V12@V?$binary_search_tree_kernel_2@V?$basic_string@DU?$char_traits@D@std@@V?$allocator@D@2@@std@@V12@V?$memory_manager_stateless_kernel_1@D@dlib@@U?$less@V?$basic_string@DU?$char_traits@D@std@@V?$allocator@D@2@@std@@@2@@dlib@@V?$memory_manager_stateless_kernel_1@D@4@@dlib@@V?$map_kernel_1@V?$basic_string@DU?$char_traits@D@std@@V?$allocator@D@2@@std@@PAXV?$binary_search_tree_kernel_2@V?$basic_string@DU?$char_traits@D@std@@V?$allocator@D@2@@std@@PAXV?$memory_manager_stateless_kernel_1@D@dlib@@U?$less@V?$basic_string@DU?$char_traits@D@std@@V?$allocator@D@2@@std@@@2@@dlib@@V?$memory_manager_stateless_kernel_1@D@4@@2@Vtokenizer_kernel_1@2@@dlib@@QAE@ABV012@@Z ; dlib::config_reader_kernel_1<dlib::map_kernel_1<std::basic_string<char,std::char_traits<char>,std::allocator<char> >,std::basic_string<char,std::char_traits<char>,std::allocator<char> >,dlib::binary_search_tree_kernel_2<std::basic_string<char,std::char_traits<char>,std::allocator<char> >,std::basic_string<char,std::char_traits<char>,std::allocator<char> >,dlib::memory_manager_stateless_kernel_1<char>,std::less<std::basic_string<char,std::char_traits<char>,std::allocator<char> > > >,dlib::memory_manager_stateless_kernel_1<char> >,dlib::map_kernel_1<std::basic_string<char,std::char_traits<char>,std::allocator<char> >,void *,dlib::binary_search_tree_kernel_2<std::basic_string<char,std::char_traits<char>,std::allocator<char> >,void *,dlib::memory_manager_stateless_kernel_1<char>,std::less<std::basic_string<char,std::char_traits<char>,std::allocator<char> > > >,dlib::memory_manager_stateless_kernel_1<char> >,dlib::tokenizer_kernel_1>::config_reader_access_error::config_reader_access_error
PUBLIC	??A?$config_reader_kernel_1@V?$map_kernel_1@V?$basic_string@DU?$char_traits@D@std@@V?$allocator@D@2@@std@@V12@V?$binary_search_tree_kernel_2@V?$basic_string@DU?$char_traits@D@std@@V?$allocator@D@2@@std@@V12@V?$memory_manager_stateless_kernel_1@D@dlib@@U?$less@V?$basic_string@DU?$char_traits@D@std@@V?$allocator@D@2@@std@@@2@@dlib@@V?$memory_manager_stateless_kernel_1@D@4@@dlib@@V?$map_kernel_1@V?$basic_string@DU?$char_traits@D@std@@V?$allocator@D@2@@std@@PAXV?$binary_search_tree_kernel_2@V?$basic_string@DU?$char_traits@D@std@@V?$allocator@D@2@@std@@PAXV?$memory_manager_stateless_kernel_1@D@dlib@@U?$less@V?$basic_string@DU?$char_traits@D@std@@V?$allocator@D@2@@std@@@2@@dlib@@V?$memory_manager_stateless_kernel_1@D@4@@2@Vtokenizer_kernel_1@2@@dlib@@QBEABV?$basic_string@DU?$char_traits@D@std@@V?$allocator@D@2@@std@@ABV23@@Z ; dlib::config_reader_kernel_1<dlib::map_kernel_1<std::basic_string<char,std::char_traits<char>,std::allocator<char> >,std::basic_string<char,std::char_traits<char>,std::allocator<char> >,dlib::binary_search_tree_kernel_2<std::basic_string<char,std::char_traits<char>,std::allocator<char> >,std::basic_string<char,std::char_traits<char>,std::allocator<char> >,dlib::memory_manager_stateless_kernel_1<char>,std::less<std::basic_string<char,std::char_traits<char>,std::allocator<char> > > >,dlib::memory_manager_stateless_kernel_1<char> >,dlib::map_kernel_1<std::basic_string<char,std::char_traits<char>,std::allocator<char> >,void *,dlib::binary_search_tree_kernel_2<std::basic_string<char,std::char_traits<char>,std::allocator<char> >,void *,dlib::memory_manager_stateless_kernel_1<char>,std::less<std::basic_string<char,std::char_traits<char>,std::allocator<char> > > >,dlib::memory_manager_stateless_kernel_1<char> >,dlib::tokenizer_kernel_1>::operator[]
PUBLIC	?port@Webserver@Config@@3GA			; Config::Webserver::port
PUBLIC	?port@Mail@Config@@3GA				; Config::Mail::port
PUBLIC	??_C@_08EPJLHIJG@bad?5cast?$AA@			; `string'
PUBLIC	??_R0?AVbad_cast@std@@@8			; std::bad_cast `RTTI Type Descriptor'
PUBLIC	__CT??_R0?AVbad_cast@std@@@8??0bad_cast@std@@QAE@ABV01@@Z12
PUBLIC	__CTA2?AVbad_cast@std@@
PUBLIC	__TI2?AVbad_cast@std@@
PUBLIC	??_R0?AVconfig_reader_access_error@?$config_reader_kernel_1@V?$map_kernel_1@V?$basic_string@DU?$char_traits@D@std@@V?$allocator@D@2@@std@@V12@V?$binary_search_tree_kernel_2@V?$basic_string@DU?$char_traits@D@std@@V?$allocator@D@2@@std@@V12@V?$memory_manager_stateless_kernel_1@D@dlib@@U?$less@V?$basic_string@DU?$char_traits@D@std@@V?$allocator@D@2@@std@@@2@@dlib@@V?$memory_manager_stateless_kernel_1@D@4@@dlib@@V?$map_kernel_1@V?$basic_string@DU?$char_traits@D@std@@V?$allocator@D@2@@std@@PAXV?$binary_search_tree_kernel_2@V?$basic_string@DU?$char_traits@D@std@@V?$allocator@D@2@@std@@PAXV?$memory_manager_stateless_kernel_1@D@dlib@@U?$less@V?$basic_string@DU?$char_traits@D@std@@V?$allocator@D@2@@std@@@2@@dlib@@V?$memory_manager_stateless_kernel_1@D@4@@2@Vtokenizer_kernel_1@2@@dlib@@@8 ; dlib::config_reader_kernel_1<dlib::map_kernel_1<std::basic_string<char,std::char_traits<char>,std::allocator<char> >,std::basic_string<char,std::char_traits<char>,std::allocator<char> >,dlib::binary_search_tree_kernel_2<std::basic_string<char,std::char_traits<char>,std::allocator<char> >,std::basic_string<char,std::char_traits<char>,std::allocator<char> >,dlib::memory_manager_stateless_kernel_1<char>,std::less<std::basic_string<char,std::char_traits<char>,std::allocator<char> > > >,dlib::memory_manager_stateless_kernel_1<char> >,dlib::map_kernel_1<std::basic_string<char,std::char_traits<char>,std::allocator<char> >,void *,dlib::binary_search_tree_kernel_2<std::basic_string<char,std::char_traits<char>,std::allocator<char> >,void *,dlib::memory_manager_stateless_kernel_1<char>,std::less<std::basic_string<char,std::char_traits<char>,std::allocator<char> > > >,dlib::memory_manager_stateless_kernel_1<char> >,dlib::tokenizer_kernel_1>::config_reader_access_error `RTTI Type Descriptor'
PUBLIC	__CT??_R0?AVconfig_reader_access_error@?$config_reader_kernel_1@V?$map_kernel_1@V?$basic_string@DU?$char_traits@D@std@@V?$allocator@D@2@@std@@V12@V?$binary_search_tree_kernel_2@V?$basic_string@DU?$char_traits@D@std@@V?$allocator@D@2@@std@@V12@V?$memory_manager_stateless_kernel_1@D@dlib@@U?$less@V?$basic_string@DU?$char_traits@D@std@@V?$allocator@D@2@@std@@@2@@dlib@@V?$memory_manager_stateless_kernel_1@D@4@@dlib@@V?$map_kernel_1@V?$basic_string@DU?$char_traits@D@std@@V?$allocator@D@2@@std@@PAXV?$binary_search_tree_kernel_2@V?$basic_string@DU?$char_traits@D@std@@V?$allocator@D@2@@std@@PAXV?$memory_manager_stateless_kernel_1@D@dlib@@U?$less@V?$basic_string@DU?$char_traits@D@std@@V?$allocator@D@2@@std@@@2@@dlib@@V?$memory_manager_stateless_kernel_1@D@4@@2@Vtokenizer_kernel_1@2@@dlib@@@8??0config_reader_access_error@?$config_reader_kernel_1@V?$map_kernel_1@V?$basic_string@DU?$char_traits@D@std@@V?$allocator@D@2@@std@@V12@V?$binary_search_tree_kernel_2@V?$basic_string@DU?$char_traits@D@std@@V?$allocator@D@2@@std@@V12@V?$memory_manager_stateless_kernel_1@D@dlib@@U?$less@V?$basic_string@DU?$char_traits@D@std@@V?$allocator@D@2@@std@@@2@@dlib@@V?$memory_manager_stateless_kernel_1@D@4@@dlib@@V?$map_kernel_1@V?$basic_string@DU?$char_traits@D@std@@V?$allocator@D@2@@std@@PAXV?$binary_search_tree_kernel_2@V?$basic_string@DU?$char_traits@D@std@@V?$allocator@D@2@@std@@PAXV?$memory_manager_stateless_kernel_1@D@dlib@@U?$less@V?$basic_string@DU?$char_traits@D@std@@V?$allocator@D@2@@std@@@2@@dlib@@V?$memory_manager_stateless_kernel_1@D@4@@2@Vtokenizer_kernel_1@2@@dlib@@QAE@ABV012@@Z100
PUBLIC	__CTA3?AVconfig_reader_access_error@?$config_reader_kernel_1@V?$map_kernel_1@V?$basic_string@DU?$char_traits@D@std@@V?$allocator@D@2@@std@@V12@V?$binary_search_tree_kernel_2@V?$basic_string@DU?$char_traits@D@std@@V?$allocator@D@2@@std@@V12@V?$memory_manager_stateless_kernel_1@D@dlib@@U?$less@V?$basic_string@DU?$char_traits@D@std@@V?$allocator@D@2@@std@@@2@@dlib@@V?$memory_manager_stateless_kernel_1@D@4@@dlib@@V?$map_kernel_1@V?$basic_string@DU?$char_traits@D@std@@V?$allocator@D@2@@std@@PAXV?$binary_search_tree_kernel_2@V?$basic_string@DU?$char_traits@D@std@@V?$allocator@D@2@@std@@PAXV?$memory_manager_stateless_kernel_1@D@dlib@@U?$less@V?$basic_string@DU?$char_traits@D@std@@V?$allocator@D@2@@std@@@2@@dlib@@V?$memory_manager_stateless_kernel_1@D@4@@2@Vtokenizer_kernel_1@2@@dlib@@
PUBLIC	__TI3?AVconfig_reader_access_error@?$config_reader_kernel_1@V?$map_kernel_1@V?$basic_string@DU?$char_traits@D@std@@V?$allocator@D@2@@std@@V12@V?$binary_search_tree_kernel_2@V?$basic_string@DU?$char_traits@D@std@@V?$allocator@D@2@@std@@V12@V?$memory_manager_stateless_kernel_1@D@dlib@@U?$less@V?$basic_string@DU?$char_traits@D@std@@V?$allocator@D@2@@std@@@2@@dlib@@V?$memory_manager_stateless_kernel_1@D@4@@dlib@@V?$map_kernel_1@V?$basic_string@DU?$char_traits@D@std@@V?$allocator@D@2@@std@@PAXV?$binary_search_tree_kernel_2@V?$basic_string@DU?$char_traits@D@std@@V?$allocator@D@2@@std@@PAXV?$memory_manager_stateless_kernel_1@D@dlib@@U?$less@V?$basic_string@DU?$char_traits@D@std@@V?$allocator@D@2@@std@@@2@@dlib@@V?$memory_manager_stateless_kernel_1@D@4@@2@Vtokenizer_kernel_1@2@@dlib@@
PUBLIC	??_C@_0BJ@IAMIBOKE@Error?5in?5config_reader?4?6?$AA@ ; `string'
PUBLIC	??_C@_0BO@PDDFDMKJ@?8?5was?5expected?5but?5not?5found?4?$AA@ ; `string'
PUBLIC	??_C@_0BL@JLNABLO@?5?5?5A?5block?5with?5the?5name?5?8?$AA@ ; `string'
PUBLIC	??_C@_0BJ@BKFAHCBP@?5?5?5A?5key?5with?5the?5name?5?8?$AA@ ; `string'
PUBLIC	??_R0?AVfile_not_found@?$config_reader_kernel_1@V?$map_kernel_1@V?$basic_string@DU?$char_traits@D@std@@V?$allocator@D@2@@std@@V12@V?$binary_search_tree_kernel_2@V?$basic_string@DU?$char_traits@D@std@@V?$allocator@D@2@@std@@V12@V?$memory_manager_stateless_kernel_1@D@dlib@@U?$less@V?$basic_string@DU?$char_traits@D@std@@V?$allocator@D@2@@std@@@2@@dlib@@V?$memory_manager_stateless_kernel_1@D@4@@dlib@@V?$map_kernel_1@V?$basic_string@DU?$char_traits@D@std@@V?$allocator@D@2@@std@@PAXV?$binary_search_tree_kernel_2@V?$basic_string@DU?$char_traits@D@std@@V?$allocator@D@2@@std@@PAXV?$memory_manager_stateless_kernel_1@D@dlib@@U?$less@V?$basic_string@DU?$char_traits@D@std@@V?$allocator@D@2@@std@@@2@@dlib@@V?$memory_manager_stateless_kernel_1@D@4@@2@Vtokenizer_kernel_1@2@@dlib@@@8 ; dlib::config_reader_kernel_1<dlib::map_kernel_1<std::basic_string<char,std::char_traits<char>,std::allocator<char> >,std::basic_string<char,std::char_traits<char>,std::allocator<char> >,dlib::binary_search_tree_kernel_2<std::basic_string<char,std::char_traits<char>,std::allocator<char> >,std::basic_string<char,std::char_traits<char>,std::allocator<char> >,dlib::memory_manager_stateless_kernel_1<char>,std::less<std::basic_string<char,std::char_traits<char>,std::allocator<char> > > >,dlib::memory_manager_stateless_kernel_1<char> >,dlib::map_kernel_1<std::basic_string<char,std::char_traits<char>,std::allocator<char> >,void *,dlib::binary_search_tree_kernel_2<std::basic_string<char,std::char_traits<char>,std::allocator<char> >,void *,dlib::memory_manager_stateless_kernel_1<char>,std::less<std::basic_string<char,std::char_traits<char>,std::allocator<char> > > >,dlib::memory_manager_stateless_kernel_1<char> >,dlib::tokenizer_kernel_1>::file_not_found `RTTI Type Descriptor'
PUBLIC	__CT??_R0?AVfile_not_found@?$config_reader_kernel_1@V?$map_kernel_1@V?$basic_string@DU?$char_traits@D@std@@V?$allocator@D@2@@std@@V12@V?$binary_search_tree_kernel_2@V?$basic_string@DU?$char_traits@D@std@@V?$allocator@D@2@@std@@V12@V?$memory_manager_stateless_kernel_1@D@dlib@@U?$less@V?$basic_string@DU?$char_traits@D@std@@V?$allocator@D@2@@std@@@2@@dlib@@V?$memory_manager_stateless_kernel_1@D@4@@dlib@@V?$map_kernel_1@V?$basic_string@DU?$char_traits@D@std@@V?$allocator@D@2@@std@@PAXV?$binary_search_tree_kernel_2@V?$basic_string@DU?$char_traits@D@std@@V?$allocator@D@2@@std@@PAXV?$memory_manager_stateless_kernel_1@D@dlib@@U?$less@V?$basic_string@DU?$char_traits@D@std@@V?$allocator@D@2@@std@@@2@@dlib@@V?$memory_manager_stateless_kernel_1@D@4@@2@Vtokenizer_kernel_1@2@@dlib@@@8??0file_not_found@?$config_reader_kernel_1@V?$map_kernel_1@V?$basic_string@DU?$char_traits@D@std@@V?$allocator@D@2@@std@@V12@V?$binary_search_tree_kernel_2@V?$basic_string@DU?$char_traits@D@std@@V?$allocator@D@2@@std@@V12@V?$memory_manager_stateless_kernel_1@D@dlib@@U?$less@V?$basic_string@DU?$char_traits@D@std@@V?$allocator@D@2@@std@@@2@@dlib@@V?$memory_manager_stateless_kernel_1@D@4@@dlib@@V?$map_kernel_1@V?$basic_string@DU?$char_traits@D@std@@V?$allocator@D@2@@std@@PAXV?$binary_search_tree_kernel_2@V?$basic_string@DU?$char_traits@D@std@@V?$allocator@D@2@@std@@PAXV?$memory_manager_stateless_kernel_1@D@dlib@@U?$less@V?$basic_string@DU?$char_traits@D@std@@V?$allocator@D@2@@std@@@2@@dlib@@V?$memory_manager_stateless_kernel_1@D@4@@2@Vtokenizer_kernel_1@2@@dlib@@QAE@ABV012@@Z72
PUBLIC	__CTA3?AVfile_not_found@?$config_reader_kernel_1@V?$map_kernel_1@V?$basic_string@DU?$char_traits@D@std@@V?$allocator@D@2@@std@@V12@V?$binary_search_tree_kernel_2@V?$basic_string@DU?$char_traits@D@std@@V?$allocator@D@2@@std@@V12@V?$memory_manager_stateless_kernel_1@D@dlib@@U?$less@V?$basic_string@DU?$char_traits@D@std@@V?$allocator@D@2@@std@@@2@@dlib@@V?$memory_manager_stateless_kernel_1@D@4@@dlib@@V?$map_kernel_1@V?$basic_string@DU?$char_traits@D@std@@V?$allocator@D@2@@std@@PAXV?$binary_search_tree_kernel_2@V?$basic_string@DU?$char_traits@D@std@@V?$allocator@D@2@@std@@PAXV?$memory_manager_stateless_kernel_1@D@dlib@@U?$less@V?$basic_string@DU?$char_traits@D@std@@V?$allocator@D@2@@std@@@2@@dlib@@V?$memory_manager_stateless_kernel_1@D@4@@2@Vtokenizer_kernel_1@2@@dlib@@
PUBLIC	__TI3?AVfile_not_found@?$config_reader_kernel_1@V?$map_kernel_1@V?$basic_string@DU?$char_traits@D@std@@V?$allocator@D@2@@std@@V12@V?$binary_search_tree_kernel_2@V?$basic_string@DU?$char_traits@D@std@@V?$allocator@D@2@@std@@V12@V?$memory_manager_stateless_kernel_1@D@dlib@@U?$less@V?$basic_string@DU?$char_traits@D@std@@V?$allocator@D@2@@std@@@2@@dlib@@V?$memory_manager_stateless_kernel_1@D@4@@dlib@@V?$map_kernel_1@V?$basic_string@DU?$char_traits@D@std@@V?$allocator@D@2@@std@@PAXV?$binary_search_tree_kernel_2@V?$basic_string@DU?$char_traits@D@std@@V?$allocator@D@2@@std@@PAXV?$memory_manager_stateless_kernel_1@D@dlib@@U?$less@V?$basic_string@DU?$char_traits@D@std@@V?$allocator@D@2@@std@@@2@@dlib@@V?$memory_manager_stateless_kernel_1@D@4@@2@Vtokenizer_kernel_1@2@@dlib@@
PUBLIC	?_Psave@?$_Facetptr@V?$codecvt@DDH@std@@@std@@2PBVfacet@locale@2@B ; std::_Facetptr<std::codecvt<char,char,int> >::_Psave
PUBLIC	??_C@_0CN@BIGGPJMM@Error?5in?5config_reader?0?5unable?5t@ ; `string'
PUBLIC	??_R0?AVconfig_reader_error@?$config_reader_kernel_1@V?$map_kernel_1@V?$basic_string@DU?$char_traits@D@std@@V?$allocator@D@2@@std@@V12@V?$binary_search_tree_kernel_2@V?$basic_string@DU?$char_traits@D@std@@V?$allocator@D@2@@std@@V12@V?$memory_manager_stateless_kernel_1@D@dlib@@U?$less@V?$basic_string@DU?$char_traits@D@std@@V?$allocator@D@2@@std@@@2@@dlib@@V?$memory_manager_stateless_kernel_1@D@4@@dlib@@V?$map_kernel_1@V?$basic_string@DU?$char_traits@D@std@@V?$allocator@D@2@@std@@PAXV?$binary_search_tree_kernel_2@V?$basic_string@DU?$char_traits@D@std@@V?$allocator@D@2@@std@@PAXV?$memory_manager_stateless_kernel_1@D@dlib@@U?$less@V?$basic_string@DU?$char_traits@D@std@@V?$allocator@D@2@@std@@@2@@dlib@@V?$memory_manager_stateless_kernel_1@D@4@@2@Vtokenizer_kernel_1@2@@dlib@@@8 ; dlib::config_reader_kernel_1<dlib::map_kernel_1<std::basic_string<char,std::char_traits<char>,std::allocator<char> >,std::basic_string<char,std::char_traits<char>,std::allocator<char> >,dlib::binary_search_tree_kernel_2<std::basic_string<char,std::char_traits<char>,std::allocator<char> >,std::basic_string<char,std::char_traits<char>,std::allocator<char> >,dlib::memory_manager_stateless_kernel_1<char>,std::less<std::basic_string<char,std::char_traits<char>,std::allocator<char> > > >,dlib::memory_manager_stateless_kernel_1<char> >,dlib::map_kernel_1<std::basic_string<char,std::char_traits<char>,std::allocator<char> >,void *,dlib::binary_search_tree_kernel_2<std::basic_string<char,std::char_traits<char>,std::allocator<char> >,void *,dlib::memory_manager_stateless_kernel_1<char>,std::less<std::basic_string<char,std::char_traits<char>,std::allocator<char> > > >,dlib::memory_manager_stateless_kernel_1<char> >,dlib::tokenizer_kernel_1>::config_reader_error `RTTI Type Descriptor'
PUBLIC	__CT??_R0?AVconfig_reader_error@?$config_reader_kernel_1@V?$map_kernel_1@V?$basic_string@DU?$char_traits@D@std@@V?$allocator@D@2@@std@@V12@V?$binary_search_tree_kernel_2@V?$basic_string@DU?$char_traits@D@std@@V?$allocator@D@2@@std@@V12@V?$memory_manager_stateless_kernel_1@D@dlib@@U?$less@V?$basic_string@DU?$char_traits@D@std@@V?$allocator@D@2@@std@@@2@@dlib@@V?$memory_manager_stateless_kernel_1@D@4@@dlib@@V?$map_kernel_1@V?$basic_string@DU?$char_traits@D@std@@V?$allocator@D@2@@std@@PAXV?$binary_search_tree_kernel_2@V?$basic_string@DU?$char_traits@D@std@@V?$allocator@D@2@@std@@PAXV?$memory_manager_stateless_kernel_1@D@dlib@@U?$less@V?$basic_string@DU?$char_traits@D@std@@V?$allocator@D@2@@std@@@2@@dlib@@V?$memory_manager_stateless_kernel_1@D@4@@2@Vtokenizer_kernel_1@2@@dlib@@@8??0config_reader_error@?$config_reader_kernel_1@V?$map_kernel_1@V?$basic_string@DU?$char_traits@D@std@@V?$allocator@D@2@@std@@V12@V?$binary_search_tree_kernel_2@V?$basic_string@DU?$char_traits@D@std@@V?$allocator@D@2@@std@@V12@V?$memory_manager_stateless_kernel_1@D@dlib@@U?$less@V?$basic_string@DU?$char_traits@D@std@@V?$allocator@D@2@@std@@@2@@dlib@@V?$memory_manager_stateless_kernel_1@D@4@@dlib@@V?$map_kernel_1@V?$basic_string@DU?$char_traits@D@std@@V?$allocator@D@2@@std@@PAXV?$binary_search_tree_kernel_2@V?$basic_string@DU?$char_traits@D@std@@V?$allocator@D@2@@std@@PAXV?$memory_manager_stateless_kernel_1@D@dlib@@U?$less@V?$basic_string@DU?$char_traits@D@std@@V?$allocator@D@2@@std@@@2@@dlib@@V?$memory_manager_stateless_kernel_1@D@4@@2@Vtokenizer_kernel_1@2@@dlib@@QAE@ABV012@@Z52
PUBLIC	__CTA3?AVconfig_reader_error@?$config_reader_kernel_1@V?$map_kernel_1@V?$basic_string@DU?$char_traits@D@std@@V?$allocator@D@2@@std@@V12@V?$binary_search_tree_kernel_2@V?$basic_string@DU?$char_traits@D@std@@V?$allocator@D@2@@std@@V12@V?$memory_manager_stateless_kernel_1@D@dlib@@U?$less@V?$basic_string@DU?$char_traits@D@std@@V?$allocator@D@2@@std@@@2@@dlib@@V?$memory_manager_stateless_kernel_1@D@4@@dlib@@V?$map_kernel_1@V?$basic_string@DU?$char_traits@D@std@@V?$allocator@D@2@@std@@PAXV?$binary_search_tree_kernel_2@V?$basic_string@DU?$char_traits@D@std@@V?$allocator@D@2@@std@@PAXV?$memory_manager_stateless_kernel_1@D@dlib@@U?$less@V?$basic_string@DU?$char_traits@D@std@@V?$allocator@D@2@@std@@@2@@dlib@@V?$memory_manager_stateless_kernel_1@D@4@@2@Vtokenizer_kernel_1@2@@dlib@@
PUBLIC	__TI3?AVconfig_reader_error@?$config_reader_kernel_1@V?$map_kernel_1@V?$basic_string@DU?$char_traits@D@std@@V?$allocator@D@2@@std@@V12@V?$binary_search_tree_kernel_2@V?$basic_string@DU?$char_traits@D@std@@V?$allocator@D@2@@std@@V12@V?$memory_manager_stateless_kernel_1@D@dlib@@U?$less@V?$basic_string@DU?$char_traits@D@std@@V?$allocator@D@2@@std@@@2@@dlib@@V?$memory_manager_stateless_kernel_1@D@4@@dlib@@V?$map_kernel_1@V?$basic_string@DU?$char_traits@D@std@@V?$allocator@D@2@@std@@PAXV?$binary_search_tree_kernel_2@V?$basic_string@DU?$char_traits@D@std@@V?$allocator@D@2@@std@@PAXV?$memory_manager_stateless_kernel_1@D@dlib@@U?$less@V?$basic_string@DU?$char_traits@D@std@@V?$allocator@D@2@@std@@@2@@dlib@@V?$memory_manager_stateless_kernel_1@D@4@@2@Vtokenizer_kernel_1@2@@dlib@@
PUBLIC	??_C@_01LFCBOECM@?4?$AA@			; `string'
PUBLIC	??_C@_0DF@FECJJJEG@Error?5in?5config_reader?5while?5par@ ; `string'
PUBLIC	??_C@_0EF@NELOHLNI@?6The?5identifier?5on?5this?5line?5has@ ; `string'
PUBLIC	??_7?$basic_filebuf@DU?$char_traits@D@std@@@std@@6B@ ; std::basic_filebuf<char,std::char_traits<char> >::`vftable'
PUBLIC	??_7?$basic_ifstream@DU?$char_traits@D@std@@@std@@6B@ ; std::basic_ifstream<char,std::char_traits<char> >::`vftable'
PUBLIC	??_8?$basic_ifstream@DU?$char_traits@D@std@@@std@@7B@ ; std::basic_ifstream<char,std::char_traits<char> >::`vbtable'
PUBLIC	??_7?$binary_search_tree_kernel_2@V?$basic_string@DU?$char_traits@D@std@@V?$allocator@D@2@@std@@V12@V?$memory_manager_stateless_kernel_1@D@dlib@@U?$less@V?$basic_string@DU?$char_traits@D@std@@V?$allocator@D@2@@std@@@2@@dlib@@6B?$enumerable@V?$map_pair@V?$basic_string@DU?$char_traits@D@std@@V?$allocator@D@2@@std@@V12@@dlib@@@1@@ ; dlib::binary_search_tree_kernel_2<std::basic_string<char,std::char_traits<char>,std::allocator<char> >,std::basic_string<char,std::char_traits<char>,std::allocator<char> >,dlib::memory_manager_stateless_kernel_1<char>,std::less<std::basic_string<char,std::char_traits<char>,std::allocator<char> > > >::`vftable'
PUBLIC	??_7?$binary_search_tree_kernel_2@V?$basic_string@DU?$char_traits@D@std@@V?$allocator@D@2@@std@@V12@V?$memory_manager_stateless_kernel_1@D@dlib@@U?$less@V?$basic_string@DU?$char_traits@D@std@@V?$allocator@D@2@@std@@@2@@dlib@@6B?$asc_pair_remover@V?$basic_string@DU?$char_traits@D@std@@V?$allocator@D@2@@std@@V12@U?$less@V?$basic_string@DU?$char_traits@D@std@@V?$allocator@D@2@@std@@@2@@1@@ ; dlib::binary_search_tree_kernel_2<std::basic_string<char,std::char_traits<char>,std::allocator<char> >,std::basic_string<char,std::char_traits<char>,std::allocator<char> >,dlib::memory_manager_stateless_kernel_1<char>,std::less<std::basic_string<char,std::char_traits<char>,std::allocator<char> > > >::`vftable'
PUBLIC	??_7?$map_kernel_1@V?$basic_string@DU?$char_traits@D@std@@V?$allocator@D@2@@std@@V12@V?$binary_search_tree_kernel_2@V?$basic_string@DU?$char_traits@D@std@@V?$allocator@D@2@@std@@V12@V?$memory_manager_stateless_kernel_1@D@dlib@@U?$less@V?$basic_string@DU?$char_traits@D@std@@V?$allocator@D@2@@std@@@2@@dlib@@V?$memory_manager_stateless_kernel_1@D@4@@dlib@@6B?$enumerable@V?$map_pair@V?$basic_string@DU?$char_traits@D@std@@V?$allocator@D@2@@std@@V12@@dlib@@@1@@ ; dlib::map_kernel_1<std::basic_string<char,std::char_traits<char>,std::allocator<char> >,std::basic_string<char,std::char_traits<char>,std::allocator<char> >,dlib::binary_search_tree_kernel_2<std::basic_string<char,std::char_traits<char>,std::allocator<char> >,std::basic_string<char,std::char_traits<char>,std::allocator<char> >,dlib::memory_manager_stateless_kernel_1<char>,std::less<std::basic_string<char,std::char_traits<char>,std::allocator<char> > > >,dlib::memory_manager_stateless_kernel_1<char> >::`vftable'
PUBLIC	??_7?$map_kernel_1@V?$basic_string@DU?$char_traits@D@std@@V?$allocator@D@2@@std@@V12@V?$binary_search_tree_kernel_2@V?$basic_string@DU?$char_traits@D@std@@V?$allocator@D@2@@std@@V12@V?$memory_manager_stateless_kernel_1@D@dlib@@U?$less@V?$basic_string@DU?$char_traits@D@std@@V?$allocator@D@2@@std@@@2@@dlib@@V?$memory_manager_stateless_kernel_1@D@4@@dlib@@6B?$asc_pair_remover@V?$basic_string@DU?$char_traits@D@std@@V?$allocator@D@2@@std@@V12@U?$less@V?$basic_string@DU?$char_traits@D@std@@V?$allocator@D@2@@std@@@2@@1@@ ; dlib::map_kernel_1<std::basic_string<char,std::char_traits<char>,std::allocator<char> >,std::basic_string<char,std::char_traits<char>,std::allocator<char> >,dlib::binary_search_tree_kernel_2<std::basic_string<char,std::char_traits<char>,std::allocator<char> >,std::basic_string<char,std::char_traits<char>,std::allocator<char> >,dlib::memory_manager_stateless_kernel_1<char>,std::less<std::basic_string<char,std::char_traits<char>,std::allocator<char> > > >,dlib::memory_manager_stateless_kernel_1<char> >::`vftable'
PUBLIC	??_7?$binary_search_tree_kernel_2@V?$basic_string@DU?$char_traits@D@std@@V?$allocator@D@2@@std@@PAXV?$memory_manager_stateless_kernel_1@D@dlib@@U?$less@V?$basic_string@DU?$char_traits@D@std@@V?$allocator@D@2@@std@@@2@@dlib@@6B?$enumerable@V?$map_pair@V?$basic_string@DU?$char_traits@D@std@@V?$allocator@D@2@@std@@PAX@dlib@@@1@@ ; dlib::binary_search_tree_kernel_2<std::basic_string<char,std::char_traits<char>,std::allocator<char> >,void *,dlib::memory_manager_stateless_kernel_1<char>,std::less<std::basic_string<char,std::char_traits<char>,std::allocator<char> > > >::`vftable'
PUBLIC	??_7?$binary_search_tree_kernel_2@V?$basic_string@DU?$char_traits@D@std@@V?$allocator@D@2@@std@@PAXV?$memory_manager_stateless_kernel_1@D@dlib@@U?$less@V?$basic_string@DU?$char_traits@D@std@@V?$allocator@D@2@@std@@@2@@dlib@@6B?$asc_pair_remover@V?$basic_string@DU?$char_traits@D@std@@V?$allocator@D@2@@std@@PAXU?$less@V?$basic_string@DU?$char_traits@D@std@@V?$allocator@D@2@@std@@@2@@1@@ ; dlib::binary_search_tree_kernel_2<std::basic_string<char,std::char_traits<char>,std::allocator<char> >,void *,dlib::memory_manager_stateless_kernel_1<char>,std::less<std::basic_string<char,std::char_traits<char>,std::allocator<char> > > >::`vftable'
PUBLIC	??_7?$map_kernel_1@V?$basic_string@DU?$char_traits@D@std@@V?$allocator@D@2@@std@@PAXV?$binary_search_tree_kernel_2@V?$basic_string@DU?$char_traits@D@std@@V?$allocator@D@2@@std@@PAXV?$memory_manager_stateless_kernel_1@D@dlib@@U?$less@V?$basic_string@DU?$char_traits@D@std@@V?$allocator@D@2@@std@@@2@@dlib@@V?$memory_manager_stateless_kernel_1@D@4@@dlib@@6B?$enumerable@V?$map_pair@V?$basic_string@DU?$char_traits@D@std@@V?$allocator@D@2@@std@@PAX@dlib@@@1@@ ; dlib::map_kernel_1<std::basic_string<char,std::char_traits<char>,std::allocator<char> >,void *,dlib::binary_search_tree_kernel_2<std::basic_string<char,std::char_traits<char>,std::allocator<char> >,void *,dlib::memory_manager_stateless_kernel_1<char>,std::less<std::basic_string<char,std::char_traits<char>,std::allocator<char> > > >,dlib::memory_manager_stateless_kernel_1<char> >::`vftable'
PUBLIC	??_7?$map_kernel_1@V?$basic_string@DU?$char_traits@D@std@@V?$allocator@D@2@@std@@PAXV?$binary_search_tree_kernel_2@V?$basic_string@DU?$char_traits@D@std@@V?$allocator@D@2@@std@@PAXV?$memory_manager_stateless_kernel_1@D@dlib@@U?$less@V?$basic_string@DU?$char_traits@D@std@@V?$allocator@D@2@@std@@@2@@dlib@@V?$memory_manager_stateless_kernel_1@D@4@@dlib@@6B?$asc_pair_remover@V?$basic_string@DU?$char_traits@D@std@@V?$allocator@D@2@@std@@PAXU?$less@V?$basic_string@DU?$char_traits@D@std@@V?$allocator@D@2@@std@@@2@@1@@ ; dlib::map_kernel_1<std::basic_string<char,std::char_traits<char>,std::allocator<char> >,void *,dlib::binary_search_tree_kernel_2<std::basic_string<char,std::char_traits<char>,std::allocator<char> >,void *,dlib::memory_manager_stateless_kernel_1<char>,std::less<std::basic_string<char,std::char_traits<char>,std::allocator<char> > > >,dlib::memory_manager_stateless_kernel_1<char> >::`vftable'
PUBLIC	??_7?$config_reader_kernel_1@V?$map_kernel_1@V?$basic_string@DU?$char_traits@D@std@@V?$allocator@D@2@@std@@V12@V?$binary_search_tree_kernel_2@V?$basic_string@DU?$char_traits@D@std@@V?$allocator@D@2@@std@@V12@V?$memory_manager_stateless_kernel_1@D@dlib@@U?$less@V?$basic_string@DU?$char_traits@D@std@@V?$allocator@D@2@@std@@@2@@dlib@@V?$memory_manager_stateless_kernel_1@D@4@@dlib@@V?$map_kernel_1@V?$basic_string@DU?$char_traits@D@std@@V?$allocator@D@2@@std@@PAXV?$binary_search_tree_kernel_2@V?$basic_string@DU?$char_traits@D@std@@V?$allocator@D@2@@std@@PAXV?$memory_manager_stateless_kernel_1@D@dlib@@U?$less@V?$basic_string@DU?$char_traits@D@std@@V?$allocator@D@2@@std@@@2@@dlib@@V?$memory_manager_stateless_kernel_1@D@4@@2@Vtokenizer_kernel_1@2@@dlib@@6B@ ; dlib::config_reader_kernel_1<dlib::map_kernel_1<std::basic_string<char,std::char_traits<char>,std::allocator<char> >,std::basic_string<char,std::char_traits<char>,std::allocator<char> >,dlib::binary_search_tree_kernel_2<std::basic_string<char,std::char_traits<char>,std::allocator<char> >,std::basic_string<char,std::char_traits<char>,std::allocator<char> >,dlib::memory_manager_stateless_kernel_1<char>,std::less<std::basic_string<char,std::char_traits<char>,std::allocator<char> > > >,dlib::memory_manager_stateless_kernel_1<char> >,dlib::map_kernel_1<std::basic_string<char,std::char_traits<char>,std::allocator<char> >,void *,dlib::binary_search_tree_kernel_2<std::basic_string<char,std::char_traits<char>,std::allocator<char> >,void *,dlib::memory_manager_stateless_kernel_1<char>,std::less<std::basic_string<char,std::char_traits<char>,std::allocator<char> > > >,dlib::memory_manager_stateless_kernel_1<char> >,dlib::tokenizer_kernel_1>::`vftable'
PUBLIC	??_7config_reader_error@?$config_reader_kernel_1@V?$map_kernel_1@V?$basic_string@DU?$char_traits@D@std@@V?$allocator@D@2@@std@@V12@V?$binary_search_tree_kernel_2@V?$basic_string@DU?$char_traits@D@std@@V?$allocator@D@2@@std@@V12@V?$memory_manager_stateless_kernel_1@D@dlib@@U?$less@V?$basic_string@DU?$char_traits@D@std@@V?$allocator@D@2@@std@@@2@@dlib@@V?$memory_manager_stateless_kernel_1@D@4@@dlib@@V?$map_kernel_1@V?$basic_string@DU?$char_traits@D@std@@V?$allocator@D@2@@std@@PAXV?$binary_search_tree_kernel_2@V?$basic_string@DU?$char_traits@D@std@@V?$allocator@D@2@@std@@PAXV?$memory_manager_stateless_kernel_1@D@dlib@@U?$less@V?$basic_string@DU?$char_traits@D@std@@V?$allocator@D@2@@std@@@2@@dlib@@V?$memory_manager_stateless_kernel_1@D@4@@2@Vtokenizer_kernel_1@2@@dlib@@6B@ ; dlib::config_reader_kernel_1<dlib::map_kernel_1<std::basic_string<char,std::char_traits<char>,std::allocator<char> >,std::basic_string<char,std::char_traits<char>,std::allocator<char> >,dlib::binary_search_tree_kernel_2<std::basic_string<char,std::char_traits<char>,std::allocator<char> >,std::basic_string<char,std::char_traits<char>,std::allocator<char> >,dlib::memory_manager_stateless_kernel_1<char>,std::less<std::basic_string<char,std::char_traits<char>,std::allocator<char> > > >,dlib::memory_manager_stateless_kernel_1<char> >,dlib::map_kernel_1<std::basic_string<char,std::char_traits<char>,std::allocator<char> >,void *,dlib::binary_search_tree_kernel_2<std::basic_string<char,std::char_traits<char>,std::allocator<char> >,void *,dlib::memory_manager_stateless_kernel_1<char>,std::less<std::basic_string<char,std::char_traits<char>,std::allocator<char> > > >,dlib::memory_manager_stateless_kernel_1<char> >,dlib::tokenizer_kernel_1>::config_reader_error::`vftable'
PUBLIC	??_7file_not_found@?$config_reader_kernel_1@V?$map_kernel_1@V?$basic_string@DU?$char_traits@D@std@@V?$allocator@D@2@@std@@V12@V?$binary_search_tree_kernel_2@V?$basic_string@DU?$char_traits@D@std@@V?$allocator@D@2@@std@@V12@V?$memory_manager_stateless_kernel_1@D@dlib@@U?$less@V?$basic_string@DU?$char_traits@D@std@@V?$allocator@D@2@@std@@@2@@dlib@@V?$memory_manager_stateless_kernel_1@D@4@@dlib@@V?$map_kernel_1@V?$basic_string@DU?$char_traits@D@std@@V?$allocator@D@2@@std@@PAXV?$binary_search_tree_kernel_2@V?$basic_string@DU?$char_traits@D@std@@V?$allocator@D@2@@std@@PAXV?$memory_manager_stateless_kernel_1@D@dlib@@U?$less@V?$basic_string@DU?$char_traits@D@std@@V?$allocator@D@2@@std@@@2@@dlib@@V?$memory_manager_stateless_kernel_1@D@4@@2@Vtokenizer_kernel_1@2@@dlib@@6B@ ; dlib::config_reader_kernel_1<dlib::map_kernel_1<std::basic_string<char,std::char_traits<char>,std::allocator<char> >,std::basic_string<char,std::char_traits<char>,std::allocator<char> >,dlib::binary_search_tree_kernel_2<std::basic_string<char,std::char_traits<char>,std::allocator<char> >,std::basic_string<char,std::char_traits<char>,std::allocator<char> >,dlib::memory_manager_stateless_kernel_1<char>,std::less<std::basic_string<char,std::char_traits<char>,std::allocator<char> > > >,dlib::memory_manager_stateless_kernel_1<char> >,dlib::map_kernel_1<std::basic_string<char,std::char_traits<char>,std::allocator<char> >,void *,dlib::binary_search_tree_kernel_2<std::basic_string<char,std::char_traits<char>,std::allocator<char> >,void *,dlib::memory_manager_stateless_kernel_1<char>,std::less<std::basic_string<char,std::char_traits<char>,std::allocator<char> > > >,dlib::memory_manager_stateless_kernel_1<char> >,dlib::tokenizer_kernel_1>::file_not_found::`vftable'
PUBLIC	??_7config_reader_access_error@?$config_reader_kernel_1@V?$map_kernel_1@V?$basic_string@DU?$char_traits@D@std@@V?$allocator@D@2@@std@@V12@V?$binary_search_tree_kernel_2@V?$basic_string@DU?$char_traits@D@std@@V?$allocator@D@2@@std@@V12@V?$memory_manager_stateless_kernel_1@D@dlib@@U?$less@V?$basic_string@DU?$char_traits@D@std@@V?$allocator@D@2@@std@@@2@@dlib@@V?$memory_manager_stateless_kernel_1@D@4@@dlib@@V?$map_kernel_1@V?$basic_string@DU?$char_traits@D@std@@V?$allocator@D@2@@std@@PAXV?$binary_search_tree_kernel_2@V?$basic_string@DU?$char_traits@D@std@@V?$allocator@D@2@@std@@PAXV?$memory_manager_stateless_kernel_1@D@dlib@@U?$less@V?$basic_string@DU?$char_traits@D@std@@V?$allocator@D@2@@std@@@2@@dlib@@V?$memory_manager_stateless_kernel_1@D@4@@2@Vtokenizer_kernel_1@2@@dlib@@6B@ ; dlib::config_reader_kernel_1<dlib::map_kernel_1<std::basic_string<char,std::char_traits<char>,std::allocator<char> >,std::basic_string<char,std::char_traits<char>,std::allocator<char> >,dlib::binary_search_tree_kernel_2<std::basic_string<char,std::char_traits<char>,std::allocator<char> >,std::basic_string<char,std::char_traits<char>,std::allocator<char> >,dlib::memory_manager_stateless_kernel_1<char>,std::less<std::basic_string<char,std::char_traits<char>,std::allocator<char> > > >,dlib::memory_manager_stateless_kernel_1<char> >,dlib::map_kernel_1<std::basic_string<char,std::char_traits<char>,std::allocator<char> >,void *,dlib::binary_search_tree_kernel_2<std::basic_string<char,std::char_traits<char>,std::allocator<char> >,void *,dlib::memory_manager_stateless_kernel_1<char>,std::less<std::basic_string<char,std::char_traits<char>,std::allocator<char> > > >,dlib::memory_manager_stateless_kernel_1<char> >,dlib::tokenizer_kernel_1>::config_reader_access_error::`vftable'
PUBLIC	??_7?$map_pair@V?$basic_string@DU?$char_traits@D@std@@V?$allocator@D@2@@std@@V12@@dlib@@6B@ ; dlib::map_pair<std::basic_string<char,std::char_traits<char>,std::allocator<char> >,std::basic_string<char,std::char_traits<char>,std::allocator<char> > >::`vftable'
PUBLIC	??_7?$enumerable@V?$map_pair@V?$basic_string@DU?$char_traits@D@std@@V?$allocator@D@2@@std@@V12@@dlib@@@dlib@@6B@ ; dlib::enumerable<dlib::map_pair<std::basic_string<char,std::char_traits<char>,std::allocator<char> >,std::basic_string<char,std::char_traits<char>,std::allocator<char> > > >::`vftable'
PUBLIC	??_7?$asc_pair_remover@V?$basic_string@DU?$char_traits@D@std@@V?$allocator@D@2@@std@@V12@U?$less@V?$basic_string@DU?$char_traits@D@std@@V?$allocator@D@2@@std@@@2@@dlib@@6B@ ; dlib::asc_pair_remover<std::basic_string<char,std::char_traits<char>,std::allocator<char> >,std::basic_string<char,std::char_traits<char>,std::allocator<char> >,std::less<std::basic_string<char,std::char_traits<char>,std::allocator<char> > > >::`vftable'
PUBLIC	??_7?$pair_remover@V?$basic_string@DU?$char_traits@D@std@@V?$allocator@D@2@@std@@V12@@dlib@@6B@ ; dlib::pair_remover<std::basic_string<char,std::char_traits<char>,std::allocator<char> >,std::basic_string<char,std::char_traits<char>,std::allocator<char> > >::`vftable'
PUBLIC	??_7mpair@?$binary_search_tree_kernel_2@V?$basic_string@DU?$char_traits@D@std@@V?$allocator@D@2@@std@@V12@V?$memory_manager_stateless_kernel_1@D@dlib@@U?$less@V?$basic_string@DU?$char_traits@D@std@@V?$allocator@D@2@@std@@@2@@dlib@@6B@ ; dlib::binary_search_tree_kernel_2<std::basic_string<char,std::char_traits<char>,std::allocator<char> >,std::basic_string<char,std::char_traits<char>,std::allocator<char> >,dlib::memory_manager_stateless_kernel_1<char>,std::less<std::basic_string<char,std::char_traits<char>,std::allocator<char> > > >::mpair::`vftable'
PUBLIC	??_7?$memory_manager_stateless_kernel_1@Vnode@?$binary_search_tree_kernel_2@V?$basic_string@DU?$char_traits@D@std@@V?$allocator@D@2@@std@@V12@V?$memory_manager_stateless_kernel_1@D@dlib@@U?$less@V?$basic_string@DU?$char_traits@D@std@@V?$allocator@D@2@@std@@@2@@dlib@@@dlib@@6B@ ; dlib::memory_manager_stateless_kernel_1<dlib::binary_search_tree_kernel_2<std::basic_string<char,std::char_traits<char>,std::allocator<char> >,std::basic_string<char,std::char_traits<char>,std::allocator<char> >,dlib::memory_manager_stateless_kernel_1<char>,std::less<std::basic_string<char,std::char_traits<char>,std::allocator<char> > > >::node>::`vftable'
PUBLIC	??_7?$map_pair@V?$basic_string@DU?$char_traits@D@std@@V?$allocator@D@2@@std@@PAX@dlib@@6B@ ; dlib::map_pair<std::basic_string<char,std::char_traits<char>,std::allocator<char> >,void *>::`vftable'
PUBLIC	??_7?$enumerable@V?$map_pair@V?$basic_string@DU?$char_traits@D@std@@V?$allocator@D@2@@std@@PAX@dlib@@@dlib@@6B@ ; dlib::enumerable<dlib::map_pair<std::basic_string<char,std::char_traits<char>,std::allocator<char> >,void *> >::`vftable'
PUBLIC	??_7?$asc_pair_remover@V?$basic_string@DU?$char_traits@D@std@@V?$allocator@D@2@@std@@PAXU?$less@V?$basic_string@DU?$char_traits@D@std@@V?$allocator@D@2@@std@@@2@@dlib@@6B@ ; dlib::asc_pair_remover<std::basic_string<char,std::char_traits<char>,std::allocator<char> >,void *,std::less<std::basic_string<char,std::char_traits<char>,std::allocator<char> > > >::`vftable'
PUBLIC	??_7?$pair_remover@V?$basic_string@DU?$char_traits@D@std@@V?$allocator@D@2@@std@@PAX@dlib@@6B@ ; dlib::pair_remover<std::basic_string<char,std::char_traits<char>,std::allocator<char> >,void *>::`vftable'
PUBLIC	??_7mpair@?$binary_search_tree_kernel_2@V?$basic_string@DU?$char_traits@D@std@@V?$allocator@D@2@@std@@PAXV?$memory_manager_stateless_kernel_1@D@dlib@@U?$less@V?$basic_string@DU?$char_traits@D@std@@V?$allocator@D@2@@std@@@2@@dlib@@6B@ ; dlib::binary_search_tree_kernel_2<std::basic_string<char,std::char_traits<char>,std::allocator<char> >,void *,dlib::memory_manager_stateless_kernel_1<char>,std::less<std::basic_string<char,std::char_traits<char>,std::allocator<char> > > >::mpair::`vftable'
