; Listing generated by Microsoft (R) Optimizing Compiler Version 16.00.40219.01 

	TITLE	C:\Work\daspirum\Source\src\GeoIP.cpp
	.686P
	.XMM
	include listing.inc
	.model	flat

INCLUDELIB OLDNAMES

PUBLIC	??_R4iosockstream@dlib@@6B@			; dlib::iosockstream::`RTTI Complete Object Locator'
PUBLIC	??_R3iosockstream@dlib@@8			; dlib::iosockstream::`RTTI Class Hierarchy Descriptor'
PUBLIC	??_R2iosockstream@dlib@@8			; dlib::iosockstream::`RTTI Base Class Array'
PUBLIC	??_R1A@?0A@EA@iosockstream@dlib@@8		; dlib::iosockstream::`RTTI Base Class Descriptor at (0,-1,0,64)'
PUBLIC	??_R0?AViosockstream@dlib@@@8			; dlib::iosockstream `RTTI Type Descriptor'
PUBLIC	??0sockstreambuf@dlib@@QAE@PAVconnection@1@@Z	; dlib::sockstreambuf::sockstreambuf
PUBLIC	?flush_output_on_read@sockstreambuf@dlib@@QAEXXZ ; dlib::sockstreambuf::flush_output_on_read
PUBLIC	?get@?$shared_ptr_thread_safe@Vconnection@dlib@@@dlib@@QBEPAVconnection@2@XZ ; dlib::shared_ptr_thread_safe<dlib::connection>::get
PUBLIC	??C?$scoped_ptr@Vsockstreambuf@dlib@@U?$default_deleter@Vsockstreambuf@dlib@@@2@@dlib@@QBEPAVsockstreambuf@1@XZ ; dlib::scoped_ptr<dlib::sockstreambuf,dlib::default_deleter<dlib::sockstreambuf> >::operator->
PUBLIC	?get@?$scoped_ptr@Vsockstreambuf@dlib@@U?$default_deleter@Vsockstreambuf@dlib@@@2@@dlib@@QBEPAVsockstreambuf@2@XZ ; dlib::scoped_ptr<dlib::sockstreambuf,dlib::default_deleter<dlib::sockstreambuf> >::get
PUBLIC	??$?0Vconnection@dlib@@@?$shared_ptr_thread_safe@Vconnection@dlib@@@dlib@@QAE@PAVconnection@1@@Z ; dlib::shared_ptr_thread_safe<dlib::connection>::shared_ptr_thread_safe<dlib::connection><dlib::connection>
PUBLIC	??$reset@Vconnection@dlib@@@?$shared_ptr_thread_safe@Vconnection@dlib@@@dlib@@QAEXPAVconnection@1@@Z ; dlib::shared_ptr_thread_safe<dlib::connection>::reset<dlib::connection>
PUBLIC	?open@iosockstream@dlib@@QAEXABUnetwork_address@2@@Z ; dlib::iosockstream::open
PUBLIC	??0?$scoped_ptr@Vtimeout@dlib@@U?$default_deleter@Vtimeout@dlib@@@2@@dlib@@QAE@PAVtimeout@1@@Z ; dlib::scoped_ptr<dlib::timeout,dlib::default_deleter<dlib::timeout> >::scoped_ptr<dlib::timeout,dlib::default_deleter<dlib::timeout> >
PUBLIC	??0?$scoped_ptr@Vsockstreambuf@dlib@@U?$default_deleter@Vsockstreambuf@dlib@@@2@@dlib@@QAE@PAVsockstreambuf@1@@Z ; dlib::scoped_ptr<dlib::sockstreambuf,dlib::default_deleter<dlib::sockstreambuf> >::scoped_ptr<dlib::sockstreambuf,dlib::default_deleter<dlib::sockstreambuf> >
PUBLIC	??0iosockstream@dlib@@QAE@ABUnetwork_address@1@@Z ; dlib::iosockstream::iosockstream
PUBLIC	??0?$shared_ptr_thread_safe@Vconnection@dlib@@@dlib@@QAE@XZ ; dlib::shared_ptr_thread_safe<dlib::connection>::shared_ptr_thread_safe<dlib::connection>
PUBLIC	??$_Move@AAPAUshared_ptr_thread_safe_node@dlib@@@std@@YA$$QAPAUshared_ptr_thread_safe_node@dlib@@AAPAU12@@Z ; std::_Move<dlib::shared_ptr_thread_safe_node * &>
PUBLIC	??$swap@PAUshared_ptr_thread_safe_node@dlib@@@std@@YAXAAPAUshared_ptr_thread_safe_node@dlib@@0@Z ; std::swap<dlib::shared_ptr_thread_safe_node *>
PUBLIC	?swap@?$shared_ptr_thread_safe@Vconnection@dlib@@@dlib@@QAEXAAV12@@Z ; dlib::shared_ptr_thread_safe<dlib::connection>::swap
PUBLIC	?reset@?$shared_ptr_thread_safe@Vconnection@dlib@@@dlib@@QAEXXZ ; dlib::shared_ptr_thread_safe<dlib::connection>::reset
PUBLIC	??D?$shared_ptr_thread_safe@Vconnection@dlib@@@dlib@@QBEAAVconnection@1@XZ ; dlib::shared_ptr_thread_safe<dlib::connection>::operator*
PUBLIC	??C?$shared_ptr_thread_safe@Vconnection@dlib@@@dlib@@QBEPAVconnection@1@XZ ; dlib::shared_ptr_thread_safe<dlib::connection>::operator->
PUBLIC	?reset@?$scoped_ptr@Vsockstreambuf@dlib@@U?$default_deleter@Vsockstreambuf@dlib@@@2@@dlib@@QAEXPAVsockstreambuf@2@@Z ; dlib::scoped_ptr<dlib::sockstreambuf,dlib::default_deleter<dlib::sockstreambuf> >::reset
PUBLIC	??B?$scoped_ptr@Vsockstreambuf@dlib@@U?$default_deleter@Vsockstreambuf@dlib@@@2@@dlib@@QBE_NXZ ; dlib::scoped_ptr<dlib::sockstreambuf,dlib::default_deleter<dlib::sockstreambuf> >::operator bool
PUBLIC	?close@iosockstream@dlib@@QAEXK@Z		; dlib::iosockstream::close
PUBLIC	??R?$default_deleter@Vtimeout@dlib@@@dlib@@QBEXPAVtimeout@1@@Z ; dlib::default_deleter<dlib::timeout>::operator()
PUBLIC	??1?$scoped_ptr@Vtimeout@dlib@@U?$default_deleter@Vtimeout@dlib@@@2@@dlib@@QAE@XZ ; dlib::scoped_ptr<dlib::timeout,dlib::default_deleter<dlib::timeout> >::~scoped_ptr<dlib::timeout,dlib::default_deleter<dlib::timeout> >
PUBLIC	??1?$shared_ptr_thread_safe@Vconnection@dlib@@@dlib@@QAE@XZ ; dlib::shared_ptr_thread_safe<dlib::connection>::~shared_ptr_thread_safe<dlib::connection>
PUBLIC	??R?$default_deleter@Vsockstreambuf@dlib@@@dlib@@QBEXPAVsockstreambuf@1@@Z ; dlib::default_deleter<dlib::sockstreambuf>::operator()
PUBLIC	??1?$scoped_ptr@Vsockstreambuf@dlib@@U?$default_deleter@Vsockstreambuf@dlib@@@2@@dlib@@QAE@XZ ; dlib::scoped_ptr<dlib::sockstreambuf,dlib::default_deleter<dlib::sockstreambuf> >::~scoped_ptr<dlib::sockstreambuf,dlib::default_deleter<dlib::sockstreambuf> >
PUBLIC	??_Giosockstream@dlib@@UAEPAXI@Z		; dlib::iosockstream::`scalar deleting destructor'
PUBLIC	??1iosockstream@dlib@@UAE@XZ			; dlib::iosockstream::~iosockstream
PUBLIC	??_Diosockstream@dlib@@QAEXXZ			; dlib::iosockstream::`vbase destructor'
PUBLIC	??_7iosockstream@dlib@@6B@			; dlib::iosockstream::`vftable'
PUBLIC	??_8iosockstream@dlib@@7B?$basic_istream@DU?$char_traits@D@std@@@std@@@ ; dlib::iosockstream::`vbtable'
PUBLIC	??_8iosockstream@dlib@@7B?$basic_ostream@DU?$char_traits@D@std@@@std@@@ ; dlib::iosockstream::`vbtable'
EXTRN	??_Eiosockstream@dlib@@UAEPAXI@Z:PROC		; dlib::iosockstream::`vector deleting destructor'
;	COMDAT ??_8iosockstream@dlib@@7B?$basic_ostream@DU?$char_traits@D@std@@@std@@@
CONST	SEGMENT
??_8iosockstream@dlib@@7B?$basic_ostream@DU?$char_traits@D@std@@@std@@@ DD 00H ; dlib::iosockstream::`vbtable'
	DD	018H
CONST	ENDS
;	COMDAT ??_8iosockstream@dlib@@7B?$basic_istream@DU?$char_traits@D@std@@@std@@@
CONST	SEGMENT
??_8iosockstream@dlib@@7B?$basic_istream@DU?$char_traits@D@std@@@std@@@ DD 00H ; dlib::iosockstream::`vbtable'
	DD	028H
CONST	ENDS
;	COMDAT ??_7iosockstream@dlib@@6B@
CONST	SEGMENT
??_7iosockstream@dlib@@6B@ DD FLAT:??_R4iosockstream@dlib@@6B@ ; dlib::iosockstream::`vftable'
	DD	FLAT:??_Eiosockstream@dlib@@UAEPAXI@Z
CONST	ENDS
;	COMDAT ??_R4iosockstream@dlib@@6B@
rdata$r	SEGMENT
??_R4iosockstream@dlib@@6B@ DD 00H			; dlib::iosockstream::`RTTI Complete Object Locator'
	DD	028H
	DD	00H
	DD	FLAT:??_R0?AViosockstream@dlib@@@8
	DD	FLAT:??_R3iosockstream@dlib@@8
rdata$r	ENDS
;	COMDAT ??_R3iosockstream@dlib@@8
rdata$r	SEGMENT
??_R3iosockstream@dlib@@8 DD 00H			; dlib::iosockstream::`RTTI Class Hierarchy Descriptor'
	DD	03H
	DD	0aH
	DD	FLAT:??_R2iosockstream@dlib@@8
rdata$r	ENDS
;	COMDAT ??_R2iosockstream@dlib@@8
rdata$r	SEGMENT
??_R2iosockstream@dlib@@8 DD FLAT:??_R1A@?0A@EA@iosockstream@dlib@@8 ; dlib::iosockstream::`RTTI Base Class Array'
	DD	FLAT:??_R1A@?0A@EA@?$basic_iostream@DU?$char_traits@D@std@@@std@@8
	DD	FLAT:??_R1A@?0A@EA@?$basic_istream@DU?$char_traits@D@std@@@std@@8
	DD	FLAT:??_R1A@A@3FA@?$basic_ios@DU?$char_traits@D@std@@@std@@8
	DD	FLAT:??_R1A@A@3EA@ios_base@std@@8
	DD	FLAT:??_R17A@3EA@?$_Iosb@H@std@@8
	DD	FLAT:??_R1BA@?0A@EA@?$basic_ostream@DU?$char_traits@D@std@@@std@@8
	DD	FLAT:??_R1A@A@3FA@?$basic_ios@DU?$char_traits@D@std@@@std@@8
	DD	FLAT:??_R1A@A@3EA@ios_base@std@@8
	DD	FLAT:??_R17A@3EA@?$_Iosb@H@std@@8
rdata$r	ENDS
;	COMDAT ??_R1A@?0A@EA@iosockstream@dlib@@8
rdata$r	SEGMENT
??_R1A@?0A@EA@iosockstream@dlib@@8 DD FLAT:??_R0?AViosockstream@dlib@@@8 ; dlib::iosockstream::`RTTI Base Class Descriptor at (0,-1,0,64)'
	DD	09H
	DD	00H
	DD	0ffffffffH
	DD	00H
	DD	040H
	DD	FLAT:??_R3iosockstream@dlib@@8
rdata$r	ENDS
;	COMDAT ??_R0?AViosockstream@dlib@@@8
_DATA	SEGMENT
??_R0?AViosockstream@dlib@@@8 DD FLAT:??_7type_info@@6B@ ; dlib::iosockstream `RTTI Type Descriptor'
	DD	00H
	DB	'.?AViosockstream@dlib@@', 00H
$SG-50591 DB	00H
	ORG $+1
$SG-50586 DB	0dH, 0aH, 0dH, 0aH, 00H
	ORG $+3
$SG-50587 DB	' HTTP/1.0', 0dH, 0aH, 'Host: ', 00H
	ORG $+2
$SG-50588 DB	'?ip=', 00H
	ORG $+3
$SG-50589 DB	'GET ', 00H
	ORG $+3
$SG-50590 DB	'c:->', 00H
	ORG $+3
$SG-50636 DB	'.', 0aH, 00H
	ORG $+1
$SG-50637 DB	0aH, 0aH, 'Error detected at line ', 00H
	ORG $+2
$SG-50638 DB	'.', 0aH, 00H
	ORG $+1
$SG-50639 DB	'e:\library\dlib\dlib\set/set_kernel_c.h', 00H
$SG-50640 DB	'Error detected in file ', 00H
$SG-50641 DB	'.', 0aH, 0aH, 00H
$SG-50642 DB	'void __thiscall dlib::set_kernel_c<class dlib::set_kerne'
	DB	'l_1<unsigned long,class dlib::binary_search_tree_kernel_2<uns'
	DB	'igned long,char,class dlib::memory_manager_kernel_2<char,100>'
	DB	',struct std::less<unsigned long> >,class dlib::memory_manager'
	DB	'_kernel_2<char,100> > >::remove_any(unsigned long &)', 00H
$SG-50643 DB	'Error detected in function ', 00H
$SG-50644 DB	'.', 0aH, 00H
	ORG $+1
$SG-50645 DB	'this->size() != 0', 00H
	ORG $+2
$SG-50646 DB	'Failing expression was ', 00H
$SG-50647 DB	0aH, 00H
	ORG $+2
$SG-50648 DB	0aH, 09H, 'this: ', 00H
	ORG $+3
$SG-50649 DB	0aH, 09H, 'size must be greater than zero if an item is t'
	DB	'o be removed', 00H
	ORG $+3
$SG-50650 DB	09H, 'void set::remove_any', 00H
	ORG $+2
$SG-50651 DB	'.', 0aH, 00H
	ORG $+1
$SG-50652 DB	0aH, 0aH, 'Error detected at line ', 00H
	ORG $+2
$SG-50653 DB	'.', 0aH, 00H
	ORG $+1
$SG-50654 DB	'e:\library\dlib\dlib\set/set_kernel_c.h', 00H
$SG-50655 DB	'Error detected in file ', 00H
$SG-50656 DB	'.', 0aH, 0aH, 00H
$SG-50657 DB	'const unsigned long &__thiscall dlib::set_kernel_c<class'
	DB	' dlib::set_kernel_1<unsigned long,class dlib::binary_search_t'
	DB	'ree_kernel_2<unsigned long,char,class dlib::memory_manager_ke'
	DB	'rnel_2<char,100>,struct std::less<unsigned long> >,class dlib'
	DB	'::memory_manager_kernel_2<char,100> > >::element(void) const', 00H
$SG-50658 DB	'Error detected in function ', 00H
$SG-50659 DB	'.', 0aH, 00H
	ORG $+1
$SG-50660 DB	'this->current_element_valid() == true', 00H
	ORG $+2
$SG-50661 DB	'Failing expression was ', 00H
$SG-50662 DB	0aH, 00H
	ORG $+2
$SG-50663 DB	0aH, 09H, 'this: ', 00H
	ORG $+3
$SG-50664 DB	0aH, 09H, 'you can''t access the current element if it do'
	DB	'esn''t exist', 00H
	ORG $+1
$SG-50665 DB	09H, 'const T& set::element() const', 00H
	ORG $+1
$SG-50666 DB	'.', 0aH, 00H
	ORG $+1
$SG-50667 DB	0aH, 0aH, 'Error detected at line ', 00H
	ORG $+2
$SG-50668 DB	'.', 0aH, 00H
	ORG $+1
$SG-50669 DB	'e:\library\dlib\dlib\set/set_kernel_c.h', 00H
$SG-50670 DB	'Error detected in file ', 00H
$SG-50671 DB	'.', 0aH, 0aH, 00H
$SG-50672 DB	'const unsigned long &__thiscall dlib::set_kernel_c<class'
	DB	' dlib::set_kernel_1<unsigned long,class dlib::binary_search_t'
	DB	'ree_kernel_2<unsigned long,char,class dlib::memory_manager_ke'
	DB	'rnel_2<char,100>,struct std::less<unsigned long> >,class dlib'
	DB	'::memory_manager_kernel_2<char,100> > >::element(void)', 00H
	ORG $+2
$SG-50673 DB	'Error detected in function ', 00H
$SG-50674 DB	'.', 0aH, 00H
	ORG $+1
$SG-50675 DB	'this->current_element_valid() == true', 00H
	ORG $+2
$SG-50676 DB	'Failing expression was ', 00H
$SG-50677 DB	0aH, 00H
	ORG $+2
$SG-50678 DB	0aH, 09H, 'this: ', 00H
	ORG $+3
$SG-50679 DB	0aH, 09H, 'you can''t access the current element if it do'
	DB	'esn''t exist', 00H
	ORG $+1
$SG-50680 DB	09H, 'const T& set::element', 00H
	ORG $+1
$SG-50681 DB	'.', 0aH, 00H
	ORG $+1
$SG-50682 DB	0aH, 0aH, 'Error detected at line ', 00H
	ORG $+2
$SG-50683 DB	'.', 0aH, 00H
	ORG $+1
$SG-50684 DB	'e:\library\dlib\dlib\binary_search_tree/binary_search_tr'
	DB	'ee_kernel_c.h', 00H
	ORG $+2
$SG-50685 DB	'Error detected in file ', 00H
$SG-50686 DB	'.', 0aH, 0aH, 00H
$SG-50688 DB	'Error detected in function ', 00H
$SG-50687 DB	'void __thiscall dlib::binary_search_tree_kernel_c<class '
	DB	'dlib::binary_search_tree_kernel_2<unsigned long,class dlib::m'
	DB	'ember_function_pointer<void,void,void,void>,class dlib::memor'
	DB	'y_manager_kernel_2<char,10>,struct std::less<unsigned long> >'
	DB	' >::remove_any(unsigned long &,class dlib::member_function_po'
	DB	'inter<void,void,void,void> &)', 00H
	ORG $+2
$SG-50689 DB	'.', 0aH, 00H
	ORG $+1
$SG-50690 DB	'this->size() != 0 && (static_cast<const void*>(&d) != st'
	DB	'atic_cast<void*>(&r))', 00H
	ORG $+2
$SG-50691 DB	'Failing expression was ', 00H
$SG-50692 DB	0aH, 00H
	ORG $+2
$SG-50693 DB	0aH, 09H, '&r:   ', 00H
	ORG $+3
$SG-50694 DB	0aH, 09H, '&d:   ', 00H
	ORG $+3
$SG-50695 DB	0aH, 09H, 'this: ', 00H
	ORG $+3
$SG-50696 DB	0aH, 09H, 'tree must not be empty if something is going t'
	DB	'o be removed', 00H
	ORG $+3
$SG-50697 DB	09H, 'void binary_search_tree::remove_any', 00H
	ORG $+3
$SG-50698 DB	'.', 0aH, 00H
	ORG $+1
$SG-50699 DB	0aH, 0aH, 'Error detected at line ', 00H
	ORG $+2
$SG-50700 DB	'.', 0aH, 00H
	ORG $+1
$SG-50702 DB	'Error detected in file ', 00H
$SG-50703 DB	'.', 0aH, 0aH, 00H
$SG-50701 DB	'e:\library\dlib\dlib\binary_search_tree/binary_search_tr'
	DB	'ee_kernel_c.h', 00H
	ORG $+2
$SG-50704 DB	'class dlib::map_pair<unsigned long,class dlib::member_fu'
	DB	'nction_pointer<void,void,void,void> > &__thiscall dlib::binar'
	DB	'y_search_tree_kernel_c<class dlib::binary_search_tree_kernel_'
	DB	'2<unsigned long,class dlib::member_function_pointer<void,void'
	DB	',void,void>,class dlib::memory_manager_kernel_2<char,10>,stru'
	DB	'ct std::less<unsigned long> > >::element(void)', 00H
	ORG $+1
$SG-50705 DB	'Error detected in function ', 00H
$SG-50706 DB	'.', 0aH, 00H
	ORG $+1
$SG-50707 DB	'this->current_element_valid() == true', 00H
	ORG $+2
$SG-50708 DB	'Failing expression was ', 00H
$SG-50709 DB	0aH, 00H
	ORG $+2
$SG-50710 DB	0aH, 09H, 'this: ', 00H
	ORG $+3
$SG-50711 DB	0aH, 09H, 'you can''t access the current element if it do'
	DB	'esn''t exist', 00H
	ORG $+1
$SG-50712 DB	09H, 'map_pair<domain,range>& binary_search_tree::element'
	DB	'()', 00H
	ORG $+1
$SG-50713 DB	'.', 0aH, 00H
	ORG $+1
$SG-50714 DB	0aH, 0aH, 'Error detected at line ', 00H
	ORG $+2
$SG-50715 DB	'.', 0aH, 00H
	ORG $+1
$SG-50717 DB	'Error detected in file ', 00H
$SG-50718 DB	'.', 0aH, 0aH, 00H
$SG-50716 DB	'e:\library\dlib\dlib\binary_search_tree/binary_search_tr'
	DB	'ee_kernel_c.h', 00H
	ORG $+2
$SG-50719 DB	'const class dlib::map_pair<unsigned long,class dlib::mem'
	DB	'ber_function_pointer<void,void,void,void> > &__thiscall dlib:'
	DB	':binary_search_tree_kernel_c<class dlib::binary_search_tree_k'
	DB	'ernel_2<unsigned long,class dlib::member_function_pointer<voi'
	DB	'd,void,void,void>,class dlib::memory_manager_kernel_2<char,10'
	DB	'>,struct std::less<unsigned long> > >::element(void) const', 00H
	ORG $+1
$SG-50720 DB	'Error detected in function ', 00H
$SG-50721 DB	'.', 0aH, 00H
	ORG $+1
$SG-50722 DB	'this->current_element_valid() == true', 00H
	ORG $+2
$SG-50723 DB	'Failing expression was ', 00H
$SG-50724 DB	0aH, 00H
	ORG $+2
$SG-50725 DB	0aH, 09H, 'this: ', 00H
	ORG $+3
$SG-50726 DB	0aH, 09H, 'you can''t access the current element if it do'
	DB	'esn''t exist', 00H
	ORG $+1
$SG-50728 DB	'.', 0aH, 00H
	ORG $+1
$SG-50727 DB	09H, 'const map_pair<domain,range>& binary_search_tree::e'
	DB	'lement() const', 00H
	ORG $+1
$SG-50729 DB	0aH, 0aH, 'Error detected at line ', 00H
	ORG $+2
$SG-50730 DB	'.', 0aH, 00H
	ORG $+1
$SG-50732 DB	'Error detected in file ', 00H
$SG-50733 DB	'.', 0aH, 0aH, 00H
$SG-50731 DB	'e:\library\dlib\dlib\binary_search_tree/binary_search_tr'
	DB	'ee_kernel_c.h', 00H
	ORG $+2
$SG-50734 DB	'void __thiscall dlib::binary_search_tree_kernel_c<class '
	DB	'dlib::binary_search_tree_kernel_2<unsigned __int64,struct dli'
	DB	'b::timer_base *,class dlib::memory_manager_kernel_2<char,100>'
	DB	',struct std::less<unsigned __int64> > >::remove_any(unsigned '
	DB	'__int64 &,struct dlib::timer_base *&)', 00H
	ORG $+3
$SG-50735 DB	'Error detected in function ', 00H
$SG-50736 DB	'.', 0aH, 00H
	ORG $+1
$SG-50737 DB	'this->size() != 0 && (static_cast<const void*>(&d) != st'
	DB	'atic_cast<void*>(&r))', 00H
	ORG $+2
$SG-50738 DB	'Failing expression was ', 00H
$SG-50739 DB	0aH, 00H
	ORG $+2
$SG-50740 DB	0aH, 09H, '&r:   ', 00H
	ORG $+3
$SG-50741 DB	0aH, 09H, '&d:   ', 00H
	ORG $+3
$SG-50742 DB	0aH, 09H, 'this: ', 00H
	ORG $+3
$SG-50743 DB	0aH, 09H, 'tree must not be empty if something is going t'
	DB	'o be removed', 00H
	ORG $+3
$SG-50744 DB	09H, 'void binary_search_tree::remove_any', 00H
	ORG $+3
$SG-50745 DB	'.', 0aH, 00H
	ORG $+1
$SG-50746 DB	0aH, 0aH, 'Error detected at line ', 00H
	ORG $+2
$SG-50747 DB	'.', 0aH, 00H
	ORG $+1
$SG-50749 DB	'Error detected in file ', 00H
$SG-50750 DB	'.', 0aH, 0aH, 00H
$SG-50748 DB	'e:\library\dlib\dlib\binary_search_tree/binary_search_tr'
	DB	'ee_kernel_c.h', 00H
	ORG $+2
$SG-50751 DB	'class dlib::map_pair<unsigned __int64,struct dlib::timer'
	DB	'_base *> &__thiscall dlib::binary_search_tree_kernel_c<class '
	DB	'dlib::binary_search_tree_kernel_2<unsigned __int64,struct dli'
	DB	'b::timer_base *,class dlib::memory_manager_kernel_2<char,100>'
	DB	',struct std::less<unsigned __int64> > >::element(void)', 00H
	ORG $+2
$SG-50752 DB	'Error detected in function ', 00H
$SG-50753 DB	'.', 0aH, 00H
	ORG $+1
$SG-50754 DB	'this->current_element_valid() == true', 00H
	ORG $+2
$SG-50755 DB	'Failing expression was ', 00H
$SG-50756 DB	0aH, 00H
	ORG $+2
$SG-50757 DB	0aH, 09H, 'this: ', 00H
	ORG $+3
$SG-50758 DB	0aH, 09H, 'you can''t access the current element if it do'
	DB	'esn''t exist', 00H
	ORG $+1
$SG-50759 DB	09H, 'map_pair<domain,range>& binary_search_tree::element'
	DB	'()', 00H
	ORG $+1
$SG-50760 DB	'.', 0aH, 00H
	ORG $+1
$SG-50761 DB	0aH, 0aH, 'Error detected at line ', 00H
	ORG $+2
$SG-50762 DB	'.', 0aH, 00H
	ORG $+1
$SG-50763 DB	'e:\library\dlib\dlib\binary_search_tree/binary_search_tr'
	DB	'ee_kernel_c.h', 00H
	ORG $+2
$SG-50764 DB	'Error detected in file ', 00H
$SG-50765 DB	'.', 0aH, 0aH, 00H
$SG-50767 DB	'Error detected in function ', 00H
$SG-50766 DB	'const class dlib::map_pair<unsigned __int64,struct dlib:'
	DB	':timer_base *> &__thiscall dlib::binary_search_tree_kernel_c<'
	DB	'class dlib::binary_search_tree_kernel_2<unsigned __int64,stru'
	DB	'ct dlib::timer_base *,class dlib::memory_manager_kernel_2<cha'
	DB	'r,100>,struct std::less<unsigned __int64> > >::element(void) '
	DB	'const', 00H
	ORG $+2
$SG-50768 DB	'.', 0aH, 00H
	ORG $+1
$SG-50769 DB	'this->current_element_valid() == true', 00H
	ORG $+2
$SG-50770 DB	'Failing expression was ', 00H
$SG-50771 DB	0aH, 00H
	ORG $+2
$SG-50772 DB	0aH, 09H, 'this: ', 00H
	ORG $+3
$SG-50773 DB	0aH, 09H, 'you can''t access the current element if it do'
	DB	'esn''t exist', 00H
$SG-50774 DB	09H, 'const map_pair<domain,range>& binary_search_tree::e'
	DB	'lement() const', 00H
; Function compile flags: /Odtp
;	COMDAT ??$_Move@AAPAUshared_ptr_thread_safe_node@dlib@@@std@@YA$$QAPAUshared_ptr_thread_safe_node@dlib@@AAPAU12@@Z
_TEXT	SEGMENT
__Arg$ = 8						; size = 4
??$_Move@AAPAUshared_ptr_thread_safe_node@dlib@@@std@@YA$$QAPAUshared_ptr_thread_safe_node@dlib@@AAPAU12@@Z PROC ; std::_Move<dlib::shared_ptr_thread_safe_node * &>, COMDAT
; File e:\program files (x86)\microsoft visual studio 10.0\vc\include\utility
; Line 94
	push	ebp
	mov	ebp, esp
; Line 95
	mov	eax, DWORD PTR __Arg$[ebp]
; Line 96
	pop	ebp
	ret	0
??$_Move@AAPAUshared_ptr_thread_safe_node@dlib@@@std@@YA$$QAPAUshared_ptr_thread_safe_node@dlib@@AAPAU12@@Z ENDP ; std::_Move<dlib::shared_ptr_thread_safe_node * &>
; Function compile flags: /Odtp
_TEXT	ENDS
;	COMDAT ??$swap@PAUshared_ptr_thread_safe_node@dlib@@@std@@YAXAAPAUshared_ptr_thread_safe_node@dlib@@0@Z
_TEXT	SEGMENT
__Tmp$ = -4						; size = 4
__Left$ = 8						; size = 4
__Right$ = 12						; size = 4
??$swap@PAUshared_ptr_thread_safe_node@dlib@@@std@@YAXAAPAUshared_ptr_thread_safe_node@dlib@@0@Z PROC ; std::swap<dlib::shared_ptr_thread_safe_node *>, COMDAT
; Line 101
	push	ebp
	mov	ebp, esp
	push	ecx
; Line 102
	mov	eax, DWORD PTR __Left$[ebp]
	push	eax
	call	??$_Move@AAPAUshared_ptr_thread_safe_node@dlib@@@std@@YA$$QAPAUshared_ptr_thread_safe_node@dlib@@AAPAU12@@Z ; std::_Move<dlib::shared_ptr_thread_safe_node * &>
	add	esp, 4
	mov	ecx, DWORD PTR [eax]
	mov	DWORD PTR __Tmp$[ebp], ecx
; Line 103
	mov	edx, DWORD PTR __Right$[ebp]
	push	edx
	call	??$_Move@AAPAUshared_ptr_thread_safe_node@dlib@@@std@@YA$$QAPAUshared_ptr_thread_safe_node@dlib@@AAPAU12@@Z ; std::_Move<dlib::shared_ptr_thread_safe_node * &>
	add	esp, 4
	mov	ecx, DWORD PTR __Left$[ebp]
	mov	edx, DWORD PTR [eax]
	mov	DWORD PTR [ecx], edx
; Line 104
	lea	eax, DWORD PTR __Tmp$[ebp]
	push	eax
	call	??$_Move@AAPAUshared_ptr_thread_safe_node@dlib@@@std@@YA$$QAPAUshared_ptr_thread_safe_node@dlib@@AAPAU12@@Z ; std::_Move<dlib::shared_ptr_thread_safe_node * &>
	add	esp, 4
	mov	ecx, DWORD PTR __Right$[ebp]
	mov	edx, DWORD PTR [eax]
	mov	DWORD PTR [ecx], edx
; Line 105
	mov	esp, ebp
	pop	ebp
	ret	0
??$swap@PAUshared_ptr_thread_safe_node@dlib@@@std@@YAXAAPAUshared_ptr_thread_safe_node@dlib@@0@Z ENDP ; std::swap<dlib::shared_ptr_thread_safe_node *>
; Function compile flags: /Odtp
_TEXT	ENDS
;	COMDAT ??R?$default_deleter@Vsockstreambuf@dlib@@@dlib@@QBEXPAVsockstreambuf@1@@Z
_TEXT	SEGMENT
tv74 = -16						; size = 4
_this$ = -12						; size = 4
$T351901 = -8						; size = 4
$T351900 = -4						; size = 4
_item$ = 8						; size = 4
??R?$default_deleter@Vsockstreambuf@dlib@@@dlib@@QBEXPAVsockstreambuf@1@@Z PROC ; dlib::default_deleter<dlib::sockstreambuf>::operator(), COMDAT
; _this$ = ecx
; File e:\library\dlib\dlib\smart_pointers\scoped_ptr.h
; Line 20
	push	ebp
	mov	ebp, esp
	sub	esp, 16					; 00000010H
	mov	DWORD PTR _this$[ebp], ecx
; Line 21
	mov	eax, DWORD PTR _item$[ebp]
	mov	DWORD PTR $T351901[ebp], eax
	mov	ecx, DWORD PTR $T351901[ebp]
	mov	DWORD PTR $T351900[ebp], ecx
	cmp	DWORD PTR $T351900[ebp], 0
	je	SHORT $LN3@operator
	push	1
	mov	edx, DWORD PTR $T351900[ebp]
	mov	eax, DWORD PTR [edx]
	mov	ecx, DWORD PTR $T351900[ebp]
	mov	edx, DWORD PTR [eax]
	call	edx
	mov	DWORD PTR tv74[ebp], eax
	jmp	SHORT $LN1@operator
$LN3@operator:
	mov	DWORD PTR tv74[ebp], 0
$LN1@operator:
; Line 22
	mov	esp, ebp
	pop	ebp
	ret	4
??R?$default_deleter@Vsockstreambuf@dlib@@@dlib@@QBEXPAVsockstreambuf@1@@Z ENDP ; dlib::default_deleter<dlib::sockstreambuf>::operator()
; Function compile flags: /Odtp
_TEXT	ENDS
;	COMDAT ??R?$default_deleter@Vtimeout@dlib@@@dlib@@QBEXPAVtimeout@1@@Z
_TEXT	SEGMENT
tv70 = -16						; size = 4
_this$ = -12						; size = 4
$T351907 = -8						; size = 4
$T351906 = -4						; size = 4
_item$ = 8						; size = 4
??R?$default_deleter@Vtimeout@dlib@@@dlib@@QBEXPAVtimeout@1@@Z PROC ; dlib::default_deleter<dlib::timeout>::operator(), COMDAT
; _this$ = ecx
; Line 20
	push	ebp
	mov	ebp, esp
	sub	esp, 16					; 00000010H
	mov	DWORD PTR _this$[ebp], ecx
; Line 21
	mov	eax, DWORD PTR _item$[ebp]
	mov	DWORD PTR $T351907[ebp], eax
	mov	ecx, DWORD PTR $T351907[ebp]
	mov	DWORD PTR $T351906[ebp], ecx
	cmp	DWORD PTR $T351906[ebp], 0
	je	SHORT $LN3@operator@2
	push	1
	mov	edx, DWORD PTR $T351906[ebp]
	mov	eax, DWORD PTR [edx]
	mov	ecx, DWORD PTR $T351906[ebp]
	mov	edx, DWORD PTR [eax]
	call	edx
	mov	DWORD PTR tv70[ebp], eax
	jmp	SHORT $LN1@operator@2
$LN3@operator@2:
	mov	DWORD PTR tv70[ebp], 0
$LN1@operator@2:
; Line 22
	mov	esp, ebp
	pop	ebp
	ret	4
??R?$default_deleter@Vtimeout@dlib@@@dlib@@QBEXPAVtimeout@1@@Z ENDP ; dlib::default_deleter<dlib::timeout>::operator()
; Function compile flags: /Odtp
_TEXT	ENDS
;	COMDAT ??B?$scoped_ptr@Vsockstreambuf@dlib@@U?$default_deleter@Vsockstreambuf@dlib@@@2@@dlib@@QBE_NXZ
_TEXT	SEGMENT
_this$ = -4						; size = 4
??B?$scoped_ptr@Vsockstreambuf@dlib@@U?$default_deleter@Vsockstreambuf@dlib@@@2@@dlib@@QBE_NXZ PROC ; dlib::scoped_ptr<dlib::sockstreambuf,dlib::default_deleter<dlib::sockstreambuf> >::operator bool, COMDAT
; _this$ = ecx
; Line 105
	push	ebp
	mov	ebp, esp
	push	ecx
	mov	DWORD PTR _this$[ebp], ecx
; Line 106
	mov	eax, DWORD PTR _this$[ebp]
	xor	ecx, ecx
	cmp	DWORD PTR [eax], 0
	setne	cl
	mov	al, cl
; Line 107
	mov	esp, ebp
	pop	ebp
	ret	0
??B?$scoped_ptr@Vsockstreambuf@dlib@@U?$default_deleter@Vsockstreambuf@dlib@@@2@@dlib@@QBE_NXZ ENDP ; dlib::scoped_ptr<dlib::sockstreambuf,dlib::default_deleter<dlib::sockstreambuf> >::operator bool
; Function compile flags: /Odtp
_TEXT	ENDS
;	COMDAT ?get@?$scoped_ptr@Vsockstreambuf@dlib@@U?$default_deleter@Vsockstreambuf@dlib@@@2@@dlib@@QBEPAVsockstreambuf@2@XZ
_TEXT	SEGMENT
_this$ = -4						; size = 4
?get@?$scoped_ptr@Vsockstreambuf@dlib@@U?$default_deleter@Vsockstreambuf@dlib@@@2@@dlib@@QBEPAVsockstreambuf@2@XZ PROC ; dlib::scoped_ptr<dlib::sockstreambuf,dlib::default_deleter<dlib::sockstreambuf> >::get, COMDAT
; _this$ = ecx
; Line 100
	push	ebp
	mov	ebp, esp
	push	ecx
	mov	DWORD PTR _this$[ebp], ecx
; Line 101
	mov	eax, DWORD PTR _this$[ebp]
	mov	eax, DWORD PTR [eax]
; Line 102
	mov	esp, ebp
	pop	ebp
	ret	0
?get@?$scoped_ptr@Vsockstreambuf@dlib@@U?$default_deleter@Vsockstreambuf@dlib@@@2@@dlib@@QBEPAVsockstreambuf@2@XZ ENDP ; dlib::scoped_ptr<dlib::sockstreambuf,dlib::default_deleter<dlib::sockstreambuf> >::get
; Function compile flags: /Odtp
_TEXT	ENDS
;	COMDAT ??C?$scoped_ptr@Vsockstreambuf@dlib@@U?$default_deleter@Vsockstreambuf@dlib@@@2@@dlib@@QBEPAVsockstreambuf@1@XZ
_TEXT	SEGMENT
_this$ = -4						; size = 4
??C?$scoped_ptr@Vsockstreambuf@dlib@@U?$default_deleter@Vsockstreambuf@dlib@@@2@@dlib@@QBEPAVsockstreambuf@1@XZ PROC ; dlib::scoped_ptr<dlib::sockstreambuf,dlib::default_deleter<dlib::sockstreambuf> >::operator->, COMDAT
; _this$ = ecx
; Line 89
	push	ebp
	mov	ebp, esp
	push	ecx
	mov	DWORD PTR _this$[ebp], ecx
; Line 96
	mov	eax, DWORD PTR _this$[ebp]
	mov	eax, DWORD PTR [eax]
; Line 97
	mov	esp, ebp
	pop	ebp
	ret	0
??C?$scoped_ptr@Vsockstreambuf@dlib@@U?$default_deleter@Vsockstreambuf@dlib@@@2@@dlib@@QBEPAVsockstreambuf@1@XZ ENDP ; dlib::scoped_ptr<dlib::sockstreambuf,dlib::default_deleter<dlib::sockstreambuf> >::operator->
; Function compile flags: /Odtp
_TEXT	ENDS
;	COMDAT ?reset@?$scoped_ptr@Vsockstreambuf@dlib@@U?$default_deleter@Vsockstreambuf@dlib@@@2@@dlib@@QAEXPAVsockstreambuf@2@@Z
_TEXT	SEGMENT
_this$ = -8						; size = 4
_del$153075 = -1					; size = 1
_p$ = 8							; size = 4
?reset@?$scoped_ptr@Vsockstreambuf@dlib@@U?$default_deleter@Vsockstreambuf@dlib@@@2@@dlib@@QAEXPAVsockstreambuf@2@@Z PROC ; dlib::scoped_ptr<dlib::sockstreambuf,dlib::default_deleter<dlib::sockstreambuf> >::reset, COMDAT
; _this$ = ecx
; Line 67
	push	ebp
	mov	ebp, esp
	sub	esp, 8
	mov	DWORD PTR _this$[ebp], ecx
; Line 68
	mov	eax, DWORD PTR _this$[ebp]
	cmp	DWORD PTR [eax], 0
	je	SHORT $LN1@reset
; Line 71
	mov	ecx, DWORD PTR _this$[ebp]
	mov	edx, DWORD PTR [ecx]
	push	edx
	lea	ecx, DWORD PTR _del$153075[ebp]
	call	??R?$default_deleter@Vsockstreambuf@dlib@@@dlib@@QBEXPAVsockstreambuf@1@@Z ; dlib::default_deleter<dlib::sockstreambuf>::operator()
$LN1@reset:
; Line 74
	mov	eax, DWORD PTR _this$[ebp]
	mov	ecx, DWORD PTR _p$[ebp]
	mov	DWORD PTR [eax], ecx
; Line 75
	mov	esp, ebp
	pop	ebp
	ret	4
?reset@?$scoped_ptr@Vsockstreambuf@dlib@@U?$default_deleter@Vsockstreambuf@dlib@@@2@@dlib@@QAEXPAVsockstreambuf@2@@Z ENDP ; dlib::scoped_ptr<dlib::sockstreambuf,dlib::default_deleter<dlib::sockstreambuf> >::reset
; Function compile flags: /Odtp
_TEXT	ENDS
;	COMDAT ?get@?$shared_ptr_thread_safe@Vconnection@dlib@@@dlib@@QBEPAVconnection@2@XZ
_TEXT	SEGMENT
_this$ = -4						; size = 4
?get@?$shared_ptr_thread_safe@Vconnection@dlib@@@dlib@@QBEPAVconnection@2@XZ PROC ; dlib::shared_ptr_thread_safe<dlib::connection>::get, COMDAT
; _this$ = ecx
; File e:\library\dlib\dlib\smart_pointers\shared_ptr_thread_safe.h
; Line 365
	push	ebp
	mov	ebp, esp
	push	ecx
	mov	DWORD PTR _this$[ebp], ecx
	mov	eax, DWORD PTR _this$[ebp]
	mov	eax, DWORD PTR [eax]
	mov	esp, ebp
	pop	ebp
	ret	0
?get@?$shared_ptr_thread_safe@Vconnection@dlib@@@dlib@@QBEPAVconnection@2@XZ ENDP ; dlib::shared_ptr_thread_safe<dlib::connection>::get
; Function compile flags: /Odtp
_TEXT	ENDS
;	COMDAT ??C?$shared_ptr_thread_safe@Vconnection@dlib@@@dlib@@QBEPAVconnection@1@XZ
_TEXT	SEGMENT
_this$ = -4						; size = 4
??C?$shared_ptr_thread_safe@Vconnection@dlib@@@dlib@@QBEPAVconnection@1@XZ PROC ; dlib::shared_ptr_thread_safe<dlib::connection>::operator->, COMDAT
; _this$ = ecx
; Line 355
	push	ebp
	mov	ebp, esp
	push	ecx
	mov	DWORD PTR _this$[ebp], ecx
; Line 362
	mov	eax, DWORD PTR _this$[ebp]
	mov	eax, DWORD PTR [eax]
; Line 363
	mov	esp, ebp
	pop	ebp
	ret	0
??C?$shared_ptr_thread_safe@Vconnection@dlib@@@dlib@@QBEPAVconnection@1@XZ ENDP ; dlib::shared_ptr_thread_safe<dlib::connection>::operator->
; Function compile flags: /Odtp
_TEXT	ENDS
;	COMDAT ??D?$shared_ptr_thread_safe@Vconnection@dlib@@@dlib@@QBEAAVconnection@1@XZ
_TEXT	SEGMENT
_this$ = -4						; size = 4
??D?$shared_ptr_thread_safe@Vconnection@dlib@@@dlib@@QBEAAVconnection@1@XZ PROC ; dlib::shared_ptr_thread_safe<dlib::connection>::operator*, COMDAT
; _this$ = ecx
; Line 343
	push	ebp
	mov	ebp, esp
	push	ecx
	mov	DWORD PTR _this$[ebp], ecx
; Line 350
	mov	eax, DWORD PTR _this$[ebp]
	mov	eax, DWORD PTR [eax]
; Line 351
	mov	esp, ebp
	pop	ebp
	ret	0
??D?$shared_ptr_thread_safe@Vconnection@dlib@@@dlib@@QBEAAVconnection@1@XZ ENDP ; dlib::shared_ptr_thread_safe<dlib::connection>::operator*
; Function compile flags: /Odtp
_TEXT	ENDS
;	COMDAT ??0?$shared_ptr_thread_safe@Vconnection@dlib@@@dlib@@QAE@XZ
_TEXT	SEGMENT
_this$ = -4						; size = 4
??0?$shared_ptr_thread_safe@Vconnection@dlib@@@dlib@@QAE@XZ PROC ; dlib::shared_ptr_thread_safe<dlib::connection>::shared_ptr_thread_safe<dlib::connection>, COMDAT
; _this$ = ecx
; Line 95
	push	ebp
	mov	ebp, esp
	push	ecx
	mov	DWORD PTR _this$[ebp], ecx
	mov	eax, DWORD PTR _this$[ebp]
	mov	DWORD PTR [eax], 0
	mov	ecx, DWORD PTR _this$[ebp]
	mov	DWORD PTR [ecx+4], 0
	mov	eax, DWORD PTR _this$[ebp]
	mov	esp, ebp
	pop	ebp
	ret	0
??0?$shared_ptr_thread_safe@Vconnection@dlib@@@dlib@@QAE@XZ ENDP ; dlib::shared_ptr_thread_safe<dlib::connection>::shared_ptr_thread_safe<dlib::connection>
; Function compile flags: /Odtp
_TEXT	ENDS
;	COMDAT ?flush_output_on_read@sockstreambuf@dlib@@QAEXXZ
_TEXT	SEGMENT
_this$ = -4						; size = 4
?flush_output_on_read@sockstreambuf@dlib@@QAEXXZ PROC	; dlib::sockstreambuf::flush_output_on_read, COMDAT
; _this$ = ecx
; File e:\library\dlib\dlib\sockstreambuf\sockstreambuf.h
; Line 72
	push	ebp
	mov	ebp, esp
	push	ecx
	mov	DWORD PTR _this$[ebp], ecx
; Line 73
	mov	eax, DWORD PTR _this$[ebp]
	mov	BYTE PTR [eax+72], 1
; Line 74
	mov	esp, ebp
	pop	ebp
	ret	0
?flush_output_on_read@sockstreambuf@dlib@@QAEXXZ ENDP	; dlib::sockstreambuf::flush_output_on_read
; Function compile flags: /Odtp
;	COMDAT ?swap@?$shared_ptr_thread_safe@Vconnection@dlib@@@dlib@@QAEXAAV12@@Z
_TEXT	SEGMENT
_this$ = -4						; size = 4
_b$ = 8							; size = 4
?swap@?$shared_ptr_thread_safe@Vconnection@dlib@@@dlib@@QAEXAAV12@@Z PROC ; dlib::shared_ptr_thread_safe<dlib::connection>::swap, COMDAT
; _this$ = ecx
; File e:\library\dlib\dlib\smart_pointers\shared_ptr_thread_safe.h
; Line 389
	push	ebp
	mov	ebp, esp
	push	ecx
	mov	DWORD PTR _this$[ebp], ecx
; Line 390
	mov	eax, DWORD PTR _b$[ebp]
	push	eax
	mov	ecx, DWORD PTR _this$[ebp]
	push	ecx
	call	??$swap@PAVconnection@dlib@@@std@@YAXAAPAVconnection@dlib@@0@Z ; std::swap<dlib::connection *>
	add	esp, 8
; Line 391
	mov	edx, DWORD PTR _b$[ebp]
	add	edx, 4
	push	edx
	mov	eax, DWORD PTR _this$[ebp]
	add	eax, 4
	push	eax
	call	??$swap@PAUshared_ptr_thread_safe_node@dlib@@@std@@YAXAAPAUshared_ptr_thread_safe_node@dlib@@0@Z ; std::swap<dlib::shared_ptr_thread_safe_node *>
	add	esp, 8
; Line 392
	mov	esp, ebp
	pop	ebp
	ret	4
?swap@?$shared_ptr_thread_safe@Vconnection@dlib@@@dlib@@QAEXAAV12@@Z ENDP ; dlib::shared_ptr_thread_safe<dlib::connection>::swap
_TEXT	ENDS
;	COMDAT xdata$x
; File e:\library\dlib\dlib\smart_pointers\scoped_ptr.h
xdata$x	SEGMENT
__unwindtable$??1?$scoped_ptr@Vsockstreambuf@dlib@@U?$default_deleter@Vsockstreambuf@dlib@@@2@@dlib@@QAE@XZ DD 0ffffffffH
	DD	FLAT:__unwindfunclet$??1?$scoped_ptr@Vsockstreambuf@dlib@@U?$default_deleter@Vsockstreambuf@dlib@@@2@@dlib@@QAE@XZ$0
__ehfuncinfo$??1?$scoped_ptr@Vsockstreambuf@dlib@@U?$default_deleter@Vsockstreambuf@dlib@@@2@@dlib@@QAE@XZ DD 019930522H
	DD	01H
	DD	FLAT:__unwindtable$??1?$scoped_ptr@Vsockstreambuf@dlib@@U?$default_deleter@Vsockstreambuf@dlib@@@2@@dlib@@QAE@XZ
	DD	2 DUP(00H)
	DD	2 DUP(00H)
	DD	00H
	DD	01H
; Function compile flags: /Odtp
xdata$x	ENDS
;	COMDAT ??1?$scoped_ptr@Vsockstreambuf@dlib@@U?$default_deleter@Vsockstreambuf@dlib@@@2@@dlib@@QAE@XZ
_TEXT	SEGMENT
_this$ = -20						; size = 4
_del$153071 = -13					; size = 1
__$EHRec$ = -12						; size = 12
??1?$scoped_ptr@Vsockstreambuf@dlib@@U?$default_deleter@Vsockstreambuf@dlib@@@2@@dlib@@QAE@XZ PROC ; dlib::scoped_ptr<dlib::sockstreambuf,dlib::default_deleter<dlib::sockstreambuf> >::~scoped_ptr<dlib::sockstreambuf,dlib::default_deleter<dlib::sockstreambuf> >, COMDAT
; _this$ = ecx
; Line 56
	push	ebp
	mov	ebp, esp
	push	-1
	push	__ehhandler$??1?$scoped_ptr@Vsockstreambuf@dlib@@U?$default_deleter@Vsockstreambuf@dlib@@@2@@dlib@@QAE@XZ
	mov	eax, DWORD PTR fs:0
	push	eax
	sub	esp, 8
	mov	eax, DWORD PTR ___security_cookie
	xor	eax, ebp
	push	eax
	lea	eax, DWORD PTR __$EHRec$[ebp]
	mov	DWORD PTR fs:0, eax
	mov	DWORD PTR _this$[ebp], ecx
	mov	DWORD PTR __$EHRec$[ebp+8], 0
; Line 57
	mov	eax, DWORD PTR _this$[ebp]
	cmp	DWORD PTR [eax], 0
	je	SHORT $LN2@scoped_ptr
; Line 60
	mov	ecx, DWORD PTR _this$[ebp]
	mov	edx, DWORD PTR [ecx]
	push	edx
	lea	ecx, DWORD PTR _del$153071[ebp]
	call	??R?$default_deleter@Vsockstreambuf@dlib@@@dlib@@QBEXPAVsockstreambuf@1@@Z ; dlib::default_deleter<dlib::sockstreambuf>::operator()
$LN2@scoped_ptr:
; Line 62
	mov	DWORD PTR __$EHRec$[ebp+8], -1
	mov	ecx, DWORD PTR _this$[ebp]
	call	??1noncopyable@noncopyable_@boost@@IAE@XZ ; boost::noncopyable_::noncopyable::~noncopyable
	mov	ecx, DWORD PTR __$EHRec$[ebp]
	mov	DWORD PTR fs:0, ecx
	pop	ecx
	mov	esp, ebp
	pop	ebp
	ret	0
_TEXT	ENDS
;	COMDAT text$x
text$x	SEGMENT
__unwindfunclet$??1?$scoped_ptr@Vsockstreambuf@dlib@@U?$default_deleter@Vsockstreambuf@dlib@@@2@@dlib@@QAE@XZ$0:
	mov	ecx, DWORD PTR _this$[ebp]
	jmp	??1noncopyable@noncopyable_@boost@@IAE@XZ ; boost::noncopyable_::noncopyable::~noncopyable
__ehhandler$??1?$scoped_ptr@Vsockstreambuf@dlib@@U?$default_deleter@Vsockstreambuf@dlib@@@2@@dlib@@QAE@XZ:
	mov	edx, DWORD PTR [esp+8]
	lea	eax, DWORD PTR [edx+12]
	mov	ecx, DWORD PTR [edx-12]
	xor	ecx, eax
	call	@__security_check_cookie@4
	mov	eax, OFFSET __ehfuncinfo$??1?$scoped_ptr@Vsockstreambuf@dlib@@U?$default_deleter@Vsockstreambuf@dlib@@@2@@dlib@@QAE@XZ
	jmp	___CxxFrameHandler3
text$x	ENDS
??1?$scoped_ptr@Vsockstreambuf@dlib@@U?$default_deleter@Vsockstreambuf@dlib@@@2@@dlib@@QAE@XZ ENDP ; dlib::scoped_ptr<dlib::sockstreambuf,dlib::default_deleter<dlib::sockstreambuf> >::~scoped_ptr<dlib::sockstreambuf,dlib::default_deleter<dlib::sockstreambuf> >
; Function compile flags: /Odtp
;	COMDAT ??0?$scoped_ptr@Vsockstreambuf@dlib@@U?$default_deleter@Vsockstreambuf@dlib@@@2@@dlib@@QAE@PAVsockstreambuf@1@@Z
_TEXT	SEGMENT
_this$ = -4						; size = 4
_p$ = 8							; size = 4
??0?$scoped_ptr@Vsockstreambuf@dlib@@U?$default_deleter@Vsockstreambuf@dlib@@@2@@dlib@@QAE@PAVsockstreambuf@1@@Z PROC ; dlib::scoped_ptr<dlib::sockstreambuf,dlib::default_deleter<dlib::sockstreambuf> >::scoped_ptr<dlib::sockstreambuf,dlib::default_deleter<dlib::sockstreambuf> >, COMDAT
; _this$ = ecx
; Line 51
	push	ebp
	mov	ebp, esp
	push	ecx
	mov	DWORD PTR _this$[ebp], ecx
	mov	ecx, DWORD PTR _this$[ebp]
	call	??0noncopyable@noncopyable_@boost@@IAE@XZ ; boost::noncopyable_::noncopyable::noncopyable
	mov	eax, DWORD PTR _this$[ebp]
	mov	ecx, DWORD PTR _p$[ebp]
	mov	DWORD PTR [eax], ecx
	mov	eax, DWORD PTR _this$[ebp]
	mov	esp, ebp
	pop	ebp
	ret	4
??0?$scoped_ptr@Vsockstreambuf@dlib@@U?$default_deleter@Vsockstreambuf@dlib@@@2@@dlib@@QAE@PAVsockstreambuf@1@@Z ENDP ; dlib::scoped_ptr<dlib::sockstreambuf,dlib::default_deleter<dlib::sockstreambuf> >::scoped_ptr<dlib::sockstreambuf,dlib::default_deleter<dlib::sockstreambuf> >
_TEXT	ENDS
;	COMDAT xdata$x
xdata$x	SEGMENT
__unwindtable$??1?$scoped_ptr@Vtimeout@dlib@@U?$default_deleter@Vtimeout@dlib@@@2@@dlib@@QAE@XZ DD 0ffffffffH
	DD	FLAT:__unwindfunclet$??1?$scoped_ptr@Vtimeout@dlib@@U?$default_deleter@Vtimeout@dlib@@@2@@dlib@@QAE@XZ$0
__ehfuncinfo$??1?$scoped_ptr@Vtimeout@dlib@@U?$default_deleter@Vtimeout@dlib@@@2@@dlib@@QAE@XZ DD 019930522H
	DD	01H
	DD	FLAT:__unwindtable$??1?$scoped_ptr@Vtimeout@dlib@@U?$default_deleter@Vtimeout@dlib@@@2@@dlib@@QAE@XZ
	DD	2 DUP(00H)
	DD	2 DUP(00H)
	DD	00H
	DD	01H
; Function compile flags: /Odtp
xdata$x	ENDS
;	COMDAT ??1?$scoped_ptr@Vtimeout@dlib@@U?$default_deleter@Vtimeout@dlib@@@2@@dlib@@QAE@XZ
_TEXT	SEGMENT
_this$ = -20						; size = 4
_del$153022 = -13					; size = 1
__$EHRec$ = -12						; size = 12
??1?$scoped_ptr@Vtimeout@dlib@@U?$default_deleter@Vtimeout@dlib@@@2@@dlib@@QAE@XZ PROC ; dlib::scoped_ptr<dlib::timeout,dlib::default_deleter<dlib::timeout> >::~scoped_ptr<dlib::timeout,dlib::default_deleter<dlib::timeout> >, COMDAT
; _this$ = ecx
; Line 56
	push	ebp
	mov	ebp, esp
	push	-1
	push	__ehhandler$??1?$scoped_ptr@Vtimeout@dlib@@U?$default_deleter@Vtimeout@dlib@@@2@@dlib@@QAE@XZ
	mov	eax, DWORD PTR fs:0
	push	eax
	sub	esp, 8
	mov	eax, DWORD PTR ___security_cookie
	xor	eax, ebp
	push	eax
	lea	eax, DWORD PTR __$EHRec$[ebp]
	mov	DWORD PTR fs:0, eax
	mov	DWORD PTR _this$[ebp], ecx
	mov	DWORD PTR __$EHRec$[ebp+8], 0
; Line 57
	mov	eax, DWORD PTR _this$[ebp]
	cmp	DWORD PTR [eax], 0
	je	SHORT $LN2@scoped_ptr@2
; Line 60
	mov	ecx, DWORD PTR _this$[ebp]
	mov	edx, DWORD PTR [ecx]
	push	edx
	lea	ecx, DWORD PTR _del$153022[ebp]
	call	??R?$default_deleter@Vtimeout@dlib@@@dlib@@QBEXPAVtimeout@1@@Z ; dlib::default_deleter<dlib::timeout>::operator()
$LN2@scoped_ptr@2:
; Line 62
	mov	DWORD PTR __$EHRec$[ebp+8], -1
	mov	ecx, DWORD PTR _this$[ebp]
	call	??1noncopyable@noncopyable_@boost@@IAE@XZ ; boost::noncopyable_::noncopyable::~noncopyable
	mov	ecx, DWORD PTR __$EHRec$[ebp]
	mov	DWORD PTR fs:0, ecx
	pop	ecx
	mov	esp, ebp
	pop	ebp
	ret	0
_TEXT	ENDS
;	COMDAT text$x
text$x	SEGMENT
__unwindfunclet$??1?$scoped_ptr@Vtimeout@dlib@@U?$default_deleter@Vtimeout@dlib@@@2@@dlib@@QAE@XZ$0:
	mov	ecx, DWORD PTR _this$[ebp]
	jmp	??1noncopyable@noncopyable_@boost@@IAE@XZ ; boost::noncopyable_::noncopyable::~noncopyable
__ehhandler$??1?$scoped_ptr@Vtimeout@dlib@@U?$default_deleter@Vtimeout@dlib@@@2@@dlib@@QAE@XZ:
	mov	edx, DWORD PTR [esp+8]
	lea	eax, DWORD PTR [edx+12]
	mov	ecx, DWORD PTR [edx-12]
	xor	ecx, eax
	call	@__security_check_cookie@4
	mov	eax, OFFSET __ehfuncinfo$??1?$scoped_ptr@Vtimeout@dlib@@U?$default_deleter@Vtimeout@dlib@@@2@@dlib@@QAE@XZ
	jmp	___CxxFrameHandler3
text$x	ENDS
??1?$scoped_ptr@Vtimeout@dlib@@U?$default_deleter@Vtimeout@dlib@@@2@@dlib@@QAE@XZ ENDP ; dlib::scoped_ptr<dlib::timeout,dlib::default_deleter<dlib::timeout> >::~scoped_ptr<dlib::timeout,dlib::default_deleter<dlib::timeout> >
; Function compile flags: /Odtp
;	COMDAT ??0?$scoped_ptr@Vtimeout@dlib@@U?$default_deleter@Vtimeout@dlib@@@2@@dlib@@QAE@PAVtimeout@1@@Z
_TEXT	SEGMENT
_this$ = -4						; size = 4
_p$ = 8							; size = 4
??0?$scoped_ptr@Vtimeout@dlib@@U?$default_deleter@Vtimeout@dlib@@@2@@dlib@@QAE@PAVtimeout@1@@Z PROC ; dlib::scoped_ptr<dlib::timeout,dlib::default_deleter<dlib::timeout> >::scoped_ptr<dlib::timeout,dlib::default_deleter<dlib::timeout> >, COMDAT
; _this$ = ecx
; Line 51
	push	ebp
	mov	ebp, esp
	push	ecx
	mov	DWORD PTR _this$[ebp], ecx
	mov	ecx, DWORD PTR _this$[ebp]
	call	??0noncopyable@noncopyable_@boost@@IAE@XZ ; boost::noncopyable_::noncopyable::noncopyable
	mov	eax, DWORD PTR _this$[ebp]
	mov	ecx, DWORD PTR _p$[ebp]
	mov	DWORD PTR [eax], ecx
	mov	eax, DWORD PTR _this$[ebp]
	mov	esp, ebp
	pop	ebp
	ret	4
??0?$scoped_ptr@Vtimeout@dlib@@U?$default_deleter@Vtimeout@dlib@@@2@@dlib@@QAE@PAVtimeout@1@@Z ENDP ; dlib::scoped_ptr<dlib::timeout,dlib::default_deleter<dlib::timeout> >::scoped_ptr<dlib::timeout,dlib::default_deleter<dlib::timeout> >
_TEXT	ENDS
;	COMDAT xdata$x
; File e:\library\dlib\dlib\sockstreambuf\sockstreambuf.h
xdata$x	SEGMENT
__unwindtable$??0sockstreambuf@dlib@@QAE@PAVconnection@1@@Z DD 0ffffffffH
	DD	FLAT:__unwindfunclet$??0sockstreambuf@dlib@@QAE@PAVconnection@1@@Z$0
__ehfuncinfo$??0sockstreambuf@dlib@@QAE@PAVconnection@1@@Z DD 019930522H
	DD	01H
	DD	FLAT:__unwindtable$??0sockstreambuf@dlib@@QAE@PAVconnection@1@@Z
	DD	2 DUP(00H)
	DD	2 DUP(00H)
	DD	00H
	DD	01H
; Function compile flags: /Odtp
xdata$x	ENDS
;	COMDAT ??0sockstreambuf@dlib@@QAE@PAVconnection@1@@Z
_TEXT	SEGMENT
_this$ = -16						; size = 4
__$EHRec$ = -12						; size = 12
_con_$ = 8						; size = 4
??0sockstreambuf@dlib@@QAE@PAVconnection@1@@Z PROC	; dlib::sockstreambuf::sockstreambuf, COMDAT
; _this$ = ecx
; Line 45
	push	ebp
	mov	ebp, esp
	push	-1
	push	__ehhandler$??0sockstreambuf@dlib@@QAE@PAVconnection@1@@Z
	mov	eax, DWORD PTR fs:0
	push	eax
	push	ecx
	mov	eax, DWORD PTR ___security_cookie
	xor	eax, ebp
	push	eax
	lea	eax, DWORD PTR __$EHRec$[ebp]
	mov	DWORD PTR fs:0, eax
	mov	DWORD PTR _this$[ebp], ecx
	mov	ecx, DWORD PTR _this$[ebp]
	call	DWORD PTR __imp_??0?$basic_streambuf@DU?$char_traits@D@std@@@std@@IAE@XZ
	mov	DWORD PTR __$EHRec$[ebp+8], 0
	mov	eax, DWORD PTR _this$[ebp]
	mov	DWORD PTR [eax], OFFSET ??_7sockstreambuf@dlib@@6B@
	mov	ecx, DWORD PTR _this$[ebp]
	mov	edx, DWORD PTR _con_$[ebp]
	mov	DWORD PTR [ecx+60], edx
	mov	eax, DWORD PTR _this$[ebp]
	mov	DWORD PTR [eax+64], 0
	mov	ecx, DWORD PTR _this$[ebp]
	mov	DWORD PTR [ecx+68], 0
	mov	edx, DWORD PTR _this$[ebp]
	mov	BYTE PTR [edx+72], 0
; Line 46
	mov	ecx, DWORD PTR _this$[ebp]
	call	?init@sockstreambuf@dlib@@IAEXXZ	; dlib::sockstreambuf::init
; Line 47
	mov	DWORD PTR __$EHRec$[ebp+8], -1
	mov	eax, DWORD PTR _this$[ebp]
	mov	ecx, DWORD PTR __$EHRec$[ebp]
	mov	DWORD PTR fs:0, ecx
	pop	ecx
	mov	esp, ebp
	pop	ebp
	ret	4
_TEXT	ENDS
;	COMDAT text$x
text$x	SEGMENT
__unwindfunclet$??0sockstreambuf@dlib@@QAE@PAVconnection@1@@Z$0:
	mov	ecx, DWORD PTR _this$[ebp]
	jmp	DWORD PTR __imp_??1?$basic_streambuf@DU?$char_traits@D@std@@@std@@UAE@XZ
__ehhandler$??0sockstreambuf@dlib@@QAE@PAVconnection@1@@Z:
	mov	edx, DWORD PTR [esp+8]
	lea	eax, DWORD PTR [edx+12]
	mov	ecx, DWORD PTR [edx-8]
	xor	ecx, eax
	call	@__security_check_cookie@4
	mov	eax, OFFSET __ehfuncinfo$??0sockstreambuf@dlib@@QAE@PAVconnection@1@@Z
	jmp	___CxxFrameHandler3
text$x	ENDS
??0sockstreambuf@dlib@@QAE@PAVconnection@1@@Z ENDP	; dlib::sockstreambuf::sockstreambuf
;	COMDAT xdata$x
; File e:\library\dlib\dlib\smart_pointers\shared_ptr_thread_safe.h
xdata$x	SEGMENT
__unwindtable$??$?0Vconnection@dlib@@@?$shared_ptr_thread_safe@Vconnection@dlib@@@dlib@@QAE@PAVconnection@1@@Z DD 0ffffffffH
	DD	00H
	DD	0ffffffffH
	DD	00H
__catchsym$??$?0Vconnection@dlib@@@?$shared_ptr_thread_safe@Vconnection@dlib@@@dlib@@QAE@PAVconnection@1@@Z$3 DD 040H
	DD	00H
	DD	00H
	DD	FLAT:__catch$??$?0Vconnection@dlib@@@?$shared_ptr_thread_safe@Vconnection@dlib@@@dlib@@QAE@PAVconnection@1@@Z$0
__tryblocktable$??$?0Vconnection@dlib@@@?$shared_ptr_thread_safe@Vconnection@dlib@@@dlib@@QAE@PAVconnection@1@@Z DD 00H
	DD	00H
	DD	01H
	DD	01H
	DD	FLAT:__catchsym$??$?0Vconnection@dlib@@@?$shared_ptr_thread_safe@Vconnection@dlib@@@dlib@@QAE@PAVconnection@1@@Z$3
__ehfuncinfo$??$?0Vconnection@dlib@@@?$shared_ptr_thread_safe@Vconnection@dlib@@@dlib@@QAE@PAVconnection@1@@Z DD 019930522H
	DD	02H
	DD	FLAT:__unwindtable$??$?0Vconnection@dlib@@@?$shared_ptr_thread_safe@Vconnection@dlib@@@dlib@@QAE@PAVconnection@1@@Z
	DD	01H
	DD	FLAT:__tryblocktable$??$?0Vconnection@dlib@@@?$shared_ptr_thread_safe@Vconnection@dlib@@@dlib@@QAE@PAVconnection@1@@Z
	DD	2 DUP(00H)
	DD	00H
	DD	01H
; Function compile flags: /Odtp
xdata$x	ENDS
;	COMDAT ??$?0Vconnection@dlib@@@?$shared_ptr_thread_safe@Vconnection@dlib@@@dlib@@QAE@PAVconnection@1@@Z
_TEXT	SEGMENT
tv76 = -48						; size = 4
tv72 = -44						; size = 4
tv81 = -40						; size = 4
_this$ = -36						; size = 4
$T361256 = -32						; size = 4
$T361255 = -28						; size = 4
$T361252 = -24						; size = 4
$T361251 = -20						; size = 4
__$EHRec$ = -16						; size = 16
_p$ = 8							; size = 4
??$?0Vconnection@dlib@@@?$shared_ptr_thread_safe@Vconnection@dlib@@@dlib@@QAE@PAVconnection@1@@Z PROC ; dlib::shared_ptr_thread_safe<dlib::connection>::shared_ptr_thread_safe<dlib::connection><dlib::connection>, COMDAT
; _this$ = ecx
; Line 101
	push	ebp
	mov	ebp, esp
	push	-1
	push	__ehhandler$??$?0Vconnection@dlib@@@?$shared_ptr_thread_safe@Vconnection@dlib@@@dlib@@QAE@PAVconnection@1@@Z
	mov	eax, DWORD PTR fs:0
	push	eax
	push	ecx
	sub	esp, 32					; 00000020H
	push	ebx
	push	esi
	push	edi
	mov	eax, DWORD PTR ___security_cookie
	xor	eax, ebp
	push	eax
	lea	eax, DWORD PTR __$EHRec$[ebp+4]
	mov	DWORD PTR fs:0, eax
	mov	DWORD PTR __$EHRec$[ebp], esp
	mov	DWORD PTR _this$[ebp], ecx
	mov	eax, DWORD PTR _this$[ebp]
	mov	ecx, DWORD PTR _p$[ebp]
	mov	DWORD PTR [eax], ecx
; Line 108
	mov	DWORD PTR __$EHRec$[ebp+12], 0
; Line 109
	push	32					; 00000020H
	call	DWORD PTR __imp_??2@YAPAXI@Z
	add	esp, 4
	mov	DWORD PTR tv81[ebp], eax
	mov	edx, DWORD PTR tv81[ebp]
	mov	DWORD PTR $T361252[ebp], edx
	cmp	DWORD PTR $T361252[ebp], 0
	je	SHORT $LN4@connection@3
	mov	ecx, DWORD PTR $T361252[ebp]
	call	??0shared_ptr_thread_safe_node@dlib@@QAE@XZ ; dlib::shared_ptr_thread_safe_node::shared_ptr_thread_safe_node
	mov	DWORD PTR tv72[ebp], eax
	jmp	SHORT $LN5@connection@3
$LN4@connection@3:
	mov	DWORD PTR tv72[ebp], 0
$LN5@connection@3:
	mov	eax, DWORD PTR tv72[ebp]
	mov	DWORD PTR $T361251[ebp], eax
	mov	ecx, DWORD PTR _this$[ebp]
	mov	edx, DWORD PTR $T361251[ebp]
	mov	DWORD PTR [ecx+4], edx
; Line 110
	jmp	SHORT $LN8@connection@3
__catch$??$?0Vconnection@dlib@@@?$shared_ptr_thread_safe@Vconnection@dlib@@@dlib@@QAE@PAVconnection@1@@Z$0:
; Line 113
	mov	eax, DWORD PTR _p$[ebp]
	mov	DWORD PTR $T361256[ebp], eax
	mov	ecx, DWORD PTR $T361256[ebp]
	mov	DWORD PTR $T361255[ebp], ecx
	cmp	DWORD PTR $T361255[ebp], 0
	je	SHORT $LN6@connection@3
	push	1
	mov	ecx, DWORD PTR $T361255[ebp]
	call	??_Gconnection@dlib@@QAEPAXI@Z
	mov	DWORD PTR tv76[ebp], eax
	jmp	SHORT $LN7@connection@3
$LN6@connection@3:
	mov	DWORD PTR tv76[ebp], 0
$LN7@connection@3:
; Line 114
	push	0
	push	0
	call	__CxxThrowException@8
; Line 115
	mov	DWORD PTR __$EHRec$[ebp+12], -1
	mov	eax, $LN2@connection@3
	ret	0
$LN8@connection@3:
	mov	DWORD PTR __$EHRec$[ebp+12], -1
$LN2@connection@3:
; Line 116
	mov	eax, DWORD PTR _this$[ebp]
$LN3@connection@3:
	mov	ecx, DWORD PTR __$EHRec$[ebp+4]
	mov	DWORD PTR fs:0, ecx
	pop	ecx
	pop	edi
	pop	esi
	pop	ebx
	mov	esp, ebp
	pop	ebp
	ret	4
_TEXT	ENDS
;	COMDAT text$x
text$x	SEGMENT
__ehhandler$??$?0Vconnection@dlib@@@?$shared_ptr_thread_safe@Vconnection@dlib@@@dlib@@QAE@PAVconnection@1@@Z:
	mov	edx, DWORD PTR [esp+8]
	lea	eax, DWORD PTR [edx+12]
	mov	ecx, DWORD PTR [edx-52]
	xor	ecx, eax
	call	@__security_check_cookie@4
	mov	eax, OFFSET __ehfuncinfo$??$?0Vconnection@dlib@@@?$shared_ptr_thread_safe@Vconnection@dlib@@@dlib@@QAE@PAVconnection@1@@Z
	jmp	___CxxFrameHandler3
text$x	ENDS
??$?0Vconnection@dlib@@@?$shared_ptr_thread_safe@Vconnection@dlib@@@dlib@@QAE@PAVconnection@1@@Z ENDP ; dlib::shared_ptr_thread_safe<dlib::connection>::shared_ptr_thread_safe<dlib::connection><dlib::connection>
; Function compile flags: /Odtp
;	COMDAT ??1?$shared_ptr_thread_safe@Vconnection@dlib@@@dlib@@QAE@XZ
_TEXT	SEGMENT
tv139 = -40						; size = 4
tv133 = -36						; size = 4
tv94 = -32						; size = 4
_this$ = -28						; size = 4
$T361284 = -24						; size = 4
$T361283 = -20						; size = 4
$T361280 = -16						; size = 4
$T361279 = -12						; size = 4
$T361276 = -8						; size = 4
$T361275 = -4						; size = 4
??1?$shared_ptr_thread_safe@Vconnection@dlib@@@dlib@@QAE@XZ PROC ; dlib::shared_ptr_thread_safe<dlib::connection>::~shared_ptr_thread_safe<dlib::connection>, COMDAT
; _this$ = ecx
; Line 145
	push	ebp
	mov	ebp, esp
	sub	esp, 40					; 00000028H
	mov	DWORD PTR _this$[ebp], ecx
; Line 146
	mov	eax, DWORD PTR _this$[ebp]
	cmp	DWORD PTR [eax+4], 0
	je	$LN6@shared_ptr@6
; Line 148
	mov	ecx, DWORD PTR _this$[ebp]
	mov	ecx, DWORD PTR [ecx+4]
	call	?lock@mutex@dlib@@QBEXXZ		; dlib::mutex::lock
; Line 149
	mov	edx, DWORD PTR _this$[ebp]
	mov	eax, DWORD PTR [edx+4]
	cmp	DWORD PTR [eax+24], 1
	jne	$LN4@shared_ptr@6
; Line 152
	mov	ecx, DWORD PTR _this$[ebp]
	mov	edx, DWORD PTR [ecx+4]
	cmp	DWORD PTR [edx+28], 0
	je	SHORT $LN3@shared_ptr@6
; Line 154
	mov	eax, DWORD PTR _this$[ebp]
	mov	ecx, DWORD PTR [eax]
	push	ecx
	mov	edx, DWORD PTR _this$[ebp]
	mov	eax, DWORD PTR [edx+4]
	mov	ecx, DWORD PTR [eax+28]
	mov	edx, DWORD PTR _this$[ebp]
	mov	eax, DWORD PTR [edx+4]
	mov	edx, DWORD PTR [eax+28]
	mov	eax, DWORD PTR [ecx]
	mov	ecx, edx
	mov	edx, DWORD PTR [eax]
	call	edx
; Line 156
	mov	eax, DWORD PTR _this$[ebp]
	mov	ecx, DWORD PTR [eax+4]
	call	?unlock@mutex@dlib@@QBEXXZ		; dlib::mutex::unlock
; Line 157
	mov	ecx, DWORD PTR _this$[ebp]
	mov	edx, DWORD PTR [ecx+4]
	mov	eax, DWORD PTR [edx+28]
	mov	DWORD PTR $T361276[ebp], eax
	mov	ecx, DWORD PTR $T361276[ebp]
	mov	DWORD PTR $T361275[ebp], ecx
	cmp	DWORD PTR $T361275[ebp], 0
	je	SHORT $LN8@shared_ptr@6
	push	1
	mov	edx, DWORD PTR $T361275[ebp]
	mov	eax, DWORD PTR [edx]
	mov	ecx, DWORD PTR $T361275[ebp]
	mov	edx, DWORD PTR [eax+4]
	call	edx
	mov	DWORD PTR tv94[ebp], eax
	jmp	SHORT $LN9@shared_ptr@6
$LN8@shared_ptr@6:
	mov	DWORD PTR tv94[ebp], 0
$LN9@shared_ptr@6:
; Line 159
	jmp	SHORT $LN2@shared_ptr@6
$LN3@shared_ptr@6:
; Line 161
	mov	eax, DWORD PTR _this$[ebp]
	mov	ecx, DWORD PTR [eax+4]
	call	?unlock@mutex@dlib@@QBEXXZ		; dlib::mutex::unlock
; Line 162
	mov	ecx, DWORD PTR _this$[ebp]
	mov	edx, DWORD PTR [ecx]
	mov	DWORD PTR $T361280[ebp], edx
	mov	eax, DWORD PTR $T361280[ebp]
	mov	DWORD PTR $T361279[ebp], eax
	cmp	DWORD PTR $T361279[ebp], 0
	je	SHORT $LN10@shared_ptr@6
	push	1
	mov	ecx, DWORD PTR $T361279[ebp]
	call	??_Gconnection@dlib@@QAEPAXI@Z
	mov	DWORD PTR tv133[ebp], eax
	jmp	SHORT $LN2@shared_ptr@6
$LN10@shared_ptr@6:
	mov	DWORD PTR tv133[ebp], 0
$LN2@shared_ptr@6:
; Line 166
	mov	ecx, DWORD PTR _this$[ebp]
	mov	edx, DWORD PTR [ecx+4]
	mov	DWORD PTR $T361284[ebp], edx
	mov	eax, DWORD PTR $T361284[ebp]
	mov	DWORD PTR $T361283[ebp], eax
	cmp	DWORD PTR $T361283[ebp], 0
	je	SHORT $LN12@shared_ptr@6
	push	1
	mov	ecx, DWORD PTR $T361283[ebp]
	call	??_Gshared_ptr_thread_safe_node@dlib@@QAEPAXI@Z
	mov	DWORD PTR tv139[ebp], eax
	jmp	SHORT $LN13@shared_ptr@6
$LN12@shared_ptr@6:
	mov	DWORD PTR tv139[ebp], 0
$LN13@shared_ptr@6:
; Line 168
	jmp	SHORT $LN6@shared_ptr@6
$LN4@shared_ptr@6:
; Line 170
	mov	ecx, DWORD PTR _this$[ebp]
	mov	edx, DWORD PTR [ecx+4]
	mov	eax, DWORD PTR [edx+24]
	sub	eax, 1
	mov	ecx, DWORD PTR _this$[ebp]
	mov	edx, DWORD PTR [ecx+4]
	mov	DWORD PTR [edx+24], eax
; Line 171
	mov	eax, DWORD PTR _this$[ebp]
	mov	ecx, DWORD PTR [eax+4]
	call	?unlock@mutex@dlib@@QBEXXZ		; dlib::mutex::unlock
$LN6@shared_ptr@6:
; Line 174
	mov	esp, ebp
	pop	ebp
	ret	0
??1?$shared_ptr_thread_safe@Vconnection@dlib@@@dlib@@QAE@XZ ENDP ; dlib::shared_ptr_thread_safe<dlib::connection>::~shared_ptr_thread_safe<dlib::connection>
; Function compile flags: /Odtp
;	COMDAT ??$reset@Vconnection@dlib@@@?$shared_ptr_thread_safe@Vconnection@dlib@@@dlib@@QAEXPAVconnection@1@@Z
_TEXT	SEGMENT
tv72 = -16						; size = 4
_this$ = -12						; size = 4
$T363257 = -8						; size = 8
_p$ = 8							; size = 4
??$reset@Vconnection@dlib@@@?$shared_ptr_thread_safe@Vconnection@dlib@@@dlib@@QAEXPAVconnection@1@@Z PROC ; dlib::shared_ptr_thread_safe<dlib::connection>::reset<dlib::connection>, COMDAT
; _this$ = ecx
; Line 315
	push	ebp
	mov	ebp, esp
	sub	esp, 16					; 00000010H
	mov	DWORD PTR _this$[ebp], ecx
; Line 323
	mov	eax, DWORD PTR _p$[ebp]
	push	eax
	lea	ecx, DWORD PTR $T363257[ebp]
	call	??$?0Vconnection@dlib@@@?$shared_ptr_thread_safe@Vconnection@dlib@@@dlib@@QAE@PAVconnection@1@@Z ; dlib::shared_ptr_thread_safe<dlib::connection>::shared_ptr_thread_safe<dlib::connection><dlib::connection>
	mov	DWORD PTR tv72[ebp], eax
	mov	ecx, DWORD PTR _this$[ebp]
	push	ecx
	mov	ecx, DWORD PTR tv72[ebp]
	call	?swap@?$shared_ptr_thread_safe@Vconnection@dlib@@@dlib@@QAEXAAV12@@Z ; dlib::shared_ptr_thread_safe<dlib::connection>::swap
	lea	ecx, DWORD PTR $T363257[ebp]
	call	??1?$shared_ptr_thread_safe@Vconnection@dlib@@@dlib@@QAE@XZ ; dlib::shared_ptr_thread_safe<dlib::connection>::~shared_ptr_thread_safe<dlib::connection>
; Line 324
	mov	esp, ebp
	pop	ebp
	ret	4
??$reset@Vconnection@dlib@@@?$shared_ptr_thread_safe@Vconnection@dlib@@@dlib@@QAEXPAVconnection@1@@Z ENDP ; dlib::shared_ptr_thread_safe<dlib::connection>::reset<dlib::connection>
; Function compile flags: /Odtp
_TEXT	ENDS
;	COMDAT ?reset@?$shared_ptr_thread_safe@Vconnection@dlib@@@dlib@@QAEXXZ
_TEXT	SEGMENT
tv71 = -16						; size = 4
_this$ = -12						; size = 4
$T363261 = -8						; size = 8
?reset@?$shared_ptr_thread_safe@Vconnection@dlib@@@dlib@@QAEXXZ PROC ; dlib::shared_ptr_thread_safe<dlib::connection>::reset, COMDAT
; _this$ = ecx
; Line 310
	push	ebp
	mov	ebp, esp
	sub	esp, 16					; 00000010H
	mov	DWORD PTR _this$[ebp], ecx
; Line 311
	lea	ecx, DWORD PTR $T363261[ebp]
	call	??0?$shared_ptr_thread_safe@Vconnection@dlib@@@dlib@@QAE@XZ ; dlib::shared_ptr_thread_safe<dlib::connection>::shared_ptr_thread_safe<dlib::connection>
	mov	DWORD PTR tv71[ebp], eax
	mov	eax, DWORD PTR _this$[ebp]
	push	eax
	mov	ecx, DWORD PTR tv71[ebp]
	call	?swap@?$shared_ptr_thread_safe@Vconnection@dlib@@@dlib@@QAEXAAV12@@Z ; dlib::shared_ptr_thread_safe<dlib::connection>::swap
	lea	ecx, DWORD PTR $T363261[ebp]
	call	??1?$shared_ptr_thread_safe@Vconnection@dlib@@@dlib@@QAE@XZ ; dlib::shared_ptr_thread_safe<dlib::connection>::~shared_ptr_thread_safe<dlib::connection>
; Line 312
	mov	esp, ebp
	pop	ebp
	ret	0
?reset@?$shared_ptr_thread_safe@Vconnection@dlib@@@dlib@@QAEXXZ ENDP ; dlib::shared_ptr_thread_safe<dlib::connection>::reset
PUBLIC	__$ArrayPad$
;	COMDAT xdata$x
; File e:\library\dlib\dlib\iosockstream\iosockstream.h
xdata$x	SEGMENT
__unwindtable$?close@iosockstream@dlib@@QAEXK@Z DD 0ffffffffH
	DD	00H
	DD	00H
	DD	FLAT:__unwindfunclet$?close@iosockstream@dlib@@QAEXK@Z$2
	DD	0ffffffffH
	DD	00H
__catchsym$?close@iosockstream@dlib@@QAEXK@Z$3 DD 040H
	DD	00H
	DD	00H
	DD	FLAT:__catch$?close@iosockstream@dlib@@QAEXK@Z$0
__tryblocktable$?close@iosockstream@dlib@@QAEXK@Z DD 00H
	DD	01H
	DD	02H
	DD	01H
	DD	FLAT:__catchsym$?close@iosockstream@dlib@@QAEXK@Z$3
__ehfuncinfo$?close@iosockstream@dlib@@QAEXK@Z DD 019930522H
	DD	03H
	DD	FLAT:__unwindtable$?close@iosockstream@dlib@@QAEXK@Z
	DD	01H
	DD	FLAT:__tryblocktable$?close@iosockstream@dlib@@QAEXK@Z
	DD	2 DUP(00H)
	DD	00H
	DD	01H
; Function compile flags: /Odtp
xdata$x	ENDS
;	COMDAT ?close@iosockstream@dlib@@QAEXK@Z
_TEXT	SEGMENT
tv150 = -296						; size = 4
_this$ = -292						; size = 4
_junk$149656 = -288					; size = 100
__$ArrayPad$ = -180					; size = 4
_t$149648 = -176					; size = 160
__$EHRec$ = -16						; size = 16
_timeout$ = 8						; size = 4
?close@iosockstream@dlib@@QAEXK@Z PROC			; dlib::iosockstream::close, COMDAT
; _this$ = ecx
; Line 93
	push	ebp
	mov	ebp, esp
	push	-1
	push	__ehhandler$?close@iosockstream@dlib@@QAEXK@Z
	mov	eax, DWORD PTR fs:0
	push	eax
	push	ecx
	sub	esp, 280				; 00000118H
	mov	eax, DWORD PTR ___security_cookie
	xor	eax, ebp
	mov	DWORD PTR __$ArrayPad$[ebp], eax
	push	ebx
	push	esi
	push	edi
	push	eax
	lea	eax, DWORD PTR __$EHRec$[ebp+4]
	mov	DWORD PTR fs:0, eax
	mov	DWORD PTR __$EHRec$[ebp], esp
	mov	DWORD PTR _this$[ebp], ecx
; Line 94
	push	0
	mov	eax, DWORD PTR _this$[ebp]
	mov	ecx, DWORD PTR [eax]
	mov	edx, DWORD PTR _this$[ebp]
	add	edx, DWORD PTR [ecx+4]
	mov	ecx, edx
	call	DWORD PTR __imp_?rdbuf@?$basic_ios@DU?$char_traits@D@std@@@std@@QAEPAV?$basic_streambuf@DU?$char_traits@D@std@@@2@PAV32@@Z
; Line 96
	mov	DWORD PTR __$EHRec$[ebp+12], 0
; Line 97
	mov	ecx, DWORD PTR _this$[ebp]
	add	ecx, 36					; 00000024H
	call	??B?$scoped_ptr@Vsockstreambuf@dlib@@U?$default_deleter@Vsockstreambuf@dlib@@@2@@dlib@@QBE_NXZ ; dlib::scoped_ptr<dlib::sockstreambuf,dlib::default_deleter<dlib::sockstreambuf> >::operator bool
	movzx	eax, al
	test	eax, eax
	je	$LN5@close@4
; Line 99
	mov	ecx, DWORD PTR _timeout$[ebp]
	push	ecx
	push	OFFSET ?shutdown@connection@dlib@@QAEHXZ ; dlib::connection::shutdown
	mov	ecx, DWORD PTR _this$[ebp]
	add	ecx, 28					; 0000001cH
	call	??D?$shared_ptr_thread_safe@Vconnection@dlib@@@dlib@@QBEAAVconnection@1@XZ ; dlib::shared_ptr_thread_safe<dlib::connection>::operator*
	push	eax
	lea	ecx, DWORD PTR _t$149648[ebp]
	call	??$?0Vconnection@dlib@@@timeout@dlib@@QAE@AAVconnection@1@P821@AEHXZK@Z ; dlib::timeout::timeout<dlib::connection>
	mov	DWORD PTR tv150[ebp], eax
	mov	BYTE PTR __$EHRec$[ebp+12], 1
; Line 102
	push	0
	mov	ecx, DWORD PTR _this$[ebp]
	add	ecx, 36					; 00000024H
	call	?reset@?$scoped_ptr@Vsockstreambuf@dlib@@U?$default_deleter@Vsockstreambuf@dlib@@@2@@dlib@@QAEXPAVsockstreambuf@2@@Z ; dlib::scoped_ptr<dlib::sockstreambuf,dlib::default_deleter<dlib::sockstreambuf> >::reset
; Line 104
	mov	ecx, DWORD PTR _this$[ebp]
	add	ecx, 28					; 0000001cH
	call	??C?$shared_ptr_thread_safe@Vconnection@dlib@@@dlib@@QBEPAVconnection@1@XZ ; dlib::shared_ptr_thread_safe<dlib::connection>::operator->
	mov	ecx, eax
	call	?shutdown_outgoing@connection@dlib@@QAEHXZ ; dlib::connection::shutdown_outgoing
	test	eax, eax
	je	SHORT $LN2@close@4
; Line 107
	mov	ecx, DWORD PTR _this$[ebp]
	add	ecx, 28					; 0000001cH
	call	??C?$shared_ptr_thread_safe@Vconnection@dlib@@@dlib@@QBEPAVconnection@1@XZ ; dlib::shared_ptr_thread_safe<dlib::connection>::operator->
	mov	ecx, eax
	call	?shutdown@connection@dlib@@QAEHXZ	; dlib::connection::shutdown
; Line 109
	jmp	SHORT $LN3@close@4
$LN2@close@4:
; Line 113
	push	100					; 00000064H
	lea	edx, DWORD PTR _junk$149656[ebp]
	push	edx
	mov	ecx, DWORD PTR _this$[ebp]
	add	ecx, 28					; 0000001cH
	call	??C?$shared_ptr_thread_safe@Vconnection@dlib@@@dlib@@QBEPAVconnection@1@XZ ; dlib::shared_ptr_thread_safe<dlib::connection>::operator->
	mov	ecx, eax
	call	?read@connection@dlib@@QAEJPADJ@Z	; dlib::connection::read
	test	eax, eax
	jle	SHORT $LN3@close@4
	jmp	SHORT $LN2@close@4
$LN3@close@4:
; Line 115
	mov	BYTE PTR __$EHRec$[ebp+12], 0
	lea	ecx, DWORD PTR _t$149648[ebp]
	call	??1timeout@dlib@@UAE@XZ			; dlib::timeout::~timeout
$LN5@close@4:
; Line 116
	jmp	SHORT $LN9@close@4
__catch$?close@iosockstream@dlib@@QAEXK@Z$0:
; Line 119
	mov	ecx, DWORD PTR _this$[ebp]
	add	ecx, 28					; 0000001cH
	call	?reset@?$shared_ptr_thread_safe@Vconnection@dlib@@@dlib@@QAEXXZ ; dlib::shared_ptr_thread_safe<dlib::connection>::reset
; Line 120
	push	0
	push	0
	call	__CxxThrowException@8
; Line 121
	mov	DWORD PTR __$EHRec$[ebp+12], -1
	mov	eax, __tryend$?close@iosockstream@dlib@@QAEXK@Z$1
	ret	0
$LN9@close@4:
	mov	DWORD PTR __$EHRec$[ebp+12], -1
__tryend$?close@iosockstream@dlib@@QAEXK@Z$1:
; Line 122
	mov	ecx, DWORD PTR _this$[ebp]
	add	ecx, 28					; 0000001cH
	call	?reset@?$shared_ptr_thread_safe@Vconnection@dlib@@@dlib@@QAEXXZ ; dlib::shared_ptr_thread_safe<dlib::connection>::reset
$LN8@close@4:
; Line 123
	mov	ecx, DWORD PTR __$EHRec$[ebp+4]
	mov	DWORD PTR fs:0, ecx
	pop	ecx
	pop	edi
	pop	esi
	pop	ebx
	mov	ecx, DWORD PTR __$ArrayPad$[ebp]
	xor	ecx, ebp
	call	@__security_check_cookie@4
	mov	esp, ebp
	pop	ebp
	ret	4
_TEXT	ENDS
;	COMDAT text$x
text$x	SEGMENT
__unwindfunclet$?close@iosockstream@dlib@@QAEXK@Z$2:
	lea	ecx, DWORD PTR _t$149648[ebp]
	jmp	??1timeout@dlib@@UAE@XZ			; dlib::timeout::~timeout
__ehhandler$?close@iosockstream@dlib@@QAEXK@Z:
	mov	edx, DWORD PTR [esp+8]
	lea	eax, DWORD PTR [edx+12]
	mov	ecx, DWORD PTR [edx-300]
	xor	ecx, eax
	call	@__security_check_cookie@4
	mov	ecx, DWORD PTR [edx-168]
	xor	ecx, eax
	call	@__security_check_cookie@4
	mov	eax, OFFSET __ehfuncinfo$?close@iosockstream@dlib@@QAEXK@Z
	jmp	___CxxFrameHandler3
text$x	ENDS
?close@iosockstream@dlib@@QAEXK@Z ENDP			; dlib::iosockstream::close
;	COMDAT xdata$x
xdata$x	SEGMENT
__unwindtable$?open@iosockstream@dlib@@QAEXABUnetwork_address@2@@Z DD 0ffffffffH
	DD	FLAT:__unwindfunclet$?open@iosockstream@dlib@@QAEXABUnetwork_address@2@@Z$0
__ehfuncinfo$?open@iosockstream@dlib@@QAEXABUnetwork_address@2@@Z DD 019930522H
	DD	01H
	DD	FLAT:__unwindtable$?open@iosockstream@dlib@@QAEXABUnetwork_address@2@@Z
	DD	2 DUP(00H)
	DD	2 DUP(00H)
	DD	00H
	DD	01H
; Function compile flags: /Odtp
xdata$x	ENDS
;	COMDAT ?open@iosockstream@dlib@@QAEXABUnetwork_address@2@@Z
_TEXT	SEGMENT
tv84 = -28						; size = 4
_this$ = -24						; size = 4
$T369621 = -20						; size = 4
$T369620 = -16						; size = 4
__$EHRec$ = -12						; size = 12
_addr$ = 8						; size = 4
?open@iosockstream@dlib@@QAEXABUnetwork_address@2@@Z PROC ; dlib::iosockstream::open, COMDAT
; _this$ = ecx
; Line 61
	push	ebp
	mov	ebp, esp
	push	-1
	push	__ehhandler$?open@iosockstream@dlib@@QAEXABUnetwork_address@2@@Z
	mov	eax, DWORD PTR fs:0
	push	eax
	sub	esp, 16					; 00000010H
	mov	eax, DWORD PTR ___security_cookie
	xor	eax, ebp
	push	eax
	lea	eax, DWORD PTR __$EHRec$[ebp]
	mov	DWORD PTR fs:0, eax
	mov	DWORD PTR _this$[ebp], ecx
; Line 62
	push	10000					; 00002710H
	mov	ecx, DWORD PTR _this$[ebp]
	call	?close@iosockstream@dlib@@QAEXK@Z	; dlib::iosockstream::close
; Line 63
	mov	eax, DWORD PTR _addr$[ebp]
	push	eax
	call	?connect@dlib@@YAPAVconnection@1@ABUnetwork_address@1@@Z ; dlib::connect
	add	esp, 4
	push	eax
	mov	ecx, DWORD PTR _this$[ebp]
	add	ecx, 28					; 0000001cH
	call	??$reset@Vconnection@dlib@@@?$shared_ptr_thread_safe@Vconnection@dlib@@@dlib@@QAEXPAVconnection@1@@Z ; dlib::shared_ptr_thread_safe<dlib::connection>::reset<dlib::connection>
; Line 64
	push	76					; 0000004cH
	call	DWORD PTR __imp_??2@YAPAXI@Z
	add	esp, 4
	mov	DWORD PTR $T369621[ebp], eax
	mov	DWORD PTR __$EHRec$[ebp+8], 0
	cmp	DWORD PTR $T369621[ebp], 0
	je	SHORT $LN3@open@3
	mov	ecx, DWORD PTR _this$[ebp]
	add	ecx, 28					; 0000001cH
	call	?get@?$shared_ptr_thread_safe@Vconnection@dlib@@@dlib@@QBEPAVconnection@2@XZ ; dlib::shared_ptr_thread_safe<dlib::connection>::get
	push	eax
	mov	ecx, DWORD PTR $T369621[ebp]
	call	??0sockstreambuf@dlib@@QAE@PAVconnection@1@@Z ; dlib::sockstreambuf::sockstreambuf
	mov	DWORD PTR tv84[ebp], eax
	jmp	SHORT $LN4@open@3
$LN3@open@3:
	mov	DWORD PTR tv84[ebp], 0
$LN4@open@3:
	mov	ecx, DWORD PTR tv84[ebp]
	mov	DWORD PTR $T369620[ebp], ecx
	mov	DWORD PTR __$EHRec$[ebp+8], -1
	mov	edx, DWORD PTR $T369620[ebp]
	push	edx
	mov	ecx, DWORD PTR _this$[ebp]
	add	ecx, 36					; 00000024H
	call	?reset@?$scoped_ptr@Vsockstreambuf@dlib@@U?$default_deleter@Vsockstreambuf@dlib@@@2@@dlib@@QAEXPAVsockstreambuf@2@@Z ; dlib::scoped_ptr<dlib::sockstreambuf,dlib::default_deleter<dlib::sockstreambuf> >::reset
; Line 72
	mov	ecx, DWORD PTR _this$[ebp]
	add	ecx, 36					; 00000024H
	call	??C?$scoped_ptr@Vsockstreambuf@dlib@@U?$default_deleter@Vsockstreambuf@dlib@@@2@@dlib@@QBEPAVsockstreambuf@1@XZ ; dlib::scoped_ptr<dlib::sockstreambuf,dlib::default_deleter<dlib::sockstreambuf> >::operator->
	mov	ecx, eax
	call	?flush_output_on_read@sockstreambuf@dlib@@QAEXXZ ; dlib::sockstreambuf::flush_output_on_read
; Line 73
	mov	ecx, DWORD PTR _this$[ebp]
	add	ecx, 36					; 00000024H
	call	?get@?$scoped_ptr@Vsockstreambuf@dlib@@U?$default_deleter@Vsockstreambuf@dlib@@@2@@dlib@@QBEPAVsockstreambuf@2@XZ ; dlib::scoped_ptr<dlib::sockstreambuf,dlib::default_deleter<dlib::sockstreambuf> >::get
	push	eax
	mov	eax, DWORD PTR _this$[ebp]
	mov	ecx, DWORD PTR [eax]
	mov	edx, DWORD PTR _this$[ebp]
	add	edx, DWORD PTR [ecx+4]
	mov	ecx, edx
	call	DWORD PTR __imp_?rdbuf@?$basic_ios@DU?$char_traits@D@std@@@std@@QAEPAV?$basic_streambuf@DU?$char_traits@D@std@@@2@PAV32@@Z
; Line 74
	push	0
	push	0
	mov	eax, DWORD PTR _this$[ebp]
	mov	ecx, DWORD PTR [eax]
	mov	edx, DWORD PTR _this$[ebp]
	add	edx, DWORD PTR [ecx+4]
	mov	ecx, edx
	call	DWORD PTR __imp_?clear@?$basic_ios@DU?$char_traits@D@std@@@std@@QAEXH_N@Z
; Line 75
	mov	ecx, DWORD PTR __$EHRec$[ebp]
	mov	DWORD PTR fs:0, ecx
	pop	ecx
	mov	esp, ebp
	pop	ebp
	ret	4
_TEXT	ENDS
;	COMDAT text$x
text$x	SEGMENT
__unwindfunclet$?open@iosockstream@dlib@@QAEXABUnetwork_address@2@@Z$0:
	mov	eax, DWORD PTR $T369621[ebp]
	push	eax
	call	DWORD PTR __imp_??3@YAXPAX@Z
	pop	ecx
	ret	0
__ehhandler$?open@iosockstream@dlib@@QAEXABUnetwork_address@2@@Z:
	mov	edx, DWORD PTR [esp+8]
	lea	eax, DWORD PTR [edx+12]
	mov	ecx, DWORD PTR [edx-20]
	xor	ecx, eax
	call	@__security_check_cookie@4
	mov	eax, OFFSET __ehfuncinfo$?open@iosockstream@dlib@@QAEXABUnetwork_address@2@@Z
	jmp	___CxxFrameHandler3
text$x	ENDS
?open@iosockstream@dlib@@QAEXABUnetwork_address@2@@Z ENDP ; dlib::iosockstream::open
;	COMDAT xdata$x
xdata$x	SEGMENT
__unwindtable$??1iosockstream@dlib@@UAE@XZ DD 0ffffffffH
	DD	FLAT:__unwindfunclet$??1iosockstream@dlib@@UAE@XZ$0
	DD	00H
	DD	FLAT:__unwindfunclet$??1iosockstream@dlib@@UAE@XZ$1
	DD	01H
	DD	FLAT:__unwindfunclet$??1iosockstream@dlib@@UAE@XZ$2
	DD	02H
	DD	FLAT:__unwindfunclet$??1iosockstream@dlib@@UAE@XZ$3
__ehfuncinfo$??1iosockstream@dlib@@UAE@XZ DD 019930522H
	DD	04H
	DD	FLAT:__unwindtable$??1iosockstream@dlib@@UAE@XZ
	DD	2 DUP(00H)
	DD	2 DUP(00H)
	DD	00H
	DD	01H
; Function compile flags: /Odtp
xdata$x	ENDS
;	COMDAT ??1iosockstream@dlib@@UAE@XZ
_TEXT	SEGMENT
_this$ = -16						; size = 4
__$EHRec$ = -12						; size = 12
??1iosockstream@dlib@@UAE@XZ PROC			; dlib::iosockstream::~iosockstream, COMDAT
; _this$ = ecx
; Line 54
	push	ebp
	mov	ebp, esp
	push	-1
	push	__ehhandler$??1iosockstream@dlib@@UAE@XZ
	mov	eax, DWORD PTR fs:0
	push	eax
	push	ecx
	mov	eax, DWORD PTR ___security_cookie
	xor	eax, ebp
	push	eax
	lea	eax, DWORD PTR __$EHRec$[ebp]
	mov	DWORD PTR fs:0, eax
	mov	DWORD PTR _this$[ebp], ecx
	mov	eax, DWORD PTR _this$[ebp]
	mov	ecx, DWORD PTR [eax-40]
	mov	edx, DWORD PTR [ecx+4]
	mov	eax, DWORD PTR _this$[ebp]
	mov	DWORD PTR [eax+edx-40], OFFSET ??_7iosockstream@dlib@@6B@
	mov	DWORD PTR __$EHRec$[ebp+8], 3
; Line 55
	push	10000					; 00002710H
	mov	ecx, DWORD PTR _this$[ebp]
	sub	ecx, 40					; 00000028H
	call	?close@iosockstream@dlib@@QAEXK@Z	; dlib::iosockstream::close
; Line 56
	mov	BYTE PTR __$EHRec$[ebp+8], 2
	mov	ecx, DWORD PTR _this$[ebp]
	sub	ecx, 4
	call	??1?$scoped_ptr@Vsockstreambuf@dlib@@U?$default_deleter@Vsockstreambuf@dlib@@@2@@dlib@@QAE@XZ ; dlib::scoped_ptr<dlib::sockstreambuf,dlib::default_deleter<dlib::sockstreambuf> >::~scoped_ptr<dlib::sockstreambuf,dlib::default_deleter<dlib::sockstreambuf> >
	mov	BYTE PTR __$EHRec$[ebp+8], 1
	mov	ecx, DWORD PTR _this$[ebp]
	sub	ecx, 12					; 0000000cH
	call	??1?$shared_ptr_thread_safe@Vconnection@dlib@@@dlib@@QAE@XZ ; dlib::shared_ptr_thread_safe<dlib::connection>::~shared_ptr_thread_safe<dlib::connection>
	mov	BYTE PTR __$EHRec$[ebp+8], 0
	mov	ecx, DWORD PTR _this$[ebp]
	sub	ecx, 16					; 00000010H
	call	??1?$scoped_ptr@Vtimeout@dlib@@U?$default_deleter@Vtimeout@dlib@@@2@@dlib@@QAE@XZ ; dlib::scoped_ptr<dlib::timeout,dlib::default_deleter<dlib::timeout> >::~scoped_ptr<dlib::timeout,dlib::default_deleter<dlib::timeout> >
	mov	DWORD PTR __$EHRec$[ebp+8], -1
	mov	ecx, DWORD PTR _this$[ebp]
	sub	ecx, 16					; 00000010H
	call	DWORD PTR __imp_??1?$basic_iostream@DU?$char_traits@D@std@@@std@@UAE@XZ
	mov	ecx, DWORD PTR __$EHRec$[ebp]
	mov	DWORD PTR fs:0, ecx
	pop	ecx
	mov	esp, ebp
	pop	ebp
	ret	0
_TEXT	ENDS
;	COMDAT text$x
text$x	SEGMENT
__unwindfunclet$??1iosockstream@dlib@@UAE@XZ$0:
	mov	ecx, DWORD PTR _this$[ebp]
	sub	ecx, 16					; 00000010H
	jmp	DWORD PTR __imp_??1?$basic_iostream@DU?$char_traits@D@std@@@std@@UAE@XZ
__unwindfunclet$??1iosockstream@dlib@@UAE@XZ$1:
	mov	ecx, DWORD PTR _this$[ebp]
	sub	ecx, 16					; 00000010H
	jmp	??1?$scoped_ptr@Vtimeout@dlib@@U?$default_deleter@Vtimeout@dlib@@@2@@dlib@@QAE@XZ ; dlib::scoped_ptr<dlib::timeout,dlib::default_deleter<dlib::timeout> >::~scoped_ptr<dlib::timeout,dlib::default_deleter<dlib::timeout> >
__unwindfunclet$??1iosockstream@dlib@@UAE@XZ$2:
	mov	ecx, DWORD PTR _this$[ebp]
	sub	ecx, 12					; 0000000cH
	jmp	??1?$shared_ptr_thread_safe@Vconnection@dlib@@@dlib@@QAE@XZ ; dlib::shared_ptr_thread_safe<dlib::connection>::~shared_ptr_thread_safe<dlib::connection>
__unwindfunclet$??1iosockstream@dlib@@UAE@XZ$3:
	mov	ecx, DWORD PTR _this$[ebp]
	sub	ecx, 4
	jmp	??1?$scoped_ptr@Vsockstreambuf@dlib@@U?$default_deleter@Vsockstreambuf@dlib@@@2@@dlib@@QAE@XZ ; dlib::scoped_ptr<dlib::sockstreambuf,dlib::default_deleter<dlib::sockstreambuf> >::~scoped_ptr<dlib::sockstreambuf,dlib::default_deleter<dlib::sockstreambuf> >
__ehhandler$??1iosockstream@dlib@@UAE@XZ:
	mov	edx, DWORD PTR [esp+8]
	lea	eax, DWORD PTR [edx+12]
	mov	ecx, DWORD PTR [edx-8]
	xor	ecx, eax
	call	@__security_check_cookie@4
	mov	eax, OFFSET __ehfuncinfo$??1iosockstream@dlib@@UAE@XZ
	jmp	___CxxFrameHandler3
text$x	ENDS
??1iosockstream@dlib@@UAE@XZ ENDP			; dlib::iosockstream::~iosockstream
;	COMDAT xdata$x
xdata$x	SEGMENT
__unwindtable$??0iosockstream@dlib@@QAE@ABUnetwork_address@1@@Z DD 0ffffffffH
	DD	FLAT:__unwindfunclet$??0iosockstream@dlib@@QAE@ABUnetwork_address@1@@Z$0
	DD	00H
	DD	FLAT:__unwindfunclet$??0iosockstream@dlib@@QAE@ABUnetwork_address@1@@Z$1
	DD	01H
	DD	FLAT:__unwindfunclet$??0iosockstream@dlib@@QAE@ABUnetwork_address@1@@Z$2
	DD	02H
	DD	FLAT:__unwindfunclet$??0iosockstream@dlib@@QAE@ABUnetwork_address@1@@Z$3
	DD	03H
	DD	FLAT:__unwindfunclet$??0iosockstream@dlib@@QAE@ABUnetwork_address@1@@Z$4
__ehfuncinfo$??0iosockstream@dlib@@QAE@ABUnetwork_address@1@@Z DD 019930522H
	DD	05H
	DD	FLAT:__unwindtable$??0iosockstream@dlib@@QAE@ABUnetwork_address@1@@Z
	DD	2 DUP(00H)
	DD	2 DUP(00H)
	DD	00H
	DD	01H
; Function compile flags: /Odtp
xdata$x	ENDS
;	COMDAT ??0iosockstream@dlib@@QAE@ABUnetwork_address@1@@Z
_TEXT	SEGMENT
_this$ = -20						; size = 4
$T369645 = -16						; size = 4
__$EHRec$ = -12						; size = 12
_addr$ = 8						; size = 4
_$initVBases$ = 12					; size = 4
??0iosockstream@dlib@@QAE@ABUnetwork_address@1@@Z PROC	; dlib::iosockstream::iosockstream, COMDAT
; _this$ = ecx
; Line 40
	push	ebp
	mov	ebp, esp
	push	-1
	push	__ehhandler$??0iosockstream@dlib@@QAE@ABUnetwork_address@1@@Z
	mov	eax, DWORD PTR fs:0
	push	eax
	sub	esp, 8
	mov	eax, DWORD PTR ___security_cookie
	xor	eax, ebp
	push	eax
	lea	eax, DWORD PTR __$EHRec$[ebp]
	mov	DWORD PTR fs:0, eax
	mov	DWORD PTR _this$[ebp], ecx
	mov	DWORD PTR $T369645[ebp], 0
	cmp	DWORD PTR _$initVBases$[ebp], 0
	je	SHORT $LN1@iosockstre
	mov	eax, DWORD PTR _this$[ebp]
	mov	DWORD PTR [eax], OFFSET ??_8iosockstream@dlib@@7B?$basic_istream@DU?$char_traits@D@std@@@std@@@
	mov	ecx, DWORD PTR _this$[ebp]
	mov	DWORD PTR [ecx+16], OFFSET ??_8iosockstream@dlib@@7B?$basic_ostream@DU?$char_traits@D@std@@@std@@@
	mov	ecx, DWORD PTR _this$[ebp]
	add	ecx, 40					; 00000028H
	call	DWORD PTR __imp_??0?$basic_ios@DU?$char_traits@D@std@@@std@@IAE@XZ
	mov	DWORD PTR __$EHRec$[ebp+8], 0
	mov	edx, DWORD PTR $T369645[ebp]
	or	edx, 1
	mov	DWORD PTR $T369645[ebp], edx
$LN1@iosockstre:
	push	0
	push	0
	mov	ecx, DWORD PTR _this$[ebp]
	call	DWORD PTR __imp_??0?$basic_iostream@DU?$char_traits@D@std@@@std@@QAE@PAV?$basic_streambuf@DU?$char_traits@D@std@@@1@@Z
	mov	DWORD PTR __$EHRec$[ebp+8], 1
	mov	eax, DWORD PTR _this$[ebp]
	mov	ecx, DWORD PTR [eax]
	mov	edx, DWORD PTR [ecx+4]
	mov	eax, DWORD PTR _this$[ebp]
	mov	DWORD PTR [eax+edx], OFFSET ??_7iosockstream@dlib@@6B@
	push	0
	mov	ecx, DWORD PTR _this$[ebp]
	add	ecx, 24					; 00000018H
	call	??0?$scoped_ptr@Vtimeout@dlib@@U?$default_deleter@Vtimeout@dlib@@@2@@dlib@@QAE@PAVtimeout@1@@Z ; dlib::scoped_ptr<dlib::timeout,dlib::default_deleter<dlib::timeout> >::scoped_ptr<dlib::timeout,dlib::default_deleter<dlib::timeout> >
	mov	BYTE PTR __$EHRec$[ebp+8], 2
	mov	ecx, DWORD PTR _this$[ebp]
	add	ecx, 28					; 0000001cH
	call	??0?$shared_ptr_thread_safe@Vconnection@dlib@@@dlib@@QAE@XZ ; dlib::shared_ptr_thread_safe<dlib::connection>::shared_ptr_thread_safe<dlib::connection>
	mov	BYTE PTR __$EHRec$[ebp+8], 3
	push	0
	mov	ecx, DWORD PTR _this$[ebp]
	add	ecx, 36					; 00000024H
	call	??0?$scoped_ptr@Vsockstreambuf@dlib@@U?$default_deleter@Vsockstreambuf@dlib@@@2@@dlib@@QAE@PAVsockstreambuf@1@@Z ; dlib::scoped_ptr<dlib::sockstreambuf,dlib::default_deleter<dlib::sockstreambuf> >::scoped_ptr<dlib::sockstreambuf,dlib::default_deleter<dlib::sockstreambuf> >
	mov	BYTE PTR __$EHRec$[ebp+8], 4
; Line 41
	mov	ecx, DWORD PTR _addr$[ebp]
	push	ecx
	mov	ecx, DWORD PTR _this$[ebp]
	call	?open@iosockstream@dlib@@QAEXABUnetwork_address@2@@Z ; dlib::iosockstream::open
; Line 42
	mov	DWORD PTR __$EHRec$[ebp+8], -1
	mov	eax, DWORD PTR _this$[ebp]
	mov	ecx, DWORD PTR __$EHRec$[ebp]
	mov	DWORD PTR fs:0, ecx
	pop	ecx
	mov	esp, ebp
	pop	ebp
	ret	8
_TEXT	ENDS
;	COMDAT text$x
text$x	SEGMENT
__unwindfunclet$??0iosockstream@dlib@@QAE@ABUnetwork_address@1@@Z$0:
	mov	eax, DWORD PTR $T369645[ebp]
	and	eax, 1
	je	$LN5@iosockstre
	and	DWORD PTR $T369645[ebp], -2		; fffffffeH
	mov	ecx, DWORD PTR _this$[ebp]
	add	ecx, 40					; 00000028H
	jmp	DWORD PTR __imp_??1?$basic_ios@DU?$char_traits@D@std@@@std@@UAE@XZ
$LN5@iosockstre:
	ret	0
__unwindfunclet$??0iosockstream@dlib@@QAE@ABUnetwork_address@1@@Z$1:
	mov	ecx, DWORD PTR _this$[ebp]
	add	ecx, 24					; 00000018H
	jmp	DWORD PTR __imp_??1?$basic_iostream@DU?$char_traits@D@std@@@std@@UAE@XZ
__unwindfunclet$??0iosockstream@dlib@@QAE@ABUnetwork_address@1@@Z$2:
	mov	ecx, DWORD PTR _this$[ebp]
	add	ecx, 24					; 00000018H
	jmp	??1?$scoped_ptr@Vtimeout@dlib@@U?$default_deleter@Vtimeout@dlib@@@2@@dlib@@QAE@XZ ; dlib::scoped_ptr<dlib::timeout,dlib::default_deleter<dlib::timeout> >::~scoped_ptr<dlib::timeout,dlib::default_deleter<dlib::timeout> >
__unwindfunclet$??0iosockstream@dlib@@QAE@ABUnetwork_address@1@@Z$3:
	mov	ecx, DWORD PTR _this$[ebp]
	add	ecx, 28					; 0000001cH
	jmp	??1?$shared_ptr_thread_safe@Vconnection@dlib@@@dlib@@QAE@XZ ; dlib::shared_ptr_thread_safe<dlib::connection>::~shared_ptr_thread_safe<dlib::connection>
__unwindfunclet$??0iosockstream@dlib@@QAE@ABUnetwork_address@1@@Z$4:
	mov	ecx, DWORD PTR _this$[ebp]
	add	ecx, 36					; 00000024H
	jmp	??1?$scoped_ptr@Vsockstreambuf@dlib@@U?$default_deleter@Vsockstreambuf@dlib@@@2@@dlib@@QAE@XZ ; dlib::scoped_ptr<dlib::sockstreambuf,dlib::default_deleter<dlib::sockstreambuf> >::~scoped_ptr<dlib::sockstreambuf,dlib::default_deleter<dlib::sockstreambuf> >
__ehhandler$??0iosockstream@dlib@@QAE@ABUnetwork_address@1@@Z:
	mov	edx, DWORD PTR [esp+8]
	lea	eax, DWORD PTR [edx+12]
	mov	ecx, DWORD PTR [edx-12]
	xor	ecx, eax
	call	@__security_check_cookie@4
	mov	eax, OFFSET __ehfuncinfo$??0iosockstream@dlib@@QAE@ABUnetwork_address@1@@Z
	jmp	___CxxFrameHandler3
text$x	ENDS
??0iosockstream@dlib@@QAE@ABUnetwork_address@1@@Z ENDP	; dlib::iosockstream::iosockstream
; Function compile flags: /Odtp
;	COMDAT ??_Diosockstream@dlib@@QAEXXZ
_TEXT	SEGMENT
_this$ = -4						; size = 4
??_Diosockstream@dlib@@QAEXXZ PROC			; dlib::iosockstream::`vbase destructor', COMDAT
; _this$ = ecx
	push	ebp
	mov	ebp, esp
	push	ecx
	mov	DWORD PTR _this$[ebp], ecx
	mov	ecx, DWORD PTR _this$[ebp]
	add	ecx, 40					; 00000028H
	call	??1iosockstream@dlib@@UAE@XZ		; dlib::iosockstream::~iosockstream
	mov	ecx, DWORD PTR _this$[ebp]
	add	ecx, 40					; 00000028H
	call	DWORD PTR __imp_??1?$basic_ios@DU?$char_traits@D@std@@@std@@UAE@XZ
	mov	esp, ebp
	pop	ebp
	ret	0
??_Diosockstream@dlib@@QAEXXZ ENDP			; dlib::iosockstream::`vbase destructor'
; Function compile flags: /Odtp
_TEXT	ENDS
;	COMDAT ??_Giosockstream@dlib@@UAEPAXI@Z
_TEXT	SEGMENT
_this$ = -4						; size = 4
___flags$ = 8						; size = 4
??_Giosockstream@dlib@@UAEPAXI@Z PROC			; dlib::iosockstream::`scalar deleting destructor', COMDAT
; _this$ = ecx
	push	ebp
	mov	ebp, esp
	push	ecx
	mov	DWORD PTR _this$[ebp], ecx
	mov	ecx, DWORD PTR _this$[ebp]
	sub	ecx, 40					; 00000028H
	call	??_Diosockstream@dlib@@QAEXXZ
	mov	eax, DWORD PTR ___flags$[ebp]
	and	eax, 1
	je	SHORT $LN1@scalar@277
	mov	ecx, DWORD PTR _this$[ebp]
	sub	ecx, 40					; 00000028H
	push	ecx
	call	DWORD PTR __imp_??3@YAXPAX@Z
	add	esp, 4
$LN1@scalar@277:
	mov	eax, DWORD PTR _this$[ebp]
	sub	eax, 40					; 00000028H
	mov	esp, ebp
	pop	ebp
	ret	4
??_Giosockstream@dlib@@UAEPAXI@Z ENDP			; dlib::iosockstream::`scalar deleting destructor'
END
