; Listing generated by Microsoft (R) Optimizing Compiler Version 16.00.40219.01 

	TITLE	C:\Work\daspirum\Source\src\http.cpp
	.686P
	.XMM
	include listing.inc
	.model	flat

INCLUDELIB OLDNAMES

PUBLIC	??_R4web_server@http@@6B@			; http::web_server::`RTTI Complete Object Locator'
PUBLIC	??_R3web_server@http@@8				; http::web_server::`RTTI Class Hierarchy Descriptor'
PUBLIC	??_R2web_server@http@@8				; http::web_server::`RTTI Base Class Array'
PUBLIC	??_R1A@?0A@EA@web_server@http@@8		; http::web_server::`RTTI Base Class Descriptor at (0,-1,0,64)'
PUBLIC	??_R0?AVweb_server@http@@@8			; http::web_server `RTTI Type Descriptor'
PUBLIC	??_R4?$memory_manager_kernel_2@Vnode@?$binary_search_tree_kernel_2@_KPAVconnection@dlib@@V?$memory_manager_kernel_2@D$09@2@U?$less@_K@std@@@dlib@@$09@dlib@@6B@ ; dlib::memory_manager_kernel_2<dlib::binary_search_tree_kernel_2<unsigned __int64,dlib::connection *,dlib::memory_manager_kernel_2<char,10>,std::less<unsigned __int64> >::node,10>::`RTTI Complete Object Locator'
PUBLIC	??_R3?$memory_manager_kernel_2@Vnode@?$binary_search_tree_kernel_2@_KPAVconnection@dlib@@V?$memory_manager_kernel_2@D$09@2@U?$less@_K@std@@@dlib@@$09@dlib@@8 ; dlib::memory_manager_kernel_2<dlib::binary_search_tree_kernel_2<unsigned __int64,dlib::connection *,dlib::memory_manager_kernel_2<char,10>,std::less<unsigned __int64> >::node,10>::`RTTI Class Hierarchy Descriptor'
PUBLIC	??_R2?$memory_manager_kernel_2@Vnode@?$binary_search_tree_kernel_2@_KPAVconnection@dlib@@V?$memory_manager_kernel_2@D$09@2@U?$less@_K@std@@@dlib@@$09@dlib@@8 ; dlib::memory_manager_kernel_2<dlib::binary_search_tree_kernel_2<unsigned __int64,dlib::connection *,dlib::memory_manager_kernel_2<char,10>,std::less<unsigned __int64> >::node,10>::`RTTI Base Class Array'
PUBLIC	??_R1A@?0A@EA@?$memory_manager_kernel_2@Vnode@?$binary_search_tree_kernel_2@_KPAVconnection@dlib@@V?$memory_manager_kernel_2@D$09@2@U?$less@_K@std@@@dlib@@$09@dlib@@8 ; dlib::memory_manager_kernel_2<dlib::binary_search_tree_kernel_2<unsigned __int64,dlib::connection *,dlib::memory_manager_kernel_2<char,10>,std::less<unsigned __int64> >::node,10>::`RTTI Base Class Descriptor at (0,-1,0,64)'
PUBLIC	??_R0?AV?$memory_manager_kernel_2@Vnode@?$binary_search_tree_kernel_2@_KPAVconnection@dlib@@V?$memory_manager_kernel_2@D$09@2@U?$less@_K@std@@@dlib@@$09@dlib@@@8 ; dlib::memory_manager_kernel_2<dlib::binary_search_tree_kernel_2<unsigned __int64,dlib::connection *,dlib::memory_manager_kernel_2<char,10>,std::less<unsigned __int64> >::node,10> `RTTI Type Descriptor'
PUBLIC	??_R4mpair@?$binary_search_tree_kernel_2@_KPAVconnection@dlib@@V?$memory_manager_kernel_2@D$09@2@U?$less@_K@std@@@dlib@@6B@ ; dlib::binary_search_tree_kernel_2<unsigned __int64,dlib::connection *,dlib::memory_manager_kernel_2<char,10>,std::less<unsigned __int64> >::mpair::`RTTI Complete Object Locator'
PUBLIC	??_R3mpair@?$binary_search_tree_kernel_2@_KPAVconnection@dlib@@V?$memory_manager_kernel_2@D$09@2@U?$less@_K@std@@@dlib@@8 ; dlib::binary_search_tree_kernel_2<unsigned __int64,dlib::connection *,dlib::memory_manager_kernel_2<char,10>,std::less<unsigned __int64> >::mpair::`RTTI Class Hierarchy Descriptor'
PUBLIC	??_R2mpair@?$binary_search_tree_kernel_2@_KPAVconnection@dlib@@V?$memory_manager_kernel_2@D$09@2@U?$less@_K@std@@@dlib@@8 ; dlib::binary_search_tree_kernel_2<unsigned __int64,dlib::connection *,dlib::memory_manager_kernel_2<char,10>,std::less<unsigned __int64> >::mpair::`RTTI Base Class Array'
PUBLIC	??_R1A@?0A@EA@mpair@?$binary_search_tree_kernel_2@_KPAVconnection@dlib@@V?$memory_manager_kernel_2@D$09@2@U?$less@_K@std@@@dlib@@8 ; dlib::binary_search_tree_kernel_2<unsigned __int64,dlib::connection *,dlib::memory_manager_kernel_2<char,10>,std::less<unsigned __int64> >::mpair::`RTTI Base Class Descriptor at (0,-1,0,64)'
PUBLIC	??_R0?AVmpair@?$binary_search_tree_kernel_2@_KPAVconnection@dlib@@V?$memory_manager_kernel_2@D$09@2@U?$less@_K@std@@@dlib@@@8 ; dlib::binary_search_tree_kernel_2<unsigned __int64,dlib::connection *,dlib::memory_manager_kernel_2<char,10>,std::less<unsigned __int64> >::mpair `RTTI Type Descriptor'
PUBLIC	??_R4?$pair_remover@_KPAVconnection@dlib@@@dlib@@6B@ ; dlib::pair_remover<unsigned __int64,dlib::connection *>::`RTTI Complete Object Locator'
PUBLIC	??_R4?$asc_pair_remover@_KPAVconnection@dlib@@U?$less@_K@std@@@dlib@@6B@ ; dlib::asc_pair_remover<unsigned __int64,dlib::connection *,std::less<unsigned __int64> >::`RTTI Complete Object Locator'
PUBLIC	??_R4?$enumerable@V?$map_pair@_KPAVconnection@dlib@@@dlib@@@dlib@@6B@ ; dlib::enumerable<dlib::map_pair<unsigned __int64,dlib::connection *> >::`RTTI Complete Object Locator'
PUBLIC	??_R4?$map_pair@_KPAVconnection@dlib@@@dlib@@6B@ ; dlib::map_pair<unsigned __int64,dlib::connection *>::`RTTI Complete Object Locator'
PUBLIC	??_R3?$map_pair@_KPAVconnection@dlib@@@dlib@@8	; dlib::map_pair<unsigned __int64,dlib::connection *>::`RTTI Class Hierarchy Descriptor'
PUBLIC	??_R2?$map_pair@_KPAVconnection@dlib@@@dlib@@8	; dlib::map_pair<unsigned __int64,dlib::connection *>::`RTTI Base Class Array'
PUBLIC	??_R1A@?0A@EA@?$map_pair@_KPAVconnection@dlib@@@dlib@@8 ; dlib::map_pair<unsigned __int64,dlib::connection *>::`RTTI Base Class Descriptor at (0,-1,0,64)'
PUBLIC	??_R0?AV?$map_pair@_KPAVconnection@dlib@@@dlib@@@8 ; dlib::map_pair<unsigned __int64,dlib::connection *> `RTTI Type Descriptor'
PUBLIC	??_R4?$map_kernel_1@_KPAVconnection@dlib@@V?$binary_search_tree_kernel_2@_KPAVconnection@dlib@@V?$memory_manager_kernel_2@D$09@2@U?$less@_K@std@@@2@V?$memory_manager_kernel_2@D$09@2@@dlib@@6B?$asc_pair_remover@_KPAVconnection@dlib@@U?$less@_K@std@@@1@@ ; dlib::map_kernel_1<unsigned __int64,dlib::connection *,dlib::binary_search_tree_kernel_2<unsigned __int64,dlib::connection *,dlib::memory_manager_kernel_2<char,10>,std::less<unsigned __int64> >,dlib::memory_manager_kernel_2<char,10> >::`RTTI Complete Object Locator'
PUBLIC	??_R4?$map_kernel_1@_KPAVconnection@dlib@@V?$binary_search_tree_kernel_2@_KPAVconnection@dlib@@V?$memory_manager_kernel_2@D$09@2@U?$less@_K@std@@@2@V?$memory_manager_kernel_2@D$09@2@@dlib@@6B?$enumerable@V?$map_pair@_KPAVconnection@dlib@@@dlib@@@1@@ ; dlib::map_kernel_1<unsigned __int64,dlib::connection *,dlib::binary_search_tree_kernel_2<unsigned __int64,dlib::connection *,dlib::memory_manager_kernel_2<char,10>,std::less<unsigned __int64> >,dlib::memory_manager_kernel_2<char,10> >::`RTTI Complete Object Locator'
PUBLIC	??_R3?$map_kernel_1@_KPAVconnection@dlib@@V?$binary_search_tree_kernel_2@_KPAVconnection@dlib@@V?$memory_manager_kernel_2@D$09@2@U?$less@_K@std@@@2@V?$memory_manager_kernel_2@D$09@2@@dlib@@8 ; dlib::map_kernel_1<unsigned __int64,dlib::connection *,dlib::binary_search_tree_kernel_2<unsigned __int64,dlib::connection *,dlib::memory_manager_kernel_2<char,10>,std::less<unsigned __int64> >,dlib::memory_manager_kernel_2<char,10> >::`RTTI Class Hierarchy Descriptor'
PUBLIC	??_R2?$map_kernel_1@_KPAVconnection@dlib@@V?$binary_search_tree_kernel_2@_KPAVconnection@dlib@@V?$memory_manager_kernel_2@D$09@2@U?$less@_K@std@@@2@V?$memory_manager_kernel_2@D$09@2@@dlib@@8 ; dlib::map_kernel_1<unsigned __int64,dlib::connection *,dlib::binary_search_tree_kernel_2<unsigned __int64,dlib::connection *,dlib::memory_manager_kernel_2<char,10>,std::less<unsigned __int64> >,dlib::memory_manager_kernel_2<char,10> >::`RTTI Base Class Array'
PUBLIC	??_R1A@?0A@EA@?$map_kernel_1@_KPAVconnection@dlib@@V?$binary_search_tree_kernel_2@_KPAVconnection@dlib@@V?$memory_manager_kernel_2@D$09@2@U?$less@_K@std@@@2@V?$memory_manager_kernel_2@D$09@2@@dlib@@8 ; dlib::map_kernel_1<unsigned __int64,dlib::connection *,dlib::binary_search_tree_kernel_2<unsigned __int64,dlib::connection *,dlib::memory_manager_kernel_2<char,10>,std::less<unsigned __int64> >,dlib::memory_manager_kernel_2<char,10> >::`RTTI Base Class Descriptor at (0,-1,0,64)'
PUBLIC	??_R0?AV?$map_kernel_1@_KPAVconnection@dlib@@V?$binary_search_tree_kernel_2@_KPAVconnection@dlib@@V?$memory_manager_kernel_2@D$09@2@U?$less@_K@std@@@2@V?$memory_manager_kernel_2@D$09@2@@dlib@@@8 ; dlib::map_kernel_1<unsigned __int64,dlib::connection *,dlib::binary_search_tree_kernel_2<unsigned __int64,dlib::connection *,dlib::memory_manager_kernel_2<char,10>,std::less<unsigned __int64> >,dlib::memory_manager_kernel_2<char,10> > `RTTI Type Descriptor'
PUBLIC	??_R4?$binary_search_tree_kernel_2@_KPAVconnection@dlib@@V?$memory_manager_kernel_2@D$09@2@U?$less@_K@std@@@dlib@@6B?$asc_pair_remover@_KPAVconnection@dlib@@U?$less@_K@std@@@1@@ ; dlib::binary_search_tree_kernel_2<unsigned __int64,dlib::connection *,dlib::memory_manager_kernel_2<char,10>,std::less<unsigned __int64> >::`RTTI Complete Object Locator'
PUBLIC	??_R4?$binary_search_tree_kernel_2@_KPAVconnection@dlib@@V?$memory_manager_kernel_2@D$09@2@U?$less@_K@std@@@dlib@@6B?$enumerable@V?$map_pair@_KPAVconnection@dlib@@@dlib@@@1@@ ; dlib::binary_search_tree_kernel_2<unsigned __int64,dlib::connection *,dlib::memory_manager_kernel_2<char,10>,std::less<unsigned __int64> >::`RTTI Complete Object Locator'
PUBLIC	??_R3?$binary_search_tree_kernel_2@_KPAVconnection@dlib@@V?$memory_manager_kernel_2@D$09@2@U?$less@_K@std@@@dlib@@8 ; dlib::binary_search_tree_kernel_2<unsigned __int64,dlib::connection *,dlib::memory_manager_kernel_2<char,10>,std::less<unsigned __int64> >::`RTTI Class Hierarchy Descriptor'
PUBLIC	??_R2?$binary_search_tree_kernel_2@_KPAVconnection@dlib@@V?$memory_manager_kernel_2@D$09@2@U?$less@_K@std@@@dlib@@8 ; dlib::binary_search_tree_kernel_2<unsigned __int64,dlib::connection *,dlib::memory_manager_kernel_2<char,10>,std::less<unsigned __int64> >::`RTTI Base Class Array'
PUBLIC	??_R13?0A@EA@?$pair_remover@_KPAVconnection@dlib@@@dlib@@8 ; dlib::pair_remover<unsigned __int64,dlib::connection *>::`RTTI Base Class Descriptor at (4,-1,0,64)'
PUBLIC	??_R13?0A@EA@?$asc_pair_remover@_KPAVconnection@dlib@@U?$less@_K@std@@@dlib@@8 ; dlib::asc_pair_remover<unsigned __int64,dlib::connection *,std::less<unsigned __int64> >::`RTTI Base Class Descriptor at (4,-1,0,64)'
PUBLIC	??_R3?$asc_pair_remover@_KPAVconnection@dlib@@U?$less@_K@std@@@dlib@@8 ; dlib::asc_pair_remover<unsigned __int64,dlib::connection *,std::less<unsigned __int64> >::`RTTI Class Hierarchy Descriptor'
PUBLIC	??_R2?$asc_pair_remover@_KPAVconnection@dlib@@U?$less@_K@std@@@dlib@@8 ; dlib::asc_pair_remover<unsigned __int64,dlib::connection *,std::less<unsigned __int64> >::`RTTI Base Class Array'
PUBLIC	??_R1A@?0A@EA@?$pair_remover@_KPAVconnection@dlib@@@dlib@@8 ; dlib::pair_remover<unsigned __int64,dlib::connection *>::`RTTI Base Class Descriptor at (0,-1,0,64)'
PUBLIC	??_R3?$pair_remover@_KPAVconnection@dlib@@@dlib@@8 ; dlib::pair_remover<unsigned __int64,dlib::connection *>::`RTTI Class Hierarchy Descriptor'
PUBLIC	??_R2?$pair_remover@_KPAVconnection@dlib@@@dlib@@8 ; dlib::pair_remover<unsigned __int64,dlib::connection *>::`RTTI Base Class Array'
PUBLIC	??_R0?AV?$pair_remover@_KPAVconnection@dlib@@@dlib@@@8 ; dlib::pair_remover<unsigned __int64,dlib::connection *> `RTTI Type Descriptor'
PUBLIC	??_R1A@?0A@EA@?$asc_pair_remover@_KPAVconnection@dlib@@U?$less@_K@std@@@dlib@@8 ; dlib::asc_pair_remover<unsigned __int64,dlib::connection *,std::less<unsigned __int64> >::`RTTI Base Class Descriptor at (0,-1,0,64)'
PUBLIC	??_R0?AV?$asc_pair_remover@_KPAVconnection@dlib@@U?$less@_K@std@@@dlib@@@8 ; dlib::asc_pair_remover<unsigned __int64,dlib::connection *,std::less<unsigned __int64> > `RTTI Type Descriptor'
PUBLIC	??_R1A@?0A@EA@?$enumerable@V?$map_pair@_KPAVconnection@dlib@@@dlib@@@dlib@@8 ; dlib::enumerable<dlib::map_pair<unsigned __int64,dlib::connection *> >::`RTTI Base Class Descriptor at (0,-1,0,64)'
PUBLIC	??_R3?$enumerable@V?$map_pair@_KPAVconnection@dlib@@@dlib@@@dlib@@8 ; dlib::enumerable<dlib::map_pair<unsigned __int64,dlib::connection *> >::`RTTI Class Hierarchy Descriptor'
PUBLIC	??_R2?$enumerable@V?$map_pair@_KPAVconnection@dlib@@@dlib@@@dlib@@8 ; dlib::enumerable<dlib::map_pair<unsigned __int64,dlib::connection *> >::`RTTI Base Class Array'
PUBLIC	??_R0?AV?$enumerable@V?$map_pair@_KPAVconnection@dlib@@@dlib@@@dlib@@@8 ; dlib::enumerable<dlib::map_pair<unsigned __int64,dlib::connection *> > `RTTI Type Descriptor'
PUBLIC	??_R1A@?0A@EA@?$binary_search_tree_kernel_2@_KPAVconnection@dlib@@V?$memory_manager_kernel_2@D$09@2@U?$less@_K@std@@@dlib@@8 ; dlib::binary_search_tree_kernel_2<unsigned __int64,dlib::connection *,dlib::memory_manager_kernel_2<char,10>,std::less<unsigned __int64> >::`RTTI Base Class Descriptor at (0,-1,0,64)'
PUBLIC	??_R0?AV?$binary_search_tree_kernel_2@_KPAVconnection@dlib@@V?$memory_manager_kernel_2@D$09@2@U?$less@_K@std@@@dlib@@@8 ; dlib::binary_search_tree_kernel_2<unsigned __int64,dlib::connection *,dlib::memory_manager_kernel_2<char,10>,std::less<unsigned __int64> > `RTTI Type Descriptor'
PUBLIC	??_R4server_iostream@dlib@@6B@			; dlib::server_iostream::`RTTI Complete Object Locator'
PUBLIC	??_R4server_http@dlib@@6B@			; dlib::server_http::`RTTI Complete Object Locator'
PUBLIC	??_R3server_http@dlib@@8			; dlib::server_http::`RTTI Class Hierarchy Descriptor'
PUBLIC	??_R2server_http@dlib@@8			; dlib::server_http::`RTTI Base Class Array'
PUBLIC	??_R1A@?0A@EA@server_iostream@dlib@@8		; dlib::server_iostream::`RTTI Base Class Descriptor at (0,-1,0,64)'
PUBLIC	??_R3server_iostream@dlib@@8			; dlib::server_iostream::`RTTI Class Hierarchy Descriptor'
PUBLIC	??_R2server_iostream@dlib@@8			; dlib::server_iostream::`RTTI Base Class Array'
PUBLIC	??_R0?AVserver_iostream@dlib@@@8		; dlib::server_iostream `RTTI Type Descriptor'
PUBLIC	??_R1A@?0A@EA@server_http@dlib@@8		; dlib::server_http::`RTTI Base Class Descriptor at (0,-1,0,64)'
PUBLIC	??_R0?AVserver_http@dlib@@@8			; dlib::server_http `RTTI Type Descriptor'
PUBLIC	??$getline@DU?$char_traits@D@std@@V?$allocator@D@2@@std@@YAAAV?$basic_istream@DU?$char_traits@D@std@@@0@$$QAV10@AAV?$basic_string@DU?$char_traits@D@std@@V?$allocator@D@2@@0@D@Z ; std::getline<char,std::char_traits<char>,std::allocator<char> >
PUBLIC	??$getline@DU?$char_traits@D@std@@V?$allocator@D@2@@std@@YAAAV?$basic_istream@DU?$char_traits@D@std@@@0@AAV10@AAV?$basic_string@DU?$char_traits@D@std@@V?$allocator@D@2@@0@@Z ; std::getline<char,std::char_traits<char>,std::allocator<char> >
PUBLIC	?replace@?$basic_string@DU?$char_traits@D@std@@V?$allocator@D@2@@std@@QAEAAV12@IIABV12@II@Z ; std::basic_string<char,std::char_traits<char>,std::allocator<char> >::replace
PUBLIC	?replace@?$basic_string@DU?$char_traits@D@std@@V?$allocator@D@2@@std@@QAEAAV12@IIPBDI@Z ; std::basic_string<char,std::char_traits<char>,std::allocator<char> >::replace
PUBLIC	?replace@?$basic_string@DU?$char_traits@D@std@@V?$allocator@D@2@@std@@QAEAAV12@IIPBD@Z ; std::basic_string<char,std::char_traits<char>,std::allocator<char> >::replace
PUBLIC	??$?6U?$char_traits@D@std@@@std@@YAAAV?$basic_ostream@DU?$char_traits@D@std@@@0@AAV10@PBE@Z ; std::operator<<<std::char_traits<char> >
PUBLIC	??1?$_Vector_val@Umessage@Database@@V?$allocator@Umessage@Database@@@std@@@std@@QAE@XZ ; std::_Vector_val<Database::message,std::allocator<Database::message> >::~_Vector_val<Database::message,std::allocator<Database::message> >
PUBLIC	?deallocate@?$allocator@Umessage@Database@@@std@@QAEXPAUmessage@Database@@I@Z ; std::allocator<Database::message>::deallocate
PUBLIC	?_Tidy@?$vector@Umessage@Database@@V?$allocator@Umessage@Database@@@std@@@std@@IAEXXZ ; std::vector<Database::message,std::allocator<Database::message> >::_Tidy
PUBLIC	??1?$vector@Umessage@Database@@V?$allocator@Umessage@Database@@@std@@@std@@QAE@XZ ; std::vector<Database::message,std::allocator<Database::message> >::~vector<Database::message,std::allocator<Database::message> >
PUBLIC	?begin@?$vector@Umessage@Database@@V?$allocator@Umessage@Database@@@std@@@std@@QAE?AV?$_Vector_iterator@V?$_Vector_val@Umessage@Database@@V?$allocator@Umessage@Database@@@std@@@std@@@2@XZ ; std::vector<Database::message,std::allocator<Database::message> >::begin
PUBLIC	?end@?$vector@Umessage@Database@@V?$allocator@Umessage@Database@@@std@@@std@@QAE?AV?$_Vector_iterator@V?$_Vector_val@Umessage@Database@@V?$allocator@Umessage@Database@@@std@@@std@@@2@XZ ; std::vector<Database::message,std::allocator<Database::message> >::end
PUBLIC	??0?$_Vector_const_iterator@V?$_Vector_val@Umessage@Database@@V?$allocator@Umessage@Database@@@std@@@std@@@std@@QAE@PAUmessage@Database@@PBU_Container_base0@1@@Z ; std::_Vector_const_iterator<std::_Vector_val<Database::message,std::allocator<Database::message> > >::_Vector_const_iterator<std::_Vector_val<Database::message,std::allocator<Database::message> > >
PUBLIC	??0?$_Vector_iterator@V?$_Vector_val@Umessage@Database@@V?$allocator@Umessage@Database@@@std@@@std@@@std@@QAE@PAUmessage@Database@@PBU_Container_base0@1@@Z ; std::_Vector_iterator<std::_Vector_val<Database::message,std::allocator<Database::message> > >::_Vector_iterator<std::_Vector_val<Database::message,std::allocator<Database::message> > >
PUBLIC	?_Make_iter@?$vector@Umessage@Database@@V?$allocator@Umessage@Database@@@std@@@std@@QBE?AV?$_Vector_iterator@V?$_Vector_val@Umessage@Database@@V?$allocator@Umessage@Database@@@std@@@std@@@2@V?$_Vector_const_iterator@V?$_Vector_val@Umessage@Database@@V?$allocator@Umessage@Database@@@std@@@std@@@2@@Z ; std::vector<Database::message,std::allocator<Database::message> >::_Make_iter
PUBLIC	??1message@Database@@QAE@XZ			; Database::message::~message
PUBLIC	??_Gmessage@Database@@QAEPAXI@Z			; Database::message::`scalar deleting destructor'
PUBLIC	??$_Destroy@Umessage@Database@@@std@@YAXPAUmessage@Database@@@Z ; std::_Destroy<Database::message>
PUBLIC	?destroy@?$allocator@Umessage@Database@@@std@@QAEXPAUmessage@Database@@@Z ; std::allocator<Database::message>::destroy
PUBLIC	??$_Dest_val@V?$allocator@Umessage@Database@@@std@@Umessage@Database@@@std@@YAXAAV?$allocator@Umessage@Database@@@0@PAUmessage@Database@@@Z ; std::_Dest_val<std::allocator<Database::message>,Database::message>
PUBLIC	??$_Destroy_range@V?$allocator@Umessage@Database@@@std@@@std@@YAXPAUmessage@Database@@0AAV?$allocator@Umessage@Database@@@0@U_Nonscalar_ptr_iterator_tag@0@@Z ; std::_Destroy_range<std::allocator<Database::message> >
PUBLIC	??$_Destroy_range@V?$allocator@Umessage@Database@@@std@@@std@@YAXPAUmessage@Database@@0AAV?$allocator@Umessage@Database@@@0@@Z ; std::_Destroy_range<std::allocator<Database::message> >
PUBLIC	?_Destroy@?$vector@Umessage@Database@@V?$allocator@Umessage@Database@@@std@@@std@@IAEXPAUmessage@Database@@0@Z ; std::vector<Database::message,std::allocator<Database::message> >::_Destroy
PUBLIC	??$_Ptr_cat@Umessage@Database@@U12@@std@@YA?AU_Nonscalar_ptr_iterator_tag@0@PAUmessage@Database@@0@Z ; std::_Ptr_cat<Database::message,Database::message>
PUBLIC	??4message@Database@@QAEAAU01@ABU01@@Z		; Database::message::operator=
PUBLIC	??$move@AAUmessage@Database@@@std@@YA$$QAUmessage@Database@@AAU12@@Z ; std::move<Database::message &>
PUBLIC	??$_Move@PAUmessage@Database@@PAU12@@std@@YAPAUmessage@Database@@PAU12@00U_Nonscalar_ptr_iterator_tag@0@@Z ; std::_Move<Database::message *,Database::message *>
PUBLIC	??$_Move@PAUmessage@Database@@PAU12@@std@@YAPAUmessage@Database@@PAU12@00@Z ; std::_Move<Database::message *,Database::message *>
PUBLIC	?erase@?$vector@Umessage@Database@@V?$allocator@Umessage@Database@@@std@@@std@@QAE?AV?$_Vector_iterator@V?$_Vector_val@Umessage@Database@@V?$allocator@Umessage@Database@@@std@@@std@@@2@V?$_Vector_const_iterator@V?$_Vector_val@Umessage@Database@@V?$allocator@Umessage@Database@@@std@@@std@@@2@0@Z ; std::vector<Database::message,std::allocator<Database::message> >::erase
PUBLIC	?clear@?$vector@Umessage@Database@@V?$allocator@Umessage@Database@@@std@@@std@@QAEXXZ ; std::vector<Database::message,std::allocator<Database::message> >::clear
PUBLIC	?getSQLiteConnection@game@Battlefield@@QBEPAVSQLite@Database@@XZ ; Battlefield::game::getSQLiteConnection
PUBLIC	?getCleanWord_internal@security@helper@@YA_ND@Z	; helper::security::getCleanWord_internal
PUBLIC	?getCleanWord@security@helper@@YAXAAV?$basic_string@DU?$char_traits@D@std@@V?$allocator@D@2@@std@@@Z ; helper::security::getCleanWord
PUBLIC	??$forward@AAV?$_Tree_const_iterator@V?$_Tree_val@V?$_Tmap_traits@V?$basic_string@DU?$char_traits@D@std@@V?$allocator@D@2@@std@@V12@U?$less@V?$basic_string@DU?$char_traits@D@std@@V?$allocator@D@2@@std@@@2@V?$allocator@U?$pair@$$CBV?$basic_string@DU?$char_traits@D@std@@V?$allocator@D@2@@std@@V12@@std@@@2@$0A@@std@@@std@@@std@@@std@@YAAAV?$_Tree_const_iterator@V?$_Tree_val@V?$_Tmap_traits@V?$basic_string@DU?$char_traits@D@std@@V?$allocator@D@2@@std@@V12@U?$less@V?$basic_string@DU?$char_traits@D@std@@V?$allocator@D@2@@std@@@2@V?$allocator@U?$pair@$$CBV?$basic_string@DU?$char_traits@D@std@@V?$allocator@D@2@@std@@V12@@std@@@2@$0A@@std@@@std@@@0@AAV10@@Z ; std::forward<std::_Tree_const_iterator<std::_Tree_val<std::_Tmap_traits<std::basic_string<char,std::char_traits<char>,std::allocator<char> >,std::basic_string<char,std::char_traits<char>,std::allocator<char> >,std::less<std::basic_string<char,std::char_traits<char>,std::allocator<char> > >,std::allocator<std::pair<std::basic_string<char,std::char_traits<char>,std::allocator<char> > const ,std::basic_string<char,std::char_traits<char>,std::allocator<char> > > >,0> > > &>
PUBLIC	??$?0AAV?$_Tree_const_iterator@V?$_Tree_val@V?$_Tmap_traits@V?$basic_string@DU?$char_traits@D@std@@V?$allocator@D@2@@std@@V12@U?$less@V?$basic_string@DU?$char_traits@D@std@@V?$allocator@D@2@@std@@@2@V?$allocator@U?$pair@$$CBV?$basic_string@DU?$char_traits@D@std@@V?$allocator@D@2@@std@@V12@@std@@@2@$0A@@std@@@std@@@std@@AAV01@@?$_Pair_base@V?$_Tree_const_iterator@V?$_Tree_val@V?$_Tmap_traits@V?$basic_string@DU?$char_traits@D@std@@V?$allocator@D@2@@std@@V12@U?$less@V?$basic_string@DU?$char_traits@D@std@@V?$allocator@D@2@@std@@@2@V?$allocator@U?$pair@$$CBV?$basic_string@DU?$char_traits@D@std@@V?$allocator@D@2@@std@@V12@@std@@@2@$0A@@std@@@std@@@std@@V12@@std@@QAE@AAV?$_Tree_const_iterator@V?$_Tree_val@V?$_Tmap_traits@V?$basic_string@DU?$char_traits@D@std@@V?$allocator@D@2@@std@@V12@U?$less@V?$basic_string@DU?$char_traits@D@std@@V?$allocator@D@2@@std@@@2@V?$allocator@U?$pair@$$CBV?$basic_string@DU?$char_traits@D@std@@V?$allocator@D@2@@std@@V12@@std@@@2@$0A@@std@@@std@@@1@0@Z ; std::_Pair_base<std::_Tree_const_iterator<std::_Tree_val<std::_Tmap_traits<std::basic_string<char,std::char_traits<char>,std::allocator<char> >,std::basic_string<char,std::char_traits<char>,std::allocator<char> >,std::less<std::basic_string<char,std::char_traits<char>,std::allocator<char> > >,std::allocator<std::pair<std::basic_string<char,std::char_traits<char>,std::allocator<char> > const ,std::basic_string<char,std::char_traits<char>,std::allocator<char> > > >,0> > >,std::_Tree_const_iterator<std::_Tree_val<std::_Tmap_traits<std::basic_string<char,std::char_traits<char>,std::allocator<char> >,std::basic_string<char,std::char_traits<char>,std::allocator<char> >,std::less<std::basic_string<char,std::char_traits<char>,std::allocator<char> > >,std::allocator<std::pair<std::basic_string<char,std::char_traits<char>,std::allocator<char> > const ,std::basic_string<char,std::char_traits<char>,std::allocator<char> > > >,0> > > >::_Pair_base<std::_Tree_const_iterator<std::_Tree_val<std::_Tmap_traits<std::basic_string<char,std::char_traits<char>,std::allocator<char> >,std::basic_string<char,std::char_traits<char>,std::allocator<char> >,std::less<std::basic_string<char,std::char_traits<char>,std::allocator<char> > >,std::allocator<std::pair<std::basic_string<char,std::char_traits<char>,std::allocator<char> > const ,std::basic_string<char,std::char_traits<char>,std::allocator<char> > > >,0> > >,std::_Tree_const_iterator<std::_Tree_val<std::_Tmap_traits<std::basic_string<char,std::char_traits<char>,std::allocator<char> >,std::basic_string<char,std::char_traits<char>,std::allocator<char> >,std::less<std::basic_string<char,std::char_traits<char>,std::allocator<char> > >,std::allocator<std::pair<std::basic_string<char,std::char_traits<char>,std::allocator<char> > const ,std::basic_string<char,std::char_traits<char>,std::allocator<char> > > >,0> > > ><std::_Tree_const_iterator<std::_Tree_val<std::_Tmap_traits<std::basic_string<char,std::char_traits<char>,std::allocator<char> >,std::basic_string<char,std::char_traits<char>,std::allocator<char> >,std::less<std::basic_string<char,std::char_traits<char>,std::allocator<char> > >,std::allocator<std::pair<std::basic_string<char,std::char_traits<char>,std::allocator<char> > const ,std::basic_string<char,std::char_traits<char>,std::allocator<char> > > >,0> > > &,std::_Tree_const_iterator<std::_Tree_val<std::_Tmap_traits<std::basic_string<char,std::char_traits<char>,std::allocator<char> >,std::basic_string<char,std::char_traits<char>,std::allocator<char> >,std::less<std::basic_string<char,std::char_traits<char>,std::allocator<char> > >,std::allocator<std::pair<std::basic_string<char,std::char_traits<char>,std::allocator<char> > const ,std::basic_string<char,std::char_traits<char>,std::allocator<char> > > >,0> > > &>
PUBLIC	??$?0AAV?$_Tree_const_iterator@V?$_Tree_val@V?$_Tmap_traits@V?$basic_string@DU?$char_traits@D@std@@V?$allocator@D@2@@std@@V12@U?$less@V?$basic_string@DU?$char_traits@D@std@@V?$allocator@D@2@@std@@@2@V?$allocator@U?$pair@$$CBV?$basic_string@DU?$char_traits@D@std@@V?$allocator@D@2@@std@@V12@@std@@@2@$0A@@std@@@std@@@std@@AAV01@@?$pair@V?$_Tree_const_iterator@V?$_Tree_val@V?$_Tmap_traits@V?$basic_string@DU?$char_traits@D@std@@V?$allocator@D@2@@std@@V12@U?$less@V?$basic_string@DU?$char_traits@D@std@@V?$allocator@D@2@@std@@@2@V?$allocator@U?$pair@$$CBV?$basic_string@DU?$char_traits@D@std@@V?$allocator@D@2@@std@@V12@@std@@@2@$0A@@std@@@std@@@std@@V12@@std@@QAE@AAV?$_Tree_const_iterator@V?$_Tree_val@V?$_Tmap_traits@V?$basic_string@DU?$char_traits@D@std@@V?$allocator@D@2@@std@@V12@U?$less@V?$basic_string@DU?$char_traits@D@std@@V?$allocator@D@2@@std@@@2@V?$allocator@U?$pair@$$CBV?$basic_string@DU?$char_traits@D@std@@V?$allocator@D@2@@std@@V12@@std@@@2@$0A@@std@@@std@@@1@0@Z ; std::pair<std::_Tree_const_iterator<std::_Tree_val<std::_Tmap_traits<std::basic_string<char,std::char_traits<char>,std::allocator<char> >,std::basic_string<char,std::char_traits<char>,std::allocator<char> >,std::less<std::basic_string<char,std::char_traits<char>,std::allocator<char> > >,std::allocator<std::pair<std::basic_string<char,std::char_traits<char>,std::allocator<char> > const ,std::basic_string<char,std::char_traits<char>,std::allocator<char> > > >,0> > >,std::_Tree_const_iterator<std::_Tree_val<std::_Tmap_traits<std::basic_string<char,std::char_traits<char>,std::allocator<char> >,std::basic_string<char,std::char_traits<char>,std::allocator<char> >,std::less<std::basic_string<char,std::char_traits<char>,std::allocator<char> > >,std::allocator<std::pair<std::basic_string<char,std::char_traits<char>,std::allocator<char> > const ,std::basic_string<char,std::char_traits<char>,std::allocator<char> > > >,0> > > >::pair<std::_Tree_const_iterator<std::_Tree_val<std::_Tmap_traits<std::basic_string<char,std::char_traits<char>,std::allocator<char> >,std::basic_string<char,std::char_traits<char>,std::allocator<char> >,std::less<std::basic_string<char,std::char_traits<char>,std::allocator<char> > >,std::allocator<std::pair<std::basic_string<char,std::char_traits<char>,std::allocator<char> > const ,std::basic_string<char,std::char_traits<char>,std::allocator<char> > > >,0> > >,std::_Tree_const_iterator<std::_Tree_val<std::_Tmap_traits<std::basic_string<char,std::char_traits<char>,std::allocator<char> >,std::basic_string<char,std::char_traits<char>,std::allocator<char> >,std::less<std::basic_string<char,std::char_traits<char>,std::allocator<char> > >,std::allocator<std::pair<std::basic_string<char,std::char_traits<char>,std::allocator<char> > const ,std::basic_string<char,std::char_traits<char>,std::allocator<char> > > >,0> > > ><std::_Tree_const_iterator<std::_Tree_val<std::_Tmap_traits<std::basic_string<char,std::char_traits<char>,std::allocator<char> >,std::basic_string<char,std::char_traits<char>,std::allocator<char> >,std::less<std::basic_string<char,std::char_traits<char>,std::allocator<char> > >,std::allocator<std::pair<std::basic_string<char,std::char_traits<char>,std::allocator<char> > const ,std::basic_string<char,std::char_traits<char>,std::allocator<char> > > >,0> > > &,std::_Tree_const_iterator<std::_Tree_val<std::_Tmap_traits<std::basic_string<char,std::char_traits<char>,std::allocator<char> >,std::basic_string<char,std::char_traits<char>,std::allocator<char> >,std::less<std::basic_string<char,std::char_traits<char>,std::allocator<char> > >,std::allocator<std::pair<std::basic_string<char,std::char_traits<char>,std::allocator<char> > const ,std::basic_string<char,std::char_traits<char>,std::allocator<char> > > >,0> > > &>
PUBLIC	?_Eqrange@?$_Tree@V?$_Tmap_traits@V?$basic_string@DU?$char_traits@D@std@@V?$allocator@D@2@@std@@V12@U?$less@V?$basic_string@DU?$char_traits@D@std@@V?$allocator@D@2@@std@@@2@V?$allocator@U?$pair@$$CBV?$basic_string@DU?$char_traits@D@std@@V?$allocator@D@2@@std@@V12@@std@@@2@$0A@@std@@@std@@IBE?AU?$pair@V?$_Tree_const_iterator@V?$_Tree_val@V?$_Tmap_traits@V?$basic_string@DU?$char_traits@D@std@@V?$allocator@D@2@@std@@V12@U?$less@V?$basic_string@DU?$char_traits@D@std@@V?$allocator@D@2@@std@@@2@V?$allocator@U?$pair@$$CBV?$basic_string@DU?$char_traits@D@std@@V?$allocator@D@2@@std@@V12@@std@@@2@$0A@@std@@@std@@@std@@V12@@2@ABV?$basic_string@DU?$char_traits@D@std@@V?$allocator@D@2@@2@@Z ; std::_Tree<std::_Tmap_traits<std::basic_string<char,std::char_traits<char>,std::allocator<char> >,std::basic_string<char,std::char_traits<char>,std::allocator<char> >,std::less<std::basic_string<char,std::char_traits<char>,std::allocator<char> > >,std::allocator<std::pair<std::basic_string<char,std::char_traits<char>,std::allocator<char> > const ,std::basic_string<char,std::char_traits<char>,std::allocator<char> > > >,0> >::_Eqrange
PUBLIC	?equal_range@?$_Tree@V?$_Tmap_traits@V?$basic_string@DU?$char_traits@D@std@@V?$allocator@D@2@@std@@V12@U?$less@V?$basic_string@DU?$char_traits@D@std@@V?$allocator@D@2@@std@@@2@V?$allocator@U?$pair@$$CBV?$basic_string@DU?$char_traits@D@std@@V?$allocator@D@2@@std@@V12@@std@@@2@$0A@@std@@@std@@QBE?AU?$pair@V?$_Tree_const_iterator@V?$_Tree_val@V?$_Tmap_traits@V?$basic_string@DU?$char_traits@D@std@@V?$allocator@D@2@@std@@V12@U?$less@V?$basic_string@DU?$char_traits@D@std@@V?$allocator@D@2@@std@@@2@V?$allocator@U?$pair@$$CBV?$basic_string@DU?$char_traits@D@std@@V?$allocator@D@2@@std@@V12@@std@@@2@$0A@@std@@@std@@@std@@V12@@2@ABV?$basic_string@DU?$char_traits@D@std@@V?$allocator@D@2@@2@@Z ; std::_Tree<std::_Tmap_traits<std::basic_string<char,std::char_traits<char>,std::allocator<char> >,std::basic_string<char,std::char_traits<char>,std::allocator<char> >,std::less<std::basic_string<char,std::char_traits<char>,std::allocator<char> > >,std::allocator<std::pair<std::basic_string<char,std::char_traits<char>,std::allocator<char> > const ,std::basic_string<char,std::char_traits<char>,std::allocator<char> > > >,0> >::equal_range
PUBLIC	??$_Iter_cat@V?$_Tree_const_iterator@V?$_Tree_val@V?$_Tmap_traits@V?$basic_string@DU?$char_traits@D@std@@V?$allocator@D@2@@std@@V12@U?$less@V?$basic_string@DU?$char_traits@D@std@@V?$allocator@D@2@@std@@@2@V?$allocator@U?$pair@$$CBV?$basic_string@DU?$char_traits@D@std@@V?$allocator@D@2@@std@@V12@@std@@@2@$0A@@std@@@std@@@std@@@std@@YA?AUbidirectional_iterator_tag@0@ABV?$_Tree_const_iterator@V?$_Tree_val@V?$_Tmap_traits@V?$basic_string@DU?$char_traits@D@std@@V?$allocator@D@2@@std@@V12@U?$less@V?$basic_string@DU?$char_traits@D@std@@V?$allocator@D@2@@std@@@2@V?$allocator@U?$pair@$$CBV?$basic_string@DU?$char_traits@D@std@@V?$allocator@D@2@@std@@V12@@std@@@2@$0A@@std@@@std@@@0@@Z ; std::_Iter_cat<std::_Tree_const_iterator<std::_Tree_val<std::_Tmap_traits<std::basic_string<char,std::char_traits<char>,std::allocator<char> >,std::basic_string<char,std::char_traits<char>,std::allocator<char> >,std::less<std::basic_string<char,std::char_traits<char>,std::allocator<char> > >,std::allocator<std::pair<std::basic_string<char,std::char_traits<char>,std::allocator<char> > const ,std::basic_string<char,std::char_traits<char>,std::allocator<char> > > >,0> > > >
PUBLIC	??$_Distance2@V?$_Tree_const_iterator@V?$_Tree_val@V?$_Tmap_traits@V?$basic_string@DU?$char_traits@D@std@@V?$allocator@D@2@@std@@V12@U?$less@V?$basic_string@DU?$char_traits@D@std@@V?$allocator@D@2@@std@@@2@V?$allocator@U?$pair@$$CBV?$basic_string@DU?$char_traits@D@std@@V?$allocator@D@2@@std@@V12@@std@@@2@$0A@@std@@@std@@@std@@I@std@@YAXV?$_Tree_const_iterator@V?$_Tree_val@V?$_Tmap_traits@V?$basic_string@DU?$char_traits@D@std@@V?$allocator@D@2@@std@@V12@U?$less@V?$basic_string@DU?$char_traits@D@std@@V?$allocator@D@2@@std@@@2@V?$allocator@U?$pair@$$CBV?$basic_string@DU?$char_traits@D@std@@V?$allocator@D@2@@std@@V12@@std@@@2@$0A@@std@@@std@@@0@0AAIUbidirectional_iterator_tag@0@@Z ; std::_Distance2<std::_Tree_const_iterator<std::_Tree_val<std::_Tmap_traits<std::basic_string<char,std::char_traits<char>,std::allocator<char> >,std::basic_string<char,std::char_traits<char>,std::allocator<char> >,std::less<std::basic_string<char,std::char_traits<char>,std::allocator<char> > >,std::allocator<std::pair<std::basic_string<char,std::char_traits<char>,std::allocator<char> > const ,std::basic_string<char,std::char_traits<char>,std::allocator<char> > > >,0> > >,unsigned int>
PUBLIC	??$_Distance@V?$_Tree_const_iterator@V?$_Tree_val@V?$_Tmap_traits@V?$basic_string@DU?$char_traits@D@std@@V?$allocator@D@2@@std@@V12@U?$less@V?$basic_string@DU?$char_traits@D@std@@V?$allocator@D@2@@std@@@2@V?$allocator@U?$pair@$$CBV?$basic_string@DU?$char_traits@D@std@@V?$allocator@D@2@@std@@V12@@std@@@2@$0A@@std@@@std@@@std@@I@std@@YAXV?$_Tree_const_iterator@V?$_Tree_val@V?$_Tmap_traits@V?$basic_string@DU?$char_traits@D@std@@V?$allocator@D@2@@std@@V12@U?$less@V?$basic_string@DU?$char_traits@D@std@@V?$allocator@D@2@@std@@@2@V?$allocator@U?$pair@$$CBV?$basic_string@DU?$char_traits@D@std@@V?$allocator@D@2@@std@@V12@@std@@@2@$0A@@std@@@std@@@0@0AAI@Z ; std::_Distance<std::_Tree_const_iterator<std::_Tree_val<std::_Tmap_traits<std::basic_string<char,std::char_traits<char>,std::allocator<char> >,std::basic_string<char,std::char_traits<char>,std::allocator<char> >,std::less<std::basic_string<char,std::char_traits<char>,std::allocator<char> > >,std::allocator<std::pair<std::basic_string<char,std::char_traits<char>,std::allocator<char> > const ,std::basic_string<char,std::char_traits<char>,std::allocator<char> > > >,0> > >,unsigned int>
PUBLIC	?count@?$_Tree@V?$_Tmap_traits@V?$basic_string@DU?$char_traits@D@std@@V?$allocator@D@2@@std@@V12@U?$less@V?$basic_string@DU?$char_traits@D@std@@V?$allocator@D@2@@std@@@2@V?$allocator@U?$pair@$$CBV?$basic_string@DU?$char_traits@D@std@@V?$allocator@D@2@@std@@V12@@std@@@2@$0A@@std@@@std@@QBEIABV?$basic_string@DU?$char_traits@D@std@@V?$allocator@D@2@@2@@Z ; std::_Tree<std::_Tmap_traits<std::basic_string<char,std::char_traits<char>,std::allocator<char> >,std::basic_string<char,std::char_traits<char>,std::allocator<char> >,std::less<std::basic_string<char,std::char_traits<char>,std::allocator<char> > >,std::allocator<std::pair<std::basic_string<char,std::char_traits<char>,std::allocator<char> > const ,std::basic_string<char,std::char_traits<char>,std::allocator<char> > > >,0> >::count
PUBLIC	?_Make_iter@?$vector@Uban@Database@@V?$allocator@Uban@Database@@@std@@@std@@QBE?AV?$_Vector_iterator@V?$_Vector_val@Uban@Database@@V?$allocator@Uban@Database@@@std@@@std@@@2@V?$_Vector_const_iterator@V?$_Vector_val@Uban@Database@@V?$allocator@Uban@Database@@@std@@@std@@@2@@Z ; std::vector<Database::ban,std::allocator<Database::ban> >::_Make_iter
PUBLIC	??4ban@Database@@QAEAAU01@ABU01@@Z		; Database::ban::operator=
PUBLIC	??$move@AAUban@Database@@@std@@YA$$QAUban@Database@@AAU12@@Z ; std::move<Database::ban &>
PUBLIC	??$_Move@PAUban@Database@@PAU12@@std@@YAPAUban@Database@@PAU12@00U_Nonscalar_ptr_iterator_tag@0@@Z ; std::_Move<Database::ban *,Database::ban *>
PUBLIC	??$_Move@PAUban@Database@@PAU12@@std@@YAPAUban@Database@@PAU12@00@Z ; std::_Move<Database::ban *,Database::ban *>
PUBLIC	?erase@?$vector@Uban@Database@@V?$allocator@Uban@Database@@@std@@@std@@QAE?AV?$_Vector_iterator@V?$_Vector_val@Uban@Database@@V?$allocator@Uban@Database@@@std@@@std@@@2@V?$_Vector_const_iterator@V?$_Vector_val@Uban@Database@@V?$allocator@Uban@Database@@@std@@@std@@@2@0@Z ; std::vector<Database::ban,std::allocator<Database::ban> >::erase
PUBLIC	?clear@?$vector@Uban@Database@@V?$allocator@Uban@Database@@@std@@@std@@QAEXXZ ; std::vector<Database::ban,std::allocator<Database::ban> >::clear
PUBLIC	??$rtrim@DU?$char_traits@D@std@@V?$allocator@D@2@@dlib@@YA?BV?$basic_string@DU?$char_traits@D@std@@V?$allocator@D@2@@std@@ABV12@0@Z ; dlib::rtrim<char,std::char_traits<char>,std::allocator<char> >
PUBLIC	??$rtrim@DU?$char_traits@D@std@@V?$allocator@D@2@@dlib@@YA?BV?$basic_string@DU?$char_traits@D@std@@V?$allocator@D@2@@std@@ABV12@PBD@Z ; dlib::rtrim<char,std::char_traits<char>,std::allocator<char> >
PUBLIC	?_Make_iter@?$vector@Uadmin@Database@@V?$allocator@Uadmin@Database@@@std@@@std@@QBE?AV?$_Vector_iterator@V?$_Vector_val@Uadmin@Database@@V?$allocator@Uadmin@Database@@@std@@@std@@@2@V?$_Vector_const_iterator@V?$_Vector_val@Uadmin@Database@@V?$allocator@Uadmin@Database@@@std@@@std@@@2@@Z ; std::vector<Database::admin,std::allocator<Database::admin> >::_Make_iter
PUBLIC	??4admin@Database@@QAEAAU01@ABU01@@Z		; Database::admin::operator=
PUBLIC	??$move@AAUadmin@Database@@@std@@YA$$QAUadmin@Database@@AAU12@@Z ; std::move<Database::admin &>
PUBLIC	??$_Move@PAUadmin@Database@@PAU12@@std@@YAPAUadmin@Database@@PAU12@00U_Nonscalar_ptr_iterator_tag@0@@Z ; std::_Move<Database::admin *,Database::admin *>
PUBLIC	??$_Move@PAUadmin@Database@@PAU12@@std@@YAPAUadmin@Database@@PAU12@00@Z ; std::_Move<Database::admin *,Database::admin *>
PUBLIC	?erase@?$vector@Uadmin@Database@@V?$allocator@Uadmin@Database@@@std@@@std@@QAE?AV?$_Vector_iterator@V?$_Vector_val@Uadmin@Database@@V?$allocator@Uadmin@Database@@@std@@@std@@@2@V?$_Vector_const_iterator@V?$_Vector_val@Uadmin@Database@@V?$allocator@Uadmin@Database@@@std@@@std@@@2@0@Z ; std::vector<Database::admin,std::allocator<Database::admin> >::erase
PUBLIC	?clear@?$vector@Uadmin@Database@@V?$allocator@Uadmin@Database@@@std@@@std@@QAEXXZ ; std::vector<Database::admin,std::allocator<Database::admin> >::clear
PUBLIC	??$_Find@PAV?$basic_string@DU?$char_traits@D@std@@V?$allocator@D@2@@std@@$$BY0BH@$$CBD@std@@YAPAV?$basic_string@DU?$char_traits@D@std@@V?$allocator@D@2@@0@PAV10@0AAY0BH@$$CBD@Z ; std::_Find<std::basic_string<char,std::char_traits<char>,std::allocator<char> > *,char const [23]>
PUBLIC	??$find@V?$_Vector_iterator@V?$_Vector_val@V?$basic_string@DU?$char_traits@D@std@@V?$allocator@D@2@@std@@V?$allocator@V?$basic_string@DU?$char_traits@D@std@@V?$allocator@D@2@@std@@@2@@std@@@std@@$$BY0BH@$$CBD@std@@YA?AV?$_Vector_iterator@V?$_Vector_val@V?$basic_string@DU?$char_traits@D@std@@V?$allocator@D@2@@std@@V?$allocator@V?$basic_string@DU?$char_traits@D@std@@V?$allocator@D@2@@std@@@2@@std@@@0@V10@0AAY0BH@$$CBD@Z ; std::find<std::_Vector_iterator<std::_Vector_val<std::basic_string<char,std::char_traits<char>,std::allocator<char> >,std::allocator<std::basic_string<char,std::char_traits<char>,std::allocator<char> > > > >,char const [23]>
PUBLIC	??D?$_Vector_const_iterator@V?$_Vector_val@Umessage@Database@@V?$allocator@Umessage@Database@@@std@@@std@@@std@@QBEABUmessage@Database@@XZ ; std::_Vector_const_iterator<std::_Vector_val<Database::message,std::allocator<Database::message> > >::operator*
PUBLIC	??E?$_Vector_const_iterator@V?$_Vector_val@Umessage@Database@@V?$allocator@Umessage@Database@@@std@@@std@@@std@@QAEAAV01@XZ ; std::_Vector_const_iterator<std::_Vector_val<Database::message,std::allocator<Database::message> > >::operator++
PUBLIC	?_Compat@?$_Vector_const_iterator@V?$_Vector_val@Umessage@Database@@V?$allocator@Umessage@Database@@@std@@@std@@@std@@QBEXABV12@@Z ; std::_Vector_const_iterator<std::_Vector_val<Database::message,std::allocator<Database::message> > >::_Compat
PUBLIC	??8?$_Vector_const_iterator@V?$_Vector_val@Umessage@Database@@V?$allocator@Umessage@Database@@@std@@@std@@@std@@QBE_NABV01@@Z ; std::_Vector_const_iterator<std::_Vector_val<Database::message,std::allocator<Database::message> > >::operator==
PUBLIC	??9?$_Vector_const_iterator@V?$_Vector_val@Umessage@Database@@V?$allocator@Umessage@Database@@@std@@@std@@@std@@QBE_NABV01@@Z ; std::_Vector_const_iterator<std::_Vector_val<Database::message,std::allocator<Database::message> > >::operator!=
PUBLIC	??1?$_Vector_val@Ustruct_chatresponse@Database@@V?$allocator@Ustruct_chatresponse@Database@@@std@@@std@@QAE@XZ ; std::_Vector_val<Database::struct_chatresponse,std::allocator<Database::struct_chatresponse> >::~_Vector_val<Database::struct_chatresponse,std::allocator<Database::struct_chatresponse> >
PUBLIC	?deallocate@?$allocator@Ustruct_chatresponse@Database@@@std@@QAEXPAUstruct_chatresponse@Database@@I@Z ; std::allocator<Database::struct_chatresponse>::deallocate
PUBLIC	?_Tidy@?$vector@Ustruct_chatresponse@Database@@V?$allocator@Ustruct_chatresponse@Database@@@std@@@std@@IAEXXZ ; std::vector<Database::struct_chatresponse,std::allocator<Database::struct_chatresponse> >::_Tidy
PUBLIC	??1?$vector@Ustruct_chatresponse@Database@@V?$allocator@Ustruct_chatresponse@Database@@@std@@@std@@QAE@XZ ; std::vector<Database::struct_chatresponse,std::allocator<Database::struct_chatresponse> >::~vector<Database::struct_chatresponse,std::allocator<Database::struct_chatresponse> >
PUBLIC	?begin@?$vector@Ustruct_chatresponse@Database@@V?$allocator@Ustruct_chatresponse@Database@@@std@@@std@@QAE?AV?$_Vector_iterator@V?$_Vector_val@Ustruct_chatresponse@Database@@V?$allocator@Ustruct_chatresponse@Database@@@std@@@std@@@2@XZ ; std::vector<Database::struct_chatresponse,std::allocator<Database::struct_chatresponse> >::begin
PUBLIC	?end@?$vector@Ustruct_chatresponse@Database@@V?$allocator@Ustruct_chatresponse@Database@@@std@@@std@@QAE?AV?$_Vector_iterator@V?$_Vector_val@Ustruct_chatresponse@Database@@V?$allocator@Ustruct_chatresponse@Database@@@std@@@std@@@2@XZ ; std::vector<Database::struct_chatresponse,std::allocator<Database::struct_chatresponse> >::end
PUBLIC	??0?$_Vector_const_iterator@V?$_Vector_val@Ustruct_chatresponse@Database@@V?$allocator@Ustruct_chatresponse@Database@@@std@@@std@@@std@@QAE@PAUstruct_chatresponse@Database@@PBU_Container_base0@1@@Z ; std::_Vector_const_iterator<std::_Vector_val<Database::struct_chatresponse,std::allocator<Database::struct_chatresponse> > >::_Vector_const_iterator<std::_Vector_val<Database::struct_chatresponse,std::allocator<Database::struct_chatresponse> > >
PUBLIC	??0?$_Vector_iterator@V?$_Vector_val@Ustruct_chatresponse@Database@@V?$allocator@Ustruct_chatresponse@Database@@@std@@@std@@@std@@QAE@PAUstruct_chatresponse@Database@@PBU_Container_base0@1@@Z ; std::_Vector_iterator<std::_Vector_val<Database::struct_chatresponse,std::allocator<Database::struct_chatresponse> > >::_Vector_iterator<std::_Vector_val<Database::struct_chatresponse,std::allocator<Database::struct_chatresponse> > >
PUBLIC	?_Make_iter@?$vector@Ustruct_chatresponse@Database@@V?$allocator@Ustruct_chatresponse@Database@@@std@@@std@@QBE?AV?$_Vector_iterator@V?$_Vector_val@Ustruct_chatresponse@Database@@V?$allocator@Ustruct_chatresponse@Database@@@std@@@std@@@2@V?$_Vector_const_iterator@V?$_Vector_val@Ustruct_chatresponse@Database@@V?$allocator@Ustruct_chatresponse@Database@@@std@@@std@@@2@@Z ; std::vector<Database::struct_chatresponse,std::allocator<Database::struct_chatresponse> >::_Make_iter
PUBLIC	??1struct_chatresponse@Database@@QAE@XZ		; Database::struct_chatresponse::~struct_chatresponse
PUBLIC	??_Gstruct_chatresponse@Database@@QAEPAXI@Z	; Database::struct_chatresponse::`scalar deleting destructor'
PUBLIC	??$_Destroy@Ustruct_chatresponse@Database@@@std@@YAXPAUstruct_chatresponse@Database@@@Z ; std::_Destroy<Database::struct_chatresponse>
PUBLIC	?destroy@?$allocator@Ustruct_chatresponse@Database@@@std@@QAEXPAUstruct_chatresponse@Database@@@Z ; std::allocator<Database::struct_chatresponse>::destroy
PUBLIC	??$_Dest_val@V?$allocator@Ustruct_chatresponse@Database@@@std@@Ustruct_chatresponse@Database@@@std@@YAXAAV?$allocator@Ustruct_chatresponse@Database@@@0@PAUstruct_chatresponse@Database@@@Z ; std::_Dest_val<std::allocator<Database::struct_chatresponse>,Database::struct_chatresponse>
PUBLIC	??$_Destroy_range@V?$allocator@Ustruct_chatresponse@Database@@@std@@@std@@YAXPAUstruct_chatresponse@Database@@0AAV?$allocator@Ustruct_chatresponse@Database@@@0@U_Nonscalar_ptr_iterator_tag@0@@Z ; std::_Destroy_range<std::allocator<Database::struct_chatresponse> >
PUBLIC	??$_Destroy_range@V?$allocator@Ustruct_chatresponse@Database@@@std@@@std@@YAXPAUstruct_chatresponse@Database@@0AAV?$allocator@Ustruct_chatresponse@Database@@@0@@Z ; std::_Destroy_range<std::allocator<Database::struct_chatresponse> >
PUBLIC	?_Destroy@?$vector@Ustruct_chatresponse@Database@@V?$allocator@Ustruct_chatresponse@Database@@@std@@@std@@IAEXPAUstruct_chatresponse@Database@@0@Z ; std::vector<Database::struct_chatresponse,std::allocator<Database::struct_chatresponse> >::_Destroy
PUBLIC	??$_Ptr_cat@Ustruct_chatresponse@Database@@U12@@std@@YA?AU_Nonscalar_ptr_iterator_tag@0@PAUstruct_chatresponse@Database@@0@Z ; std::_Ptr_cat<Database::struct_chatresponse,Database::struct_chatresponse>
PUBLIC	??4struct_chatresponse@Database@@QAEAAU01@ABU01@@Z ; Database::struct_chatresponse::operator=
PUBLIC	??$move@AAUstruct_chatresponse@Database@@@std@@YA$$QAUstruct_chatresponse@Database@@AAU12@@Z ; std::move<Database::struct_chatresponse &>
PUBLIC	??$_Move@PAUstruct_chatresponse@Database@@PAU12@@std@@YAPAUstruct_chatresponse@Database@@PAU12@00U_Nonscalar_ptr_iterator_tag@0@@Z ; std::_Move<Database::struct_chatresponse *,Database::struct_chatresponse *>
PUBLIC	??$_Move@PAUstruct_chatresponse@Database@@PAU12@@std@@YAPAUstruct_chatresponse@Database@@PAU12@00@Z ; std::_Move<Database::struct_chatresponse *,Database::struct_chatresponse *>
PUBLIC	?erase@?$vector@Ustruct_chatresponse@Database@@V?$allocator@Ustruct_chatresponse@Database@@@std@@@std@@QAE?AV?$_Vector_iterator@V?$_Vector_val@Ustruct_chatresponse@Database@@V?$allocator@Ustruct_chatresponse@Database@@@std@@@std@@@2@V?$_Vector_const_iterator@V?$_Vector_val@Ustruct_chatresponse@Database@@V?$allocator@Ustruct_chatresponse@Database@@@std@@@std@@@2@0@Z ; std::vector<Database::struct_chatresponse,std::allocator<Database::struct_chatresponse> >::erase
PUBLIC	?clear@?$vector@Ustruct_chatresponse@Database@@V?$allocator@Ustruct_chatresponse@Database@@@std@@@std@@QAEXXZ ; std::vector<Database::struct_chatresponse,std::allocator<Database::struct_chatresponse> >::clear
PUBLIC	??D?$_Vector_const_iterator@V?$_Vector_val@Ustruct_chatresponse@Database@@V?$allocator@Ustruct_chatresponse@Database@@@std@@@std@@@std@@QBEABUstruct_chatresponse@Database@@XZ ; std::_Vector_const_iterator<std::_Vector_val<Database::struct_chatresponse,std::allocator<Database::struct_chatresponse> > >::operator*
PUBLIC	??E?$_Vector_const_iterator@V?$_Vector_val@Ustruct_chatresponse@Database@@V?$allocator@Ustruct_chatresponse@Database@@@std@@@std@@@std@@QAEAAV01@XZ ; std::_Vector_const_iterator<std::_Vector_val<Database::struct_chatresponse,std::allocator<Database::struct_chatresponse> > >::operator++
PUBLIC	?_Compat@?$_Vector_const_iterator@V?$_Vector_val@Ustruct_chatresponse@Database@@V?$allocator@Ustruct_chatresponse@Database@@@std@@@std@@@std@@QBEXABV12@@Z ; std::_Vector_const_iterator<std::_Vector_val<Database::struct_chatresponse,std::allocator<Database::struct_chatresponse> > >::_Compat
PUBLIC	??8?$_Vector_const_iterator@V?$_Vector_val@Ustruct_chatresponse@Database@@V?$allocator@Ustruct_chatresponse@Database@@@std@@@std@@@std@@QBE_NABV01@@Z ; std::_Vector_const_iterator<std::_Vector_val<Database::struct_chatresponse,std::allocator<Database::struct_chatresponse> > >::operator==
PUBLIC	??9?$_Vector_const_iterator@V?$_Vector_val@Ustruct_chatresponse@Database@@V?$allocator@Ustruct_chatresponse@Database@@@std@@@std@@@std@@QBE_NABV01@@Z ; std::_Vector_const_iterator<std::_Vector_val<Database::struct_chatresponse,std::allocator<Database::struct_chatresponse> > >::operator!=
PUBLIC	??1?$_Vector_val@Ustruct_log@Database@@V?$allocator@Ustruct_log@Database@@@std@@@std@@QAE@XZ ; std::_Vector_val<Database::struct_log,std::allocator<Database::struct_log> >::~_Vector_val<Database::struct_log,std::allocator<Database::struct_log> >
PUBLIC	?deallocate@?$allocator@Ustruct_log@Database@@@std@@QAEXPAUstruct_log@Database@@I@Z ; std::allocator<Database::struct_log>::deallocate
PUBLIC	?_Tidy@?$vector@Ustruct_log@Database@@V?$allocator@Ustruct_log@Database@@@std@@@std@@IAEXXZ ; std::vector<Database::struct_log,std::allocator<Database::struct_log> >::_Tidy
PUBLIC	??1?$vector@Ustruct_log@Database@@V?$allocator@Ustruct_log@Database@@@std@@@std@@QAE@XZ ; std::vector<Database::struct_log,std::allocator<Database::struct_log> >::~vector<Database::struct_log,std::allocator<Database::struct_log> >
PUBLIC	?begin@?$vector@Ustruct_log@Database@@V?$allocator@Ustruct_log@Database@@@std@@@std@@QAE?AV?$_Vector_iterator@V?$_Vector_val@Ustruct_log@Database@@V?$allocator@Ustruct_log@Database@@@std@@@std@@@2@XZ ; std::vector<Database::struct_log,std::allocator<Database::struct_log> >::begin
PUBLIC	?end@?$vector@Ustruct_log@Database@@V?$allocator@Ustruct_log@Database@@@std@@@std@@QAE?AV?$_Vector_iterator@V?$_Vector_val@Ustruct_log@Database@@V?$allocator@Ustruct_log@Database@@@std@@@std@@@2@XZ ; std::vector<Database::struct_log,std::allocator<Database::struct_log> >::end
PUBLIC	??0?$_Vector_const_iterator@V?$_Vector_val@Ustruct_log@Database@@V?$allocator@Ustruct_log@Database@@@std@@@std@@@std@@QAE@PAUstruct_log@Database@@PBU_Container_base0@1@@Z ; std::_Vector_const_iterator<std::_Vector_val<Database::struct_log,std::allocator<Database::struct_log> > >::_Vector_const_iterator<std::_Vector_val<Database::struct_log,std::allocator<Database::struct_log> > >
PUBLIC	??0?$_Vector_iterator@V?$_Vector_val@Ustruct_log@Database@@V?$allocator@Ustruct_log@Database@@@std@@@std@@@std@@QAE@PAUstruct_log@Database@@PBU_Container_base0@1@@Z ; std::_Vector_iterator<std::_Vector_val<Database::struct_log,std::allocator<Database::struct_log> > >::_Vector_iterator<std::_Vector_val<Database::struct_log,std::allocator<Database::struct_log> > >
PUBLIC	?_Make_iter@?$vector@Ustruct_log@Database@@V?$allocator@Ustruct_log@Database@@@std@@@std@@QBE?AV?$_Vector_iterator@V?$_Vector_val@Ustruct_log@Database@@V?$allocator@Ustruct_log@Database@@@std@@@std@@@2@V?$_Vector_const_iterator@V?$_Vector_val@Ustruct_log@Database@@V?$allocator@Ustruct_log@Database@@@std@@@std@@@2@@Z ; std::vector<Database::struct_log,std::allocator<Database::struct_log> >::_Make_iter
PUBLIC	??1struct_log@Database@@QAE@XZ			; Database::struct_log::~struct_log
PUBLIC	??_Gstruct_log@Database@@QAEPAXI@Z		; Database::struct_log::`scalar deleting destructor'
PUBLIC	??$_Destroy@Ustruct_log@Database@@@std@@YAXPAUstruct_log@Database@@@Z ; std::_Destroy<Database::struct_log>
PUBLIC	?destroy@?$allocator@Ustruct_log@Database@@@std@@QAEXPAUstruct_log@Database@@@Z ; std::allocator<Database::struct_log>::destroy
PUBLIC	??$_Dest_val@V?$allocator@Ustruct_log@Database@@@std@@Ustruct_log@Database@@@std@@YAXAAV?$allocator@Ustruct_log@Database@@@0@PAUstruct_log@Database@@@Z ; std::_Dest_val<std::allocator<Database::struct_log>,Database::struct_log>
PUBLIC	??$_Destroy_range@V?$allocator@Ustruct_log@Database@@@std@@@std@@YAXPAUstruct_log@Database@@0AAV?$allocator@Ustruct_log@Database@@@0@U_Nonscalar_ptr_iterator_tag@0@@Z ; std::_Destroy_range<std::allocator<Database::struct_log> >
PUBLIC	??$_Destroy_range@V?$allocator@Ustruct_log@Database@@@std@@@std@@YAXPAUstruct_log@Database@@0AAV?$allocator@Ustruct_log@Database@@@0@@Z ; std::_Destroy_range<std::allocator<Database::struct_log> >
PUBLIC	?_Destroy@?$vector@Ustruct_log@Database@@V?$allocator@Ustruct_log@Database@@@std@@@std@@IAEXPAUstruct_log@Database@@0@Z ; std::vector<Database::struct_log,std::allocator<Database::struct_log> >::_Destroy
PUBLIC	??$_Ptr_cat@Ustruct_log@Database@@U12@@std@@YA?AU_Nonscalar_ptr_iterator_tag@0@PAUstruct_log@Database@@0@Z ; std::_Ptr_cat<Database::struct_log,Database::struct_log>
PUBLIC	??4struct_log@Database@@QAEAAU01@ABU01@@Z	; Database::struct_log::operator=
PUBLIC	??$move@AAUstruct_log@Database@@@std@@YA$$QAUstruct_log@Database@@AAU12@@Z ; std::move<Database::struct_log &>
PUBLIC	??$_Move@PAUstruct_log@Database@@PAU12@@std@@YAPAUstruct_log@Database@@PAU12@00U_Nonscalar_ptr_iterator_tag@0@@Z ; std::_Move<Database::struct_log *,Database::struct_log *>
PUBLIC	??$_Move@PAUstruct_log@Database@@PAU12@@std@@YAPAUstruct_log@Database@@PAU12@00@Z ; std::_Move<Database::struct_log *,Database::struct_log *>
PUBLIC	?erase@?$vector@Ustruct_log@Database@@V?$allocator@Ustruct_log@Database@@@std@@@std@@QAE?AV?$_Vector_iterator@V?$_Vector_val@Ustruct_log@Database@@V?$allocator@Ustruct_log@Database@@@std@@@std@@@2@V?$_Vector_const_iterator@V?$_Vector_val@Ustruct_log@Database@@V?$allocator@Ustruct_log@Database@@@std@@@std@@@2@0@Z ; std::vector<Database::struct_log,std::allocator<Database::struct_log> >::erase
PUBLIC	?clear@?$vector@Ustruct_log@Database@@V?$allocator@Ustruct_log@Database@@@std@@@std@@QAEXXZ ; std::vector<Database::struct_log,std::allocator<Database::struct_log> >::clear
PUBLIC	??D?$_Vector_const_iterator@V?$_Vector_val@Ustruct_log@Database@@V?$allocator@Ustruct_log@Database@@@std@@@std@@@std@@QBEABUstruct_log@Database@@XZ ; std::_Vector_const_iterator<std::_Vector_val<Database::struct_log,std::allocator<Database::struct_log> > >::operator*
PUBLIC	??E?$_Vector_const_iterator@V?$_Vector_val@Ustruct_log@Database@@V?$allocator@Ustruct_log@Database@@@std@@@std@@@std@@QAEAAV01@XZ ; std::_Vector_const_iterator<std::_Vector_val<Database::struct_log,std::allocator<Database::struct_log> > >::operator++
PUBLIC	?_Compat@?$_Vector_const_iterator@V?$_Vector_val@Ustruct_log@Database@@V?$allocator@Ustruct_log@Database@@@std@@@std@@@std@@QBEXABV12@@Z ; std::_Vector_const_iterator<std::_Vector_val<Database::struct_log,std::allocator<Database::struct_log> > >::_Compat
PUBLIC	??8?$_Vector_const_iterator@V?$_Vector_val@Ustruct_log@Database@@V?$allocator@Ustruct_log@Database@@@std@@@std@@@std@@QBE_NABV01@@Z ; std::_Vector_const_iterator<std::_Vector_val<Database::struct_log,std::allocator<Database::struct_log> > >::operator==
PUBLIC	??9?$_Vector_const_iterator@V?$_Vector_val@Ustruct_log@Database@@V?$allocator@Ustruct_log@Database@@@std@@@std@@@std@@QBE_NABV01@@Z ; std::_Vector_const_iterator<std::_Vector_val<Database::struct_log,std::allocator<Database::struct_log> > >::operator!=
PUBLIC	?erase@?$basic_string@DU?$char_traits@D@std@@V?$allocator@D@2@@std@@QAE?AV?$_String_iterator@DU?$char_traits@D@std@@V?$allocator@D@2@@2@V?$_String_const_iterator@DU?$char_traits@D@std@@V?$allocator@D@2@@2@0@Z ; std::basic_string<char,std::char_traits<char>,std::allocator<char> >::erase
PUBLIC	?getCleanString_internal@security@helper@@YA_ND@Z ; helper::security::getCleanString_internal
PUBLIC	??$_Find_if@PADP6A_ND@Z@std@@YAPADPAD0P6A_ND@Z@Z ; std::_Find_if<char *,bool (__cdecl*)(char)>
PUBLIC	??$find_if@V?$_String_iterator@DU?$char_traits@D@std@@V?$allocator@D@2@@std@@P6A_ND@Z@std@@YA?AV?$_String_iterator@DU?$char_traits@D@std@@V?$allocator@D@2@@0@V10@0P6A_ND@Z@Z ; std::find_if<std::_String_iterator<char,std::char_traits<char>,std::allocator<char> >,bool (__cdecl*)(char)>
PUBLIC	?_Unchecked@?$_String_iterator@DU?$char_traits@D@std@@V?$allocator@D@2@@std@@QBEPADXZ ; std::_String_iterator<char,std::char_traits<char>,std::allocator<char> >::_Unchecked
PUBLIC	??$_Unchecked@DU?$char_traits@D@std@@V?$allocator@D@2@@std@@YAPADV?$_String_iterator@DU?$char_traits@D@std@@V?$allocator@D@2@@0@@Z ; std::_Unchecked<char,std::char_traits<char>,std::allocator<char> >
PUBLIC	??$_Remove_if@PADP6A_ND@Z@std@@YAPADPAD0P6A_ND@Z@Z ; std::_Remove_if<char *,bool (__cdecl*)(char)>
PUBLIC	?_Rechecked@?$_String_iterator@DU?$char_traits@D@std@@V?$allocator@D@2@@std@@QAEAAV12@PAD@Z ; std::_String_iterator<char,std::char_traits<char>,std::allocator<char> >::_Rechecked
PUBLIC	??$_Rechecked@DU?$char_traits@D@std@@V?$allocator@D@2@@std@@YA?AV?$_String_iterator@DU?$char_traits@D@std@@V?$allocator@D@2@@0@AAV10@PAD@Z ; std::_Rechecked<char,std::char_traits<char>,std::allocator<char> >
PUBLIC	??$remove_if@V?$_String_iterator@DU?$char_traits@D@std@@V?$allocator@D@2@@std@@P6A_ND@Z@std@@YA?AV?$_String_iterator@DU?$char_traits@D@std@@V?$allocator@D@2@@0@V10@0P6A_ND@Z@Z ; std::remove_if<std::_String_iterator<char,std::char_traits<char>,std::allocator<char> >,bool (__cdecl*)(char)>
PUBLIC	?getCleanString@security@helper@@YAXAAV?$basic_string@DU?$char_traits@D@std@@V?$allocator@D@2@@std@@@Z ; helper::security::getCleanString
PUBLIC	?end@?$_Tree@V?$_Tmap_traits@V?$basic_string@DU?$char_traits@D@std@@V?$allocator@D@2@@std@@V12@U?$less@V?$basic_string@DU?$char_traits@D@std@@V?$allocator@D@2@@std@@@2@V?$allocator@U?$pair@$$CBV?$basic_string@DU?$char_traits@D@std@@V?$allocator@D@2@@std@@V12@@std@@@2@$0A@@std@@@std@@QBE?AV?$_Tree_const_iterator@V?$_Tree_val@V?$_Tmap_traits@V?$basic_string@DU?$char_traits@D@std@@V?$allocator@D@2@@std@@V12@U?$less@V?$basic_string@DU?$char_traits@D@std@@V?$allocator@D@2@@std@@@2@V?$allocator@U?$pair@$$CBV?$basic_string@DU?$char_traits@D@std@@V?$allocator@D@2@@std@@V12@@std@@@2@$0A@@std@@@std@@@2@XZ ; std::_Tree<std::_Tmap_traits<std::basic_string<char,std::char_traits<char>,std::allocator<char> >,std::basic_string<char,std::char_traits<char>,std::allocator<char> >,std::less<std::basic_string<char,std::char_traits<char>,std::allocator<char> > >,std::allocator<std::pair<std::basic_string<char,std::char_traits<char>,std::allocator<char> > const ,std::basic_string<char,std::char_traits<char>,std::allocator<char> > > >,0> >::end
PUBLIC	?_Lbound@?$_Tree@V?$_Tmap_traits@V?$basic_string@DU?$char_traits@D@std@@V?$allocator@D@2@@std@@V12@U?$less@V?$basic_string@DU?$char_traits@D@std@@V?$allocator@D@2@@std@@@2@V?$allocator@U?$pair@$$CBV?$basic_string@DU?$char_traits@D@std@@V?$allocator@D@2@@std@@V12@@std@@@2@$0A@@std@@@std@@IBEPAU_Node@?$_Tree_nod@V?$_Tmap_traits@V?$basic_string@DU?$char_traits@D@std@@V?$allocator@D@2@@std@@V12@U?$less@V?$basic_string@DU?$char_traits@D@std@@V?$allocator@D@2@@std@@@2@V?$allocator@U?$pair@$$CBV?$basic_string@DU?$char_traits@D@std@@V?$allocator@D@2@@std@@V12@@std@@@2@$0A@@std@@@2@ABV?$basic_string@DU?$char_traits@D@std@@V?$allocator@D@2@@2@@Z ; std::_Tree<std::_Tmap_traits<std::basic_string<char,std::char_traits<char>,std::allocator<char> >,std::basic_string<char,std::char_traits<char>,std::allocator<char> >,std::less<std::basic_string<char,std::char_traits<char>,std::allocator<char> > >,std::allocator<std::pair<std::basic_string<char,std::char_traits<char>,std::allocator<char> > const ,std::basic_string<char,std::char_traits<char>,std::allocator<char> > > >,0> >::_Lbound
PUBLIC	?lower_bound@?$_Tree@V?$_Tmap_traits@V?$basic_string@DU?$char_traits@D@std@@V?$allocator@D@2@@std@@V12@U?$less@V?$basic_string@DU?$char_traits@D@std@@V?$allocator@D@2@@std@@@2@V?$allocator@U?$pair@$$CBV?$basic_string@DU?$char_traits@D@std@@V?$allocator@D@2@@std@@V12@@std@@@2@$0A@@std@@@std@@QBE?AV?$_Tree_const_iterator@V?$_Tree_val@V?$_Tmap_traits@V?$basic_string@DU?$char_traits@D@std@@V?$allocator@D@2@@std@@V12@U?$less@V?$basic_string@DU?$char_traits@D@std@@V?$allocator@D@2@@std@@@2@V?$allocator@U?$pair@$$CBV?$basic_string@DU?$char_traits@D@std@@V?$allocator@D@2@@std@@V12@@std@@@2@$0A@@std@@@std@@@2@ABV?$basic_string@DU?$char_traits@D@std@@V?$allocator@D@2@@2@@Z ; std::_Tree<std::_Tmap_traits<std::basic_string<char,std::char_traits<char>,std::allocator<char> >,std::basic_string<char,std::char_traits<char>,std::allocator<char> >,std::less<std::basic_string<char,std::char_traits<char>,std::allocator<char> > >,std::allocator<std::pair<std::basic_string<char,std::char_traits<char>,std::allocator<char> > const ,std::basic_string<char,std::char_traits<char>,std::allocator<char> > > >,0> >::lower_bound
PUBLIC	?find@?$_Tree@V?$_Tmap_traits@V?$basic_string@DU?$char_traits@D@std@@V?$allocator@D@2@@std@@V12@U?$less@V?$basic_string@DU?$char_traits@D@std@@V?$allocator@D@2@@std@@@2@V?$allocator@U?$pair@$$CBV?$basic_string@DU?$char_traits@D@std@@V?$allocator@D@2@@std@@V12@@std@@@2@$0A@@std@@@std@@QBE?AV?$_Tree_const_iterator@V?$_Tree_val@V?$_Tmap_traits@V?$basic_string@DU?$char_traits@D@std@@V?$allocator@D@2@@std@@V12@U?$less@V?$basic_string@DU?$char_traits@D@std@@V?$allocator@D@2@@std@@@2@V?$allocator@U?$pair@$$CBV?$basic_string@DU?$char_traits@D@std@@V?$allocator@D@2@@std@@V12@@std@@@2@$0A@@std@@@std@@@2@ABV?$basic_string@DU?$char_traits@D@std@@V?$allocator@D@2@@2@@Z ; std::_Tree<std::_Tmap_traits<std::basic_string<char,std::char_traits<char>,std::allocator<char> >,std::basic_string<char,std::char_traits<char>,std::allocator<char> >,std::less<std::basic_string<char,std::char_traits<char>,std::allocator<char> > >,std::allocator<std::pair<std::basic_string<char,std::char_traits<char>,std::allocator<char> > const ,std::basic_string<char,std::char_traits<char>,std::allocator<char> > > >,0> >::find
PUBLIC	??__Fdummy@?1???A?$constmap@V?$basic_string@DU?$char_traits@D@std@@V?$allocator@D@2@@std@@V12@U?$less@V?$basic_string@DU?$char_traits@D@std@@V?$allocator@D@2@@std@@@2@@dlib@@QBEABV?$basic_string@DU?$char_traits@D@std@@V?$allocator@D@2@@std@@ABV23@@Z@YAXXZ ; `dlib::constmap<std::basic_string<char,std::char_traits<char>,std::allocator<char> >,std::basic_string<char,std::char_traits<char>,std::allocator<char> >,std::less<std::basic_string<char,std::char_traits<char>,std::allocator<char> > > >::operator[]'::`2'::`dynamic atexit destructor for 'dummy''
PUBLIC	??A?$constmap@V?$basic_string@DU?$char_traits@D@std@@V?$allocator@D@2@@std@@V12@U?$less@V?$basic_string@DU?$char_traits@D@std@@V?$allocator@D@2@@std@@@2@@dlib@@QBEABV?$basic_string@DU?$char_traits@D@std@@V?$allocator@D@2@@std@@ABV23@@Z ; dlib::constmap<std::basic_string<char,std::char_traits<char>,std::allocator<char> >,std::basic_string<char,std::char_traits<char>,std::allocator<char> >,std::less<std::basic_string<char,std::char_traits<char>,std::allocator<char> > > >::operator[]
PUBLIC	??0?$reference_wrapper@QAUstruct_gamestatus@@@dlib@@QAE@ABQAUstruct_gamestatus@@@Z ; dlib::reference_wrapper<struct_gamestatus * const>::reference_wrapper<struct_gamestatus * const>
PUBLIC	??$ref@QAUstruct_gamestatus@@@dlib@@YA?AV?$reference_wrapper@QAUstruct_gamestatus@@@0@ABQAUstruct_gamestatus@@@Z ; dlib::ref<struct_gamestatus * const>
PUBLIC	??B?$reference_wrapper@QAUstruct_gamestatus@@@dlib@@QBEABQAUstruct_gamestatus@@XZ ; dlib::reference_wrapper<struct_gamestatus * const>::operator struct_gamestatus * const &
PUBLIC	??0?$basic_ifstream@DU?$char_traits@D@std@@@std@@QAE@ABV?$basic_string@DU?$char_traits@D@std@@V?$allocator@D@2@@1@HH@Z ; std::basic_ifstream<char,std::char_traits<char> >::basic_ifstream<char,std::char_traits<char> >
PUBLIC	?is_open@?$basic_filebuf@DU?$char_traits@D@std@@@std@@QBE_NXZ ; std::basic_filebuf<char,std::char_traits<char> >::is_open
PUBLIC	?is_open@?$basic_ifstream@DU?$char_traits@D@std@@@std@@QBE_NXZ ; std::basic_ifstream<char,std::char_traits<char> >::is_open
PUBLIC	?close@?$basic_ifstream@DU?$char_traits@D@std@@@std@@QAEXXZ ; std::basic_ifstream<char,std::char_traits<char> >::close
PUBLIC	??0?$enumerable@V?$map_pair@_KPAVconnection@dlib@@@dlib@@@dlib@@QAE@XZ ; dlib::enumerable<dlib::map_pair<unsigned __int64,dlib::connection *> >::enumerable<dlib::map_pair<unsigned __int64,dlib::connection *> >
PUBLIC	??0?$pair_remover@_KPAVconnection@dlib@@@dlib@@QAE@XZ ; dlib::pair_remover<unsigned __int64,dlib::connection *>::pair_remover<unsigned __int64,dlib::connection *>
PUBLIC	??_G?$asc_pair_remover@_KPAVconnection@dlib@@U?$less@_K@std@@@dlib@@UAEPAXI@Z ; dlib::asc_pair_remover<unsigned __int64,dlib::connection *,std::less<unsigned __int64> >::`scalar deleting destructor'
PUBLIC	??0?$asc_pair_remover@_KPAVconnection@dlib@@U?$less@_K@std@@@dlib@@QAE@XZ ; dlib::asc_pair_remover<unsigned __int64,dlib::connection *,std::less<unsigned __int64> >::asc_pair_remover<unsigned __int64,dlib::connection *,std::less<unsigned __int64> >
PUBLIC	??0?$memory_manager_kernel_2@Vnode@?$binary_search_tree_kernel_2@_KPAVconnection@dlib@@V?$memory_manager_kernel_2@D$09@2@U?$less@_K@std@@@dlib@@$09@dlib@@QAE@XZ ; dlib::memory_manager_kernel_2<dlib::binary_search_tree_kernel_2<unsigned __int64,dlib::connection *,dlib::memory_manager_kernel_2<char,10>,std::less<unsigned __int64> >::node,10>::memory_manager_kernel_2<dlib::binary_search_tree_kernel_2<unsigned __int64,dlib::connection *,dlib::memory_manager_kernel_2<char,10>,std::less<unsigned __int64> >::node,10>
PUBLIC	??0?$map_pair@_KPAVconnection@dlib@@@dlib@@QAE@XZ ; dlib::map_pair<unsigned __int64,dlib::connection *>::map_pair<unsigned __int64,dlib::connection *>
PUBLIC	?key@mpair@?$binary_search_tree_kernel_2@_KPAVconnection@dlib@@V?$memory_manager_kernel_2@D$09@2@U?$less@_K@std@@@dlib@@UBEAB_KXZ ; dlib::binary_search_tree_kernel_2<unsigned __int64,dlib::connection *,dlib::memory_manager_kernel_2<char,10>,std::less<unsigned __int64> >::mpair::key
PUBLIC	?value@mpair@?$binary_search_tree_kernel_2@_KPAVconnection@dlib@@V?$memory_manager_kernel_2@D$09@2@U?$less@_K@std@@@dlib@@UBEABQAVconnection@3@XZ ; dlib::binary_search_tree_kernel_2<unsigned __int64,dlib::connection *,dlib::memory_manager_kernel_2<char,10>,std::less<unsigned __int64> >::mpair::value
PUBLIC	?value@mpair@?$binary_search_tree_kernel_2@_KPAVconnection@dlib@@V?$memory_manager_kernel_2@D$09@2@U?$less@_K@std@@@dlib@@UAEAAPAVconnection@3@XZ ; dlib::binary_search_tree_kernel_2<unsigned __int64,dlib::connection *,dlib::memory_manager_kernel_2<char,10>,std::less<unsigned __int64> >::mpair::value
PUBLIC	??_Gmpair@?$binary_search_tree_kernel_2@_KPAVconnection@dlib@@V?$memory_manager_kernel_2@D$09@2@U?$less@_K@std@@@dlib@@UAEPAXI@Z ; dlib::binary_search_tree_kernel_2<unsigned __int64,dlib::connection *,dlib::memory_manager_kernel_2<char,10>,std::less<unsigned __int64> >::mpair::`scalar deleting destructor'
PUBLIC	??0mpair@?$binary_search_tree_kernel_2@_KPAVconnection@dlib@@V?$memory_manager_kernel_2@D$09@2@U?$less@_K@std@@@dlib@@QAE@XZ ; dlib::binary_search_tree_kernel_2<unsigned __int64,dlib::connection *,dlib::memory_manager_kernel_2<char,10>,std::less<unsigned __int64> >::mpair::mpair
PUBLIC	??0?$binary_search_tree_kernel_2@_KPAVconnection@dlib@@V?$memory_manager_kernel_2@D$09@2@U?$less@_K@std@@@dlib@@QAE@XZ ; dlib::binary_search_tree_kernel_2<unsigned __int64,dlib::connection *,dlib::memory_manager_kernel_2<char,10>,std::less<unsigned __int64> >::binary_search_tree_kernel_2<unsigned __int64,dlib::connection *,dlib::memory_manager_kernel_2<char,10>,std::less<unsigned __int64> >
PUBLIC	??0?$map_kernel_1@_KPAVconnection@dlib@@V?$binary_search_tree_kernel_2@_KPAVconnection@dlib@@V?$memory_manager_kernel_2@D$09@2@U?$less@_K@std@@@2@V?$memory_manager_kernel_2@D$09@2@@dlib@@QAE@XZ ; dlib::map_kernel_1<unsigned __int64,dlib::connection *,dlib::binary_search_tree_kernel_2<unsigned __int64,dlib::connection *,dlib::memory_manager_kernel_2<char,10>,std::less<unsigned __int64> >,dlib::memory_manager_kernel_2<char,10> >::map_kernel_1<unsigned __int64,dlib::connection *,dlib::binary_search_tree_kernel_2<unsigned __int64,dlib::connection *,dlib::memory_manager_kernel_2<char,10>,std::less<unsigned __int64> >,dlib::memory_manager_kernel_2<char,10> >
PUBLIC	??0server_iostream@dlib@@QAE@XZ			; dlib::server_iostream::server_iostream
PUBLIC	??_Gserver_http@dlib@@UAEPAXI@Z			; dlib::server_http::`scalar deleting destructor'
PUBLIC	??0server_http@dlib@@QAE@XZ			; dlib::server_http::server_http
PUBLIC	??0incoming_things@dlib@@QAE@ABV?$basic_string@DU?$char_traits@D@std@@V?$allocator@D@2@@std@@0GG@Z ; dlib::incoming_things::incoming_things
PUBLIC	??1incoming_things@dlib@@QAE@XZ			; dlib::incoming_things::~incoming_things
PUBLIC	?get_max_content_length@server_http@dlib@@QBEKXZ ; dlib::server_http::get_max_content_length
PUBLIC	??$?6$$BY0CA@$$CBD@logger_stream@logger@dlib@@QAEAAV012@AAY0CA@$$CBD@Z ; dlib::logger::logger_stream::operator<<<char const [32]>
PUBLIC	??$?6V?$basic_string@DU?$char_traits@D@std@@V?$allocator@D@2@@std@@@logger_stream@logger@dlib@@QAEAAV012@ABV?$basic_string@DU?$char_traits@D@std@@V?$allocator@D@2@@std@@@Z ; dlib::logger::logger_stream::operator<<<std::basic_string<char,std::char_traits<char>,std::allocator<char> > >
PUBLIC	??$?6$$BY03$$CBD@logger_stream@logger@dlib@@QAEAAV012@AAY03$$CBD@Z ; dlib::logger::logger_stream::operator<<<char const [4]>
PUBLIC	?on_connect@server_http@dlib@@EAEXAAV?$basic_istream@DU?$char_traits@D@std@@@std@@AAV?$basic_ostream@DU?$char_traits@D@std@@@4@ABV?$basic_string@DU?$char_traits@D@std@@V?$allocator@D@2@@4@2GG_K@Z ; dlib::server_http::on_connect
PUBLIC	?begin@?$vector@PAUstruct_gamestatus@@V?$allocator@PAUstruct_gamestatus@@@std@@@std@@QAE?AV?$_Vector_iterator@V?$_Vector_val@PAUstruct_gamestatus@@V?$allocator@PAUstruct_gamestatus@@@std@@@std@@@2@XZ ; std::vector<struct_gamestatus *,std::allocator<struct_gamestatus *> >::begin
PUBLIC	??0?$_Vector_const_iterator@V?$_Vector_val@PAUstruct_gamestatus@@V?$allocator@PAUstruct_gamestatus@@@std@@@std@@@std@@QAE@PAPAUstruct_gamestatus@@PBU_Container_base0@1@@Z ; std::_Vector_const_iterator<std::_Vector_val<struct_gamestatus *,std::allocator<struct_gamestatus *> > >::_Vector_const_iterator<std::_Vector_val<struct_gamestatus *,std::allocator<struct_gamestatus *> > >
PUBLIC	??0?$_Vector_iterator@V?$_Vector_val@PAUstruct_gamestatus@@V?$allocator@PAUstruct_gamestatus@@@std@@@std@@@std@@QAE@PAPAUstruct_gamestatus@@PBU_Container_base0@1@@Z ; std::_Vector_iterator<std::_Vector_val<struct_gamestatus *,std::allocator<struct_gamestatus *> > >::_Vector_iterator<std::_Vector_val<struct_gamestatus *,std::allocator<struct_gamestatus *> > >
PUBLIC	?end@?$vector@PAUstruct_gamestatus@@V?$allocator@PAUstruct_gamestatus@@@std@@@std@@QAE?AV?$_Vector_iterator@V?$_Vector_val@PAUstruct_gamestatus@@V?$allocator@PAUstruct_gamestatus@@@std@@@std@@@2@XZ ; std::vector<struct_gamestatus *,std::allocator<struct_gamestatus *> >::end
PUBLIC	??D?$_Vector_const_iterator@V?$_Vector_val@PAUstruct_gamestatus@@V?$allocator@PAUstruct_gamestatus@@@std@@@std@@@std@@QBEABQAUstruct_gamestatus@@XZ ; std::_Vector_const_iterator<std::_Vector_val<struct_gamestatus *,std::allocator<struct_gamestatus *> > >::operator*
PUBLIC	??E?$_Vector_const_iterator@V?$_Vector_val@PAUstruct_gamestatus@@V?$allocator@PAUstruct_gamestatus@@@std@@@std@@@std@@QAEAAV01@XZ ; std::_Vector_const_iterator<std::_Vector_val<struct_gamestatus *,std::allocator<struct_gamestatus *> > >::operator++
PUBLIC	?_Compat@?$_Vector_const_iterator@V?$_Vector_val@PAUstruct_gamestatus@@V?$allocator@PAUstruct_gamestatus@@@std@@@std@@@std@@QBEXABV12@@Z ; std::_Vector_const_iterator<std::_Vector_val<struct_gamestatus *,std::allocator<struct_gamestatus *> > >::_Compat
PUBLIC	??8?$_Vector_const_iterator@V?$_Vector_val@PAUstruct_gamestatus@@V?$allocator@PAUstruct_gamestatus@@@std@@@std@@@std@@QBE_NABV01@@Z ; std::_Vector_const_iterator<std::_Vector_val<struct_gamestatus *,std::allocator<struct_gamestatus *> > >::operator==
PUBLIC	??9?$_Vector_const_iterator@V?$_Vector_val@PAUstruct_gamestatus@@V?$allocator@PAUstruct_gamestatus@@@std@@@std@@@std@@QBE_NABV01@@Z ; std::_Vector_const_iterator<std::_Vector_val<struct_gamestatus *,std::allocator<struct_gamestatus *> > >::operator!=
PUBLIC	?on_request@web_server@http@@EAE?BV?$basic_string@DU?$char_traits@D@std@@V?$allocator@D@2@@std@@ABUincoming_things@dlib@@AAUoutgoing_things@6@@Z ; http::web_server::on_request
PUBLIC	??_Gweb_server@http@@UAEPAXI@Z			; http::web_server::`scalar deleting destructor'
PUBLIC	??0web_server@http@@QAE@XZ			; http::web_server::web_server
PUBLIC	??1?$enumerable@V?$map_pair@_KPAVconnection@dlib@@@dlib@@@dlib@@UAE@XZ ; dlib::enumerable<dlib::map_pair<unsigned __int64,dlib::connection *> >::~enumerable<dlib::map_pair<unsigned __int64,dlib::connection *> >
PUBLIC	??_G?$pair_remover@_KPAVconnection@dlib@@@dlib@@UAEPAXI@Z ; dlib::pair_remover<unsigned __int64,dlib::connection *>::`scalar deleting destructor'
PUBLIC	??1?$pair_remover@_KPAVconnection@dlib@@@dlib@@UAE@XZ ; dlib::pair_remover<unsigned __int64,dlib::connection *>::~pair_remover<unsigned __int64,dlib::connection *>
PUBLIC	??1?$asc_pair_remover@_KPAVconnection@dlib@@U?$less@_K@std@@@dlib@@UAE@XZ ; dlib::asc_pair_remover<unsigned __int64,dlib::connection *,std::less<unsigned __int64> >::~asc_pair_remover<unsigned __int64,dlib::connection *,std::less<unsigned __int64> >
PUBLIC	?delete_tree@?$binary_search_tree_kernel_2@_KPAVconnection@dlib@@V?$memory_manager_kernel_2@D$09@2@U?$less@_K@std@@@dlib@@AAEXPAVnode@12@@Z ; dlib::binary_search_tree_kernel_2<unsigned __int64,dlib::connection *,dlib::memory_manager_kernel_2<char,10>,std::less<unsigned __int64> >::delete_tree
PUBLIC	??_G?$memory_manager_kernel_2@Vnode@?$binary_search_tree_kernel_2@_KPAVconnection@dlib@@V?$memory_manager_kernel_2@D$09@2@U?$less@_K@std@@@dlib@@$09@dlib@@UAEPAXI@Z ; dlib::memory_manager_kernel_2<dlib::binary_search_tree_kernel_2<unsigned __int64,dlib::connection *,dlib::memory_manager_kernel_2<char,10>,std::less<unsigned __int64> >::node,10>::`scalar deleting destructor'
PUBLIC	??1?$memory_manager_kernel_2@Vnode@?$binary_search_tree_kernel_2@_KPAVconnection@dlib@@V?$memory_manager_kernel_2@D$09@2@U?$less@_K@std@@@dlib@@$09@dlib@@UAE@XZ ; dlib::memory_manager_kernel_2<dlib::binary_search_tree_kernel_2<unsigned __int64,dlib::connection *,dlib::memory_manager_kernel_2<char,10>,std::less<unsigned __int64> >::node,10>::~memory_manager_kernel_2<dlib::binary_search_tree_kernel_2<unsigned __int64,dlib::connection *,dlib::memory_manager_kernel_2<char,10>,std::less<unsigned __int64> >::node,10>
PUBLIC	??1?$map_pair@_KPAVconnection@dlib@@@dlib@@UAE@XZ ; dlib::map_pair<unsigned __int64,dlib::connection *>::~map_pair<unsigned __int64,dlib::connection *>
PUBLIC	??1mpair@?$binary_search_tree_kernel_2@_KPAVconnection@dlib@@V?$memory_manager_kernel_2@D$09@2@U?$less@_K@std@@@dlib@@UAE@XZ ; dlib::binary_search_tree_kernel_2<unsigned __int64,dlib::connection *,dlib::memory_manager_kernel_2<char,10>,std::less<unsigned __int64> >::mpair::~mpair
PUBLIC	?at_start@?$binary_search_tree_kernel_2@_KPAVconnection@dlib@@V?$memory_manager_kernel_2@D$09@2@U?$less@_K@std@@@dlib@@UBE_NXZ ; dlib::binary_search_tree_kernel_2<unsigned __int64,dlib::connection *,dlib::memory_manager_kernel_2<char,10>,std::less<unsigned __int64> >::at_start
PUBLIC	?reset@?$binary_search_tree_kernel_2@_KPAVconnection@dlib@@V?$memory_manager_kernel_2@D$09@2@U?$less@_K@std@@@dlib@@UBEXXZ ; dlib::binary_search_tree_kernel_2<unsigned __int64,dlib::connection *,dlib::memory_manager_kernel_2<char,10>,std::less<unsigned __int64> >::reset
PUBLIC	?current_element_valid@?$binary_search_tree_kernel_2@_KPAVconnection@dlib@@V?$memory_manager_kernel_2@D$09@2@U?$less@_K@std@@@dlib@@UBE_NXZ ; dlib::binary_search_tree_kernel_2<unsigned __int64,dlib::connection *,dlib::memory_manager_kernel_2<char,10>,std::less<unsigned __int64> >::current_element_valid
PUBLIC	?element@?$binary_search_tree_kernel_2@_KPAVconnection@dlib@@V?$memory_manager_kernel_2@D$09@2@U?$less@_K@std@@@dlib@@UBEABV?$map_pair@_KPAVconnection@dlib@@@2@XZ ; dlib::binary_search_tree_kernel_2<unsigned __int64,dlib::connection *,dlib::memory_manager_kernel_2<char,10>,std::less<unsigned __int64> >::element
PUBLIC	?element@?$binary_search_tree_kernel_2@_KPAVconnection@dlib@@V?$memory_manager_kernel_2@D$09@2@U?$less@_K@std@@@dlib@@UAEAAV?$map_pair@_KPAVconnection@dlib@@@2@XZ ; dlib::binary_search_tree_kernel_2<unsigned __int64,dlib::connection *,dlib::memory_manager_kernel_2<char,10>,std::less<unsigned __int64> >::element
PUBLIC	?move_next@?$binary_search_tree_kernel_2@_KPAVconnection@dlib@@V?$memory_manager_kernel_2@D$09@2@U?$less@_K@std@@@dlib@@UBE_NXZ ; dlib::binary_search_tree_kernel_2<unsigned __int64,dlib::connection *,dlib::memory_manager_kernel_2<char,10>,std::less<unsigned __int64> >::move_next
PUBLIC	?remove_any@?$binary_search_tree_kernel_2@_KPAVconnection@dlib@@V?$memory_manager_kernel_2@D$09@2@U?$less@_K@std@@@dlib@@UAEXAA_KAAPAVconnection@2@@Z ; dlib::binary_search_tree_kernel_2<unsigned __int64,dlib::connection *,dlib::memory_manager_kernel_2<char,10>,std::less<unsigned __int64> >::remove_any
PUBLIC	??_G?$binary_search_tree_kernel_2@_KPAVconnection@dlib@@V?$memory_manager_kernel_2@D$09@2@U?$less@_K@std@@@dlib@@UAEPAXI@Z ; dlib::binary_search_tree_kernel_2<unsigned __int64,dlib::connection *,dlib::memory_manager_kernel_2<char,10>,std::less<unsigned __int64> >::`scalar deleting destructor'
PUBLIC	??_E?$binary_search_tree_kernel_2@_KPAVconnection@dlib@@V?$memory_manager_kernel_2@D$09@2@U?$less@_K@std@@@dlib@@W3AEPAXI@Z ; [thunk]:dlib::binary_search_tree_kernel_2<unsigned __int64,dlib::connection *,dlib::memory_manager_kernel_2<char,10>,std::less<unsigned __int64> >::`vector deleting destructor'
PUBLIC	?size@?$binary_search_tree_kernel_2@_KPAVconnection@dlib@@V?$memory_manager_kernel_2@D$09@2@U?$less@_K@std@@@dlib@@UBEKXZ ; dlib::binary_search_tree_kernel_2<unsigned __int64,dlib::connection *,dlib::memory_manager_kernel_2<char,10>,std::less<unsigned __int64> >::size
PUBLIC	?size@?$binary_search_tree_kernel_2@_KPAVconnection@dlib@@V?$memory_manager_kernel_2@D$09@2@U?$less@_K@std@@@dlib@@W3BEKXZ ; [thunk]:dlib::binary_search_tree_kernel_2<unsigned __int64,dlib::connection *,dlib::memory_manager_kernel_2<char,10>,std::less<unsigned __int64> >::size`adjustor{4}'
PUBLIC	??1?$binary_search_tree_kernel_2@_KPAVconnection@dlib@@V?$memory_manager_kernel_2@D$09@2@U?$less@_K@std@@@dlib@@UAE@XZ ; dlib::binary_search_tree_kernel_2<unsigned __int64,dlib::connection *,dlib::memory_manager_kernel_2<char,10>,std::less<unsigned __int64> >::~binary_search_tree_kernel_2<unsigned __int64,dlib::connection *,dlib::memory_manager_kernel_2<char,10>,std::less<unsigned __int64> >
PUBLIC	?at_start@?$map_kernel_1@_KPAVconnection@dlib@@V?$binary_search_tree_kernel_2@_KPAVconnection@dlib@@V?$memory_manager_kernel_2@D$09@2@U?$less@_K@std@@@2@V?$memory_manager_kernel_2@D$09@2@@dlib@@UBE_NXZ ; dlib::map_kernel_1<unsigned __int64,dlib::connection *,dlib::binary_search_tree_kernel_2<unsigned __int64,dlib::connection *,dlib::memory_manager_kernel_2<char,10>,std::less<unsigned __int64> >,dlib::memory_manager_kernel_2<char,10> >::at_start
PUBLIC	?reset@?$map_kernel_1@_KPAVconnection@dlib@@V?$binary_search_tree_kernel_2@_KPAVconnection@dlib@@V?$memory_manager_kernel_2@D$09@2@U?$less@_K@std@@@2@V?$memory_manager_kernel_2@D$09@2@@dlib@@UBEXXZ ; dlib::map_kernel_1<unsigned __int64,dlib::connection *,dlib::binary_search_tree_kernel_2<unsigned __int64,dlib::connection *,dlib::memory_manager_kernel_2<char,10>,std::less<unsigned __int64> >,dlib::memory_manager_kernel_2<char,10> >::reset
PUBLIC	?current_element_valid@?$map_kernel_1@_KPAVconnection@dlib@@V?$binary_search_tree_kernel_2@_KPAVconnection@dlib@@V?$memory_manager_kernel_2@D$09@2@U?$less@_K@std@@@2@V?$memory_manager_kernel_2@D$09@2@@dlib@@UBE_NXZ ; dlib::map_kernel_1<unsigned __int64,dlib::connection *,dlib::binary_search_tree_kernel_2<unsigned __int64,dlib::connection *,dlib::memory_manager_kernel_2<char,10>,std::less<unsigned __int64> >,dlib::memory_manager_kernel_2<char,10> >::current_element_valid
PUBLIC	?element@?$map_kernel_1@_KPAVconnection@dlib@@V?$binary_search_tree_kernel_2@_KPAVconnection@dlib@@V?$memory_manager_kernel_2@D$09@2@U?$less@_K@std@@@2@V?$memory_manager_kernel_2@D$09@2@@dlib@@UBEABV?$map_pair@_KPAVconnection@dlib@@@2@XZ ; dlib::map_kernel_1<unsigned __int64,dlib::connection *,dlib::binary_search_tree_kernel_2<unsigned __int64,dlib::connection *,dlib::memory_manager_kernel_2<char,10>,std::less<unsigned __int64> >,dlib::memory_manager_kernel_2<char,10> >::element
PUBLIC	?element@?$map_kernel_1@_KPAVconnection@dlib@@V?$binary_search_tree_kernel_2@_KPAVconnection@dlib@@V?$memory_manager_kernel_2@D$09@2@U?$less@_K@std@@@2@V?$memory_manager_kernel_2@D$09@2@@dlib@@UAEAAV?$map_pair@_KPAVconnection@dlib@@@2@XZ ; dlib::map_kernel_1<unsigned __int64,dlib::connection *,dlib::binary_search_tree_kernel_2<unsigned __int64,dlib::connection *,dlib::memory_manager_kernel_2<char,10>,std::less<unsigned __int64> >,dlib::memory_manager_kernel_2<char,10> >::element
PUBLIC	?move_next@?$map_kernel_1@_KPAVconnection@dlib@@V?$binary_search_tree_kernel_2@_KPAVconnection@dlib@@V?$memory_manager_kernel_2@D$09@2@U?$less@_K@std@@@2@V?$memory_manager_kernel_2@D$09@2@@dlib@@UBE_NXZ ; dlib::map_kernel_1<unsigned __int64,dlib::connection *,dlib::binary_search_tree_kernel_2<unsigned __int64,dlib::connection *,dlib::memory_manager_kernel_2<char,10>,std::less<unsigned __int64> >,dlib::memory_manager_kernel_2<char,10> >::move_next
PUBLIC	?remove_any@?$map_kernel_1@_KPAVconnection@dlib@@V?$binary_search_tree_kernel_2@_KPAVconnection@dlib@@V?$memory_manager_kernel_2@D$09@2@U?$less@_K@std@@@2@V?$memory_manager_kernel_2@D$09@2@@dlib@@UAEXAA_KAAPAVconnection@2@@Z ; dlib::map_kernel_1<unsigned __int64,dlib::connection *,dlib::binary_search_tree_kernel_2<unsigned __int64,dlib::connection *,dlib::memory_manager_kernel_2<char,10>,std::less<unsigned __int64> >,dlib::memory_manager_kernel_2<char,10> >::remove_any
PUBLIC	??_G?$map_kernel_1@_KPAVconnection@dlib@@V?$binary_search_tree_kernel_2@_KPAVconnection@dlib@@V?$memory_manager_kernel_2@D$09@2@U?$less@_K@std@@@2@V?$memory_manager_kernel_2@D$09@2@@dlib@@UAEPAXI@Z ; dlib::map_kernel_1<unsigned __int64,dlib::connection *,dlib::binary_search_tree_kernel_2<unsigned __int64,dlib::connection *,dlib::memory_manager_kernel_2<char,10>,std::less<unsigned __int64> >,dlib::memory_manager_kernel_2<char,10> >::`scalar deleting destructor'
PUBLIC	??_E?$map_kernel_1@_KPAVconnection@dlib@@V?$binary_search_tree_kernel_2@_KPAVconnection@dlib@@V?$memory_manager_kernel_2@D$09@2@U?$less@_K@std@@@2@V?$memory_manager_kernel_2@D$09@2@@dlib@@W3AEPAXI@Z ; [thunk]:dlib::map_kernel_1<unsigned __int64,dlib::connection *,dlib::binary_search_tree_kernel_2<unsigned __int64,dlib::connection *,dlib::memory_manager_kernel_2<char,10>,std::less<unsigned __int64> >,dlib::memory_manager_kernel_2<char,10> >::`vector deleting destructor'
PUBLIC	?size@?$map_kernel_1@_KPAVconnection@dlib@@V?$binary_search_tree_kernel_2@_KPAVconnection@dlib@@V?$memory_manager_kernel_2@D$09@2@U?$less@_K@std@@@2@V?$memory_manager_kernel_2@D$09@2@@dlib@@UBEKXZ ; dlib::map_kernel_1<unsigned __int64,dlib::connection *,dlib::binary_search_tree_kernel_2<unsigned __int64,dlib::connection *,dlib::memory_manager_kernel_2<char,10>,std::less<unsigned __int64> >,dlib::memory_manager_kernel_2<char,10> >::size
PUBLIC	?size@?$map_kernel_1@_KPAVconnection@dlib@@V?$binary_search_tree_kernel_2@_KPAVconnection@dlib@@V?$memory_manager_kernel_2@D$09@2@U?$less@_K@std@@@2@V?$memory_manager_kernel_2@D$09@2@@dlib@@W3BEKXZ ; [thunk]:dlib::map_kernel_1<unsigned __int64,dlib::connection *,dlib::binary_search_tree_kernel_2<unsigned __int64,dlib::connection *,dlib::memory_manager_kernel_2<char,10>,std::less<unsigned __int64> >,dlib::memory_manager_kernel_2<char,10> >::size`adjustor{4}'
PUBLIC	??1?$map_kernel_1@_KPAVconnection@dlib@@V?$binary_search_tree_kernel_2@_KPAVconnection@dlib@@V?$memory_manager_kernel_2@D$09@2@U?$less@_K@std@@@2@V?$memory_manager_kernel_2@D$09@2@@dlib@@UAE@XZ ; dlib::map_kernel_1<unsigned __int64,dlib::connection *,dlib::binary_search_tree_kernel_2<unsigned __int64,dlib::connection *,dlib::memory_manager_kernel_2<char,10>,std::less<unsigned __int64> >,dlib::memory_manager_kernel_2<char,10> >::~map_kernel_1<unsigned __int64,dlib::connection *,dlib::binary_search_tree_kernel_2<unsigned __int64,dlib::connection *,dlib::memory_manager_kernel_2<char,10>,std::less<unsigned __int64> >,dlib::memory_manager_kernel_2<char,10> >
PUBLIC	?double_rotate_right@?$binary_search_tree_kernel_2@_KPAVconnection@dlib@@V?$memory_manager_kernel_2@D$09@2@U?$less@_K@std@@@dlib@@AAEXPAVnode@12@@Z ; dlib::binary_search_tree_kernel_2<unsigned __int64,dlib::connection *,dlib::memory_manager_kernel_2<char,10>,std::less<unsigned __int64> >::double_rotate_right
PUBLIC	?double_rotate_left@?$binary_search_tree_kernel_2@_KPAVconnection@dlib@@V?$memory_manager_kernel_2@D$09@2@U?$less@_K@std@@@dlib@@AAEXPAVnode@12@@Z ; dlib::binary_search_tree_kernel_2<unsigned __int64,dlib::connection *,dlib::memory_manager_kernel_2<char,10>,std::less<unsigned __int64> >::double_rotate_left
PUBLIC	?fix_after_add@?$binary_search_tree_kernel_2@_KPAVconnection@dlib@@V?$memory_manager_kernel_2@D$09@2@U?$less@_K@std@@@dlib@@AAEXPAVnode@12@@Z ; dlib::binary_search_tree_kernel_2<unsigned __int64,dlib::connection *,dlib::memory_manager_kernel_2<char,10>,std::less<unsigned __int64> >::fix_after_add
PUBLIC	?add_to_tree@?$binary_search_tree_kernel_2@_KPAVconnection@dlib@@V?$memory_manager_kernel_2@D$09@2@U?$less@_K@std@@@dlib@@AAEXPAVnode@12@AA_KAAPAVconnection@2@@Z ; dlib::binary_search_tree_kernel_2<unsigned __int64,dlib::connection *,dlib::memory_manager_kernel_2<char,10>,std::less<unsigned __int64> >::add_to_tree
PUBLIC	?allocate@?$memory_manager_kernel_2@Vnode@?$binary_search_tree_kernel_2@_KPAVconnection@dlib@@V?$memory_manager_kernel_2@D$09@2@U?$less@_K@std@@@dlib@@$09@dlib@@QAEPAVnode@?$binary_search_tree_kernel_2@_KPAVconnection@dlib@@V?$memory_manager_kernel_2@D$09@2@U?$less@_K@std@@@2@XZ ; dlib::memory_manager_kernel_2<dlib::binary_search_tree_kernel_2<unsigned __int64,dlib::connection *,dlib::memory_manager_kernel_2<char,10>,std::less<unsigned __int64> >::node,10>::allocate
PUBLIC	?add@?$binary_search_tree_kernel_2@_KPAVconnection@dlib@@V?$memory_manager_kernel_2@D$09@2@U?$less@_K@std@@@dlib@@QAEXAA_KAAPAVconnection@2@@Z ; dlib::binary_search_tree_kernel_2<unsigned __int64,dlib::connection *,dlib::memory_manager_kernel_2<char,10>,std::less<unsigned __int64> >::add
PUBLIC	?add@?$map_kernel_1@_KPAVconnection@dlib@@V?$binary_search_tree_kernel_2@_KPAVconnection@dlib@@V?$memory_manager_kernel_2@D$09@2@U?$less@_K@std@@@2@V?$memory_manager_kernel_2@D$09@2@@dlib@@QAEXAA_KAAPAVconnection@2@@Z ; dlib::map_kernel_1<unsigned __int64,dlib::connection *,dlib::binary_search_tree_kernel_2<unsigned __int64,dlib::connection *,dlib::memory_manager_kernel_2<char,10>,std::less<unsigned __int64> >,dlib::memory_manager_kernel_2<char,10> >::add
PUBLIC	?return_reference@?$binary_search_tree_kernel_2@_KPAVconnection@dlib@@V?$memory_manager_kernel_2@D$09@2@U?$less@_K@std@@@dlib@@ABEPBQAVconnection@2@PBVnode@12@AB_K@Z ; dlib::binary_search_tree_kernel_2<unsigned __int64,dlib::connection *,dlib::memory_manager_kernel_2<char,10>,std::less<unsigned __int64> >::return_reference
PUBLIC	??A?$binary_search_tree_kernel_2@_KPAVconnection@dlib@@V?$memory_manager_kernel_2@D$09@2@U?$less@_K@std@@@dlib@@QBEPBQAVconnection@1@AB_K@Z ; dlib::binary_search_tree_kernel_2<unsigned __int64,dlib::connection *,dlib::memory_manager_kernel_2<char,10>,std::less<unsigned __int64> >::operator[]
PUBLIC	?is_in_domain@?$map_kernel_1@_KPAVconnection@dlib@@V?$binary_search_tree_kernel_2@_KPAVconnection@dlib@@V?$memory_manager_kernel_2@D$09@2@U?$less@_K@std@@@2@V?$memory_manager_kernel_2@D$09@2@@dlib@@QBE_NAB_K@Z ; dlib::map_kernel_1<unsigned __int64,dlib::connection *,dlib::binary_search_tree_kernel_2<unsigned __int64,dlib::connection *,dlib::memory_manager_kernel_2<char,10>,std::less<unsigned __int64> >,dlib::memory_manager_kernel_2<char,10> >::is_in_domain
PUBLIC	?remove_least_element_in_tree@?$binary_search_tree_kernel_2@_KPAVconnection@dlib@@V?$memory_manager_kernel_2@D$09@2@U?$less@_K@std@@@dlib@@AAE_NPAVnode@12@AA_KAAPAVconnection@2@@Z ; dlib::binary_search_tree_kernel_2<unsigned __int64,dlib::connection *,dlib::memory_manager_kernel_2<char,10>,std::less<unsigned __int64> >::remove_least_element_in_tree
PUBLIC	?rotate_left@?$binary_search_tree_kernel_2@_KPAVconnection@dlib@@V?$memory_manager_kernel_2@D$09@2@U?$less@_K@std@@@dlib@@AAEXPAVnode@12@@Z ; dlib::binary_search_tree_kernel_2<unsigned __int64,dlib::connection *,dlib::memory_manager_kernel_2<char,10>,std::less<unsigned __int64> >::rotate_left
PUBLIC	?rotate_right@?$binary_search_tree_kernel_2@_KPAVconnection@dlib@@V?$memory_manager_kernel_2@D$09@2@U?$less@_K@std@@@dlib@@AAEXPAVnode@12@@Z ; dlib::binary_search_tree_kernel_2<unsigned __int64,dlib::connection *,dlib::memory_manager_kernel_2<char,10>,std::less<unsigned __int64> >::rotate_right
PUBLIC	?fix_after_remove@?$binary_search_tree_kernel_2@_KPAVconnection@dlib@@V?$memory_manager_kernel_2@D$09@2@U?$less@_K@std@@@dlib@@AAEXPAVnode@12@@Z ; dlib::binary_search_tree_kernel_2<unsigned __int64,dlib::connection *,dlib::memory_manager_kernel_2<char,10>,std::less<unsigned __int64> >::fix_after_remove
PUBLIC	?deallocate@?$memory_manager_kernel_2@Vnode@?$binary_search_tree_kernel_2@_KPAVconnection@dlib@@V?$memory_manager_kernel_2@D$09@2@U?$less@_K@std@@@dlib@@$09@dlib@@QAEXPAVnode@?$binary_search_tree_kernel_2@_KPAVconnection@dlib@@V?$memory_manager_kernel_2@D$09@2@U?$less@_K@std@@@2@@Z ; dlib::memory_manager_kernel_2<dlib::binary_search_tree_kernel_2<unsigned __int64,dlib::connection *,dlib::memory_manager_kernel_2<char,10>,std::less<unsigned __int64> >::node,10>::deallocate
PUBLIC	?remove_from_tree@?$binary_search_tree_kernel_2@_KPAVconnection@dlib@@V?$memory_manager_kernel_2@D$09@2@U?$less@_K@std@@@dlib@@AAEXPAVnode@12@AB_KAA_KAAPAVconnection@2@@Z ; dlib::binary_search_tree_kernel_2<unsigned __int64,dlib::connection *,dlib::memory_manager_kernel_2<char,10>,std::less<unsigned __int64> >::remove_from_tree
PUBLIC	?remove@?$binary_search_tree_kernel_2@_KPAVconnection@dlib@@V?$memory_manager_kernel_2@D$09@2@U?$less@_K@std@@@dlib@@QAEXAB_KAA_KAAPAVconnection@2@@Z ; dlib::binary_search_tree_kernel_2<unsigned __int64,dlib::connection *,dlib::memory_manager_kernel_2<char,10>,std::less<unsigned __int64> >::remove
PUBLIC	?remove@?$map_kernel_1@_KPAVconnection@dlib@@V?$binary_search_tree_kernel_2@_KPAVconnection@dlib@@V?$memory_manager_kernel_2@D$09@2@U?$less@_K@std@@@2@V?$memory_manager_kernel_2@D$09@2@@dlib@@QAEXAB_KAA_KAAPAVconnection@2@@Z ; dlib::map_kernel_1<unsigned __int64,dlib::connection *,dlib::binary_search_tree_kernel_2<unsigned __int64,dlib::connection *,dlib::memory_manager_kernel_2<char,10>,std::less<unsigned __int64> >,dlib::memory_manager_kernel_2<char,10> >::remove
PUBLIC	??$?6$$BY0DG@$$CBD@logger_stream@logger@dlib@@QAEAAV012@AAY0DG@$$CBD@Z ; dlib::logger::logger_stream::operator<<<char const [54]>
PUBLIC	?on_connect@server_iostream@dlib@@EAEXAAVconnection@2@@Z ; dlib::server_iostream::on_connect
PUBLIC	??_Gserver_iostream@dlib@@UAEPAXI@Z		; dlib::server_iostream::`scalar deleting destructor'
PUBLIC	??1server_iostream@dlib@@UAE@XZ			; dlib::server_iostream::~server_iostream
PUBLIC	??1server_http@dlib@@UAE@XZ			; dlib::server_http::~server_http
PUBLIC	??1web_server@http@@UAE@XZ			; http::web_server::~web_server
PUBLIC	??_C@_0DG@HIPAKEJE@We?5ran?5out?5of?5memory?5in?5server_i@ ; `string'
PUBLIC	??_C@_0CA@JCGNFICF@Error?5processing?5request?5from?3?5?$AA@ ; `string'
PUBLIC	??_C@_03NLJIHOMM@?5?9?5?$AA@			; `string'
PUBLIC	??_C@_03HAPOJHBM@GET?$AA@			; `string'
PUBLIC	??_C@_04HCJEIHPL@POST?$AA@			; `string'
PUBLIC	??_C@_0EE@IMCIJADB@?$DMhead?$DO?$DMmeta?5http?9equiv?$DN?$CCrefresh?$CC@ ; `string'
PUBLIC	??_7server_http@dlib@@6B@			; dlib::server_http::`vftable'
PUBLIC	??_7server_iostream@dlib@@6B@			; dlib::server_iostream::`vftable'
PUBLIC	??_7?$binary_search_tree_kernel_2@_KPAVconnection@dlib@@V?$memory_manager_kernel_2@D$09@2@U?$less@_K@std@@@dlib@@6B?$enumerable@V?$map_pair@_KPAVconnection@dlib@@@dlib@@@1@@ ; dlib::binary_search_tree_kernel_2<unsigned __int64,dlib::connection *,dlib::memory_manager_kernel_2<char,10>,std::less<unsigned __int64> >::`vftable'
PUBLIC	??_7?$binary_search_tree_kernel_2@_KPAVconnection@dlib@@V?$memory_manager_kernel_2@D$09@2@U?$less@_K@std@@@dlib@@6B?$asc_pair_remover@_KPAVconnection@dlib@@U?$less@_K@std@@@1@@ ; dlib::binary_search_tree_kernel_2<unsigned __int64,dlib::connection *,dlib::memory_manager_kernel_2<char,10>,std::less<unsigned __int64> >::`vftable'
PUBLIC	??_7?$map_kernel_1@_KPAVconnection@dlib@@V?$binary_search_tree_kernel_2@_KPAVconnection@dlib@@V?$memory_manager_kernel_2@D$09@2@U?$less@_K@std@@@2@V?$memory_manager_kernel_2@D$09@2@@dlib@@6B?$enumerable@V?$map_pair@_KPAVconnection@dlib@@@dlib@@@1@@ ; dlib::map_kernel_1<unsigned __int64,dlib::connection *,dlib::binary_search_tree_kernel_2<unsigned __int64,dlib::connection *,dlib::memory_manager_kernel_2<char,10>,std::less<unsigned __int64> >,dlib::memory_manager_kernel_2<char,10> >::`vftable'
PUBLIC	??_7?$map_kernel_1@_KPAVconnection@dlib@@V?$binary_search_tree_kernel_2@_KPAVconnection@dlib@@V?$memory_manager_kernel_2@D$09@2@U?$less@_K@std@@@2@V?$memory_manager_kernel_2@D$09@2@@dlib@@6B?$asc_pair_remover@_KPAVconnection@dlib@@U?$less@_K@std@@@1@@ ; dlib::map_kernel_1<unsigned __int64,dlib::connection *,dlib::binary_search_tree_kernel_2<unsigned __int64,dlib::connection *,dlib::memory_manager_kernel_2<char,10>,std::less<unsigned __int64> >,dlib::memory_manager_kernel_2<char,10> >::`vftable'
PUBLIC	??_7?$map_pair@_KPAVconnection@dlib@@@dlib@@6B@	; dlib::map_pair<unsigned __int64,dlib::connection *>::`vftable'
PUBLIC	??_7?$enumerable@V?$map_pair@_KPAVconnection@dlib@@@dlib@@@dlib@@6B@ ; dlib::enumerable<dlib::map_pair<unsigned __int64,dlib::connection *> >::`vftable'
PUBLIC	??_7?$asc_pair_remover@_KPAVconnection@dlib@@U?$less@_K@std@@@dlib@@6B@ ; dlib::asc_pair_remover<unsigned __int64,dlib::connection *,std::less<unsigned __int64> >::`vftable'
PUBLIC	??_7?$pair_remover@_KPAVconnection@dlib@@@dlib@@6B@ ; dlib::pair_remover<unsigned __int64,dlib::connection *>::`vftable'
PUBLIC	??_7mpair@?$binary_search_tree_kernel_2@_KPAVconnection@dlib@@V?$memory_manager_kernel_2@D$09@2@U?$less@_K@std@@@dlib@@6B@ ; dlib::binary_search_tree_kernel_2<unsigned __int64,dlib::connection *,dlib::memory_manager_kernel_2<char,10>,std::less<unsigned __int64> >::mpair::`vftable'
PUBLIC	??_7?$memory_manager_kernel_2@Vnode@?$binary_search_tree_kernel_2@_KPAVconnection@dlib@@V?$memory_manager_kernel_2@D$09@2@U?$less@_K@std@@@dlib@@$09@dlib@@6B@ ; dlib::memory_manager_kernel_2<dlib::binary_search_tree_kernel_2<unsigned __int64,dlib::connection *,dlib::memory_manager_kernel_2<char,10>,std::less<unsigned __int64> >::node,10>::`vftable'
PUBLIC	??_7web_server@http@@6B@			; http::web_server::`vftable'
EXTRN	__imp_?widen@?$basic_ios@DU?$char_traits@D@std@@@std@@QBEDD@Z:PROC
EXTRN	__imp__isalpha:PROC
EXTRN	__imp__isdigit:PROC
EXTRN	__imp_?eof@ios_base@std@@QBE_NXZ:PROC
EXTRN	__imp_?get@?$basic_istream@DU?$char_traits@D@std@@@std@@QAEAAV12@AAD@Z:PROC
EXTRN	__imp_?tellg@?$basic_istream@DU?$char_traits@D@std@@@std@@QAE?AV?$fpos@H@2@XZ:PROC
EXTRN	??_E?$asc_pair_remover@_KPAVconnection@dlib@@U?$less@_K@std@@@dlib@@UAEPAXI@Z:PROC ; dlib::asc_pair_remover<unsigned __int64,dlib::connection *,std::less<unsigned __int64> >::`vector deleting destructor'
EXTRN	??_Empair@?$binary_search_tree_kernel_2@_KPAVconnection@dlib@@V?$memory_manager_kernel_2@D$09@2@U?$less@_K@std@@@dlib@@UAEPAXI@Z:PROC ; dlib::binary_search_tree_kernel_2<unsigned __int64,dlib::connection *,dlib::memory_manager_kernel_2<char,10>,std::less<unsigned __int64> >::mpair::`vector deleting destructor'
EXTRN	??_Eserver_http@dlib@@UAEPAXI@Z:PROC		; dlib::server_http::`vector deleting destructor'
EXTRN	??_Eweb_server@http@@UAEPAXI@Z:PROC		; http::web_server::`vector deleting destructor'
EXTRN	??_E?$pair_remover@_KPAVconnection@dlib@@@dlib@@UAEPAXI@Z:PROC ; dlib::pair_remover<unsigned __int64,dlib::connection *>::`vector deleting destructor'
EXTRN	??_E?$memory_manager_kernel_2@Vnode@?$binary_search_tree_kernel_2@_KPAVconnection@dlib@@V?$memory_manager_kernel_2@D$09@2@U?$less@_K@std@@@dlib@@$09@dlib@@UAEPAXI@Z:PROC ; dlib::memory_manager_kernel_2<dlib::binary_search_tree_kernel_2<unsigned __int64,dlib::connection *,dlib::memory_manager_kernel_2<char,10>,std::less<unsigned __int64> >::node,10>::`vector deleting destructor'
EXTRN	??_E?$binary_search_tree_kernel_2@_KPAVconnection@dlib@@V?$memory_manager_kernel_2@D$09@2@U?$less@_K@std@@@dlib@@UAEPAXI@Z:PROC ; dlib::binary_search_tree_kernel_2<unsigned __int64,dlib::connection *,dlib::memory_manager_kernel_2<char,10>,std::less<unsigned __int64> >::`vector deleting destructor'
EXTRN	??_E?$map_kernel_1@_KPAVconnection@dlib@@V?$binary_search_tree_kernel_2@_KPAVconnection@dlib@@V?$memory_manager_kernel_2@D$09@2@U?$less@_K@std@@@2@V?$memory_manager_kernel_2@D$09@2@@dlib@@UAEPAXI@Z:PROC ; dlib::map_kernel_1<unsigned __int64,dlib::connection *,dlib::binary_search_tree_kernel_2<unsigned __int64,dlib::connection *,dlib::memory_manager_kernel_2<char,10>,std::less<unsigned __int64> >,dlib::memory_manager_kernel_2<char,10> >::`vector deleting destructor'
EXTRN	__imp_?tie@?$basic_ios@DU?$char_traits@D@std@@@std@@QAEPAV?$basic_ostream@DU?$char_traits@D@std@@@2@PAV32@@Z:PROC
EXTRN	??_Eserver_iostream@dlib@@UAEPAXI@Z:PROC	; dlib::server_iostream::`vector deleting destructor'
;	COMDAT ??_7web_server@http@@6B@
CONST	SEGMENT
??_7web_server@http@@6B@ DD FLAT:??_R4web_server@http@@6B@ ; http::web_server::`vftable'
	DD	FLAT:??_Eweb_server@http@@UAEPAXI@Z
	DD	FLAT:?on_connect@server_iostream@dlib@@EAEXAAVconnection@2@@Z
	DD	FLAT:?on_listening_port_assigned@server@dlib@@EAEXXZ
	DD	FLAT:?on_connect@server_http@dlib@@EAEXAAV?$basic_istream@DU?$char_traits@D@std@@@std@@AAV?$basic_ostream@DU?$char_traits@D@std@@@4@ABV?$basic_string@DU?$char_traits@D@std@@V?$allocator@D@2@@4@2GG_K@Z
	DD	FLAT:?on_request@web_server@http@@EAE?BV?$basic_string@DU?$char_traits@D@std@@V?$allocator@D@2@@std@@ABUincoming_things@dlib@@AAUoutgoing_things@6@@Z
CONST	ENDS
;	COMDAT ??_R4web_server@http@@6B@
rdata$r	SEGMENT
??_R4web_server@http@@6B@ DD 00H			; http::web_server::`RTTI Complete Object Locator'
	DD	00H
	DD	00H
	DD	FLAT:??_R0?AVweb_server@http@@@8
	DD	FLAT:??_R3web_server@http@@8
rdata$r	ENDS
;	COMDAT ??_R3web_server@http@@8
rdata$r	SEGMENT
??_R3web_server@http@@8 DD 00H				; http::web_server::`RTTI Class Hierarchy Descriptor'
	DD	00H
	DD	04H
	DD	FLAT:??_R2web_server@http@@8
rdata$r	ENDS
;	COMDAT ??_R2web_server@http@@8
rdata$r	SEGMENT
??_R2web_server@http@@8 DD FLAT:??_R1A@?0A@EA@web_server@http@@8 ; http::web_server::`RTTI Base Class Array'
	DD	FLAT:??_R1A@?0A@EA@server_http@dlib@@8
	DD	FLAT:??_R1A@?0A@EA@server_iostream@dlib@@8
	DD	FLAT:??_R1A@?0A@EA@server@dlib@@8
rdata$r	ENDS
;	COMDAT ??_R1A@?0A@EA@web_server@http@@8
rdata$r	SEGMENT
??_R1A@?0A@EA@web_server@http@@8 DD FLAT:??_R0?AVweb_server@http@@@8 ; http::web_server::`RTTI Base Class Descriptor at (0,-1,0,64)'
	DD	03H
	DD	00H
	DD	0ffffffffH
	DD	00H
	DD	040H
	DD	FLAT:??_R3web_server@http@@8
rdata$r	ENDS
;	COMDAT ??_R0?AVweb_server@http@@@8
_DATA	SEGMENT
??_R0?AVweb_server@http@@@8 DD FLAT:??_7type_info@@6B@	; http::web_server `RTTI Type Descriptor'
	DD	00H
	DB	'.?AVweb_server@http@@', 00H
_DATA	ENDS
;	COMDAT ??_7?$memory_manager_kernel_2@Vnode@?$binary_search_tree_kernel_2@_KPAVconnection@dlib@@V?$memory_manager_kernel_2@D$09@2@U?$less@_K@std@@@dlib@@$09@dlib@@6B@
CONST	SEGMENT
??_7?$memory_manager_kernel_2@Vnode@?$binary_search_tree_kernel_2@_KPAVconnection@dlib@@V?$memory_manager_kernel_2@D$09@2@U?$less@_K@std@@@dlib@@$09@dlib@@6B@ DD FLAT:??_R4?$memory_manager_kernel_2@Vnode@?$binary_search_tree_kernel_2@_KPAVconnection@dlib@@V?$memory_manager_kernel_2@D$09@2@U?$less@_K@std@@@dlib@@$09@dlib@@6B@ ; dlib::memory_manager_kernel_2<dlib::binary_search_tree_kernel_2<unsigned __int64,dlib::connection *,dlib::memory_manager_kernel_2<char,10>,std::less<unsigned __int64> >::node,10>::`vftable'
	DD	FLAT:??_E?$memory_manager_kernel_2@Vnode@?$binary_search_tree_kernel_2@_KPAVconnection@dlib@@V?$memory_manager_kernel_2@D$09@2@U?$less@_K@std@@@dlib@@$09@dlib@@UAEPAXI@Z
CONST	ENDS
;	COMDAT ??_R4?$memory_manager_kernel_2@Vnode@?$binary_search_tree_kernel_2@_KPAVconnection@dlib@@V?$memory_manager_kernel_2@D$09@2@U?$less@_K@std@@@dlib@@$09@dlib@@6B@
rdata$r	SEGMENT
??_R4?$memory_manager_kernel_2@Vnode@?$binary_search_tree_kernel_2@_KPAVconnection@dlib@@V?$memory_manager_kernel_2@D$09@2@U?$less@_K@std@@@dlib@@$09@dlib@@6B@ DD 00H ; dlib::memory_manager_kernel_2<dlib::binary_search_tree_kernel_2<unsigned __int64,dlib::connection *,dlib::memory_manager_kernel_2<char,10>,std::less<unsigned __int64> >::node,10>::`RTTI Complete Object Locator'
	DD	00H
	DD	00H
	DD	FLAT:??_R0?AV?$memory_manager_kernel_2@Vnode@?$binary_search_tree_kernel_2@_KPAVconnection@dlib@@V?$memory_manager_kernel_2@D$09@2@U?$less@_K@std@@@dlib@@$09@dlib@@@8
	DD	FLAT:??_R3?$memory_manager_kernel_2@Vnode@?$binary_search_tree_kernel_2@_KPAVconnection@dlib@@V?$memory_manager_kernel_2@D$09@2@U?$less@_K@std@@@dlib@@$09@dlib@@8
rdata$r	ENDS
;	COMDAT ??_R3?$memory_manager_kernel_2@Vnode@?$binary_search_tree_kernel_2@_KPAVconnection@dlib@@V?$memory_manager_kernel_2@D$09@2@U?$less@_K@std@@@dlib@@$09@dlib@@8
rdata$r	SEGMENT
??_R3?$memory_manager_kernel_2@Vnode@?$binary_search_tree_kernel_2@_KPAVconnection@dlib@@V?$memory_manager_kernel_2@D$09@2@U?$less@_K@std@@@dlib@@$09@dlib@@8 DD 00H ; dlib::memory_manager_kernel_2<dlib::binary_search_tree_kernel_2<unsigned __int64,dlib::connection *,dlib::memory_manager_kernel_2<char,10>,std::less<unsigned __int64> >::node,10>::`RTTI Class Hierarchy Descriptor'
	DD	00H
	DD	01H
	DD	FLAT:??_R2?$memory_manager_kernel_2@Vnode@?$binary_search_tree_kernel_2@_KPAVconnection@dlib@@V?$memory_manager_kernel_2@D$09@2@U?$less@_K@std@@@dlib@@$09@dlib@@8
rdata$r	ENDS
;	COMDAT ??_R2?$memory_manager_kernel_2@Vnode@?$binary_search_tree_kernel_2@_KPAVconnection@dlib@@V?$memory_manager_kernel_2@D$09@2@U?$less@_K@std@@@dlib@@$09@dlib@@8
rdata$r	SEGMENT
??_R2?$memory_manager_kernel_2@Vnode@?$binary_search_tree_kernel_2@_KPAVconnection@dlib@@V?$memory_manager_kernel_2@D$09@2@U?$less@_K@std@@@dlib@@$09@dlib@@8 DD FLAT:??_R1A@?0A@EA@?$memory_manager_kernel_2@Vnode@?$binary_search_tree_kernel_2@_KPAVconnection@dlib@@V?$memory_manager_kernel_2@D$09@2@U?$less@_K@std@@@dlib@@$09@dlib@@8 ; dlib::memory_manager_kernel_2<dlib::binary_search_tree_kernel_2<unsigned __int64,dlib::connection *,dlib::memory_manager_kernel_2<char,10>,std::less<unsigned __int64> >::node,10>::`RTTI Base Class Array'
rdata$r	ENDS
;	COMDAT ??_R1A@?0A@EA@?$memory_manager_kernel_2@Vnode@?$binary_search_tree_kernel_2@_KPAVconnection@dlib@@V?$memory_manager_kernel_2@D$09@2@U?$less@_K@std@@@dlib@@$09@dlib@@8
rdata$r	SEGMENT
??_R1A@?0A@EA@?$memory_manager_kernel_2@Vnode@?$binary_search_tree_kernel_2@_KPAVconnection@dlib@@V?$memory_manager_kernel_2@D$09@2@U?$less@_K@std@@@dlib@@$09@dlib@@8 DD FLAT:??_R0?AV?$memory_manager_kernel_2@Vnode@?$binary_search_tree_kernel_2@_KPAVconnection@dlib@@V?$memory_manager_kernel_2@D$09@2@U?$less@_K@std@@@dlib@@$09@dlib@@@8 ; dlib::memory_manager_kernel_2<dlib::binary_search_tree_kernel_2<unsigned __int64,dlib::connection *,dlib::memory_manager_kernel_2<char,10>,std::less<unsigned __int64> >::node,10>::`RTTI Base Class Descriptor at (0,-1,0,64)'
	DD	00H
	DD	00H
	DD	0ffffffffH
	DD	00H
	DD	040H
	DD	FLAT:??_R3?$memory_manager_kernel_2@Vnode@?$binary_search_tree_kernel_2@_KPAVconnection@dlib@@V?$memory_manager_kernel_2@D$09@2@U?$less@_K@std@@@dlib@@$09@dlib@@8
rdata$r	ENDS
;	COMDAT ??_R0?AV?$memory_manager_kernel_2@Vnode@?$binary_search_tree_kernel_2@_KPAVconnection@dlib@@V?$memory_manager_kernel_2@D$09@2@U?$less@_K@std@@@dlib@@$09@dlib@@@8
_DATA	SEGMENT
??_R0?AV?$memory_manager_kernel_2@Vnode@?$binary_search_tree_kernel_2@_KPAVconnection@dlib@@V?$memory_manager_kernel_2@D$09@2@U?$less@_K@std@@@dlib@@$09@dlib@@@8 DD FLAT:??_7type_info@@6B@ ; dlib::memory_manager_kernel_2<dlib::binary_search_tree_kernel_2<unsigned __int64,dlib::connection *,dlib::memory_manager_kernel_2<char,10>,std::less<unsigned __int64> >::node,10> `RTTI Type Descriptor'
	DD	00H
	DB	'.?AV?$memory_manager_kernel_2@Vnode@?$binary_search_tree'
	DB	'_kernel_2@_KPAVconnection@dlib@@V?$memory_manager_kernel_2@D$'
	DB	'09@2@U?$less@_K@std@@@dlib@@$09@dlib@@', 00H
_DATA	ENDS
;	COMDAT ??_7mpair@?$binary_search_tree_kernel_2@_KPAVconnection@dlib@@V?$memory_manager_kernel_2@D$09@2@U?$less@_K@std@@@dlib@@6B@
CONST	SEGMENT
??_7mpair@?$binary_search_tree_kernel_2@_KPAVconnection@dlib@@V?$memory_manager_kernel_2@D$09@2@U?$less@_K@std@@@dlib@@6B@ DD FLAT:??_R4mpair@?$binary_search_tree_kernel_2@_KPAVconnection@dlib@@V?$memory_manager_kernel_2@D$09@2@U?$less@_K@std@@@dlib@@6B@ ; dlib::binary_search_tree_kernel_2<unsigned __int64,dlib::connection *,dlib::memory_manager_kernel_2<char,10>,std::less<unsigned __int64> >::mpair::`vftable'
	DD	FLAT:??_Empair@?$binary_search_tree_kernel_2@_KPAVconnection@dlib@@V?$memory_manager_kernel_2@D$09@2@U?$less@_K@std@@@dlib@@UAEPAXI@Z
	DD	FLAT:?key@mpair@?$binary_search_tree_kernel_2@_KPAVconnection@dlib@@V?$memory_manager_kernel_2@D$09@2@U?$less@_K@std@@@dlib@@UBEAB_KXZ
	DD	FLAT:?value@mpair@?$binary_search_tree_kernel_2@_KPAVconnection@dlib@@V?$memory_manager_kernel_2@D$09@2@U?$less@_K@std@@@dlib@@UAEAAPAVconnection@3@XZ
	DD	FLAT:?value@mpair@?$binary_search_tree_kernel_2@_KPAVconnection@dlib@@V?$memory_manager_kernel_2@D$09@2@U?$less@_K@std@@@dlib@@UBEABQAVconnection@3@XZ
CONST	ENDS
;	COMDAT ??_R4mpair@?$binary_search_tree_kernel_2@_KPAVconnection@dlib@@V?$memory_manager_kernel_2@D$09@2@U?$less@_K@std@@@dlib@@6B@
rdata$r	SEGMENT
??_R4mpair@?$binary_search_tree_kernel_2@_KPAVconnection@dlib@@V?$memory_manager_kernel_2@D$09@2@U?$less@_K@std@@@dlib@@6B@ DD 00H ; dlib::binary_search_tree_kernel_2<unsigned __int64,dlib::connection *,dlib::memory_manager_kernel_2<char,10>,std::less<unsigned __int64> >::mpair::`RTTI Complete Object Locator'
	DD	00H
	DD	00H
	DD	FLAT:??_R0?AVmpair@?$binary_search_tree_kernel_2@_KPAVconnection@dlib@@V?$memory_manager_kernel_2@D$09@2@U?$less@_K@std@@@dlib@@@8
	DD	FLAT:??_R3mpair@?$binary_search_tree_kernel_2@_KPAVconnection@dlib@@V?$memory_manager_kernel_2@D$09@2@U?$less@_K@std@@@dlib@@8
rdata$r	ENDS
;	COMDAT ??_R3mpair@?$binary_search_tree_kernel_2@_KPAVconnection@dlib@@V?$memory_manager_kernel_2@D$09@2@U?$less@_K@std@@@dlib@@8
rdata$r	SEGMENT
??_R3mpair@?$binary_search_tree_kernel_2@_KPAVconnection@dlib@@V?$memory_manager_kernel_2@D$09@2@U?$less@_K@std@@@dlib@@8 DD 00H ; dlib::binary_search_tree_kernel_2<unsigned __int64,dlib::connection *,dlib::memory_manager_kernel_2<char,10>,std::less<unsigned __int64> >::mpair::`RTTI Class Hierarchy Descriptor'
	DD	00H
	DD	02H
	DD	FLAT:??_R2mpair@?$binary_search_tree_kernel_2@_KPAVconnection@dlib@@V?$memory_manager_kernel_2@D$09@2@U?$less@_K@std@@@dlib@@8
rdata$r	ENDS
;	COMDAT ??_R2mpair@?$binary_search_tree_kernel_2@_KPAVconnection@dlib@@V?$memory_manager_kernel_2@D$09@2@U?$less@_K@std@@@dlib@@8
rdata$r	SEGMENT
??_R2mpair@?$binary_search_tree_kernel_2@_KPAVconnection@dlib@@V?$memory_manager_kernel_2@D$09@2@U?$less@_K@std@@@dlib@@8 DD FLAT:??_R1A@?0A@EA@mpair@?$binary_search_tree_kernel_2@_KPAVconnection@dlib@@V?$memory_manager_kernel_2@D$09@2@U?$less@_K@std@@@dlib@@8 ; dlib::binary_search_tree_kernel_2<unsigned __int64,dlib::connection *,dlib::memory_manager_kernel_2<char,10>,std::less<unsigned __int64> >::mpair::`RTTI Base Class Array'
	DD	FLAT:??_R1A@?0A@EA@?$map_pair@_KPAVconnection@dlib@@@dlib@@8
rdata$r	ENDS
;	COMDAT ??_R1A@?0A@EA@mpair@?$binary_search_tree_kernel_2@_KPAVconnection@dlib@@V?$memory_manager_kernel_2@D$09@2@U?$less@_K@std@@@dlib@@8
rdata$r	SEGMENT
??_R1A@?0A@EA@mpair@?$binary_search_tree_kernel_2@_KPAVconnection@dlib@@V?$memory_manager_kernel_2@D$09@2@U?$less@_K@std@@@dlib@@8 DD FLAT:??_R0?AVmpair@?$binary_search_tree_kernel_2@_KPAVconnection@dlib@@V?$memory_manager_kernel_2@D$09@2@U?$less@_K@std@@@dlib@@@8 ; dlib::binary_search_tree_kernel_2<unsigned __int64,dlib::connection *,dlib::memory_manager_kernel_2<char,10>,std::less<unsigned __int64> >::mpair::`RTTI Base Class Descriptor at (0,-1,0,64)'
	DD	01H
	DD	00H
	DD	0ffffffffH
	DD	00H
	DD	040H
	DD	FLAT:??_R3mpair@?$binary_search_tree_kernel_2@_KPAVconnection@dlib@@V?$memory_manager_kernel_2@D$09@2@U?$less@_K@std@@@dlib@@8
rdata$r	ENDS
;	COMDAT ??_R0?AVmpair@?$binary_search_tree_kernel_2@_KPAVconnection@dlib@@V?$memory_manager_kernel_2@D$09@2@U?$less@_K@std@@@dlib@@@8
_DATA	SEGMENT
??_R0?AVmpair@?$binary_search_tree_kernel_2@_KPAVconnection@dlib@@V?$memory_manager_kernel_2@D$09@2@U?$less@_K@std@@@dlib@@@8 DD FLAT:??_7type_info@@6B@ ; dlib::binary_search_tree_kernel_2<unsigned __int64,dlib::connection *,dlib::memory_manager_kernel_2<char,10>,std::less<unsigned __int64> >::mpair `RTTI Type Descriptor'
	DD	00H
	DB	'.?AVmpair@?$binary_search_tree_kernel_2@_KPAVconnection@'
	DB	'dlib@@V?$memory_manager_kernel_2@D$09@2@U?$less@_K@std@@@dlib'
	DB	'@@', 00H
_DATA	ENDS
;	COMDAT ??_7?$pair_remover@_KPAVconnection@dlib@@@dlib@@6B@
CONST	SEGMENT
??_7?$pair_remover@_KPAVconnection@dlib@@@dlib@@6B@ DD FLAT:??_R4?$pair_remover@_KPAVconnection@dlib@@@dlib@@6B@ ; dlib::pair_remover<unsigned __int64,dlib::connection *>::`vftable'
	DD	FLAT:??_E?$pair_remover@_KPAVconnection@dlib@@@dlib@@UAEPAXI@Z
	DD	FLAT:__purecall
	DD	FLAT:__purecall
CONST	ENDS
;	COMDAT ??_R4?$pair_remover@_KPAVconnection@dlib@@@dlib@@6B@
rdata$r	SEGMENT
??_R4?$pair_remover@_KPAVconnection@dlib@@@dlib@@6B@ DD 00H ; dlib::pair_remover<unsigned __int64,dlib::connection *>::`RTTI Complete Object Locator'
	DD	00H
	DD	00H
	DD	FLAT:??_R0?AV?$pair_remover@_KPAVconnection@dlib@@@dlib@@@8
	DD	FLAT:??_R3?$pair_remover@_KPAVconnection@dlib@@@dlib@@8
rdata$r	ENDS
;	COMDAT ??_7?$asc_pair_remover@_KPAVconnection@dlib@@U?$less@_K@std@@@dlib@@6B@
CONST	SEGMENT
??_7?$asc_pair_remover@_KPAVconnection@dlib@@U?$less@_K@std@@@dlib@@6B@ DD FLAT:??_R4?$asc_pair_remover@_KPAVconnection@dlib@@U?$less@_K@std@@@dlib@@6B@ ; dlib::asc_pair_remover<unsigned __int64,dlib::connection *,std::less<unsigned __int64> >::`vftable'
	DD	FLAT:??_E?$asc_pair_remover@_KPAVconnection@dlib@@U?$less@_K@std@@@dlib@@UAEPAXI@Z
	DD	FLAT:__purecall
	DD	FLAT:__purecall
CONST	ENDS
;	COMDAT ??_R4?$asc_pair_remover@_KPAVconnection@dlib@@U?$less@_K@std@@@dlib@@6B@
rdata$r	SEGMENT
??_R4?$asc_pair_remover@_KPAVconnection@dlib@@U?$less@_K@std@@@dlib@@6B@ DD 00H ; dlib::asc_pair_remover<unsigned __int64,dlib::connection *,std::less<unsigned __int64> >::`RTTI Complete Object Locator'
	DD	00H
	DD	00H
	DD	FLAT:??_R0?AV?$asc_pair_remover@_KPAVconnection@dlib@@U?$less@_K@std@@@dlib@@@8
	DD	FLAT:??_R3?$asc_pair_remover@_KPAVconnection@dlib@@U?$less@_K@std@@@dlib@@8
rdata$r	ENDS
;	COMDAT ??_7?$enumerable@V?$map_pair@_KPAVconnection@dlib@@@dlib@@@dlib@@6B@
CONST	SEGMENT
??_7?$enumerable@V?$map_pair@_KPAVconnection@dlib@@@dlib@@@dlib@@6B@ DD FLAT:??_R4?$enumerable@V?$map_pair@_KPAVconnection@dlib@@@dlib@@@dlib@@6B@ ; dlib::enumerable<dlib::map_pair<unsigned __int64,dlib::connection *> >::`vftable'
	DD	FLAT:__purecall
	DD	FLAT:__purecall
	DD	FLAT:__purecall
	DD	FLAT:__purecall
	DD	FLAT:__purecall
	DD	FLAT:__purecall
	DD	FLAT:__purecall
	DD	FLAT:__purecall
CONST	ENDS
;	COMDAT ??_R4?$enumerable@V?$map_pair@_KPAVconnection@dlib@@@dlib@@@dlib@@6B@
rdata$r	SEGMENT
??_R4?$enumerable@V?$map_pair@_KPAVconnection@dlib@@@dlib@@@dlib@@6B@ DD 00H ; dlib::enumerable<dlib::map_pair<unsigned __int64,dlib::connection *> >::`RTTI Complete Object Locator'
	DD	00H
	DD	00H
	DD	FLAT:??_R0?AV?$enumerable@V?$map_pair@_KPAVconnection@dlib@@@dlib@@@dlib@@@8
	DD	FLAT:??_R3?$enumerable@V?$map_pair@_KPAVconnection@dlib@@@dlib@@@dlib@@8
rdata$r	ENDS
;	COMDAT ??_7?$map_pair@_KPAVconnection@dlib@@@dlib@@6B@
CONST	SEGMENT
??_7?$map_pair@_KPAVconnection@dlib@@@dlib@@6B@ DD FLAT:??_R4?$map_pair@_KPAVconnection@dlib@@@dlib@@6B@ ; dlib::map_pair<unsigned __int64,dlib::connection *>::`vftable'
	DD	FLAT:__purecall
	DD	FLAT:__purecall
	DD	FLAT:__purecall
	DD	FLAT:__purecall
CONST	ENDS
;	COMDAT ??_R4?$map_pair@_KPAVconnection@dlib@@@dlib@@6B@
rdata$r	SEGMENT
??_R4?$map_pair@_KPAVconnection@dlib@@@dlib@@6B@ DD 00H	; dlib::map_pair<unsigned __int64,dlib::connection *>::`RTTI Complete Object Locator'
	DD	00H
	DD	00H
	DD	FLAT:??_R0?AV?$map_pair@_KPAVconnection@dlib@@@dlib@@@8
	DD	FLAT:??_R3?$map_pair@_KPAVconnection@dlib@@@dlib@@8
rdata$r	ENDS
;	COMDAT ??_R3?$map_pair@_KPAVconnection@dlib@@@dlib@@8
rdata$r	SEGMENT
??_R3?$map_pair@_KPAVconnection@dlib@@@dlib@@8 DD 00H	; dlib::map_pair<unsigned __int64,dlib::connection *>::`RTTI Class Hierarchy Descriptor'
	DD	00H
	DD	01H
	DD	FLAT:??_R2?$map_pair@_KPAVconnection@dlib@@@dlib@@8
rdata$r	ENDS
;	COMDAT ??_R2?$map_pair@_KPAVconnection@dlib@@@dlib@@8
rdata$r	SEGMENT
??_R2?$map_pair@_KPAVconnection@dlib@@@dlib@@8 DD FLAT:??_R1A@?0A@EA@?$map_pair@_KPAVconnection@dlib@@@dlib@@8 ; dlib::map_pair<unsigned __int64,dlib::connection *>::`RTTI Base Class Array'
rdata$r	ENDS
;	COMDAT ??_R1A@?0A@EA@?$map_pair@_KPAVconnection@dlib@@@dlib@@8
rdata$r	SEGMENT
??_R1A@?0A@EA@?$map_pair@_KPAVconnection@dlib@@@dlib@@8 DD FLAT:??_R0?AV?$map_pair@_KPAVconnection@dlib@@@dlib@@@8 ; dlib::map_pair<unsigned __int64,dlib::connection *>::`RTTI Base Class Descriptor at (0,-1,0,64)'
	DD	00H
	DD	00H
	DD	0ffffffffH
	DD	00H
	DD	040H
	DD	FLAT:??_R3?$map_pair@_KPAVconnection@dlib@@@dlib@@8
rdata$r	ENDS
;	COMDAT ??_R0?AV?$map_pair@_KPAVconnection@dlib@@@dlib@@@8
_DATA	SEGMENT
??_R0?AV?$map_pair@_KPAVconnection@dlib@@@dlib@@@8 DD FLAT:??_7type_info@@6B@ ; dlib::map_pair<unsigned __int64,dlib::connection *> `RTTI Type Descriptor'
	DD	00H
	DB	'.?AV?$map_pair@_KPAVconnection@dlib@@@dlib@@', 00H
_DATA	ENDS
;	COMDAT ??_7?$map_kernel_1@_KPAVconnection@dlib@@V?$binary_search_tree_kernel_2@_KPAVconnection@dlib@@V?$memory_manager_kernel_2@D$09@2@U?$less@_K@std@@@2@V?$memory_manager_kernel_2@D$09@2@@dlib@@6B?$asc_pair_remover@_KPAVconnection@dlib@@U?$less@_K@std@@@1@@
CONST	SEGMENT
??_7?$map_kernel_1@_KPAVconnection@dlib@@V?$binary_search_tree_kernel_2@_KPAVconnection@dlib@@V?$memory_manager_kernel_2@D$09@2@U?$less@_K@std@@@2@V?$memory_manager_kernel_2@D$09@2@@dlib@@6B?$asc_pair_remover@_KPAVconnection@dlib@@U?$less@_K@std@@@1@@ DD FLAT:??_R4?$map_kernel_1@_KPAVconnection@dlib@@V?$binary_search_tree_kernel_2@_KPAVconnection@dlib@@V?$memory_manager_kernel_2@D$09@2@U?$less@_K@std@@@2@V?$memory_manager_kernel_2@D$09@2@@dlib@@6B?$asc_pair_remover@_KPAVconnection@dlib@@U?$less@_K@std@@@1@@ ; dlib::map_kernel_1<unsigned __int64,dlib::connection *,dlib::binary_search_tree_kernel_2<unsigned __int64,dlib::connection *,dlib::memory_manager_kernel_2<char,10>,std::less<unsigned __int64> >,dlib::memory_manager_kernel_2<char,10> >::`vftable'
	DD	FLAT:??_E?$map_kernel_1@_KPAVconnection@dlib@@V?$binary_search_tree_kernel_2@_KPAVconnection@dlib@@V?$memory_manager_kernel_2@D$09@2@U?$less@_K@std@@@2@V?$memory_manager_kernel_2@D$09@2@@dlib@@W3AEPAXI@Z
	DD	FLAT:?remove_any@?$map_kernel_1@_KPAVconnection@dlib@@V?$binary_search_tree_kernel_2@_KPAVconnection@dlib@@V?$memory_manager_kernel_2@D$09@2@U?$less@_K@std@@@2@V?$memory_manager_kernel_2@D$09@2@@dlib@@UAEXAA_KAAPAVconnection@2@@Z
	DD	FLAT:?size@?$map_kernel_1@_KPAVconnection@dlib@@V?$binary_search_tree_kernel_2@_KPAVconnection@dlib@@V?$memory_manager_kernel_2@D$09@2@U?$less@_K@std@@@2@V?$memory_manager_kernel_2@D$09@2@@dlib@@W3BEKXZ
CONST	ENDS
;	COMDAT ??_R4?$map_kernel_1@_KPAVconnection@dlib@@V?$binary_search_tree_kernel_2@_KPAVconnection@dlib@@V?$memory_manager_kernel_2@D$09@2@U?$less@_K@std@@@2@V?$memory_manager_kernel_2@D$09@2@@dlib@@6B?$asc_pair_remover@_KPAVconnection@dlib@@U?$less@_K@std@@@1@@
rdata$r	SEGMENT
??_R4?$map_kernel_1@_KPAVconnection@dlib@@V?$binary_search_tree_kernel_2@_KPAVconnection@dlib@@V?$memory_manager_kernel_2@D$09@2@U?$less@_K@std@@@2@V?$memory_manager_kernel_2@D$09@2@@dlib@@6B?$asc_pair_remover@_KPAVconnection@dlib@@U?$less@_K@std@@@1@@ DD 00H ; dlib::map_kernel_1<unsigned __int64,dlib::connection *,dlib::binary_search_tree_kernel_2<unsigned __int64,dlib::connection *,dlib::memory_manager_kernel_2<char,10>,std::less<unsigned __int64> >,dlib::memory_manager_kernel_2<char,10> >::`RTTI Complete Object Locator'
	DD	04H
	DD	00H
	DD	FLAT:??_R0?AV?$map_kernel_1@_KPAVconnection@dlib@@V?$binary_search_tree_kernel_2@_KPAVconnection@dlib@@V?$memory_manager_kernel_2@D$09@2@U?$less@_K@std@@@2@V?$memory_manager_kernel_2@D$09@2@@dlib@@@8
	DD	FLAT:??_R3?$map_kernel_1@_KPAVconnection@dlib@@V?$binary_search_tree_kernel_2@_KPAVconnection@dlib@@V?$memory_manager_kernel_2@D$09@2@U?$less@_K@std@@@2@V?$memory_manager_kernel_2@D$09@2@@dlib@@8
rdata$r	ENDS
;	COMDAT ??_7?$map_kernel_1@_KPAVconnection@dlib@@V?$binary_search_tree_kernel_2@_KPAVconnection@dlib@@V?$memory_manager_kernel_2@D$09@2@U?$less@_K@std@@@2@V?$memory_manager_kernel_2@D$09@2@@dlib@@6B?$enumerable@V?$map_pair@_KPAVconnection@dlib@@@dlib@@@1@@
CONST	SEGMENT
??_7?$map_kernel_1@_KPAVconnection@dlib@@V?$binary_search_tree_kernel_2@_KPAVconnection@dlib@@V?$memory_manager_kernel_2@D$09@2@U?$less@_K@std@@@2@V?$memory_manager_kernel_2@D$09@2@@dlib@@6B?$enumerable@V?$map_pair@_KPAVconnection@dlib@@@dlib@@@1@@ DD FLAT:??_R4?$map_kernel_1@_KPAVconnection@dlib@@V?$binary_search_tree_kernel_2@_KPAVconnection@dlib@@V?$memory_manager_kernel_2@D$09@2@U?$less@_K@std@@@2@V?$memory_manager_kernel_2@D$09@2@@dlib@@6B?$enumerable@V?$map_pair@_KPAVconnection@dlib@@@dlib@@@1@@ ; dlib::map_kernel_1<unsigned __int64,dlib::connection *,dlib::binary_search_tree_kernel_2<unsigned __int64,dlib::connection *,dlib::memory_manager_kernel_2<char,10>,std::less<unsigned __int64> >,dlib::memory_manager_kernel_2<char,10> >::`vftable'
	DD	FLAT:??_E?$map_kernel_1@_KPAVconnection@dlib@@V?$binary_search_tree_kernel_2@_KPAVconnection@dlib@@V?$memory_manager_kernel_2@D$09@2@U?$less@_K@std@@@2@V?$memory_manager_kernel_2@D$09@2@@dlib@@UAEPAXI@Z
	DD	FLAT:?at_start@?$map_kernel_1@_KPAVconnection@dlib@@V?$binary_search_tree_kernel_2@_KPAVconnection@dlib@@V?$memory_manager_kernel_2@D$09@2@U?$less@_K@std@@@2@V?$memory_manager_kernel_2@D$09@2@@dlib@@UBE_NXZ
	DD	FLAT:?reset@?$map_kernel_1@_KPAVconnection@dlib@@V?$binary_search_tree_kernel_2@_KPAVconnection@dlib@@V?$memory_manager_kernel_2@D$09@2@U?$less@_K@std@@@2@V?$memory_manager_kernel_2@D$09@2@@dlib@@UBEXXZ
	DD	FLAT:?current_element_valid@?$map_kernel_1@_KPAVconnection@dlib@@V?$binary_search_tree_kernel_2@_KPAVconnection@dlib@@V?$memory_manager_kernel_2@D$09@2@U?$less@_K@std@@@2@V?$memory_manager_kernel_2@D$09@2@@dlib@@UBE_NXZ
	DD	FLAT:?element@?$map_kernel_1@_KPAVconnection@dlib@@V?$binary_search_tree_kernel_2@_KPAVconnection@dlib@@V?$memory_manager_kernel_2@D$09@2@U?$less@_K@std@@@2@V?$memory_manager_kernel_2@D$09@2@@dlib@@UAEAAV?$map_pair@_KPAVconnection@dlib@@@2@XZ
	DD	FLAT:?element@?$map_kernel_1@_KPAVconnection@dlib@@V?$binary_search_tree_kernel_2@_KPAVconnection@dlib@@V?$memory_manager_kernel_2@D$09@2@U?$less@_K@std@@@2@V?$memory_manager_kernel_2@D$09@2@@dlib@@UBEABV?$map_pair@_KPAVconnection@dlib@@@2@XZ
	DD	FLAT:?move_next@?$map_kernel_1@_KPAVconnection@dlib@@V?$binary_search_tree_kernel_2@_KPAVconnection@dlib@@V?$memory_manager_kernel_2@D$09@2@U?$less@_K@std@@@2@V?$memory_manager_kernel_2@D$09@2@@dlib@@UBE_NXZ
	DD	FLAT:?size@?$map_kernel_1@_KPAVconnection@dlib@@V?$binary_search_tree_kernel_2@_KPAVconnection@dlib@@V?$memory_manager_kernel_2@D$09@2@U?$less@_K@std@@@2@V?$memory_manager_kernel_2@D$09@2@@dlib@@UBEKXZ
CONST	ENDS
;	COMDAT ??_R4?$map_kernel_1@_KPAVconnection@dlib@@V?$binary_search_tree_kernel_2@_KPAVconnection@dlib@@V?$memory_manager_kernel_2@D$09@2@U?$less@_K@std@@@2@V?$memory_manager_kernel_2@D$09@2@@dlib@@6B?$enumerable@V?$map_pair@_KPAVconnection@dlib@@@dlib@@@1@@
rdata$r	SEGMENT
??_R4?$map_kernel_1@_KPAVconnection@dlib@@V?$binary_search_tree_kernel_2@_KPAVconnection@dlib@@V?$memory_manager_kernel_2@D$09@2@U?$less@_K@std@@@2@V?$memory_manager_kernel_2@D$09@2@@dlib@@6B?$enumerable@V?$map_pair@_KPAVconnection@dlib@@@dlib@@@1@@ DD 00H ; dlib::map_kernel_1<unsigned __int64,dlib::connection *,dlib::binary_search_tree_kernel_2<unsigned __int64,dlib::connection *,dlib::memory_manager_kernel_2<char,10>,std::less<unsigned __int64> >,dlib::memory_manager_kernel_2<char,10> >::`RTTI Complete Object Locator'
	DD	00H
	DD	00H
	DD	FLAT:??_R0?AV?$map_kernel_1@_KPAVconnection@dlib@@V?$binary_search_tree_kernel_2@_KPAVconnection@dlib@@V?$memory_manager_kernel_2@D$09@2@U?$less@_K@std@@@2@V?$memory_manager_kernel_2@D$09@2@@dlib@@@8
	DD	FLAT:??_R3?$map_kernel_1@_KPAVconnection@dlib@@V?$binary_search_tree_kernel_2@_KPAVconnection@dlib@@V?$memory_manager_kernel_2@D$09@2@U?$less@_K@std@@@2@V?$memory_manager_kernel_2@D$09@2@@dlib@@8
rdata$r	ENDS
;	COMDAT ??_R3?$map_kernel_1@_KPAVconnection@dlib@@V?$binary_search_tree_kernel_2@_KPAVconnection@dlib@@V?$memory_manager_kernel_2@D$09@2@U?$less@_K@std@@@2@V?$memory_manager_kernel_2@D$09@2@@dlib@@8
rdata$r	SEGMENT
??_R3?$map_kernel_1@_KPAVconnection@dlib@@V?$binary_search_tree_kernel_2@_KPAVconnection@dlib@@V?$memory_manager_kernel_2@D$09@2@U?$less@_K@std@@@2@V?$memory_manager_kernel_2@D$09@2@@dlib@@8 DD 00H ; dlib::map_kernel_1<unsigned __int64,dlib::connection *,dlib::binary_search_tree_kernel_2<unsigned __int64,dlib::connection *,dlib::memory_manager_kernel_2<char,10>,std::less<unsigned __int64> >,dlib::memory_manager_kernel_2<char,10> >::`RTTI Class Hierarchy Descriptor'
	DD	01H
	DD	04H
	DD	FLAT:??_R2?$map_kernel_1@_KPAVconnection@dlib@@V?$binary_search_tree_kernel_2@_KPAVconnection@dlib@@V?$memory_manager_kernel_2@D$09@2@U?$less@_K@std@@@2@V?$memory_manager_kernel_2@D$09@2@@dlib@@8
rdata$r	ENDS
;	COMDAT ??_R2?$map_kernel_1@_KPAVconnection@dlib@@V?$binary_search_tree_kernel_2@_KPAVconnection@dlib@@V?$memory_manager_kernel_2@D$09@2@U?$less@_K@std@@@2@V?$memory_manager_kernel_2@D$09@2@@dlib@@8
rdata$r	SEGMENT
??_R2?$map_kernel_1@_KPAVconnection@dlib@@V?$binary_search_tree_kernel_2@_KPAVconnection@dlib@@V?$memory_manager_kernel_2@D$09@2@U?$less@_K@std@@@2@V?$memory_manager_kernel_2@D$09@2@@dlib@@8 DD FLAT:??_R1A@?0A@EA@?$map_kernel_1@_KPAVconnection@dlib@@V?$binary_search_tree_kernel_2@_KPAVconnection@dlib@@V?$memory_manager_kernel_2@D$09@2@U?$less@_K@std@@@2@V?$memory_manager_kernel_2@D$09@2@@dlib@@8 ; dlib::map_kernel_1<unsigned __int64,dlib::connection *,dlib::binary_search_tree_kernel_2<unsigned __int64,dlib::connection *,dlib::memory_manager_kernel_2<char,10>,std::less<unsigned __int64> >,dlib::memory_manager_kernel_2<char,10> >::`RTTI Base Class Array'
	DD	FLAT:??_R1A@?0A@EA@?$enumerable@V?$map_pair@_KPAVconnection@dlib@@@dlib@@@dlib@@8
	DD	FLAT:??_R13?0A@EA@?$asc_pair_remover@_KPAVconnection@dlib@@U?$less@_K@std@@@dlib@@8
	DD	FLAT:??_R13?0A@EA@?$pair_remover@_KPAVconnection@dlib@@@dlib@@8
rdata$r	ENDS
;	COMDAT ??_R1A@?0A@EA@?$map_kernel_1@_KPAVconnection@dlib@@V?$binary_search_tree_kernel_2@_KPAVconnection@dlib@@V?$memory_manager_kernel_2@D$09@2@U?$less@_K@std@@@2@V?$memory_manager_kernel_2@D$09@2@@dlib@@8
rdata$r	SEGMENT
??_R1A@?0A@EA@?$map_kernel_1@_KPAVconnection@dlib@@V?$binary_search_tree_kernel_2@_KPAVconnection@dlib@@V?$memory_manager_kernel_2@D$09@2@U?$less@_K@std@@@2@V?$memory_manager_kernel_2@D$09@2@@dlib@@8 DD FLAT:??_R0?AV?$map_kernel_1@_KPAVconnection@dlib@@V?$binary_search_tree_kernel_2@_KPAVconnection@dlib@@V?$memory_manager_kernel_2@D$09@2@U?$less@_K@std@@@2@V?$memory_manager_kernel_2@D$09@2@@dlib@@@8 ; dlib::map_kernel_1<unsigned __int64,dlib::connection *,dlib::binary_search_tree_kernel_2<unsigned __int64,dlib::connection *,dlib::memory_manager_kernel_2<char,10>,std::less<unsigned __int64> >,dlib::memory_manager_kernel_2<char,10> >::`RTTI Base Class Descriptor at (0,-1,0,64)'
	DD	03H
	DD	00H
	DD	0ffffffffH
	DD	00H
	DD	040H
	DD	FLAT:??_R3?$map_kernel_1@_KPAVconnection@dlib@@V?$binary_search_tree_kernel_2@_KPAVconnection@dlib@@V?$memory_manager_kernel_2@D$09@2@U?$less@_K@std@@@2@V?$memory_manager_kernel_2@D$09@2@@dlib@@8
rdata$r	ENDS
;	COMDAT ??_R0?AV?$map_kernel_1@_KPAVconnection@dlib@@V?$binary_search_tree_kernel_2@_KPAVconnection@dlib@@V?$memory_manager_kernel_2@D$09@2@U?$less@_K@std@@@2@V?$memory_manager_kernel_2@D$09@2@@dlib@@@8
_DATA	SEGMENT
??_R0?AV?$map_kernel_1@_KPAVconnection@dlib@@V?$binary_search_tree_kernel_2@_KPAVconnection@dlib@@V?$memory_manager_kernel_2@D$09@2@U?$less@_K@std@@@2@V?$memory_manager_kernel_2@D$09@2@@dlib@@@8 DD FLAT:??_7type_info@@6B@ ; dlib::map_kernel_1<unsigned __int64,dlib::connection *,dlib::binary_search_tree_kernel_2<unsigned __int64,dlib::connection *,dlib::memory_manager_kernel_2<char,10>,std::less<unsigned __int64> >,dlib::memory_manager_kernel_2<char,10> > `RTTI Type Descriptor'
	DD	00H
	DB	'.?AV?$map_kernel_1@_KPAVconnection@dlib@@V?$binary_searc'
	DB	'h_tree_kernel_2@_KPAVconnection@dlib@@V?$memory_manager_kerne'
	DB	'l_2@D$09@2@U?$less@_K@std@@@2@V?$memory_manager_kernel_2@D$09'
	DB	'@2@@dlib@@', 00H
_DATA	ENDS
;	COMDAT ??_7?$binary_search_tree_kernel_2@_KPAVconnection@dlib@@V?$memory_manager_kernel_2@D$09@2@U?$less@_K@std@@@dlib@@6B?$asc_pair_remover@_KPAVconnection@dlib@@U?$less@_K@std@@@1@@
CONST	SEGMENT
??_7?$binary_search_tree_kernel_2@_KPAVconnection@dlib@@V?$memory_manager_kernel_2@D$09@2@U?$less@_K@std@@@dlib@@6B?$asc_pair_remover@_KPAVconnection@dlib@@U?$less@_K@std@@@1@@ DD FLAT:??_R4?$binary_search_tree_kernel_2@_KPAVconnection@dlib@@V?$memory_manager_kernel_2@D$09@2@U?$less@_K@std@@@dlib@@6B?$asc_pair_remover@_KPAVconnection@dlib@@U?$less@_K@std@@@1@@ ; dlib::binary_search_tree_kernel_2<unsigned __int64,dlib::connection *,dlib::memory_manager_kernel_2<char,10>,std::less<unsigned __int64> >::`vftable'
	DD	FLAT:??_E?$binary_search_tree_kernel_2@_KPAVconnection@dlib@@V?$memory_manager_kernel_2@D$09@2@U?$less@_K@std@@@dlib@@W3AEPAXI@Z
	DD	FLAT:?remove_any@?$binary_search_tree_kernel_2@_KPAVconnection@dlib@@V?$memory_manager_kernel_2@D$09@2@U?$less@_K@std@@@dlib@@UAEXAA_KAAPAVconnection@2@@Z
	DD	FLAT:?size@?$binary_search_tree_kernel_2@_KPAVconnection@dlib@@V?$memory_manager_kernel_2@D$09@2@U?$less@_K@std@@@dlib@@W3BEKXZ
CONST	ENDS
;	COMDAT ??_R4?$binary_search_tree_kernel_2@_KPAVconnection@dlib@@V?$memory_manager_kernel_2@D$09@2@U?$less@_K@std@@@dlib@@6B?$asc_pair_remover@_KPAVconnection@dlib@@U?$less@_K@std@@@1@@
rdata$r	SEGMENT
??_R4?$binary_search_tree_kernel_2@_KPAVconnection@dlib@@V?$memory_manager_kernel_2@D$09@2@U?$less@_K@std@@@dlib@@6B?$asc_pair_remover@_KPAVconnection@dlib@@U?$less@_K@std@@@1@@ DD 00H ; dlib::binary_search_tree_kernel_2<unsigned __int64,dlib::connection *,dlib::memory_manager_kernel_2<char,10>,std::less<unsigned __int64> >::`RTTI Complete Object Locator'
	DD	04H
	DD	00H
	DD	FLAT:??_R0?AV?$binary_search_tree_kernel_2@_KPAVconnection@dlib@@V?$memory_manager_kernel_2@D$09@2@U?$less@_K@std@@@dlib@@@8
	DD	FLAT:??_R3?$binary_search_tree_kernel_2@_KPAVconnection@dlib@@V?$memory_manager_kernel_2@D$09@2@U?$less@_K@std@@@dlib@@8
rdata$r	ENDS
;	COMDAT ??_7?$binary_search_tree_kernel_2@_KPAVconnection@dlib@@V?$memory_manager_kernel_2@D$09@2@U?$less@_K@std@@@dlib@@6B?$enumerable@V?$map_pair@_KPAVconnection@dlib@@@dlib@@@1@@
CONST	SEGMENT
??_7?$binary_search_tree_kernel_2@_KPAVconnection@dlib@@V?$memory_manager_kernel_2@D$09@2@U?$less@_K@std@@@dlib@@6B?$enumerable@V?$map_pair@_KPAVconnection@dlib@@@dlib@@@1@@ DD FLAT:??_R4?$binary_search_tree_kernel_2@_KPAVconnection@dlib@@V?$memory_manager_kernel_2@D$09@2@U?$less@_K@std@@@dlib@@6B?$enumerable@V?$map_pair@_KPAVconnection@dlib@@@dlib@@@1@@ ; dlib::binary_search_tree_kernel_2<unsigned __int64,dlib::connection *,dlib::memory_manager_kernel_2<char,10>,std::less<unsigned __int64> >::`vftable'
	DD	FLAT:??_E?$binary_search_tree_kernel_2@_KPAVconnection@dlib@@V?$memory_manager_kernel_2@D$09@2@U?$less@_K@std@@@dlib@@UAEPAXI@Z
	DD	FLAT:?at_start@?$binary_search_tree_kernel_2@_KPAVconnection@dlib@@V?$memory_manager_kernel_2@D$09@2@U?$less@_K@std@@@dlib@@UBE_NXZ
	DD	FLAT:?reset@?$binary_search_tree_kernel_2@_KPAVconnection@dlib@@V?$memory_manager_kernel_2@D$09@2@U?$less@_K@std@@@dlib@@UBEXXZ
	DD	FLAT:?current_element_valid@?$binary_search_tree_kernel_2@_KPAVconnection@dlib@@V?$memory_manager_kernel_2@D$09@2@U?$less@_K@std@@@dlib@@UBE_NXZ
	DD	FLAT:?element@?$binary_search_tree_kernel_2@_KPAVconnection@dlib@@V?$memory_manager_kernel_2@D$09@2@U?$less@_K@std@@@dlib@@UAEAAV?$map_pair@_KPAVconnection@dlib@@@2@XZ
	DD	FLAT:?element@?$binary_search_tree_kernel_2@_KPAVconnection@dlib@@V?$memory_manager_kernel_2@D$09@2@U?$less@_K@std@@@dlib@@UBEABV?$map_pair@_KPAVconnection@dlib@@@2@XZ
	DD	FLAT:?move_next@?$binary_search_tree_kernel_2@_KPAVconnection@dlib@@V?$memory_manager_kernel_2@D$09@2@U?$less@_K@std@@@dlib@@UBE_NXZ
	DD	FLAT:?size@?$binary_search_tree_kernel_2@_KPAVconnection@dlib@@V?$memory_manager_kernel_2@D$09@2@U?$less@_K@std@@@dlib@@UBEKXZ
CONST	ENDS
;	COMDAT ??_R4?$binary_search_tree_kernel_2@_KPAVconnection@dlib@@V?$memory_manager_kernel_2@D$09@2@U?$less@_K@std@@@dlib@@6B?$enumerable@V?$map_pair@_KPAVconnection@dlib@@@dlib@@@1@@
rdata$r	SEGMENT
??_R4?$binary_search_tree_kernel_2@_KPAVconnection@dlib@@V?$memory_manager_kernel_2@D$09@2@U?$less@_K@std@@@dlib@@6B?$enumerable@V?$map_pair@_KPAVconnection@dlib@@@dlib@@@1@@ DD 00H ; dlib::binary_search_tree_kernel_2<unsigned __int64,dlib::connection *,dlib::memory_manager_kernel_2<char,10>,std::less<unsigned __int64> >::`RTTI Complete Object Locator'
	DD	00H
	DD	00H
	DD	FLAT:??_R0?AV?$binary_search_tree_kernel_2@_KPAVconnection@dlib@@V?$memory_manager_kernel_2@D$09@2@U?$less@_K@std@@@dlib@@@8
	DD	FLAT:??_R3?$binary_search_tree_kernel_2@_KPAVconnection@dlib@@V?$memory_manager_kernel_2@D$09@2@U?$less@_K@std@@@dlib@@8
rdata$r	ENDS
;	COMDAT ??_R3?$binary_search_tree_kernel_2@_KPAVconnection@dlib@@V?$memory_manager_kernel_2@D$09@2@U?$less@_K@std@@@dlib@@8
rdata$r	SEGMENT
??_R3?$binary_search_tree_kernel_2@_KPAVconnection@dlib@@V?$memory_manager_kernel_2@D$09@2@U?$less@_K@std@@@dlib@@8 DD 00H ; dlib::binary_search_tree_kernel_2<unsigned __int64,dlib::connection *,dlib::memory_manager_kernel_2<char,10>,std::less<unsigned __int64> >::`RTTI Class Hierarchy Descriptor'
	DD	01H
	DD	04H
	DD	FLAT:??_R2?$binary_search_tree_kernel_2@_KPAVconnection@dlib@@V?$memory_manager_kernel_2@D$09@2@U?$less@_K@std@@@dlib@@8
rdata$r	ENDS
;	COMDAT ??_R2?$binary_search_tree_kernel_2@_KPAVconnection@dlib@@V?$memory_manager_kernel_2@D$09@2@U?$less@_K@std@@@dlib@@8
rdata$r	SEGMENT
??_R2?$binary_search_tree_kernel_2@_KPAVconnection@dlib@@V?$memory_manager_kernel_2@D$09@2@U?$less@_K@std@@@dlib@@8 DD FLAT:??_R1A@?0A@EA@?$binary_search_tree_kernel_2@_KPAVconnection@dlib@@V?$memory_manager_kernel_2@D$09@2@U?$less@_K@std@@@dlib@@8 ; dlib::binary_search_tree_kernel_2<unsigned __int64,dlib::connection *,dlib::memory_manager_kernel_2<char,10>,std::less<unsigned __int64> >::`RTTI Base Class Array'
	DD	FLAT:??_R1A@?0A@EA@?$enumerable@V?$map_pair@_KPAVconnection@dlib@@@dlib@@@dlib@@8
	DD	FLAT:??_R13?0A@EA@?$asc_pair_remover@_KPAVconnection@dlib@@U?$less@_K@std@@@dlib@@8
	DD	FLAT:??_R13?0A@EA@?$pair_remover@_KPAVconnection@dlib@@@dlib@@8
rdata$r	ENDS
;	COMDAT ??_R13?0A@EA@?$pair_remover@_KPAVconnection@dlib@@@dlib@@8
rdata$r	SEGMENT
??_R13?0A@EA@?$pair_remover@_KPAVconnection@dlib@@@dlib@@8 DD FLAT:??_R0?AV?$pair_remover@_KPAVconnection@dlib@@@dlib@@@8 ; dlib::pair_remover<unsigned __int64,dlib::connection *>::`RTTI Base Class Descriptor at (4,-1,0,64)'
	DD	00H
	DD	04H
	DD	0ffffffffH
	DD	00H
	DD	040H
	DD	FLAT:??_R3?$pair_remover@_KPAVconnection@dlib@@@dlib@@8
rdata$r	ENDS
;	COMDAT ??_R13?0A@EA@?$asc_pair_remover@_KPAVconnection@dlib@@U?$less@_K@std@@@dlib@@8
rdata$r	SEGMENT
??_R13?0A@EA@?$asc_pair_remover@_KPAVconnection@dlib@@U?$less@_K@std@@@dlib@@8 DD FLAT:??_R0?AV?$asc_pair_remover@_KPAVconnection@dlib@@U?$less@_K@std@@@dlib@@@8 ; dlib::asc_pair_remover<unsigned __int64,dlib::connection *,std::less<unsigned __int64> >::`RTTI Base Class Descriptor at (4,-1,0,64)'
	DD	01H
	DD	04H
	DD	0ffffffffH
	DD	00H
	DD	040H
	DD	FLAT:??_R3?$asc_pair_remover@_KPAVconnection@dlib@@U?$less@_K@std@@@dlib@@8
rdata$r	ENDS
;	COMDAT ??_R3?$asc_pair_remover@_KPAVconnection@dlib@@U?$less@_K@std@@@dlib@@8
rdata$r	SEGMENT
??_R3?$asc_pair_remover@_KPAVconnection@dlib@@U?$less@_K@std@@@dlib@@8 DD 00H ; dlib::asc_pair_remover<unsigned __int64,dlib::connection *,std::less<unsigned __int64> >::`RTTI Class Hierarchy Descriptor'
	DD	00H
	DD	02H
	DD	FLAT:??_R2?$asc_pair_remover@_KPAVconnection@dlib@@U?$less@_K@std@@@dlib@@8
rdata$r	ENDS
;	COMDAT ??_R2?$asc_pair_remover@_KPAVconnection@dlib@@U?$less@_K@std@@@dlib@@8
rdata$r	SEGMENT
??_R2?$asc_pair_remover@_KPAVconnection@dlib@@U?$less@_K@std@@@dlib@@8 DD FLAT:??_R1A@?0A@EA@?$asc_pair_remover@_KPAVconnection@dlib@@U?$less@_K@std@@@dlib@@8 ; dlib::asc_pair_remover<unsigned __int64,dlib::connection *,std::less<unsigned __int64> >::`RTTI Base Class Array'
	DD	FLAT:??_R1A@?0A@EA@?$pair_remover@_KPAVconnection@dlib@@@dlib@@8
rdata$r	ENDS
;	COMDAT ??_R1A@?0A@EA@?$pair_remover@_KPAVconnection@dlib@@@dlib@@8
rdata$r	SEGMENT
??_R1A@?0A@EA@?$pair_remover@_KPAVconnection@dlib@@@dlib@@8 DD FLAT:??_R0?AV?$pair_remover@_KPAVconnection@dlib@@@dlib@@@8 ; dlib::pair_remover<unsigned __int64,dlib::connection *>::`RTTI Base Class Descriptor at (0,-1,0,64)'
	DD	00H
	DD	00H
	DD	0ffffffffH
	DD	00H
	DD	040H
	DD	FLAT:??_R3?$pair_remover@_KPAVconnection@dlib@@@dlib@@8
rdata$r	ENDS
;	COMDAT ??_R3?$pair_remover@_KPAVconnection@dlib@@@dlib@@8
rdata$r	SEGMENT
??_R3?$pair_remover@_KPAVconnection@dlib@@@dlib@@8 DD 00H ; dlib::pair_remover<unsigned __int64,dlib::connection *>::`RTTI Class Hierarchy Descriptor'
	DD	00H
	DD	01H
	DD	FLAT:??_R2?$pair_remover@_KPAVconnection@dlib@@@dlib@@8
rdata$r	ENDS
;	COMDAT ??_R2?$pair_remover@_KPAVconnection@dlib@@@dlib@@8
rdata$r	SEGMENT
??_R2?$pair_remover@_KPAVconnection@dlib@@@dlib@@8 DD FLAT:??_R1A@?0A@EA@?$pair_remover@_KPAVconnection@dlib@@@dlib@@8 ; dlib::pair_remover<unsigned __int64,dlib::connection *>::`RTTI Base Class Array'
rdata$r	ENDS
;	COMDAT ??_R0?AV?$pair_remover@_KPAVconnection@dlib@@@dlib@@@8
_DATA	SEGMENT
??_R0?AV?$pair_remover@_KPAVconnection@dlib@@@dlib@@@8 DD FLAT:??_7type_info@@6B@ ; dlib::pair_remover<unsigned __int64,dlib::connection *> `RTTI Type Descriptor'
	DD	00H
	DB	'.?AV?$pair_remover@_KPAVconnection@dlib@@@dlib@@', 00H
_DATA	ENDS
;	COMDAT ??_R1A@?0A@EA@?$asc_pair_remover@_KPAVconnection@dlib@@U?$less@_K@std@@@dlib@@8
rdata$r	SEGMENT
??_R1A@?0A@EA@?$asc_pair_remover@_KPAVconnection@dlib@@U?$less@_K@std@@@dlib@@8 DD FLAT:??_R0?AV?$asc_pair_remover@_KPAVconnection@dlib@@U?$less@_K@std@@@dlib@@@8 ; dlib::asc_pair_remover<unsigned __int64,dlib::connection *,std::less<unsigned __int64> >::`RTTI Base Class Descriptor at (0,-1,0,64)'
	DD	01H
	DD	00H
	DD	0ffffffffH
	DD	00H
	DD	040H
	DD	FLAT:??_R3?$asc_pair_remover@_KPAVconnection@dlib@@U?$less@_K@std@@@dlib@@8
rdata$r	ENDS
;	COMDAT ??_R0?AV?$asc_pair_remover@_KPAVconnection@dlib@@U?$less@_K@std@@@dlib@@@8
_DATA	SEGMENT
??_R0?AV?$asc_pair_remover@_KPAVconnection@dlib@@U?$less@_K@std@@@dlib@@@8 DD FLAT:??_7type_info@@6B@ ; dlib::asc_pair_remover<unsigned __int64,dlib::connection *,std::less<unsigned __int64> > `RTTI Type Descriptor'
	DD	00H
	DB	'.?AV?$asc_pair_remover@_KPAVconnection@dlib@@U?$less@_K@'
	DB	'std@@@dlib@@', 00H
_DATA	ENDS
;	COMDAT ??_R1A@?0A@EA@?$enumerable@V?$map_pair@_KPAVconnection@dlib@@@dlib@@@dlib@@8
rdata$r	SEGMENT
??_R1A@?0A@EA@?$enumerable@V?$map_pair@_KPAVconnection@dlib@@@dlib@@@dlib@@8 DD FLAT:??_R0?AV?$enumerable@V?$map_pair@_KPAVconnection@dlib@@@dlib@@@dlib@@@8 ; dlib::enumerable<dlib::map_pair<unsigned __int64,dlib::connection *> >::`RTTI Base Class Descriptor at (0,-1,0,64)'
	DD	00H
	DD	00H
	DD	0ffffffffH
	DD	00H
	DD	040H
	DD	FLAT:??_R3?$enumerable@V?$map_pair@_KPAVconnection@dlib@@@dlib@@@dlib@@8
rdata$r	ENDS
;	COMDAT ??_R3?$enumerable@V?$map_pair@_KPAVconnection@dlib@@@dlib@@@dlib@@8
rdata$r	SEGMENT
??_R3?$enumerable@V?$map_pair@_KPAVconnection@dlib@@@dlib@@@dlib@@8 DD 00H ; dlib::enumerable<dlib::map_pair<unsigned __int64,dlib::connection *> >::`RTTI Class Hierarchy Descriptor'
	DD	00H
	DD	01H
	DD	FLAT:??_R2?$enumerable@V?$map_pair@_KPAVconnection@dlib@@@dlib@@@dlib@@8
rdata$r	ENDS
;	COMDAT ??_R2?$enumerable@V?$map_pair@_KPAVconnection@dlib@@@dlib@@@dlib@@8
rdata$r	SEGMENT
??_R2?$enumerable@V?$map_pair@_KPAVconnection@dlib@@@dlib@@@dlib@@8 DD FLAT:??_R1A@?0A@EA@?$enumerable@V?$map_pair@_KPAVconnection@dlib@@@dlib@@@dlib@@8 ; dlib::enumerable<dlib::map_pair<unsigned __int64,dlib::connection *> >::`RTTI Base Class Array'
rdata$r	ENDS
;	COMDAT ??_R0?AV?$enumerable@V?$map_pair@_KPAVconnection@dlib@@@dlib@@@dlib@@@8
_DATA	SEGMENT
??_R0?AV?$enumerable@V?$map_pair@_KPAVconnection@dlib@@@dlib@@@dlib@@@8 DD FLAT:??_7type_info@@6B@ ; dlib::enumerable<dlib::map_pair<unsigned __int64,dlib::connection *> > `RTTI Type Descriptor'
	DD	00H
	DB	'.?AV?$enumerable@V?$map_pair@_KPAVconnection@dlib@@@dlib'
	DB	'@@@dlib@@', 00H
_DATA	ENDS
;	COMDAT ??_R1A@?0A@EA@?$binary_search_tree_kernel_2@_KPAVconnection@dlib@@V?$memory_manager_kernel_2@D$09@2@U?$less@_K@std@@@dlib@@8
rdata$r	SEGMENT
??_R1A@?0A@EA@?$binary_search_tree_kernel_2@_KPAVconnection@dlib@@V?$memory_manager_kernel_2@D$09@2@U?$less@_K@std@@@dlib@@8 DD FLAT:??_R0?AV?$binary_search_tree_kernel_2@_KPAVconnection@dlib@@V?$memory_manager_kernel_2@D$09@2@U?$less@_K@std@@@dlib@@@8 ; dlib::binary_search_tree_kernel_2<unsigned __int64,dlib::connection *,dlib::memory_manager_kernel_2<char,10>,std::less<unsigned __int64> >::`RTTI Base Class Descriptor at (0,-1,0,64)'
	DD	03H
	DD	00H
	DD	0ffffffffH
	DD	00H
	DD	040H
	DD	FLAT:??_R3?$binary_search_tree_kernel_2@_KPAVconnection@dlib@@V?$memory_manager_kernel_2@D$09@2@U?$less@_K@std@@@dlib@@8
rdata$r	ENDS
;	COMDAT ??_R0?AV?$binary_search_tree_kernel_2@_KPAVconnection@dlib@@V?$memory_manager_kernel_2@D$09@2@U?$less@_K@std@@@dlib@@@8
_DATA	SEGMENT
??_R0?AV?$binary_search_tree_kernel_2@_KPAVconnection@dlib@@V?$memory_manager_kernel_2@D$09@2@U?$less@_K@std@@@dlib@@@8 DD FLAT:??_7type_info@@6B@ ; dlib::binary_search_tree_kernel_2<unsigned __int64,dlib::connection *,dlib::memory_manager_kernel_2<char,10>,std::less<unsigned __int64> > `RTTI Type Descriptor'
	DD	00H
	DB	'.?AV?$binary_search_tree_kernel_2@_KPAVconnection@dlib@@'
	DB	'V?$memory_manager_kernel_2@D$09@2@U?$less@_K@std@@@dlib@@', 00H
_DATA	ENDS
;	COMDAT ??_7server_iostream@dlib@@6B@
CONST	SEGMENT
??_7server_iostream@dlib@@6B@ DD FLAT:??_R4server_iostream@dlib@@6B@ ; dlib::server_iostream::`vftable'
	DD	FLAT:??_Eserver_iostream@dlib@@UAEPAXI@Z
	DD	FLAT:?on_connect@server_iostream@dlib@@EAEXAAVconnection@2@@Z
	DD	FLAT:?on_listening_port_assigned@server@dlib@@EAEXXZ
	DD	FLAT:__purecall
CONST	ENDS
;	COMDAT ??_R4server_iostream@dlib@@6B@
rdata$r	SEGMENT
??_R4server_iostream@dlib@@6B@ DD 00H			; dlib::server_iostream::`RTTI Complete Object Locator'
	DD	00H
	DD	00H
	DD	FLAT:??_R0?AVserver_iostream@dlib@@@8
	DD	FLAT:??_R3server_iostream@dlib@@8
rdata$r	ENDS
;	COMDAT ??_7server_http@dlib@@6B@
CONST	SEGMENT
??_7server_http@dlib@@6B@ DD FLAT:??_R4server_http@dlib@@6B@ ; dlib::server_http::`vftable'
	DD	FLAT:??_Eserver_http@dlib@@UAEPAXI@Z
	DD	FLAT:?on_connect@server_iostream@dlib@@EAEXAAVconnection@2@@Z
	DD	FLAT:?on_listening_port_assigned@server@dlib@@EAEXXZ
	DD	FLAT:?on_connect@server_http@dlib@@EAEXAAV?$basic_istream@DU?$char_traits@D@std@@@std@@AAV?$basic_ostream@DU?$char_traits@D@std@@@4@ABV?$basic_string@DU?$char_traits@D@std@@V?$allocator@D@2@@4@2GG_K@Z
	DD	FLAT:__purecall
CONST	ENDS
;	COMDAT ??_R4server_http@dlib@@6B@
rdata$r	SEGMENT
??_R4server_http@dlib@@6B@ DD 00H			; dlib::server_http::`RTTI Complete Object Locator'
	DD	00H
	DD	00H
	DD	FLAT:??_R0?AVserver_http@dlib@@@8
	DD	FLAT:??_R3server_http@dlib@@8
rdata$r	ENDS
;	COMDAT ??_R3server_http@dlib@@8
rdata$r	SEGMENT
??_R3server_http@dlib@@8 DD 00H				; dlib::server_http::`RTTI Class Hierarchy Descriptor'
	DD	00H
	DD	03H
	DD	FLAT:??_R2server_http@dlib@@8
rdata$r	ENDS
;	COMDAT ??_R2server_http@dlib@@8
rdata$r	SEGMENT
??_R2server_http@dlib@@8 DD FLAT:??_R1A@?0A@EA@server_http@dlib@@8 ; dlib::server_http::`RTTI Base Class Array'
	DD	FLAT:??_R1A@?0A@EA@server_iostream@dlib@@8
	DD	FLAT:??_R1A@?0A@EA@server@dlib@@8
rdata$r	ENDS
;	COMDAT ??_R1A@?0A@EA@server_iostream@dlib@@8
rdata$r	SEGMENT
??_R1A@?0A@EA@server_iostream@dlib@@8 DD FLAT:??_R0?AVserver_iostream@dlib@@@8 ; dlib::server_iostream::`RTTI Base Class Descriptor at (0,-1,0,64)'
	DD	01H
	DD	00H
	DD	0ffffffffH
	DD	00H
	DD	040H
	DD	FLAT:??_R3server_iostream@dlib@@8
rdata$r	ENDS
;	COMDAT ??_R3server_iostream@dlib@@8
rdata$r	SEGMENT
??_R3server_iostream@dlib@@8 DD 00H			; dlib::server_iostream::`RTTI Class Hierarchy Descriptor'
	DD	00H
	DD	02H
	DD	FLAT:??_R2server_iostream@dlib@@8
rdata$r	ENDS
;	COMDAT ??_R2server_iostream@dlib@@8
rdata$r	SEGMENT
??_R2server_iostream@dlib@@8 DD FLAT:??_R1A@?0A@EA@server_iostream@dlib@@8 ; dlib::server_iostream::`RTTI Base Class Array'
	DD	FLAT:??_R1A@?0A@EA@server@dlib@@8
rdata$r	ENDS
;	COMDAT ??_R0?AVserver_iostream@dlib@@@8
_DATA	SEGMENT
??_R0?AVserver_iostream@dlib@@@8 DD FLAT:??_7type_info@@6B@ ; dlib::server_iostream `RTTI Type Descriptor'
	DD	00H
	DB	'.?AVserver_iostream@dlib@@', 00H
_DATA	ENDS
;	COMDAT ??_R1A@?0A@EA@server_http@dlib@@8
rdata$r	SEGMENT
??_R1A@?0A@EA@server_http@dlib@@8 DD FLAT:??_R0?AVserver_http@dlib@@@8 ; dlib::server_http::`RTTI Base Class Descriptor at (0,-1,0,64)'
	DD	02H
	DD	00H
	DD	0ffffffffH
	DD	00H
	DD	040H
	DD	FLAT:??_R3server_http@dlib@@8
rdata$r	ENDS
;	COMDAT ??_R0?AVserver_http@dlib@@@8
_DATA	SEGMENT
??_R0?AVserver_http@dlib@@@8 DD FLAT:??_7type_info@@6B@	; dlib::server_http `RTTI Type Descriptor'
	DD	00H
	DB	'.?AVserver_http@dlib@@', 00H
_DATA	ENDS
;	COMDAT ??_C@_0EE@IMCIJADB@?$DMhead?$DO?$DMmeta?5http?9equiv?$DN?$CCrefresh?$CC@
CONST	SEGMENT
??_C@_0EE@IMCIJADB@?$DMhead?$DO?$DMmeta?5http?9equiv?$DN?$CCrefresh?$CC@ DB '<'
	DB	'head><meta http-equiv="refresh" content="0; URL=-rsp/list"></'
	DB	'head>', 00H					; `string'
CONST	ENDS
;	COMDAT ??_C@_04HCJEIHPL@POST?$AA@
CONST	SEGMENT
??_C@_04HCJEIHPL@POST?$AA@ DB 'POST', 00H		; `string'
CONST	ENDS
;	COMDAT ??_C@_03HAPOJHBM@GET?$AA@
CONST	SEGMENT
??_C@_03HAPOJHBM@GET?$AA@ DB 'GET', 00H			; `string'
CONST	ENDS
;	COMDAT ??_C@_03NLJIHOMM@?5?9?5?$AA@
CONST	SEGMENT
??_C@_03NLJIHOMM@?5?9?5?$AA@ DB ' - ', 00H		; `string'
CONST	ENDS
;	COMDAT ??_C@_0CA@JCGNFICF@Error?5processing?5request?5from?3?5?$AA@
CONST	SEGMENT
??_C@_0CA@JCGNFICF@Error?5processing?5request?5from?3?5?$AA@ DB 'Error pr'
	DB	'ocessing request from: ', 00H		; `string'
CONST	ENDS
;	COMDAT ??_C@_0DG@HIPAKEJE@We?5ran?5out?5of?5memory?5in?5server_i@
CONST	SEGMENT
??_C@_0DG@HIPAKEJE@We?5ran?5out?5of?5memory?5in?5server_i@ DB 'We ran out'
	DB	' of memory in server_iostream::on_connect()', 00H ; `string'
$SG-62167 DB	00H
$SG-62237 DB	00H
$SG-62286 DB	00H
$SG-62480 DB	00H
$SG-62484 DB	00H
$SG-62590 DB	00H
$SG-62927 DB	00H
	ORG $+3
_names	DB	'DamageAreaDeath', 00H
	ORG $+7
	DB	'Melee', 00H
	ORG $+17
	DB	'RoadKill', 00H
	ORG $+14
	DB	'SoldierCollision', 00H
	ORG $+6
	DB	'Suicide', 00H
	ORG $+15
	DB	'U_870', 00H
	ORG $+17
	DB	'U_A91', 00H
	ORG $+17
	DB	'U_ACR', 00H
	ORG $+17
	DB	'U_AEK971', 00H
	ORG $+14
	DB	'U_AEK971_M320_HE', 00H
	ORG $+6
	DB	'U_AEK971_M320_LVG', 00H
	ORG $+5
	DB	'U_AK12', 00H
	ORG $+16
	DB	'U_AK12_M320_HE', 00H
	ORG $+8
	DB	'U_AK5C', 00H
	ORG $+16
	DB	'U_AKU12', 00H
	ORG $+15
	DB	'U_AMR2', 00H
	ORG $+16
	DB	'U_AMR2_MED', 00H
	ORG $+12
	DB	'U_AT4', 00H
	ORG $+17
	DB	'U_C4', 00H
	ORG $+18
	DB	'U_C4_Support', 00H
	ORG $+10
	DB	'U_CBJ-MS', 00H
	ORG $+14
	DB	'U_Claymore', 00H
	ORG $+12
	DB	'U_Claymore_Recon', 00H
	ORG $+6
	DB	'U_CS-LR4', 00H
	ORG $+14
	DB	'U_CZ805', 00H
	ORG $+15
	DB	'U_CZ75', 00H
	ORG $+16
	DB	'U_DBV12', 00H
	ORG $+15
	DB	'U_Defib', 00H
	ORG $+15
	DB	'U_FAMAS', 00H
	ORG $+15
	DB	'U_FGM148', 00H
	ORG $+14
	DB	'U_FIM92', 00H
	ORG $+15
	DB	'U_Flashbang', 00H
	ORG $+11
	DB	'U_FN57', 00H
	ORG $+16
	DB	'U_FY-JS', 00H
	ORG $+15
	DB	'U_G36C', 00H
	ORG $+16
	DB	'U_GalilACE', 00H
	ORG $+12
	DB	'U_GalilACE23', 00H
	ORG $+10
	DB	'U_GalilACE52', 00H
	ORG $+10
	DB	'U_GalilACE53', 00H
	ORG $+10
	DB	'U_Glock18', 00H
	ORG $+13
	DB	'U_Grenade_RGO', 00H
	ORG $+9
	DB	'U_HAWK', 00H
	ORG $+16
	DB	'U_HK45C', 00H
	ORG $+15
	DB	'U_JNG90', 00H
	ORG $+15
	DB	'U_JS2', 00H
	ORG $+17
	DB	'U_L85A2', 00H
	ORG $+15
	DB	'U_L96A1', 00H
	ORG $+15
	DB	'U_LSAT', 00H
	ORG $+16
	DB	'U_M1014', 00H
	ORG $+15
	DB	'U_M15', 00H
	ORG $+17
	DB	'U_M16A4', 00H
	ORG $+15
	DB	'U_M16A4_M320_HE', 00H
	ORG $+7
	DB	'U_M1911', 00H
	ORG $+15
	DB	'U_M200', 00H
	ORG $+16
	DB	'U_M240', 00H
	ORG $+16
	DB	'U_M249', 00H
	ORG $+16
	DB	'U_M26Mass', 00H
	ORG $+13
	DB	'U_M26Mass_Flechette', 00H
	ORG $+3
	DB	'U_M26Mass_Frag', 00H
	ORG $+8
	DB	'U_M26Mass_Slug', 00H
	ORG $+8
	DB	'U_M320_HE', 00H
	ORG $+13
	DB	'U_M320_LVG', 00H
	ORG $+12
	DB	'U_M320_SHG', 00H
	ORG $+12
	DB	'U_M320_SMK', 00H
	ORG $+12
	DB	'U_M34', 00H
	ORG $+17
	DB	'U_M39EBR', 00H
	ORG $+14
	DB	'U_M40A5', 00H
	ORG $+15
	DB	'U_M416', 00H
	ORG $+16
	DB	'U_M416_M26_Buck', 00H
	ORG $+7
	DB	'U_M416_M26_Flechette', 00H
	ORG $+2
	DB	'U_M416_M26_Slug', 00H
	ORG $+7
	DB	'U_M416_M320_FLASH', 00H
	ORG $+5
	DB	'U_M416_M320_HE', 00H
	ORG $+8
	DB	'U_M416_M320_SMK', 00H
	ORG $+7
	DB	'U_M4A1', 00H
	ORG $+16
	DB	'U_M67', 00H
	ORG $+17
	DB	'U_M82A3', 00H
	ORG $+15
	DB	'U_M82A3_CQB', 00H
	ORG $+11
	DB	'U_M82A3_MED', 00H
	ORG $+11
	DB	'U_M9', 00H
	ORG $+18
	DB	'U_M93R', 00H
	ORG $+16
	DB	'U_M98B', 00H
	ORG $+16
	DB	'U_MagpulPDR', 00H
	ORG $+11
	DB	'U_Medkit', 00H
	ORG $+14
	DB	'U_MG4', 00H
	ORG $+17
	DB	'U_MGL', 00H
	ORG $+17
	DB	'U_MK11', 00H
	ORG $+16
	DB	'U_MP7', 00H
	ORG $+17
	DB	'U_MP412Rex', 00H
	ORG $+12
	DB	'U_MP443', 00H
	ORG $+15
	DB	'U_MTAR21', 00H
	ORG $+14
	DB	'U_MX4', 00H
	ORG $+17
	DB	'U_NLAW', 00H
	ORG $+16
	DB	'U_P226', 00H
	ORG $+16
	DB	'U_P90', 00H
	ORG $+17
	DB	'U_Pecheneg', 00H
	ORG $+12
	DB	'U_PortableMedicpack', 00H
	ORG $+3
	DB	'U_PP2000', 00H
	ORG $+14
	DB	'U_QBB95', 00H
	ORG $+15
	DB	'U_QBS09', 00H
	ORG $+15
	DB	'U_QBU88', 00H
	ORG $+15
	DB	'U_QBZ951', 00H
	ORG $+14
	DB	'U_QBZ951_M320_HE', 00H
	ORG $+6
	DB	'U_QSZ92', 00H
	ORG $+15
	DB	'U_Repairtool', 00H
	ORG $+10
	DB	'U_RFB', 00H
	ORG $+17
	DB	'U_RPG7', 00H
	ORG $+16
	DB	'U_RPK12', 00H
	ORG $+15
	DB	'U_RPK-74', 00H
	ORG $+14
	DB	'U_Sa18IGLA', 00H
	ORG $+12
	DB	'U_SAIGA_20K', 00H
	ORG $+11
	DB	'U_SAR21', 00H
	ORG $+15
	DB	'U_SAR21_M320_HE', 00H
	ORG $+7
	DB	'U_SAR21_M320_SMK', 00H
	ORG $+6
	DB	'U_SCAR-H', 00H
	ORG $+14
	DB	'U_SCAR-H_M26_Buck', 00H
	ORG $+5
	DB	'U_SCAR-H_M26_Flechette', 00H
	DB	'U_SCAR-H_M320_HE', 00H
	ORG $+6
	DB	'U_SCAR-HSV', 00H
	ORG $+12
	DB	'U_Scorpion', 00H
	ORG $+12
	DB	'U_Scout', 00H
	ORG $+15
	DB	'U_SerbuShorty', 00H
	ORG $+9
	DB	'U_SG553LB', 00H
	ORG $+13
	DB	'U_SKS', 00H
	ORG $+17
	DB	'U_SLAM', 00H
	ORG $+16
	DB	'U_SMAW', 00H
	ORG $+16
	DB	'U_SPAS12', 00H
	ORG $+14
	DB	'U_SRAW', 00H
	ORG $+16
	DB	'U_SRS', 00H
	ORG $+17
	DB	'U_Starstreak', 00H
	ORG $+10
	DB	'U_SteyrAug', 00H
	ORG $+12
	DB	'U_SteyrAug_M320_HE', 00H
	ORG $+4
	DB	'U_SteyrAug_M320_LVG', 00H
	ORG $+3
	DB	'U_SV98', 00H
	ORG $+16
	DB	'U_SVD12', 00H
	ORG $+15
	DB	'U_Taurus44', 00H
	ORG $+12
	DB	'U_Tomahawk', 00H
	ORG $+12
	DB	'U_Type88', 00H
	ORG $+14
	DB	'U_Type95B', 00H
	ORG $+13
	DB	'U_Ultimax', 00H
	ORG $+13
	DB	'U_UMP45', 00H
	ORG $+15
	DB	'U_USAS-12', 00H
	ORG $+13
	DB	'U_USAS-12_Nightvision', 00H
	ORG $+1
	DB	'U_UTAS', 00H
	ORG $+16
	DB	'U_V40', 00H
	ORG $+17
	DB	'U_XM25', 00H
	ORG $+16
	DB	'U_XM25_Flechette', 00H
	ORG $+6
	DB	'U_XM25_Smoke', 00H
	ORG $+10
$SG-62058 DB	'ALL', 00H
_SQUADNAME DB	'UNKNOWN', 00H
	DB	'Alpha', 00H
	ORG $+2
	DB	'Bravo', 00H
	ORG $+2
	DB	'Charlie', 00H
	DB	'Delta', 00H
	ORG $+2
	DB	'Echo', 00H
	ORG $+3
	DB	'Foxtrot', 00H
	DB	'Golf', 00H
	ORG $+3
	DB	'Hotel', 00H
	ORG $+2
	DB	'India', 00H
	ORG $+2
	DB	'Juliet', 00H
	ORG $+1
	DB	'Kilo', 00H
	ORG $+3
	DB	'Lima', 00H
	ORG $+3
	DB	'Mike', 00H
	ORG $+3
_SQUADCOLORASHEX DB '#ddffdd', 00H
	DB	'#dde1dd', 00H
	DB	'#dde3dd', 00H
	DB	'#dde6dd', 00H
	DB	'#dde8dd', 00H
	DB	'#ddeadd', 00H
	DB	'#ddebdd', 00H
	DB	'#ddecdd', 00H
	DB	'#ddeddd', 00H
	DB	'#ddeedd', 00H
	DB	'#ddefdd', 00H
	DB	'#ddf1dd', 00H
	DB	'#ddf3dd', 00H
	DB	'#ddf5dd', 00H
$SG-62059 DB	'NONE', 00H
	ORG $+3
$SG-62060 DB	'TRACE', 00H
	ORG $+2
$SG-62061 DB	'DEBUG', 00H
	ORG $+2
$SG-62062 DB	'INFO ', 00H
	ORG $+2
$SG-62063 DB	'WARN ', 00H
	ORG $+2
$SG-62064 DB	'ERROR', 00H
	ORG $+2
$SG-62065 DB	'FATAL', 00H
	ORG $+2
$SG-62076 DB	'www/', 00H
	ORG $+3
$SG-62077 DB	0dH, 0aH, 00H
	ORG $+1
$SG-62078 DB	' not found?!', 00H
	ORG $+3
$SG-62079 DB	'http::load_critical_html_file', 00H
	ORG $+2
$SG-62080 DB	'..\src\http.cpp', 00H
$SG-62081 DB	'www/', 00H
	ORG $+3
$SG-62082 DB	'<br/>', 00H
	ORG $+2
$SG-62083 DB	'</p></div></div>', 00H
	ORG $+3
$SG-62084 DB	'<div class=''ui-widget''><div class=''ui-state-highlight'
	DB	' ui-corner-all'' style=''margin-top: 20px; padding: 0 .7em;'''
	DB	'><p><span class=''ui-icon ui-icon-info'' style=''float: left;'
	DB	' margin-right: .3em;''></span><strong>Success:</strong>', 00H
$SG-62085 DB	'</p></div></div>', 00H
	ORG $+3
$SG-62088 DB	''').click(function() { $.get("!s_vargetgs", function(dat'
	DB	'a){$("#', 00H
	ORG $+1
$SG-62089 DB	'$(''#get_gs_', 00H
$SG-62086 DB	'<div class=''ui-widget''><div class=''ui-state-error ui-'
	DB	'corner-all'' style=''padding: 0 .7em;''><p><span class=''ui-i'
	DB	'con ui-icon-alert'' style=''float: left; margin-right: .3em;'''
	DB	'></span><strong>Alert:</strong>', 00H
	ORG $+3
$SG-62087 DB	'").val(data)}); });</script>', 00H
	ORG $+3
$SG-62090 DB	'").val(data)}); });', 00H
$SG-62091 DB	''').click(function() { $.get("!s_vargetdb", function(dat'
	DB	'a){$("#', 00H
	ORG $+1
$SG-62092 DB	'<script>$(''#get_db_', 00H
$SG-62093 DB	'">Load from GameServer</a></p>', 00H
	ORG $+1
$SG-62094 DB	'">Load from Database</a> | <a id="get_gs_', 00H
	ORG $+2
$SG-62095 DB	'<a id="get_db_', 00H
	ORG $+1
$SG-62096 DB	'<input type="submit" value="Save"></form>', 00H
	ORG $+2
$SG-62097 DB	'" name=''value'' type=''text'' size=''32'' maxlength=''3'
	DB	'2''>', 00H
	ORG $+3
$SG-62098 DB	': <input id="', 00H
	ORG $+2
$SG-62099 DB	'''>', 00H
	ORG $+1
$SG-62100 DB	'<p><form action=''!s_varset'' method=''get''><input name'
	DB	'=''var'' type=''hidden'' value=''vars.', 00H
	ORG $+2
$SG-62101 DB	'").val(data)}); });</script>', 00H
	ORG $+3
$SG-62102 DB	''').click(function() { $.get("!s_vargetgs", function(dat'
	DB	'a){$("#', 00H
	ORG $+1
$SG-62103 DB	'$(''#get_gs_', 00H
$SG-62104 DB	'").val(data)}); });', 00H
$SG-62105 DB	''').click(function() { $.get("!s_vargetdb", function(dat'
	DB	'a){$("#', 00H
	ORG $+1
$SG-62106 DB	'<script>$(''#get_db_', 00H
$SG-62107 DB	'">Load from GameServer</a></p>', 00H
	ORG $+1
$SG-62108 DB	'">Load from Database</a> | <a id="get_gs_', 00H
	ORG $+2
$SG-62109 DB	'<a id="get_db_', 00H
	ORG $+1
$SG-62110 DB	'<input type="submit" value="Save"></form>', 00H
	ORG $+2
$SG-62111 DB	'" name=''value'' type=''text'' size=''32'' maxlength=''3'
	DB	'2''>', 00H
	ORG $+3
$SG-62112 DB	': <input id="', 00H
	ORG $+2
$SG-62113 DB	'''><input name=''var'' type=''hidden'' value=''''>', 00H
$SG-62114 DB	'<p><form action=''!s_varset'' method=''get''><input name'
	DB	'=''var'' type=''hidden'' value=''vars.', 00H
	ORG $+2
$SG-62115 DB	'<link rel="stylesheet" href="css/jquery.dataTables_theme'
	DB	'roller.css" />', 00H
	ORG $+1
$SG-62116 DB	'<script src="js/jquery.dataTables.min.js"></script>', 00H
$SG-62117 DB	'<script>$(document).ready(function()', 00H
	ORG $+3
$SG-62118 DB	'{', 00H
	ORG $+2
$SG-62119 DB	'$(''#table'').dataTable(', 00H
	ORG $+1
$SG-62120 DB	'{', 00H
	ORG $+2
$SG-62121 DB	'"bJQueryUI": true,', 00H
	ORG $+1
$SG-62122 DB	'"bPaginate": true,', 00H
	ORG $+1
$SG-62123 DB	'"bFilter": true,', 00H
	ORG $+3
$SG-62124 DB	'"bSort": true,', 00H
	ORG $+1
$SG-62125 DB	'"bInfo": true,', 00H
	ORG $+1
$SG-62126 DB	'"bAutoWidth": true,', 00H
$SG-62132 DB	'?banlist', 00H
	ORG $+3
$SG-62127 DB	'"aLengthMenu": [[25, 50, 100, 200, -1],[25, 50, 100, 200'
	DB	', "All"]],', 00H
	ORG $+1
$SG-62128 DB	'"iDisplayLength": 100', 00H
	ORG $+2
$SG-62129 DB	'} );', 00H
	ORG $+3
$SG-62130 DB	'} );</script>', 00H
	ORG $+2
$SG-62134 DB	'{', 00H
	ORG $+2
$SG-62131 DB	'<head><meta http-equiv="refresh" content="0; URL=p_list"'
	DB	'></head>', 00H
	ORG $+3
$SG-62133 DB	'{"banlist":[', 00H
	ORG $+3
$SG-62135 DB	'",', 00H
	ORG $+1
$SG-62136 DB	'"banid":"', 00H
	ORG $+2
$SG-62137 DB	'",', 00H
	ORG $+1
$SG-62138 DB	'"guid":"', 00H
	ORG $+3
$SG-62139 DB	'",', 00H
	ORG $+1
$SG-62140 DB	'"name":"', 00H
	ORG $+3
$SG-62141 DB	'",', 00H
	ORG $+1
$SG-62142 DB	'"admin":"', 00H
	ORG $+2
$SG-62143 DB	'",', 00H
	ORG $+1
$SG-62144 DB	'"reason":"', 00H
	ORG $+1
$SG-62145 DB	'"', 00H
	ORG $+2
$SG-62146 DB	'"date":"', 00H
	ORG $+3
$SG-62147 DB	'},', 00H
	ORG $+1
$SG-62148 DB	']}', 00H
	ORG $+1
$SG-62149 DB	'pass', 00H
	ORG $+3
$SG-62150 DB	'pass', 00H
	ORG $+3
$SG-62151 DB	'user', 00H
	ORG $+3
$SG-62152 DB	'user', 00H
	ORG $+3
$SG-62153 DB	' ', 00H, 09H, 00H, 0dH, 00H, 0aH, 00H, 00H, 00H
	ORG $+2
$SG-62154 DB	' ', 09H, 0dH, 0aH, 00H
	ORG $+3
$SG-62155 DB	'user', 00H
	ORG $+3
$SG-62156 DB	' ', 00H, 09H, 00H, 0dH, 00H, 0aH, 00H, 00H, 00H
	ORG $+2
$SG-62157 DB	' ', 09H, 0dH, 0aH, 00H
	ORG $+3
$SG-62158 DB	'pass', 00H
	ORG $+3
$SG-62159 DB	' | <a href="serverlist" class="serverlist">Serverlist</a'
	DB	'>', 00H
	ORG $+2
$SG-62160 DB	'Welcome ', 00H
	ORG $+3
$SG-62161 DB	'!livechat', 00H
	ORG $+2
$SG-62162 DB	'<div id=''ajax_livechat''>', 00H
	ORG $+3
$SG-62163 DB	'</i><br/>', 00H
	ORG $+2
$SG-62164 DB	'&gt; <i>', 00H
	ORG $+3
$SG-62165 DB	'(<font color=''#FFDDDD''>RU</font>)', 00H
	ORG $+2
$SG-62166 DB	'(<font color=''#DDDDFF''>US</font>)', 00H
	ORG $+2
$SG-62168 DB	'</a>', 00H
	ORG $+3
$SG-62169 DB	''',show:''clip'',hide:''clip'',width:500});" href="#">', 00H
	ORG $+2
$SG-62170 DB	''').dialog({title:''', 00H
	ORG $+1
$SG-62174 DB	'!p_list', 00H
$SG-62177 DB	'<td class="thead">Name</td>', 00H
$SG-62171 DB	'</dfn> &lt;<a OnClick="javascript:$(''<div />'').load('''
	DB	'!p_administrate?name=', 00H
	ORG $+1
$SG-62172 DB	'<dfn id=''ajax_livechat_time''>', 00H
	ORG $+2
$SG-62173 DB	'</div>', 00H
	ORG $+1
$SG-62180 DB	'<td class="thead">Ping</td>', 00H
$SG-62175 DB	'<table class="border" style="margin:15px;width:40%;float'
	DB	':left;background-color: #ffdddd;" cellpadding="0" cellspacing'
	DB	'="0">', 00H
	ORG $+1
$SG-62176 DB	'<tr>', 00H
	ORG $+3
$SG-62178 DB	'<td class="thead">Score</td>', 00H
	ORG $+3
$SG-62179 DB	'<td class="thead">Squad</td>', 00H
	ORG $+3
$SG-62181 DB	'<td class="thead">Admin</td>', 00H
	ORG $+3
$SG-62182 DB	'</tr>', 00H
	ORG $+2
$SG-62183 DB	'<tr>', 00H
	ORG $+3
$SG-62184 DB	'</td>', 00H
	ORG $+2
$SG-62185 DB	'<td>', 00H
	ORG $+3
$SG-62186 DB	'<td style="text-decoration:line-through">', 00H
	ORG $+2
$SG-62187 DB	'</td>', 00H
	ORG $+2
$SG-62188 DB	'<td>', 00H
	ORG $+3
$SG-62189 DB	'</td>', 00H
	ORG $+2
$SG-62190 DB	'">', 00H
	ORG $+1
$SG-62191 DB	'<td style="background-color: ', 00H
	ORG $+2
$SG-62192 DB	'</td>', 00H
	ORG $+2
$SG-62193 DB	'<td>', 00H
	ORG $+3
$SG-62195 DB	'|', 00H
	ORG $+2
$SG-62194 DB	''',show:''clip'',hide:''clip'',width:500});" href="#">Ad'
	DB	'min</a></td>', 00H
$SG-62196 DB	''').dialog({title:''', 00H
	ORG $+1
$SG-62199 DB	'</table>', 00H
	ORG $+3
$SG-62197 DB	'<td><a OnClick="javascript:$(''<div />'').load(''!p_admi'
	DB	'nistrate?name=', 00H
$SG-62198 DB	'</tr>', 00H
	ORG $+2
$SG-62202 DB	'<td class="thead">Name</td>', 00H
$SG-62200 DB	'<table class="border" style="margin:15px;width:40%;float'
	DB	':right;background-color: #ddddff" cellpadding="0" cellspacing'
	DB	'="0">', 00H
	ORG $+1
$SG-62201 DB	'<tr>', 00H
	ORG $+3
$SG-62203 DB	'<td class="thead">Score</td>', 00H
	ORG $+3
$SG-62204 DB	'<td class="thead">Squad</td>', 00H
	ORG $+3
$SG-62205 DB	'<td class="thead">Ping</td>', 00H
$SG-62206 DB	'<td class="thead">Admin</td>', 00H
	ORG $+3
$SG-62207 DB	'</tr>', 00H
	ORG $+2
$SG-62208 DB	'<tr>', 00H
	ORG $+3
$SG-62209 DB	'</td>', 00H
	ORG $+2
$SG-62210 DB	'<td>', 00H
	ORG $+3
$SG-62211 DB	'<td style="text-decoration:line-through">', 00H
	ORG $+2
$SG-62212 DB	'</td>', 00H
	ORG $+2
$SG-62213 DB	'<td>', 00H
	ORG $+3
$SG-62214 DB	'</td>', 00H
	ORG $+2
$SG-62215 DB	'">', 00H
	ORG $+1
$SG-62216 DB	'<td style="background-color: ', 00H
	ORG $+2
$SG-62217 DB	'</td>', 00H
	ORG $+2
$SG-62218 DB	'<td>', 00H
	ORG $+3
$SG-62219 DB	''',show:''clip'',hide:''clip'',width:500});" href="#">Ad'
	DB	'min</a></td>', 00H
$SG-62220 DB	'|', 00H
	ORG $+2
$SG-62221 DB	''').dialog({title:''', 00H
	ORG $+1
$SG-62222 DB	'<td><a OnClick="javascript:$(''<div />'').load(''!p_admi'
	DB	'nistrate?name=', 00H
$SG-62223 DB	'</tr>', 00H
	ORG $+2
$SG-62224 DB	'</table>', 00H
	ORG $+3
$SG-62225 DB	'!s_vargetdb', 00H
$SG-62226 DB	'Server #1 Bandar Desert!', 00H
	ORG $+3
$SG-62227 DB	'!s_vargetgs', 00H
$SG-62228 DB	'Server #1 Bandar Desert!', 00H
	ORG $+3
$SG-62229 DB	'!restrictweapon', 00H
$SG-62230 DB	'name', 00H
	ORG $+3
$SG-62231 DB	'!unrestrictweapon', 00H
	ORG $+2
$SG-62232 DB	'name', 00H
	ORG $+3
$SG-62233 DB	'!restrictweaponminplayers', 00H
	ORG $+2
$SG-62234 DB	'value', 00H
	ORG $+2
$SG-62235 DB	'minplayersforresweaponpunish', 00H
	ORG $+3
$SG-62236 DB	'!s_varset', 00H
	ORG $+2
$SG-62238 DB	'value', 00H
	ORG $+2
$SG-62239 DB	'var', 00H
$SG-62240 DB	'value', 00H
	ORG $+2
$SG-62241 DB	'var', 00H
$SG-62242 DB	'!p_administrate', 00H
$SG-62243 DB	'name', 00H
	ORG $+3
$SG-62244 DB	'func', 00H
	ORG $+3
$SG-62245 DB	'kick', 00H
	ORG $+3
$SG-62246 DB	'func', 00H
	ORG $+3
$SG-62247 DB	'reason', 00H
	ORG $+1
$SG-62248 DB	'name', 00H
	ORG $+3
$SG-62249 DB	'reason', 00H
	ORG $+1
$SG-62250 DB	'name', 00H
	ORG $+3
$SG-62251 DB	'kill', 00H
	ORG $+3
$SG-62252 DB	'func', 00H
	ORG $+3
$SG-62253 DB	'name', 00H
	ORG $+3
$SG-62254 DB	'reason', 00H
	ORG $+1
$SG-62255 DB	'name', 00H
	ORG $+3
$SG-62256 DB	'player', 00H
	ORG $+1
$SG-62257 DB	'reason', 00H
	ORG $+1
$SG-62258 DB	'move', 00H
	ORG $+3
$SG-62259 DB	'func', 00H
	ORG $+3
$SG-62260 DB	'1', 00H
	ORG $+2
$SG-62261 DB	'force', 00H
	ORG $+2
$SG-62262 DB	'1', 00H
	ORG $+2
$SG-62263 DB	'team', 00H
	ORG $+3
$SG-62264 DB	'name', 00H
	ORG $+3
$SG-62265 DB	'msg', 00H
$SG-62266 DB	'func', 00H
	ORG $+3
$SG-62267 DB	'msg', 00H
$SG-62268 DB	'1', 00H
	ORG $+2
$SG-62269 DB	'yell', 00H
	ORG $+3
$SG-62270 DB	'name', 00H
	ORG $+3
$SG-62271 DB	'player', 00H
	ORG $+1
$SG-62272 DB	'msg', 00H
$SG-62273 DB	'name', 00H
	ORG $+3
$SG-62274 DB	'player', 00H
	ORG $+1
$SG-62275 DB	'msg', 00H
$SG-62276 DB	'ban', 00H
$SG-62277 DB	'func', 00H
	ORG $+3
$SG-62278 DB	'guid', 00H
	ORG $+3
$SG-62279 DB	'reason', 00H
	ORG $+1
$SG-62280 DB	'reason', 00H
	ORG $+1
$SG-62281 DB	'name', 00H
	ORG $+3
$SG-62282 DB	'guid', 00H
	ORG $+3
$SG-62283 DB	'Refresh', 00H
$SG-62284 DB	'1; url=p_list', 0dH, 0aH, 00H
$SG-62285 DB	'Redirecting...', 00H
	ORG $+1
$SG-62287 DB	'name', 00H
	ORG $+3
$SG-62288 DB	'</b>', 00H
	ORG $+3
$SG-62289 DB	'name', 00H
	ORG $+3
$SG-62290 DB	'There is no player named <b>', 00H
	ORG $+3
$SG-62292 DB	'''>Reason: <input name=''reason'' type=''text''>', 00H
$SG-62291 DB	'<input type="submit" value="Kick Player" style=''float:r'
	DB	'ight''></form></p>', 00H
	ORG $+3
$SG-62293 DB	'name', 00H
	ORG $+3
$SG-62294 DB	'<input type=''hidden'' name=''name'' value=''', 00H
	ORG $+3
$SG-62295 DB	'<p><b>KICK PLAYER</b><br/><form class="niceform" action='
	DB	'''!p_administrate'' method=''get''><input type=''hidden'' nam'
	DB	'e=''func'' value=''kick''>', 00H
	ORG $+2
$SG-62296 DB	'<input type="submit" value="Kill Player" style=''float:r'
	DB	'ight''></form></p>', 00H
	ORG $+3
$SG-62297 DB	'''>Reason: <input name=''reason'' type=''text''>', 00H
$SG-62298 DB	'name', 00H
	ORG $+3
$SG-62299 DB	'<input type=''hidden'' name=''name'' value=''', 00H
	ORG $+3
$SG-62302 DB	'Force<input type="checkbox" name="force" value="1">', 00H
$SG-62300 DB	'<p><b>KILL PLAYER</b><br/><form class="niceform" action='
	DB	'''!p_administrate'' method=''get''><input type=''hidden'' nam'
	DB	'e=''func'' value=''kill''>', 00H
	ORG $+2
$SG-62301 DB	'<input type="submit" value="Move Player" style=''float:r'
	DB	'ight''></form></p>', 00H
	ORG $+3
$SG-62303 DB	'''>', 00H
	ORG $+1
$SG-62304 DB	'<input type=''hidden'' name=''team'' value=''', 00H
	ORG $+3
$SG-62305 DB	'''>', 00H
	ORG $+1
$SG-62306 DB	'name', 00H
	ORG $+3
$SG-62307 DB	'<input type=''hidden'' name=''name'' value=''', 00H
	ORG $+3
$SG-62310 DB	'''>Reason: <input name=''reason'' type=''text''>', 00H
$SG-62308 DB	'<p><b>MOVE PLAYER</b><br/><form class="niceform" action='
	DB	'''!p_administrate'' method=''get''><input type=''hidden'' nam'
	DB	'e=''func'' value=''move''>', 00H
	ORG $+2
$SG-62309 DB	'<input type="submit" value="Ban Player" style=''float:ri'
	DB	'ght''></form></p>', 00H
$SG-62311 DB	'name', 00H
	ORG $+3
$SG-62312 DB	'<input type=''hidden'' name=''name'' value=''', 00H
	ORG $+3
$SG-62313 DB	'''>', 00H
	ORG $+1
$SG-62314 DB	'<input type=''hidden'' name=''guid'' value=''', 00H
	ORG $+3
$SG-62317 DB	'Yell<input type="checkbox" name="yell" value="1">', 00H
	ORG $+2
$SG-62315 DB	'<p><b>BAN PLAYER</b><br/><form class="niceform" action='''
	DB	'!p_administrate'' method=''get''><input type=''hidden'' name='
	DB	'''func'' value=''ban''>', 00H
$SG-62320 DB	'<input type=''hidden'' name=''name'' value=''', 00H
	ORG $+3
$SG-62316 DB	'<input type="submit" value="Tell Player" style=''float:r'
	DB	'ight''></form></p>', 00H
	ORG $+3
$SG-62318 DB	'''>Message: <input name=''msg'' type=''text''><br/>', 00H
	ORG $+1
$SG-62319 DB	'name', 00H
	ORG $+3
$SG-62324 DB	'''>', 00H
	ORG $+1
$SG-62321 DB	'<p><b>CONTACT PLAYER</b><br/><form class="niceform" acti'
	DB	'on=''!p_administrate'' method=''get''><input type=''hidden'' '
	DB	'name=''func'' value=''msg''>', 00H
$SG-62322 DB	'</br><input type="submit" value="Add Admin" style=''floa'
	DB	't:right''></form></p>', 00H
$SG-62325 DB	'<input type=''hidden'' name=''eaID'' value=''', 00H
	ORG $+3
$SG-62323 DB	'Adminlevel:<select name="level"><option value="1">BadAss'
	DB	'</option><option value="2">Super BadAss</option></select>', 00H
	ORG $+2
$SG-62326 DB	'''>', 00H
	ORG $+1
$SG-62327 DB	'name', 00H
	ORG $+3
$SG-62328 DB	'<input type=''hidden'' name=''name'' value=''', 00H
	ORG $+3
$SG-62331 DB	'''>', 00H
	ORG $+1
$SG-62329 DB	'<p><b>MAKE ADMIN</b><br/><form class="niceform" action='''
	DB	'a_add'' method=''get''>', 00H
	ORG $+3
$SG-62330 DB	'</br><input type="submit" value="Add to Whitelist" style'
	DB	'=''float:right''></form></p>', 00H
	ORG $+1
$SG-62332 DB	'name', 00H
	ORG $+3
$SG-62333 DB	'<input type=''hidden'' name=''name'' value=''', 00H
	ORG $+3
$SG-62334 DB	'<p><b>ADD TO WHITELIST</b><br/><form class="niceform" ac'
	DB	'tion=''p_addwhite'' method=''get''>', 00H
$SG-62335 DB	'<h2>PLAYERLIST</h2>', 00H
$SG-62336 DB	'<div id="ajax_playerlist">Loading Playerlist...</div>', 00H
	ORG $+2
$SG-62338 DB	'<h2>BANLIST</h2>', 00H
	ORG $+3
$SG-62337 DB	'<script>var auto_refresh = setInterval(function(){$(''#a'
	DB	'jax_playerlist'').fadeOut(''fast'').load(''!p_list'').fadeIn('
	DB	'"fast");}, 10000);$(document).ready(function() {$(''#ajax_pla'
	DB	'yerlist'').hide().load(''!p_list'').fadeIn("slow")});</script'
	DB	'>', 00H
	ORG $+1
$SG-62339 DB	'<table id="table" class="datatable" style="width:100%;fo'
	DB	'nt-size:90%" cellpadding="0" cellspacing="0">', 00H
	ORG $+2
$SG-62340 DB	'<thead>', 00H
$SG-62341 DB	'<tr>', 00H
	ORG $+3
$SG-62342 DB	'<th>ID</th>', 00H
$SG-62343 DB	'<th>EAID</th>', 00H
	ORG $+2
$SG-62344 DB	'<th>Name</th>', 00H
	ORG $+2
$SG-62345 DB	'<th>Admin</th>', 00H
	ORG $+1
$SG-62346 DB	'<th>Reason</th>', 00H
$SG-62347 DB	'<th>Date</th>', 00H
	ORG $+2
$SG-62348 DB	'<th></th>', 00H
	ORG $+2
$SG-62349 DB	'</tr>', 00H
	ORG $+2
$SG-62350 DB	'</thead>', 00H
	ORG $+3
$SG-62351 DB	'<tbody>', 00H
$SG-62352 DB	'<tr>', 00H
	ORG $+3
$SG-62353 DB	'</td>', 00H
	ORG $+2
$SG-62354 DB	'<td>', 00H
	ORG $+3
$SG-62355 DB	'</td>', 00H
	ORG $+2
$SG-62356 DB	'<td style= "font-size:75%">', 00H
$SG-62357 DB	'</td>', 00H
	ORG $+2
$SG-62358 DB	'<td>', 00H
	ORG $+3
$SG-62359 DB	'</td>', 00H
	ORG $+2
$SG-62360 DB	'<td>', 00H
	ORG $+3
$SG-62361 DB	'</td>', 00H
	ORG $+2
$SG-62362 DB	'<td>', 00H
	ORG $+3
$SG-62363 DB	'</td>', 00H
	ORG $+2
$SG-62364 DB	'<td>', 00H
	ORG $+3
$SG-62365 DB	'"><span class="ui-icon ui-icon-trash"></span></a></td>', 00H
	ORG $+1
$SG-62366 DB	'<td><a class="ask" href="p_deleteban?guid=', 00H
	ORG $+1
$SG-62367 DB	'</tr>', 00H
	ORG $+2
$SG-62368 DB	'</tbody></table>', 00H
	ORG $+3
$SG-62369 DB	'You can also clear the gameserver-banlist. This will era'
	DB	'se EVERY ban, that is not stored in the list above.<br/><a hr'
	DB	'ef="p_updatebanlist">Click here to use this function and resy'
	DB	'nc all bans.</a>', 00H
	ORG $+1
$SG-62370 DB	'</form></div>', 00H
	ORG $+2
$SG-62371 DB	'</fieldset>', 00H
$SG-62372 DB	'</dl>', 00H
	ORG $+2
$SG-62373 DB	'<input type="submit" name="submit" value="Add"/>', 00H
	ORG $+3
$SG-62374 DB	'<dl class="submit">', 00H
$SG-62375 DB	'</dl>', 00H
	ORG $+2
$SG-62376 DB	'<dd><input type="text" name="reason" size="32"/></dd>', 00H
	ORG $+2
$SG-62377 DB	'<dt><label for="reason">Reason:</label></dt>', 00H
	ORG $+3
$SG-62378 DB	'<dl>', 00H
	ORG $+3
$SG-62379 DB	'</dl>', 00H
	ORG $+2
$SG-62380 DB	'<dd><input type="text" name="guid" size="32"/></dd>', 00H
$SG-62381 DB	'<dt><label for="guid">Ea#:</label></dt>', 00H
$SG-62382 DB	'<dl>', 00H
	ORG $+3
$SG-62383 DB	'</dl>', 00H
	ORG $+2
$SG-62384 DB	'<dd><input type="text" name="name" size="32"/></dd>', 00H
$SG-62385 DB	'<dt><label for="name">Name of Player:</label></dt>', 00H
	ORG $+1
$SG-62386 DB	'<dl>', 00H
	ORG $+3
$SG-62387 DB	'<fieldset>', 00H
	ORG $+1
$SG-62388 DB	'<div style="margin-top: 20px;"><h2>Add a Ban</h2><form c'
	DB	'lass="niceform" action="p_addban" method="post">', 00H
	ORG $+3
$SG-62389 DB	'p_deleteban', 00H
$SG-62390 DB	'guid', 00H
	ORG $+3
$SG-62391 DB	'Refresh', 00H
$SG-62392 DB	'0; url=p_banlist', 0dH, 0aH, 00H
	ORG $+1
$SG-62393 DB	'guid', 00H
	ORG $+3
$SG-62394 DB	'Redirecting...', 00H
	ORG $+1
$SG-62395 DB	'p_addban', 00H
	ORG $+3
$SG-62396 DB	'name', 00H
	ORG $+3
$SG-62397 DB	'guid', 00H
	ORG $+3
$SG-62398 DB	'reason', 00H
	ORG $+1
$SG-62399 DB	'Refresh', 00H
$SG-62400 DB	'0; url=p_banlist', 0dH, 0aH, 00H
	ORG $+1
$SG-62401 DB	'reason', 00H
	ORG $+1
$SG-62402 DB	'name', 00H
	ORG $+3
$SG-62403 DB	'guid', 00H
	ORG $+3
$SG-62404 DB	'Redirecting...', 00H
	ORG $+1
$SG-62405 DB	'p_updatebanlist', 00H
$SG-62406 DB	'Refresh', 00H
$SG-62407 DB	'0; url=p_banlist', 0dH, 0aH, 00H
	ORG $+1
$SG-62408 DB	'Redirecting...', 00H
	ORG $+1
$SG-62409 DB	'p_whitelist', 00H
$SG-62410 DB	'<h2>WHITELIST</h2>', 00H
	ORG $+1
$SG-62411 DB	'Admins are also listed here, but cannot be deleted!', 00H
$SG-62416 DB	'<th>Options</th>', 00H
	ORG $+3
$SG-62412 DB	'<table id="table" class="datatable" style="width:100%" c'
	DB	'ellpadding="0" cellspacing="0">', 00H
$SG-62413 DB	'<thead>', 00H
$SG-62414 DB	'<tr>', 00H
	ORG $+3
$SG-62415 DB	'<th>Name</th>', 00H
	ORG $+2
$SG-62417 DB	'</tr>', 00H
	ORG $+2
$SG-62418 DB	'</thead>', 00H
	ORG $+3
$SG-62419 DB	'<tbody>', 00H
$SG-62420 DB	'<tr>', 00H
	ORG $+3
$SG-62421 DB	'</td>', 00H
	ORG $+2
$SG-62422 DB	'<td>', 00H
	ORG $+3
$SG-62423 DB	'"><span class="ui-icon ui-icon-trash"></a></td>', 00H
$SG-62424 DB	'<td><a class="ask" href="p_deletewhite?name=', 00H
	ORG $+3
$SG-62425 DB	'</tr>', 00H
	ORG $+2
$SG-62426 DB	'</tbody></table>', 00H
	ORG $+3
$SG-62427 DB	'</form></div>', 00H
	ORG $+2
$SG-62428 DB	'</fieldset>', 00H
$SG-62429 DB	'</dl>', 00H
	ORG $+2
$SG-62430 DB	'<input type="submit" name="submit" value="Add"/>', 00H
	ORG $+3
$SG-62431 DB	'<dl class="submit">', 00H
$SG-62432 DB	'</dl>', 00H
	ORG $+2
$SG-62433 DB	'<dd><input type="text" name="name" size="32"/></dd>', 00H
$SG-62434 DB	'<dt><label for="name">Name of Player:</label></dt>', 00H
	ORG $+1
$SG-62435 DB	'<dl>', 00H
	ORG $+3
$SG-62436 DB	'<fieldset>', 00H
	ORG $+1
$SG-62437 DB	'<div style="margin-top: 20px;"><h2>Insert into Whitelist'
	DB	'</h2><form class="niceform" action="p_addwhite" method="post"'
	DB	'>', 00H
	ORG $+1
$SG-62438 DB	'p_deletewhite', 00H
	ORG $+2
$SG-62439 DB	'name', 00H
	ORG $+3
$SG-62440 DB	'Refresh', 00H
$SG-62441 DB	'0; url=p_whitelist', 0dH, 0aH, 00H
	ORG $+3
$SG-62442 DB	'name', 00H
	ORG $+3
$SG-62443 DB	'Redirecting...', 00H
	ORG $+1
$SG-62444 DB	'p_addwhite', 00H
	ORG $+1
$SG-62445 DB	'name', 00H
	ORG $+3
$SG-62446 DB	'Refresh', 00H
$SG-62447 DB	'0; url=p_whitelist', 0dH, 0aH, 00H
	ORG $+3
$SG-62448 DB	'name', 00H
	ORG $+3
$SG-62449 DB	'Redirecting...', 00H
	ORG $+1
$SG-62450 DB	'a_list', 00H
	ORG $+1
$SG-62451 DB	'<h2>ADMINLIST</h2>', 00H
	ORG $+1
$SG-62452 DB	'<table id="table" class="datatable" style="width:100%" c'
	DB	'ellpadding="0" cellspacing="0">', 00H
$SG-62453 DB	'<thead>', 00H
$SG-62454 DB	'<tr>', 00H
	ORG $+3
$SG-62455 DB	'<th>ID</th>', 00H
$SG-62456 DB	'<th>Name</th>', 00H
	ORG $+2
$SG-62457 DB	'<th>EaID</th>', 00H
	ORG $+2
$SG-62458 DB	'<th>Level</th>', 00H
	ORG $+1
$SG-62459 DB	'<th>Options</th>', 00H
	ORG $+3
$SG-62460 DB	'</tr>', 00H
	ORG $+2
$SG-62461 DB	'</thead>', 00H
	ORG $+3
$SG-62462 DB	'<tbody>', 00H
$SG-62463 DB	'<tr style="background-color: #ddffdd;">', 00H
$SG-62464 DB	'<tr style="background-color: #ccffcc;">', 00H
$SG-62465 DB	'<tr>', 00H
	ORG $+3
$SG-62466 DB	'</td>', 00H
	ORG $+2
$SG-62467 DB	'<td>', 00H
	ORG $+3
$SG-62468 DB	'</td>', 00H
	ORG $+2
$SG-62469 DB	'<td>', 00H
	ORG $+3
$SG-62470 DB	'...', 00H
$SG-62471 DB	'</td>', 00H
	ORG $+2
$SG-62472 DB	'<td>', 00H
	ORG $+3
$SG-62473 DB	'</form></td>', 00H
	ORG $+3
$SG-62474 DB	'<span class="ui-button-text">Save changes</span></button'
	DB	'>', 00H
	ORG $+2
$SG-62477 DB	'</select>', 00H
	ORG $+2
$SG-62475 DB	'<span class="ui-button-icon-primary ui-icon ui-icon-circ'
	DB	'le-check"></span>', 00H
	ORG $+2
$SG-62478 DB	'>Super Badass</option>', 00H
	ORG $+1
$SG-62479 DB	'selected', 00H
	ORG $+3
$SG-62476 DB	'<button class="ui-button ui-widget ui-state-default ui-c'
	DB	'orner-all ui-button-icon-only" role="button" aria-disabled="f'
	DB	'alse" title="Save changes">', 00H
	ORG $+3
$SG-62481 DB	'<option value="2" ', 00H
	ORG $+1
$SG-62482 DB	'>Badass</option>', 00H
	ORG $+3
$SG-62483 DB	'selected', 00H
	ORG $+3
$SG-62485 DB	'<option value="1" ', 00H
	ORG $+1
$SG-62486 DB	'<select size="1" name="level">', 00H
	ORG $+1
$SG-62487 DB	'">', 00H
	ORG $+1
$SG-62488 DB	'<input type="hidden" name="adminID" value="', 00H
$SG-62489 DB	'<td><form name="input" action="a_edit" method="get">', 00H
	ORG $+3
$SG-62490 DB	'"><span class="ui-icon ui-icon-trash"></a></td>', 00H
$SG-62491 DB	'<td><a class="ask" href="a_delete?adminID=', 00H
	ORG $+1
$SG-62492 DB	'<td>SUPERBADASS</td>', 00H
	ORG $+3
$SG-62493 DB	'<td>BADASS</td>', 00H
$SG-62494 DB	'<td></td>', 00H
	ORG $+2
$SG-62495 DB	'</tr>', 00H
	ORG $+2
$SG-62496 DB	'</tbody></table>', 00H
	ORG $+3
$SG-62497 DB	'</form></div>', 00H
	ORG $+2
$SG-62498 DB	'</fieldset>', 00H
$SG-62499 DB	'</dl>', 00H
	ORG $+2
$SG-62500 DB	'<input type="submit" name="submit" value="Add"/>', 00H
	ORG $+3
$SG-62501 DB	'<dl class="submit">', 00H
$SG-62502 DB	'</dl>', 00H
	ORG $+2
$SG-62503 DB	'</dd>', 00H
	ORG $+2
$SG-62504 DB	'</select>', 00H
	ORG $+2
$SG-62505 DB	'<option value="2">Super Badass</option>', 00H
$SG-62506 DB	'<option value="1">Badass</option>', 00H
	ORG $+2
$SG-62507 DB	'<select size="1" name="level">', 00H
	ORG $+1
$SG-62508 DB	'<dd>', 00H
	ORG $+3
$SG-62509 DB	'<dt><label for="name">Adminlevel:</label></dt>', 00H
	ORG $+1
$SG-62510 DB	'<dl>', 00H
	ORG $+3
$SG-62511 DB	'</dl>', 00H
	ORG $+2
$SG-62512 DB	'<dd><input type="text" name="eaID" size="54"/></dd>', 00H
$SG-62513 DB	'<dt><label for="eaID">EA#:</label></dt>', 00H
$SG-62514 DB	'<dl>', 00H
	ORG $+3
$SG-62515 DB	'</dl>', 00H
	ORG $+2
$SG-62516 DB	'<dd><input type="text" name="name" size="32"/></dd>', 00H
$SG-62517 DB	'<dt><label for="name">Name of Admin:</label></dt>', 00H
	ORG $+2
$SG-62518 DB	'<dl>', 00H
	ORG $+3
$SG-62519 DB	'<fieldset>', 00H
	ORG $+1
$SG-62521 DB	'a_delete', 00H
	ORG $+3
$SG-62520 DB	'<div style="margin-top: 20px;"><h2>Add BadAss (Admin)</h'
	DB	'2><form class="niceform" action="a_add" method="post">', 00H
	ORG $+1
$SG-62522 DB	'adminID', 00H
$SG-62523 DB	'Refresh', 00H
$SG-62524 DB	'0; url=a_list', 0dH, 0aH, 00H
$SG-62525 DB	'adminID', 00H
$SG-62526 DB	'Redirecting...', 00H
	ORG $+1
$SG-62527 DB	'a_add', 00H
	ORG $+2
$SG-62528 DB	'name', 00H
	ORG $+3
$SG-62529 DB	'eaID', 00H
	ORG $+3
$SG-62530 DB	'level', 00H
	ORG $+2
$SG-62531 DB	'Refresh', 00H
$SG-62532 DB	'0; url=a_list', 0dH, 0aH, 00H
$SG-62533 DB	'level', 00H
	ORG $+2
$SG-62534 DB	'name', 00H
	ORG $+3
$SG-62535 DB	'eaID', 00H
	ORG $+3
$SG-62536 DB	'Redirecting...', 00H
	ORG $+1
$SG-62537 DB	'a_edit', 00H
	ORG $+1
$SG-62538 DB	'adminID', 00H
$SG-62539 DB	'Refresh', 00H
$SG-62540 DB	'0; url=a_list', 0dH, 0aH, 00H
$SG-62541 DB	'level', 00H
	ORG $+2
$SG-62542 DB	'adminID', 00H
$SG-62543 DB	'Redirecting...', 00H
	ORG $+1
$SG-62544 DB	'a_payments', 00H
	ORG $+1
$SG-62545 DB	'<h2>PAYMENTS</h2>', 00H
	ORG $+2
$SG-62546 DB	'<table id="table" class="datatable" style="width:100%" c'
	DB	'ellpadding="0" cellspacing="0">', 00H
$SG-62547 DB	'<thead>', 00H
$SG-62548 DB	'<tr>', 00H
	ORG $+3
$SG-62549 DB	'<th>AdminID</th>', 00H
	ORG $+3
$SG-62550 DB	'<th>Name</th>', 00H
	ORG $+2
$SG-62551 DB	'<th>Next Payday</th>', 00H
	ORG $+3
$SG-62552 DB	'<th>Days left</th>', 00H
	ORG $+1
$SG-62553 DB	'</tr>', 00H
	ORG $+2
$SG-62554 DB	'</thead>', 00H
	ORG $+3
$SG-62555 DB	'<tbody>', 00H
$SG-62556 DB	'<tr>', 00H
	ORG $+3
$SG-62557 DB	'</td>', 00H
	ORG $+2
$SG-62558 DB	'<td>', 00H
	ORG $+3
$SG-62559 DB	'</td>', 00H
	ORG $+2
$SG-62560 DB	'<td>', 00H
	ORG $+3
$SG-62561 DB	'</td>', 00H
	ORG $+2
$SG-62562 DB	'</form>', 00H
$SG-62566 DB	'<span class="ui-button-text">Save changes</span></button'
	DB	'>', 00H
	ORG $+2
$SG-62563 DB	'<span class="ui-button-text">Remove check completely</sp'
	DB	'an></button>', 00H
	ORG $+3
$SG-62564 DB	'<span class="ui-button-icon-primary ui-icon ui-icon-tras'
	DB	'h"></span>', 00H
	ORG $+1
$SG-62569 DB	'" placeholder="Click me!">', 00H
	ORG $+1
$SG-62565 DB	'<button name="remove" class="ui-button ui-widget ui-stat'
	DB	'e-default ui-corner-all ui-button-icon-only" role="button" ar'
	DB	'ia-disabled="false" title="Remove check completely">', 00H
	ORG $+2
$SG-62571 DB	'">', 00H
	ORG $+1
$SG-62567 DB	'<span class="ui-button-icon-primary ui-icon ui-icon-circ'
	DB	'le-check"></span>', 00H
	ORG $+2
$SG-62572 DB	'<input type="hidden" name="adminID" value="', 00H
$SG-62568 DB	'<button class="ui-button ui-widget ui-state-default ui-c'
	DB	'orner-all ui-button-icon-only" role="button" aria-disabled="f'
	DB	'alse" title="Save changes">', 00H
	ORG $+3
$SG-62573 DB	'<td><form name="input" action="a_payments_edit" method="'
	DB	'post">', 00H
	ORG $+1
$SG-62576 DB	'/', 00H
	ORG $+2
$SG-62570 DB	'<input type="text" name="payday" class="datepicker" styl'
	DB	'e="border: none;" value="', 00H
	ORG $+2
$SG-62574 DB	'</td>', 00H
	ORG $+2
$SG-62575 DB	'<td>', 00H
	ORG $+3
$SG-62577 DB	' days</td>', 00H
	ORG $+1
$SG-62578 DB	'<td style="background-color: #ffbbbb;">Unpaid for ', 00H
	ORG $+1
$SG-62579 DB	' days</td>', 00H
	ORG $+1
$SG-62580 DB	'<td style="background-color: #bbffbb;">Paid for ', 00H
	ORG $+3
$SG-62581 DB	'<td style="background-color: #ffffbb;">Today</td>', 00H
	ORG $+2
$SG-62582 DB	'</tr>', 00H
	ORG $+2
$SG-62583 DB	'</tbody></table>', 00H
	ORG $+3
$SG-62584 DB	'a_payments_edit', 00H
$SG-62585 DB	'adminID', 00H
$SG-62586 DB	'payday', 00H
	ORG $+1
$SG-62587 DB	'Refresh', 00H
$SG-62588 DB	'0; url=a_payments', 0dH, 0aH, 00H
$SG-62589 DB	'remove', 00H
	ORG $+1
$SG-62591 DB	'payday', 00H
	ORG $+1
$SG-62592 DB	'adminID', 00H
$SG-62593 DB	'Redirecting...', 00H
	ORG $+1
$SG-62594 DB	's_vars', 00H
	ORG $+1
$SG-62595 DB	'<h2>VARS CONFIGURATION</h2>', 00H
$SG-62596 DB	'serverName', 00H
	ORG $+1
$SG-62597 DB	'serverMessage', 00H
	ORG $+2
$SG-62598 DB	'serverDescription', 00H
	ORG $+2
$SG-62599 DB	'gamePassword', 00H
	ORG $+3
$SG-62600 DB	'ranked', 00H
	ORG $+1
$SG-62601 DB	'autoBalance', 00H
$SG-62602 DB	'roundStartPlayerCount', 00H
	ORG $+2
$SG-62603 DB	'roundRestartPlayerCount', 00H
$SG-62604 DB	'roundLockdownCountdown', 00H
	ORG $+1
$SG-62605 DB	'friendlyFire', 00H
	ORG $+3
$SG-62606 DB	'maxPlayers', 00H
	ORG $+1
$SG-62607 DB	'killCam', 00H
$SG-62608 DB	'miniMap', 00H
$SG-62609 DB	'hud', 00H
$SG-62610 DB	'crossHair', 00H
	ORG $+2
$SG-62611 DB	'3dSpotting', 00H
	ORG $+1
$SG-62612 DB	'miniMapSpotting', 00H
$SG-62613 DB	'nameTag', 00H
$SG-62614 DB	'3pCam', 00H
	ORG $+2
$SG-62615 DB	'regenerateHealth', 00H
	ORG $+3
$SG-62616 DB	'teamKillCountForKick', 00H
	ORG $+3
$SG-62617 DB	'teamKillValueForKick', 00H
	ORG $+3
$SG-62618 DB	'teamKillValueIncrease', 00H
	ORG $+2
$SG-62619 DB	'teamKillValueDecreasePerSecond', 00H
	ORG $+1
$SG-62620 DB	'teamKillKickForBan', 00H
	ORG $+1
$SG-62621 DB	'idleTimeout', 00H
$SG-62622 DB	'idleBanRounds', 00H
	ORG $+2
$SG-62623 DB	'vehicleSpawnAllowed', 00H
$SG-62624 DB	'vehicleSpawnDelay', 00H
	ORG $+2
$SG-62625 DB	'soldierHealth', 00H
	ORG $+2
$SG-62626 DB	'playerRespawnTime', 00H
	ORG $+2
$SG-62627 DB	'playerManDownTime', 00H
	ORG $+2
$SG-62628 DB	'bulletDamage', 00H
	ORG $+3
$SG-62629 DB	'gameModeCounter', 00H
$SG-62630 DB	'onlySquadLeaderSpawn', 00H
	ORG $+3
$SG-62631 DB	'unlockMode', 00H
	ORG $+1
$SG-62632 DB	'premiumStatus', 00H
	ORG $+2
$SG-62633 DB	'bannerUrl', 00H
	ORG $+2
$SG-62634 DB	'roundsPerMap', 00H
	ORG $+3
$SG-62635 DB	'gunMasterWeaponsPreset', 00H
	ORG $+1
$SG-62636 DB	'serverlist', 00H
	ORG $+1
$SG-62637 DB	'<h2>SERVERLIST</h2>', 00H
$SG-62638 DB	'<tbody>', 00H
$SG-62639 DB	'</tfoot>', 00H
	ORG $+3
$SG-62640 DB	'</tr>', 00H
	ORG $+2
$SG-62641 DB	'<td class="rounded-foot-right">&nbsp;</td>', 00H
	ORG $+1
$SG-62644 DB	'<tfoot>', 00H
$SG-62645 DB	'</thead>', 00H
	ORG $+3
$SG-62642 DB	'<td colspan="6" class="rounded-foot-left"><em>This is st'
	DB	'ill a work in progress!!!</em></td>', 00H
$SG-62643 DB	'<tr>', 00H
	ORG $+3
$SG-62646 DB	'</tr>', 00H
	ORG $+2
$SG-62647 DB	'<th scope="col" class="rounded">Administrate</th>', 00H
	ORG $+2
$SG-62648 DB	'<th scope="col" class="rounded">Status</th>', 00H
$SG-62649 DB	'<th scope="col" class="rounded">Playercount</th>', 00H
	ORG $+3
$SG-62650 DB	'<th scope="col" class="rounded">Port</th>', 00H
	ORG $+2
$SG-62651 DB	'<th scope="col" class="rounded-company">Address</th>', 00H
	ORG $+3
$SG-62652 DB	'<tr>', 00H
	ORG $+3
$SG-62653 DB	'<thead>', 00H
$SG-62654 DB	'<table id="rounded-corner" summary="Serverlist">', 00H
	ORG $+3
$SG-62655 DB	'</td>', 00H
	ORG $+2
$SG-62656 DB	'<tr><td>', 00H
	ORG $+3
$SG-62657 DB	'</td>', 00H
	ORG $+2
$SG-62658 DB	'<td>', 00H
	ORG $+3
$SG-62659 DB	'</td>', 00H
	ORG $+2
$SG-62660 DB	'<td>', 00H
	ORG $+3
$SG-62661 DB	'<td>Server is running</td>', 00H
	ORG $+1
$SG-62662 DB	'<td>Server is running, but empty</td>', 00H
	ORG $+2
$SG-62663 DB	'</td>', 00H
	ORG $+2
$SG-62664 DB	'<td><img src="images/user_logout.png" alt="" title="" bo'
	DB	'rder="0" />', 00H
$SG-62665 DB	'/">Administrate</a></td>', 00H
	ORG $+3
$SG-62666 DB	'<td><a href="../-', 00H
	ORG $+2
$SG-62667 DB	'</tr>', 00H
	ORG $+2
$SG-62668 DB	'</tbody></table>', 00H
	ORG $+3
$SG-62669 DB	'e_weaponrestrict', 00H
	ORG $+3
$SG-62670 DB	'restrict.html', 00H
	ORG $+2
$SG-62671 DB	'" /></p>', 00H
	ORG $+3
$SG-62672 DB	'<p><label for="spinner">Minimum playercount: </label><in'
	DB	'put id="spinner" name="spinner" value="', 00H
$SG-62673 DB	'<h4 class="ui-widget-header"><span class="ui-icon ui-ico'
	DB	'n-locked">Restricted</span> Restricted</h4><ul class="gallery'
	DB	' ui-helper-reset"/>', 00H
	ORG $+3
$SG-62675 DB	'</h5>', 00H
	ORG $+2
$SG-62682 DB	'</ul></div>', 00H
$SG-62674 DB	'<div class="ui-widget ui-helper-clearfix"><div id="locke'
	DB	'd" class="ui-widget-content ui-state-default">', 00H
	ORG $+1
$SG-62676 DB	'<li class="ui-widget-content ui-corner-tr"><h5 class="ui'
	DB	'-widget-header">', 00H
	ORG $+3
$SG-62679 DB	'</h5>', 00H
	ORG $+2
$SG-62686 DB	'<thead>', 00H
$SG-62689 DB	'<th>Message</th>', 00H
	ORG $+3
$SG-62677 DB	'<a href="link/to/locked/script/when/we/have/js/off" titl'
	DB	'e="Unrestrict this weapon" class="ui-icon ui-icon-unlocked">U'
	DB	'nrestrict weapon</a></li>', 00H
	ORG $+1
$SG-62678 DB	'</ul></div><ul id="gallery" class="gallery ui-helper-res'
	DB	'et ui-helper-clearfix">', 00H
$SG-62680 DB	'<li class="ui-widget-content ui-corner-tr"><h5 class="ui'
	DB	'-widget-header">', 00H
	ORG $+3
$SG-62683 DB	'e_adv', 00H
	ORG $+2
$SG-62688 DB	'<th>AdvID</th>', 00H
	ORG $+1
$SG-62691 DB	'<th>Options</th>', 00H
	ORG $+3
$SG-62681 DB	'<a href="link/to/locked/script/when/we/have/js/off" titl'
	DB	'e="Restrict this weapon" class="ui-icon ui-icon-locked">Restr'
	DB	'ict weapon</a></li>', 00H
	ORG $+3
$SG-62684 DB	'<h2>ADV MESSAGES</h2>', 00H
	ORG $+2
$SG-62693 DB	'</thead>', 00H
	ORG $+3
$SG-62685 DB	'<table id="table" class="datatable" style="width:100%" c'
	DB	'ellpadding="0" cellspacing="0">', 00H
$SG-62687 DB	'<tr>', 00H
	ORG $+3
$SG-62690 DB	'<th>Yell</th>', 00H
	ORG $+2
$SG-62692 DB	'</tr>', 00H
	ORG $+2
$SG-62694 DB	'<tbody>', 00H
$SG-62695 DB	'<tr>', 00H
	ORG $+3
$SG-62696 DB	'</td>', 00H
	ORG $+2
$SG-62697 DB	'<td>', 00H
	ORG $+3
$SG-62698 DB	'</td>', 00H
	ORG $+2
$SG-62699 DB	'<td>', 00H
	ORG $+3
$SG-62700 DB	'<td><span class="ui-icon ui-icon-check"></td>', 00H
	ORG $+2
$SG-62701 DB	'<td></td>', 00H
	ORG $+2
$SG-62702 DB	'"><span class="ui-icon ui-icon-trash"></a></td>', 00H
$SG-62703 DB	'<td><a class="ask" href="e_deleteadv?advID=', 00H
$SG-62704 DB	'</tr>', 00H
	ORG $+2
$SG-62705 DB	'</tbody></table>', 00H
	ORG $+3
$SG-62706 DB	'</form></div>', 00H
	ORG $+2
$SG-62707 DB	'</fieldset>', 00H
$SG-62708 DB	'</dl>', 00H
	ORG $+2
$SG-62709 DB	'<input type="submit" name="submit" value="Add"/>', 00H
	ORG $+3
$SG-62710 DB	'<dl class="submit">', 00H
$SG-62711 DB	'</dl>', 00H
	ORG $+2
$SG-62712 DB	'</dd>', 00H
	ORG $+2
$SG-62713 DB	'<input type="checkbox" name="yell" value="1"/><label cla'
	DB	'ss="check_label">Yell to players</label>', 00H
	ORG $+3
$SG-62714 DB	'<dd>', 00H
	ORG $+3
$SG-62715 DB	'<dt><label></label></dt>', 00H
	ORG $+3
$SG-62716 DB	'<dl>', 00H
	ORG $+3
$SG-62717 DB	'</dl>', 00H
	ORG $+2
$SG-62718 DB	'<dd><input type="text" name="message" size="54"/></dd>', 00H
	ORG $+1
$SG-62719 DB	'<dt><label for="message">Message:</label></dt>', 00H
	ORG $+1
$SG-62720 DB	'<dl>', 00H
	ORG $+3
$SG-62721 DB	'<fieldset>', 00H
	ORG $+1
$SG-62723 DB	'e_deleteadv', 00H
$SG-62722 DB	'<div style="margin-top: 20px;"><h2>Add new Message</h2><'
	DB	'form class="niceform" action="e_addadv" method="post">', 00H
	ORG $+1
$SG-62724 DB	'advID', 00H
	ORG $+2
$SG-62725 DB	'Refresh', 00H
$SG-62726 DB	'0; url=e_adv', 0dH, 0aH, 00H
	ORG $+1
$SG-62727 DB	'advID', 00H
	ORG $+2
$SG-62728 DB	'Redirecting...', 00H
	ORG $+1
$SG-62729 DB	'e_addadv', 00H
	ORG $+3
$SG-62730 DB	'message', 00H
$SG-62731 DB	'Refresh', 00H
$SG-62732 DB	'0; url=e_adv', 0dH, 0aH, 00H
	ORG $+1
$SG-62733 DB	'yell', 00H
	ORG $+3
$SG-62734 DB	'0', 00H
	ORG $+2
$SG-62735 DB	'message', 00H
$SG-62736 DB	'1', 00H
	ORG $+2
$SG-62737 DB	'message', 00H
$SG-62738 DB	'Redirecting...', 00H
	ORG $+1
$SG-62739 DB	'e_nma', 00H
	ORG $+2
$SG-62740 DB	'<h2>NOTIFY MY ANDROID</h2>', 00H
	ORG $+1
$SG-62741 DB	'<table id="table" class="datatable" style="width:100%" c'
	DB	'ellpadding="0" cellspacing="0">', 00H
$SG-62742 DB	'<thead>', 00H
$SG-62743 DB	'<tr>', 00H
	ORG $+3
$SG-62744 DB	'<th width="80%">API-Keys</th>', 00H
	ORG $+2
$SG-62745 DB	'<th>Delete</th>', 00H
$SG-62746 DB	'</tr>', 00H
	ORG $+2
$SG-62747 DB	'</thead>', 00H
	ORG $+3
$SG-62748 DB	'<tbody>', 00H
$SG-62749 DB	'<tr>', 00H
	ORG $+3
$SG-62750 DB	'</td>', 00H
	ORG $+2
$SG-62751 DB	'<td>', 00H
	ORG $+3
$SG-62752 DB	'"><span class="ui-icon ui-icon-trash"></a></td>', 00H
$SG-62753 DB	'<td><a class="ask" href="e_deletenma?apikey=', 00H
	ORG $+3
$SG-62754 DB	'</tr>', 00H
	ORG $+2
$SG-62755 DB	'</tbody></table>', 00H
	ORG $+3
$SG-62756 DB	'</form></div>', 00H
	ORG $+2
$SG-62757 DB	'</fieldset>', 00H
$SG-62758 DB	'</dl>', 00H
	ORG $+2
$SG-62759 DB	'<input type="submit" name="submit" value="Add"/>', 00H
	ORG $+3
$SG-62760 DB	'<dl class="submit">', 00H
$SG-62761 DB	'</dl>', 00H
	ORG $+2
$SG-62762 DB	'<dd><input type="text" name="apikey" size="54"/></dd>', 00H
	ORG $+2
$SG-62763 DB	'<dt><label for="apikey">API-Key:</label></dt>', 00H
	ORG $+2
$SG-62764 DB	'<dl>', 00H
	ORG $+3
$SG-62765 DB	'<fieldset>', 00H
	ORG $+1
$SG-62766 DB	'<div style="margin-top: 20px;"><h2>Add NMA API-Key</h2><'
	DB	'form class="niceform" action="e_addnma" method="post">', 00H
	ORG $+1
$SG-62767 DB	'e_deletenma', 00H
$SG-62768 DB	'apikey', 00H
	ORG $+1
$SG-62769 DB	'Refresh', 00H
$SG-62770 DB	'0; url=e_nma', 0dH, 0aH, 00H
	ORG $+1
$SG-62771 DB	'apikey', 00H
	ORG $+1
$SG-62772 DB	'Redirecting...', 00H
	ORG $+1
$SG-62773 DB	'e_addnma', 00H
	ORG $+3
$SG-62774 DB	'apikey', 00H
	ORG $+1
$SG-62775 DB	'Refresh', 00H
$SG-62776 DB	'0; url=e_nma', 0dH, 0aH, 00H
	ORG $+1
$SG-62777 DB	'apikey', 00H
	ORG $+1
$SG-62778 DB	'Redirecting...', 00H
	ORG $+1
$SG-62779 DB	'e_nmatest', 00H
	ORG $+2
$SG-62780 DB	'TEST!', 00H
	ORG $+2
$SG-62781 DB	'e_mail', 00H
	ORG $+1
$SG-62782 DB	'<h2>NOTIFY MAIL RECEIVER(S)</h2>', 00H
	ORG $+3
$SG-62783 DB	'<table id="table" class="datatable" style="width:100%" c'
	DB	'ellpadding="0" cellspacing="0">', 00H
$SG-62784 DB	'<thead>', 00H
$SG-62785 DB	'<tr>', 00H
	ORG $+3
$SG-62786 DB	'<th width="80%"></th>', 00H
	ORG $+2
$SG-62787 DB	'<th>Delete</th>', 00H
$SG-62788 DB	'</tr>', 00H
	ORG $+2
$SG-62789 DB	'</thead>', 00H
	ORG $+3
$SG-62790 DB	'<tbody>', 00H
$SG-62791 DB	'<tr>', 00H
	ORG $+3
$SG-62792 DB	'</td>', 00H
	ORG $+2
$SG-62793 DB	'<td>', 00H
	ORG $+3
$SG-62794 DB	'"><span class="ui-icon ui-icon-trash"></a></td>', 00H
$SG-62795 DB	'<td><a class="ask" href="e_deletemailreceiver?mailaddy=', 00H
$SG-62796 DB	'</tr>', 00H
	ORG $+2
$SG-62797 DB	'</tbody></table>', 00H
	ORG $+3
$SG-62798 DB	'</form></div>', 00H
	ORG $+2
$SG-62799 DB	'</fieldset>', 00H
$SG-62800 DB	'</dl>', 00H
	ORG $+2
$SG-62801 DB	'<input type="submit" name="submit" value="Add"/>', 00H
	ORG $+3
$SG-62802 DB	'<dl class="submit">', 00H
$SG-62803 DB	'</dl>', 00H
	ORG $+2
$SG-62804 DB	'<dd><input type="text" name="mailaddy" size="54"/></dd>', 00H
$SG-62805 DB	'<dt><label for="mailaddy">Mail-Addy:</label></dt>', 00H
	ORG $+2
$SG-62806 DB	'<dl>', 00H
	ORG $+3
$SG-62807 DB	'<fieldset>', 00H
	ORG $+1
$SG-62810 DB	'mailaddy', 00H
	ORG $+3
$SG-62808 DB	'<div style="margin-top: 20px;"><h2>Add Mailreceiver</h2>'
	DB	'<form class="niceform" action="e_addmailreceiver" method="pos'
	DB	't">', 00H
	ORG $+3
$SG-62809 DB	'e_deletemailreceiver', 00H
	ORG $+3
$SG-62811 DB	'Refresh', 00H
$SG-62812 DB	'0; url=e_mail', 0dH, 0aH, 00H
$SG-62813 DB	'mailaddy', 00H
	ORG $+3
$SG-62814 DB	'Redirecting...', 00H
	ORG $+1
$SG-62815 DB	'e_addmailreceiver', 00H
	ORG $+2
$SG-62816 DB	'mailaddy', 00H
	ORG $+3
$SG-62817 DB	'Refresh', 00H
$SG-62818 DB	'0; url=e_mail', 0dH, 0aH, 00H
$SG-62819 DB	'mailaddy', 00H
	ORG $+3
$SG-62820 DB	'Redirecting...', 00H
	ORG $+1
$SG-62821 DB	'e_chatresponse', 00H
	ORG $+1
$SG-62822 DB	'<h2>AUTO CHATRESPONSE</h2>', 00H
	ORG $+1
$SG-62823 DB	'<table id="table" class="datatable" style="width:100%" c'
	DB	'ellpadding="0" cellspacing="0">', 00H
$SG-62824 DB	'<thead>', 00H
$SG-62825 DB	'<tr>', 00H
	ORG $+3
$SG-62826 DB	'<th>Command</th>', 00H
	ORG $+3
$SG-62827 DB	'<th>Response</th>', 00H
	ORG $+2
$SG-62828 DB	'<th>Delete</th>', 00H
$SG-62829 DB	'</tr>', 00H
	ORG $+2
$SG-62830 DB	'</thead>', 00H
	ORG $+3
$SG-62831 DB	'<tbody>', 00H
$SG-62832 DB	'<tr>', 00H
	ORG $+3
$SG-62833 DB	'</td>', 00H
	ORG $+2
$SG-62834 DB	'<td>', 00H
	ORG $+3
$SG-62835 DB	'</td>', 00H
	ORG $+2
$SG-62836 DB	'<td>', 00H
	ORG $+3
$SG-62837 DB	'"><span class="ui-icon ui-icon-trash"></a></td>', 00H
$SG-62838 DB	'<td><a class="ask" href="e_deletechatresponse?chatrespon'
	DB	'seid=', 00H
	ORG $+2
$SG-62839 DB	'</tr>', 00H
	ORG $+2
$SG-62840 DB	'</tbody></table>', 00H
	ORG $+3
$SG-62841 DB	'</form></div>', 00H
	ORG $+2
$SG-62842 DB	'</fieldset>', 00H
$SG-62843 DB	'</dl>', 00H
	ORG $+2
$SG-62844 DB	'<input type="submit" name="submit" value="Add"/>', 00H
	ORG $+3
$SG-62845 DB	'<dl class="submit">', 00H
$SG-62846 DB	'</dl>', 00H
	ORG $+2
$SG-62847 DB	'<dd><input type="text" name="response" size="54"/></dd>', 00H
$SG-62848 DB	'<dt><label for="response">Response:</label></dt>', 00H
	ORG $+3
$SG-62849 DB	'<dl>', 00H
	ORG $+3
$SG-62850 DB	'</dl>', 00H
	ORG $+2
$SG-62851 DB	'<dd><input type="text" name="command" size="54"/></dd>', 00H
	ORG $+1
$SG-62852 DB	'<dt><label for="command">Command:</label></dt>', 00H
	ORG $+1
$SG-62853 DB	'<dl>', 00H
	ORG $+3
$SG-62854 DB	'<fieldset>', 00H
	ORG $+1
$SG-62858 DB	'Refresh', 00H
$SG-62862 DB	'e_addchatresponse', 00H
	ORG $+2
$SG-62855 DB	'<div style="margin-top: 20px;"><h2>Add Chatresponse</h2>'
	DB	'<form class="niceform" action="e_addchatresponse" method="pos'
	DB	't">', 00H
	ORG $+3
$SG-62856 DB	'e_deletechatresponse', 00H
	ORG $+3
$SG-62857 DB	'chatresponseid', 00H
	ORG $+1
$SG-62859 DB	'0; url=e_chatresponse', 0dH, 0aH, 00H
$SG-62860 DB	'chatresponseid', 00H
	ORG $+1
$SG-62861 DB	'Redirecting...', 00H
	ORG $+1
$SG-62863 DB	'command', 00H
$SG-62864 DB	'response', 00H
	ORG $+3
$SG-62865 DB	'Refresh', 00H
$SG-62866 DB	'0; url=e_chatresponse', 0dH, 0aH, 00H
$SG-62867 DB	'response', 00H
	ORG $+3
$SG-62868 DB	'command', 00H
$SG-62869 DB	'Redirecting...', 00H
	ORG $+1
$SG-62870 DB	'e_atb', 00H
	ORG $+2
$SG-62871 DB	'<h2>AUTOTEAMBALANCE</h2>', 00H
	ORG $+3
$SG-62872 DB	'autoteambalance', 00H
$SG-62873 DB	'1', 00H
	ORG $+2
$SG-62874 DB	'autoteambalance', 00H
$SG-62875 DB	'1', 00H
	ORG $+2
$SG-62876 DB	'0', 00H
	ORG $+2
$SG-62877 DB	'atb', 00H
$SG-62878 DB	'<font color="#00CC00">Autoteambalance</font> | <a href="'
	DB	'?autoteambalance=0">DISABLE</a><br/>', 00H
	ORG $+3
$SG-62879 DB	'<font color="#CC0000">Autoteambalance</font> | <a href="'
	DB	'?autoteambalance=1">ENABLE</a><br/>', 00H
$SG-62880 DB	'e_shs', 00H
	ORG $+2
$SG-62881 DB	'<h2>SHOW HEADSHOTS</h2>', 00H
$SG-62882 DB	'showhs', 00H
	ORG $+1
$SG-62883 DB	'1', 00H
	ORG $+2
$SG-62884 DB	'showhs', 00H
	ORG $+1
$SG-62885 DB	'1', 00H
	ORG $+2
$SG-62886 DB	'0', 00H
	ORG $+2
$SG-62887 DB	'showheadshots', 00H
	ORG $+2
$SG-62888 DB	'<font color="#00CC00">Show Headshots</font> | <a href="?'
	DB	'showhs=0">DISABLE</a><br/>', 00H
	ORG $+1
$SG-62892 DB	'welcomemsg', 00H
	ORG $+1
$SG-62889 DB	'<font color="#CC0000">Show Headshots</font> | <a href="?'
	DB	'showhs=1">ENABLE</a><br/>', 00H
	ORG $+2
$SG-62890 DB	'e_wm', 00H
	ORG $+3
$SG-62891 DB	'<h2>SHOW WELCOME-MESSAGE</h2>', 00H
	ORG $+2
$SG-62893 DB	'1', 00H
	ORG $+2
$SG-62894 DB	'welcomemsg', 00H
	ORG $+1
$SG-62895 DB	'1', 00H
	ORG $+2
$SG-62896 DB	'0', 00H
	ORG $+2
$SG-62897 DB	'showwelcomemsg', 00H
	ORG $+1
$SG-62901 DB	'welcomemsg', 00H
	ORG $+1
$SG-62898 DB	'<font color="#00CC00">Welcome Message</font> | <a href="'
	DB	'?welcomemsg=0">DISABLE</a><br/>', 00H
$SG-62899 DB	'welcomemsgtext', 00H
	ORG $+1
$SG-62900 DB	'welcomemsgtext', 00H
	ORG $+1
$SG-62902 DB	'"><input type="submit" value="Store"></form>', 00H
	ORG $+3
$SG-62903 DB	'<form action=''e_showwelcomemsg'' method=''post''>Welcom'
	DB	'e Message Text: <input name=''welcomemsgtext'' type=''text'' '
	DB	'value="', 00H
	ORG $+3
$SG-62904 DB	'<font color="#CC0000">Welcome Message</font> | <a href="'
	DB	'?welcomemsg=1">ENABLE</a><br/>', 00H
	ORG $+1
$SG-62905 DB	'e_badassjoinmsg', 00H
$SG-62906 DB	'<h2>BADASS(ADMIN) JOIN-MESSAGE</h2>', 00H
$SG-62907 DB	'badassjoinmsg', 00H
	ORG $+2
$SG-62908 DB	'1', 00H
	ORG $+2
$SG-62909 DB	'badassjoinmsg', 00H
	ORG $+2
$SG-62910 DB	'1', 00H
	ORG $+2
$SG-62911 DB	'0', 00H
	ORG $+2
$SG-62912 DB	'badassjoinmessage', 00H
	ORG $+2
$SG-62915 DB	'e_votes', 00H
$SG-62917 DB	'votekick', 00H
	ORG $+3
$SG-62913 DB	'<font color="#00CC00">Badass(Admin) Join Message</font> '
	DB	'| <a href="?badassjoinmsg=0">DISABLE</a><br/>', 00H
	ORG $+2
$SG-62914 DB	'<font color="#CC0000">Badass(Admin) Join Message</font> '
	DB	'| <a href="?badassjoinmsg=1">ENABLE</a><br/>', 00H
	ORG $+3
$SG-62916 DB	'<h2>VOTES</h2>', 00H
	ORG $+1
$SG-62918 DB	'1', 00H
	ORG $+2
$SG-62919 DB	'votekick', 00H
	ORG $+3
$SG-62920 DB	'1', 00H
	ORG $+2
$SG-62921 DB	'0', 00H
	ORG $+2
$SG-62922 DB	'votekick', 00H
	ORG $+3
$SG-62925 DB	'l_livechat', 00H
	ORG $+1
$SG-62923 DB	'<font color="#00CC00">Votekick</font> | <a href="?voteki'
	DB	'ck=0">DISABLE</a><br/>', 00H
	ORG $+1
$SG-62924 DB	'<font color="#CC0000">Votekick</font> | <a href="?voteki'
	DB	'ck=1">ENABLE</a><br/>', 00H
	ORG $+2
$SG-62926 DB	'msg', 00H
$SG-62928 DB	'all', 00H
$SG-62929 DB	'msg', 00H
$SG-62930 DB	'server', 00H
	ORG $+1
$SG-62931 DB	'msg', 00H
$SG-62932 DB	'</form></div>', 00H
	ORG $+2
$SG-62933 DB	'</fieldset>', 00H
$SG-62934 DB	'</dl>', 00H
	ORG $+2
$SG-62935 DB	'<input type="submit" name="submit" value="Send Message"/'
	DB	'>', 00H
	ORG $+2
$SG-62936 DB	'<dl class="submit">', 00H
$SG-62937 DB	'</dl>', 00H
	ORG $+2
$SG-62938 DB	'<dd><input type="text" name="msg" size="54"/></dd>', 00H
	ORG $+1
$SG-62939 DB	'<dt><label for="msg">Send Message:</label></dt>', 00H
$SG-62940 DB	'<dl>', 00H
	ORG $+3
$SG-62941 DB	'<fieldset>', 00H
	ORG $+1
$SG-62943 DB	'<div id="ajax_chat">Loading Chat...</div>', 00H
	ORG $+2
$SG-62942 DB	'<div style="margin-top: 20px;"><h2>Send Chat-Message</h2'
	DB	'><form class="niceform" action="l_livechat" method="post">', 00H
	ORG $+1
$SG-62948 DB	'<thead>', 00H
$SG-62950 DB	'<th></th>', 00H
	ORG $+2
$SG-62944 DB	'<script>var auto_refresh = setInterval(function(){$(''#a'
	DB	'jax_chat'').fadeOut(''fast'').load(''!livechat'').fadeIn("fas'
	DB	't");}, 2000);$(document).ready(function() {$(''#ajax_chat'').'
	DB	'hide().load(''!livechat'').fadeIn("slow")});</script>', 00H
	ORG $+2
$SG-62945 DB	'l_log', 00H
	ORG $+2
$SG-62946 DB	'<h2>LAST 15000 LogEntries</h2>', 00H
	ORG $+1
$SG-62947 DB	'<table id="table" class="datatable" style="width:100%" c'
	DB	'ellpadding="0" cellspacing="0">', 00H
$SG-62949 DB	'<tr>', 00H
	ORG $+3
$SG-62951 DB	'<th>Time</th>', 00H
	ORG $+2
$SG-62952 DB	'<th>Name</th>', 00H
	ORG $+2
$SG-62953 DB	'<th>Message</th>', 00H
	ORG $+3
$SG-62954 DB	'</tr>', 00H
	ORG $+2
$SG-62955 DB	'</thead>', 00H
	ORG $+3
$SG-62956 DB	'<tbody>', 00H
$SG-62957 DB	'<tr style="background-color: #bbffbb;">', 00H
$SG-62958 DB	'<tr style="background-color: #ffddbb;">', 00H
$SG-62959 DB	'<tr style="background-color: #ffaaaa;">', 00H
$SG-62960 DB	'<tr style="background-color: #ffffbb;">', 00H
$SG-62961 DB	'<tr style="background-color: #ffffaa;">', 00H
$SG-62962 DB	'<tr style="background-color: #ffffbb;">', 00H
$SG-62963 DB	'<tr>', 00H
	ORG $+3
$SG-62964 DB	'</td>', 00H
	ORG $+2
$SG-62965 DB	'<td>', 00H
	ORG $+3
$SG-62966 DB	'</td>', 00H
	ORG $+2
$SG-62967 DB	'<td>', 00H
	ORG $+3
$SG-62968 DB	'</td>', 00H
	ORG $+2
$SG-62969 DB	'<td>', 00H
	ORG $+3
$SG-62970 DB	'</td>', 00H
	ORG $+2
$SG-62971 DB	'<td>', 00H
	ORG $+3
$SG-62972 DB	'</tr>', 00H
	ORG $+2
$SG-62973 DB	'</tbody></table>', 00H
	ORG $+3
$SG-62974 DB	'</u>', 00H
	ORG $+3
$SG-62975 DB	'Unknown function <u>', 00H
	ORG $+3
$SG-62983 DB	'<h2>SERVERLIST</h2>', 00H
$SG-62976 DB	'Welcome User | <a href="../" class="serverlist">Administ'
	DB	'rate (RSP)</a>', 00H
	ORG $+1
$SG-62977 DB	'Server not running: ', 00H
	ORG $+3
$SG-62978 DB	'pass', 00H
	ORG $+3
$SG-62979 DB	'pass', 00H
	ORG $+3
$SG-62980 DB	'pass', 00H
	ORG $+3
$SG-62981 DB	'pass', 00H
	ORG $+3
$SG-62982 DB	'list', 00H
	ORG $+3
$SG-62984 DB	'<tbody>', 00H
$SG-62985 DB	'</tfoot>', 00H
	ORG $+3
$SG-62986 DB	'</tr>', 00H
	ORG $+2
$SG-62987 DB	'<td class="rounded-foot-right">&nbsp;</td>', 00H
	ORG $+1
$SG-62988 DB	'<td colspan="6" class="rounded-foot-left"><em>This is st'
	DB	'ill a work in progress!!!</em></td>', 00H
$SG-62989 DB	'<tr>', 00H
	ORG $+3
$SG-62990 DB	'<tfoot>', 00H
$SG-62991 DB	'</thead>', 00H
	ORG $+3
$SG-62992 DB	'</tr>', 00H
	ORG $+2
$SG-62993 DB	'<th scope="col" class="rounded-q4">Delete</th>', 00H
	ORG $+1
$SG-62994 DB	'<th scope="col" class="rounded">Start/Stop</th>', 00H
$SG-62995 DB	'<th scope="col" class="rounded">Status</th>', 00H
$SG-62996 DB	'<th scope="col" class="rounded">Playercount</th>', 00H
	ORG $+3
$SG-62997 DB	'<th scope="col" class="rounded">Owner</th>', 00H
	ORG $+1
$SG-62998 DB	'<th scope="col" class="rounded">Port</th>', 00H
	ORG $+2
$SG-62999 DB	'<th scope="col" class="rounded">Address</th>', 00H
	ORG $+3
$SG-63000 DB	'<th scope="col" class="rounded-company">Name</th>', 00H
	ORG $+2
$SG-63001 DB	'<tr>', 00H
	ORG $+3
$SG-63002 DB	'<thead>', 00H
$SG-63003 DB	'<table id="rounded-corner" summary="Serverlist">', 00H
	ORG $+3
$SG-63004 DB	'</td>', 00H
	ORG $+2
$SG-63005 DB	'<tr><td>', 00H
	ORG $+3
$SG-63006 DB	'</td>', 00H
	ORG $+2
$SG-63007 DB	'<td>', 00H
	ORG $+3
$SG-63008 DB	'</td>', 00H
	ORG $+2
$SG-63009 DB	'<td>', 00H
	ORG $+3
$SG-63010 DB	'</td>', 00H
	ORG $+2
$SG-63011 DB	'<td>', 00H
	ORG $+3
$SG-63012 DB	'</td>', 00H
	ORG $+2
$SG-63013 DB	'<td>', 00H
	ORG $+3
$SG-63014 DB	'<td>Server is running</td>', 00H
	ORG $+1
$SG-63015 DB	'"><img src="images/stop.png" alt="" title="" border="0" '
	DB	'/></a></td>', 00H
$SG-63016 DB	'<td><a class="ask" href="stopserver?server=', 00H
$SG-63017 DB	'<td>Server is running, but empty</td>', 00H
	ORG $+2
$SG-63018 DB	'"><img src="images/stop.png" alt="" title="" border="0" '
	DB	'/></a></td>', 00H
$SG-63019 DB	'<td><a class="ask" href="stopserver?server=', 00H
$SG-63020 DB	'</td>', 00H
	ORG $+2
$SG-63021 DB	'<td><img src="images/user_logout.png" alt="" title="" bo'
	DB	'rder="0" />', 00H
$SG-63023 DB	'<td><a href="startserver?server=', 00H
	ORG $+3
$SG-63022 DB	'"><img src="images/start.png" alt="" title="" border="0"'
	DB	' /></a></td>', 00H
	ORG $+3
$SG-63024 DB	'" class="ask"><img src="images/trash.png" alt="" title="'
	DB	'" border="0" /></a></td>', 00H
	ORG $+3
$SG-63025 DB	'<td><a href="deleteserver?server=', 00H
	ORG $+2
$SG-63026 DB	'</tr>', 00H
	ORG $+2
$SG-63027 DB	'</tbody></table>', 00H
	ORG $+3
$SG-63028 DB	'</form></div>', 00H
	ORG $+2
$SG-63029 DB	'</fieldset>', 00H
$SG-63030 DB	'</dl>', 00H
	ORG $+2
$SG-63031 DB	'<input type="submit" name="submit" value="Add"/>', 00H
	ORG $+3
$SG-63032 DB	'<dl class="submit">', 00H
$SG-63033 DB	'</dl>', 00H
	ORG $+2
$SG-63034 DB	'<dd><input type="text" name="name" size="54"/></dd>', 00H
$SG-63035 DB	'<dt><label for="name">Server name:</label></dt>', 00H
$SG-63036 DB	'<dl>', 00H
	ORG $+3
$SG-63037 DB	'</dl>', 00H
	ORG $+2
$SG-63038 DB	'<dd><input type="text" name="owner" size="54"/></dd>', 00H
	ORG $+3
$SG-63039 DB	'<dt><label for="owner">Owner:</label></dt>', 00H
	ORG $+1
$SG-63040 DB	'<dl>', 00H
	ORG $+3
$SG-63041 DB	'</dl>', 00H
	ORG $+2
$SG-63042 DB	'<dd><input type="text" name="gs_pwd" size="54"/></dd>', 00H
	ORG $+2
$SG-63043 DB	'<dt><label for="gs_pwd">GameServer-PWD:</label></dt>', 00H
	ORG $+3
$SG-63044 DB	'<dl>', 00H
	ORG $+3
$SG-63045 DB	'</dl>', 00H
	ORG $+2
$SG-63046 DB	'<dd><input type="text" name="gs_port" size="54"/></dd>', 00H
	ORG $+1
$SG-63047 DB	'<dt><label for="gs_port">RCON-Port:</label></dt>', 00H
	ORG $+3
$SG-63048 DB	'<dl>', 00H
	ORG $+3
$SG-63049 DB	'</dl>', 00H
	ORG $+2
$SG-63050 DB	'<dd><input type="text" name="gs_address" size="54"/></dd'
	DB	'>', 00H
	ORG $+2
$SG-63051 DB	'<dt><label for="gs_address">GameServer-Address:</label><'
	DB	'/dt>', 00H
	ORG $+3
$SG-63052 DB	'<dl>', 00H
	ORG $+3
$SG-63053 DB	'<fieldset>', 00H
	ORG $+1
$SG-63057 DB	'Refresh', 00H
$SG-63060 DB	'addserver', 00H
	ORG $+2
$SG-63054 DB	'<div style="margin-top: 20px;"><h2>Add Server</h2><form '
	DB	'class="niceform" action="addserver" method="post">', 00H
	ORG $+1
$SG-63055 DB	'deleteserver', 00H
	ORG $+3
$SG-63056 DB	'server', 00H
	ORG $+1
$SG-63058 DB	'0; url=list', 0dH, 0aH, 00H
	ORG $+2
$SG-63059 DB	'Redirecting...', 00H
	ORG $+1
$SG-63061 DB	'gs_address', 00H
	ORG $+1
$SG-63062 DB	'gs_port', 00H
$SG-63063 DB	'gs_pwd', 00H
	ORG $+1
$SG-63064 DB	'owner', 00H
	ORG $+2
$SG-63065 DB	'name', 00H
	ORG $+3
$SG-63066 DB	'Refresh', 00H
$SG-63067 DB	'0; url=list', 0dH, 0aH, 00H
	ORG $+2
$SG-63068 DB	'Not supported', 00H
	ORG $+2
$SG-63069 DB	'startserver', 00H
$SG-63070 DB	'server', 00H
	ORG $+1
$SG-63071 DB	'Refresh', 00H
$SG-63072 DB	'0; url=list', 0dH, 0aH, 00H
	ORG $+2
$SG-63073 DB	'server', 00H
	ORG $+1
$SG-63074 DB	'Redirecting...', 00H
	ORG $+1
$SG-63075 DB	'stopserver', 00H
	ORG $+1
$SG-63076 DB	'server', 00H
	ORG $+1
$SG-63077 DB	'Refresh', 00H
$SG-63078 DB	'0; url=list', 0dH, 0aH, 00H
	ORG $+2
$SG-63079 DB	'server', 00H
	ORG $+1
$SG-63080 DB	'Stopped by RSP!', 00H
$SG-63081 DB	'Redirecting...', 00H
	ORG $+1
$SG-63082 DB	'</u>', 00H
	ORG $+3
$SG-63083 DB	'Unknown function <u>', 00H
	ORG $+3
$SG-63084 DB	'jpg', 00H
$SG-63085 DB	'www/', 00H
	ORG $+3
$SG-63086 DB	'Content-Type', 00H
	ORG $+3
$SG-63087 DB	'image/jpeg', 00H
	ORG $+1
$SG-63088 DB	'Content-Length', 00H
	ORG $+1
$SG-63089 DB	'gif', 00H
$SG-63090 DB	'www/', 00H
	ORG $+3
$SG-63091 DB	'Content-Type', 00H
	ORG $+3
$SG-63092 DB	'image/gif', 00H
	ORG $+2
$SG-63093 DB	'Content-Length', 00H
	ORG $+1
$SG-63094 DB	'png', 00H
$SG-63095 DB	'www/', 00H
	ORG $+3
$SG-63096 DB	'Content-Type', 00H
	ORG $+3
$SG-63097 DB	'image/png', 00H
	ORG $+2
$SG-63098 DB	'Content-Length', 00H
	ORG $+1
$SG-63099 DB	'html', 00H
	ORG $+3
$SG-63100 DB	'htm', 00H
$SG-63101 DB	'css', 00H
$SG-63102 DB	'Content-Type', 00H
	ORG $+3
$SG-63103 DB	'text/css', 00H
	ORG $+3
$SG-63104 DB	'js', 00H
	ORG $+1
$SG-63105 DB	'Content-Type', 00H
	ORG $+3
$SG-63106 DB	'text/javascript', 00H
$SG-63113 DB	'Socket error while starting server: ', 00H
	ORG $+3
$SG-63114 DB	'http::thread', 00H
	ORG $+3
$SG-63115 DB	'..\src\http.cpp', 00H
$SG-63116 DB	'Error while starting server: ', 00H
	ORG $+2
$SG-63117 DB	'http::thread', 00H
	ORG $+3
$SG-63118 DB	'..\src\http.cpp', 00H
$SG-63119 DB	'www/404.html', 00H
	ORG $+3
$SG-63120 DB	'www/login.html', 00H
	ORG $+1
$SG-63121 DB	'www/login_rsp.html', 00H
	ORG $+1
$SG-63122 DB	'www/header_1.html', 00H
	ORG $+2
$SG-63123 DB	'www/header_2.html', 00H
	ORG $+2
$SG-63124 DB	'www/header_3.html', 00H
	ORG $+2
$SG-63125 DB	'www/header_rsp.html', 00H
$SG-63126 DB	'www/footer.html', 00H
$SG-63127 DB	'www/unknownserver.html', 00H
	ORG $+1
$SG-63128 DB	'http::start', 00H
$SG-63129 DB	'..\src\http.cpp', 00H
$SG-63130 DB	'http::stop', 00H
	ORG $+1
$SG-63131 DB	'..\src\http.cpp', 00H
$SG-63176 DB	'.', 0aH, 00H
	ORG $+1
$SG-63177 DB	0aH, 0aH, 'Error detected at line ', 00H
	ORG $+2
$SG-63178 DB	'.', 0aH, 00H
	ORG $+1
$SG-63179 DB	'e:\library\dlib\dlib\set/set_kernel_c.h', 00H
$SG-63180 DB	'Error detected in file ', 00H
$SG-63181 DB	'.', 0aH, 0aH, 00H
$SG-63183 DB	'Error detected in function ', 00H
$SG-63182 DB	'void __thiscall dlib::set_kernel_c<class dlib::set_kerne'
	DB	'l_1<unsigned long,class dlib::binary_search_tree_kernel_2<uns'
	DB	'igned long,char,class dlib::memory_manager_kernel_2<char,100>'
	DB	',struct std::less<unsigned long> >,class dlib::memory_manager'
	DB	'_kernel_2<char,100> > >::remove_any(unsigned long &)', 00H
$SG-63184 DB	'.', 0aH, 00H
	ORG $+1
$SG-63185 DB	'this->size() != 0', 00H
	ORG $+2
$SG-63186 DB	'Failing expression was ', 00H
$SG-63187 DB	0aH, 00H
	ORG $+2
$SG-63188 DB	0aH, 09H, 'this: ', 00H
	ORG $+3
$SG-63189 DB	0aH, 09H, 'size must be greater than zero if an item is t'
	DB	'o be removed', 00H
	ORG $+3
$SG-63190 DB	09H, 'void set::remove_any', 00H
	ORG $+2
$SG-63191 DB	'.', 0aH, 00H
	ORG $+1
$SG-63192 DB	0aH, 0aH, 'Error detected at line ', 00H
	ORG $+2
$SG-63193 DB	'.', 0aH, 00H
	ORG $+1
$SG-63194 DB	'e:\library\dlib\dlib\set/set_kernel_c.h', 00H
$SG-63195 DB	'Error detected in file ', 00H
$SG-63196 DB	'.', 0aH, 0aH, 00H
$SG-63198 DB	'Error detected in function ', 00H
$SG-63197 DB	'const unsigned long &__thiscall dlib::set_kernel_c<class'
	DB	' dlib::set_kernel_1<unsigned long,class dlib::binary_search_t'
	DB	'ree_kernel_2<unsigned long,char,class dlib::memory_manager_ke'
	DB	'rnel_2<char,100>,struct std::less<unsigned long> >,class dlib'
	DB	'::memory_manager_kernel_2<char,100> > >::element(void) const', 00H
$SG-63199 DB	'.', 0aH, 00H
	ORG $+1
$SG-63200 DB	'this->current_element_valid() == true', 00H
	ORG $+2
$SG-63201 DB	'Failing expression was ', 00H
$SG-63202 DB	0aH, 00H
	ORG $+2
$SG-63203 DB	0aH, 09H, 'this: ', 00H
	ORG $+3
$SG-63204 DB	0aH, 09H, 'you can''t access the current element if it do'
	DB	'esn''t exist', 00H
	ORG $+1
$SG-63205 DB	09H, 'const T& set::element() const', 00H
	ORG $+1
$SG-63206 DB	'.', 0aH, 00H
	ORG $+1
$SG-63207 DB	0aH, 0aH, 'Error detected at line ', 00H
	ORG $+2
$SG-63208 DB	'.', 0aH, 00H
	ORG $+1
$SG-63209 DB	'e:\library\dlib\dlib\set/set_kernel_c.h', 00H
$SG-63210 DB	'Error detected in file ', 00H
$SG-63211 DB	'.', 0aH, 0aH, 00H
$SG-63213 DB	'Error detected in function ', 00H
$SG-63212 DB	'const unsigned long &__thiscall dlib::set_kernel_c<class'
	DB	' dlib::set_kernel_1<unsigned long,class dlib::binary_search_t'
	DB	'ree_kernel_2<unsigned long,char,class dlib::memory_manager_ke'
	DB	'rnel_2<char,100>,struct std::less<unsigned long> >,class dlib'
	DB	'::memory_manager_kernel_2<char,100> > >::element(void)', 00H
	ORG $+2
$SG-63214 DB	'.', 0aH, 00H
	ORG $+1
$SG-63215 DB	'this->current_element_valid() == true', 00H
	ORG $+2
$SG-63216 DB	'Failing expression was ', 00H
$SG-63217 DB	0aH, 00H
	ORG $+2
$SG-63218 DB	0aH, 09H, 'this: ', 00H
	ORG $+3
$SG-63219 DB	0aH, 09H, 'you can''t access the current element if it do'
	DB	'esn''t exist', 00H
	ORG $+1
$SG-63220 DB	09H, 'const T& set::element', 00H
	ORG $+1
$SG-63221 DB	'.', 0aH, 00H
	ORG $+1
$SG-63222 DB	0aH, 0aH, 'Error detected at line ', 00H
	ORG $+2
$SG-63223 DB	'.', 0aH, 00H
	ORG $+1
$SG-63225 DB	'Error detected in file ', 00H
$SG-63226 DB	'.', 0aH, 0aH, 00H
$SG-63224 DB	'e:\library\dlib\dlib\binary_search_tree/binary_search_tr'
	DB	'ee_kernel_c.h', 00H
	ORG $+2
$SG-63227 DB	'void __thiscall dlib::binary_search_tree_kernel_c<class '
	DB	'dlib::binary_search_tree_kernel_2<unsigned long,class dlib::m'
	DB	'ember_function_pointer<void,void,void,void>,class dlib::memor'
	DB	'y_manager_kernel_2<char,10>,struct std::less<unsigned long> >'
	DB	' >::remove_any(unsigned long &,class dlib::member_function_po'
	DB	'inter<void,void,void,void> &)', 00H
	ORG $+2
$SG-63228 DB	'Error detected in function ', 00H
$SG-63229 DB	'.', 0aH, 00H
	ORG $+1
$SG-63231 DB	'Failing expression was ', 00H
$SG-63232 DB	0aH, 00H
	ORG $+2
$SG-63230 DB	'this->size() != 0 && (static_cast<const void*>(&d) != st'
	DB	'atic_cast<void*>(&r))', 00H
	ORG $+2
$SG-63233 DB	0aH, 09H, '&r:   ', 00H
	ORG $+3
$SG-63234 DB	0aH, 09H, '&d:   ', 00H
	ORG $+3
$SG-63235 DB	0aH, 09H, 'this: ', 00H
	ORG $+3
$SG-63236 DB	0aH, 09H, 'tree must not be empty if something is going t'
	DB	'o be removed', 00H
	ORG $+3
$SG-63237 DB	09H, 'void binary_search_tree::remove_any', 00H
	ORG $+3
$SG-63238 DB	'.', 0aH, 00H
	ORG $+1
$SG-63239 DB	0aH, 0aH, 'Error detected at line ', 00H
	ORG $+2
$SG-63240 DB	'.', 0aH, 00H
	ORG $+1
$SG-63241 DB	'e:\library\dlib\dlib\binary_search_tree/binary_search_tr'
	DB	'ee_kernel_c.h', 00H
	ORG $+2
$SG-63242 DB	'Error detected in file ', 00H
$SG-63243 DB	'.', 0aH, 0aH, 00H
$SG-63245 DB	'Error detected in function ', 00H
$SG-63244 DB	'class dlib::map_pair<unsigned long,class dlib::member_fu'
	DB	'nction_pointer<void,void,void,void> > &__thiscall dlib::binar'
	DB	'y_search_tree_kernel_c<class dlib::binary_search_tree_kernel_'
	DB	'2<unsigned long,class dlib::member_function_pointer<void,void'
	DB	',void,void>,class dlib::memory_manager_kernel_2<char,10>,stru'
	DB	'ct std::less<unsigned long> > >::element(void)', 00H
	ORG $+1
$SG-63246 DB	'.', 0aH, 00H
	ORG $+1
$SG-63247 DB	'this->current_element_valid() == true', 00H
	ORG $+2
$SG-63248 DB	'Failing expression was ', 00H
$SG-63249 DB	0aH, 00H
	ORG $+2
$SG-63250 DB	0aH, 09H, 'this: ', 00H
	ORG $+3
$SG-63251 DB	0aH, 09H, 'you can''t access the current element if it do'
	DB	'esn''t exist', 00H
	ORG $+1
$SG-63252 DB	09H, 'map_pair<domain,range>& binary_search_tree::element'
	DB	'()', 00H
	ORG $+1
$SG-63253 DB	'.', 0aH, 00H
	ORG $+1
$SG-63254 DB	0aH, 0aH, 'Error detected at line ', 00H
	ORG $+2
$SG-63255 DB	'.', 0aH, 00H
	ORG $+1
$SG-63256 DB	'e:\library\dlib\dlib\binary_search_tree/binary_search_tr'
	DB	'ee_kernel_c.h', 00H
	ORG $+2
$SG-63257 DB	'Error detected in file ', 00H
$SG-63258 DB	'.', 0aH, 0aH, 00H
$SG-63260 DB	'Error detected in function ', 00H
$SG-63259 DB	'const class dlib::map_pair<unsigned long,class dlib::mem'
	DB	'ber_function_pointer<void,void,void,void> > &__thiscall dlib:'
	DB	':binary_search_tree_kernel_c<class dlib::binary_search_tree_k'
	DB	'ernel_2<unsigned long,class dlib::member_function_pointer<voi'
	DB	'd,void,void,void>,class dlib::memory_manager_kernel_2<char,10'
	DB	'>,struct std::less<unsigned long> > >::element(void) const', 00H
	ORG $+1
$SG-63261 DB	'.', 0aH, 00H
	ORG $+1
$SG-63262 DB	'this->current_element_valid() == true', 00H
	ORG $+2
$SG-63263 DB	'Failing expression was ', 00H
$SG-63264 DB	0aH, 00H
	ORG $+2
$SG-63265 DB	0aH, 09H, 'this: ', 00H
	ORG $+3
$SG-63266 DB	0aH, 09H, 'you can''t access the current element if it do'
	DB	'esn''t exist', 00H
	ORG $+1
$SG-63267 DB	09H, 'const map_pair<domain,range>& binary_search_tree::e'
	DB	'lement() const', 00H
	ORG $+1
$SG-63268 DB	'.', 0aH, 00H
	ORG $+1
$SG-63269 DB	0aH, 0aH, 'Error detected at line ', 00H
	ORG $+2
$SG-63270 DB	'.', 0aH, 00H
	ORG $+1
$SG-63271 DB	'e:\library\dlib\dlib\map/map_kernel_c.h', 00H
$SG-63272 DB	'Error detected in file ', 00H
$SG-63273 DB	'.', 0aH, 0aH, 00H
$SG-63275 DB	'Error detected in function ', 00H
$SG-63274 DB	'void __thiscall dlib::map_kernel_c<class dlib::map_kerne'
	DB	'l_1<class std::basic_string<char,struct std::char_traits<char'
	DB	'>,class std::allocator<char> >,class dlib::scoped_ptr<struct '
	DB	'dlib::logger::global_data::level_container,struct dlib::defau'
	DB	'lt_deleter<struct dlib::logger::global_data::level_container>'
	DB	' >,class dlib::binary_search_tree_kernel_2<class std::basic_s'
	DB	'tring<char,struct std::char_traits<char>,class std::allocator'
	DB	'<char> >,class dlib::scoped_ptr<struct dlib::logger::global_d'
	DB	'ata::level_container,struct dlib::default_deleter<struct dlib'
	DB	'::logger::global_data::level_container> >,class dlib::memory_'
	DB	'manager_stateless_kernel_1<char>,struct std::less<class std::'
	DB	'basic_string<char,struct std::char_traits<char>,class std::al'
	DB	'locator<char> > > >,class dlib::memory_manager_stateless_kern'
	DB	'el_1<char> > >::remove_any(class std::basic_string<char,struc'
	DB	't std::char_traits<char>,class std::allocator<char> > &,class'
	DB	' dlib::scoped_ptr<struct dlib::logger::global_data::level_con'
	DB	'tainer,struct dlib::default_deleter<struct dlib::logger::glob'
	DB	'al_data::level_container> > &)', 00H
	ORG $+1
$SG-63276 DB	'.', 0aH, 00H
	ORG $+1
$SG-63278 DB	'Failing expression was ', 00H
$SG-63279 DB	0aH, 00H
	ORG $+2
$SG-63277 DB	'(this->size() > 0) && (static_cast<void*>(&d) != static_'
	DB	'cast<void*>(&r))', 00H
	ORG $+3
$SG-63280 DB	0aH, 09H, '&r:     ', 00H
	ORG $+1
$SG-63281 DB	0aH, 09H, '&d:     ', 00H
	ORG $+1
$SG-63282 DB	0aH, 09H, 'this:   ', 00H
	ORG $+1
$SG-63283 DB	0aH, 09H, 'size(): ', 00H
	ORG $+1
$SG-63284 DB	0aH, 09H, 'and d and r must not be the same variable.', 00H
	ORG $+3
$SG-63286 DB	09H, 'void map::remove_any', 00H
	ORG $+2
$SG-63287 DB	'.', 0aH, 00H
	ORG $+1
$SG-63285 DB	0aH, 09H, 'size() must be greater than zero if something '
	DB	'is going to be removed', 00H
	ORG $+1
$SG-63288 DB	0aH, 0aH, 'Error detected at line ', 00H
	ORG $+2
$SG-63289 DB	'.', 0aH, 00H
	ORG $+1
$SG-63290 DB	'e:\library\dlib\dlib\map/map_kernel_c.h', 00H
$SG-63291 DB	'Error detected in file ', 00H
$SG-63292 DB	'.', 0aH, 0aH, 00H
$SG-63294 DB	'Error detected in function ', 00H
$SG-63293 DB	'class dlib::map_pair<class std::basic_string<char,struct'
	DB	' std::char_traits<char>,class std::allocator<char> >,class dl'
	DB	'ib::scoped_ptr<struct dlib::logger::global_data::level_contai'
	DB	'ner,struct dlib::default_deleter<struct dlib::logger::global_'
	DB	'data::level_container> > > &__thiscall dlib::map_kernel_c<cla'
	DB	'ss dlib::map_kernel_1<class std::basic_string<char,struct std'
	DB	'::char_traits<char>,class std::allocator<char> >,class dlib::'
	DB	'scoped_ptr<struct dlib::logger::global_data::level_container,'
	DB	'struct dlib::default_deleter<struct dlib::logger::global_data'
	DB	'::level_container> >,class dlib::binary_search_tree_kernel_2<'
	DB	'class std::basic_string<char,struct std::char_traits<char>,cl'
	DB	'ass std::allocator<char> >,class dlib::scoped_ptr<struct dlib'
	DB	'::logger::global_data::level_container,struct dlib::default_d'
	DB	'eleter<struct dlib::logger::global_data::level_container> >,c'
	DB	'lass dlib::memory_manager_stateless_kernel_1<char>,struct std'
	DB	'::less<class std::basic_string<char,struct std::char_traits<c'
	DB	'har>,class std::allocator<char> > > >,class dlib::memory_mana'
	DB	'ger_stateless_kernel_1<char> > >::element(void)', 00H
$SG-63295 DB	'.', 0aH, 00H
	ORG $+1
$SG-63296 DB	'this->current_element_valid() == true', 00H
	ORG $+2
$SG-63297 DB	'Failing expression was ', 00H
$SG-63298 DB	0aH, 00H
	ORG $+2
$SG-63299 DB	0aH, 09H, 'this: ', 00H
	ORG $+3
$SG-63300 DB	0aH, 09H, 'you can''t access the current element if it do'
	DB	'esn''t exist', 00H
	ORG $+1
$SG-63301 DB	09H, 'map_pair<domain,range>& map::element', 00H
	ORG $+2
$SG-63302 DB	'.', 0aH, 00H
	ORG $+1
$SG-63303 DB	0aH, 0aH, 'Error detected at line ', 00H
	ORG $+2
$SG-63304 DB	'.', 0aH, 00H
	ORG $+1
$SG-63305 DB	'e:\library\dlib\dlib\map/map_kernel_c.h', 00H
$SG-63306 DB	'Error detected in file ', 00H
$SG-63307 DB	'.', 0aH, 0aH, 00H
$SG-63308 DB	'const class dlib::map_pair<class std::basic_string<char,'
	DB	'struct std::char_traits<char>,class std::allocator<char> >,cl'
	DB	'ass dlib::scoped_ptr<struct dlib::logger::global_data::level_'
	DB	'container,struct dlib::default_deleter<struct dlib::logger::g'
	DB	'lobal_data::level_container> > > &__thiscall dlib::map_kernel'
	DB	'_c<class dlib::map_kernel_1<class std::basic_string<char,stru'
	DB	'ct std::char_traits<char>,class std::allocator<char> >,class '
	DB	'dlib::scoped_ptr<struct dlib::logger::global_data::level_cont'
	DB	'ainer,struct dlib::default_deleter<struct dlib::logger::globa'
	DB	'l_data::level_container> >,class dlib::binary_search_tree_ker'
	DB	'nel_2<class std::basic_string<char,struct std::char_traits<ch'
	DB	'ar>,class std::allocator<char> >,class dlib::scoped_ptr<struc'
	DB	't dlib::logger::global_data::level_container,struct dlib::def'
	DB	'ault_deleter<struct dlib::logger::global_data::level_containe'
	DB	'r> >,class dlib::memory_manager_stateless_kernel_1<char>,stru'
	DB	'ct std::less<class std::basic_string<char,struct std::char_tr'
	DB	'aits<char>,class std::allocator<char> > > >,class dlib::memor'
	DB	'y_manager_stateless_kernel_1<char> > >::element(void) const', 00H
$SG-63309 DB	'Error detected in function ', 00H
$SG-63310 DB	'.', 0aH, 00H
	ORG $+1
$SG-63311 DB	'this->current_element_valid() == true', 00H
	ORG $+2
$SG-63312 DB	'Failing expression was ', 00H
$SG-63313 DB	0aH, 00H
	ORG $+2
$SG-63314 DB	0aH, 09H, 'this: ', 00H
	ORG $+3
$SG-63315 DB	0aH, 09H, 'you can''t access the current element if it do'
	DB	'esn''t exist', 00H
	ORG $+1
$SG-63316 DB	09H, 'const map_pair<domain,range>& map::element', 00H
$SG-63317 DB	'.', 0aH, 00H
	ORG $+1
$SG-63318 DB	0aH, 0aH, 'Error detected at line ', 00H
	ORG $+2
$SG-63319 DB	'.', 0aH, 00H
	ORG $+1
$SG-63320 DB	'e:\library\dlib\dlib\map/map_kernel_c.h', 00H
$SG-63321 DB	'Error detected in file ', 00H
$SG-63322 DB	'.', 0aH, 0aH, 00H
$SG-63324 DB	'Error detected in function ', 00H
$SG-63323 DB	'void __thiscall dlib::map_kernel_c<class dlib::map_kerne'
	DB	'l_1<class std::basic_string<char,struct std::char_traits<char'
	DB	'>,class std::allocator<char> >,class dlib::scoped_ptr<struct '
	DB	'dlib::logger::global_data::auto_flush_container,struct dlib::'
	DB	'default_deleter<struct dlib::logger::global_data::auto_flush_'
	DB	'container> >,class dlib::binary_search_tree_kernel_2<class st'
	DB	'd::basic_string<char,struct std::char_traits<char>,class std:'
	DB	':allocator<char> >,class dlib::scoped_ptr<struct dlib::logger'
	DB	'::global_data::auto_flush_container,struct dlib::default_dele'
	DB	'ter<struct dlib::logger::global_data::auto_flush_container> >'
	DB	',class dlib::memory_manager_stateless_kernel_1<char>,struct s'
	DB	'td::less<class std::basic_string<char,struct std::char_traits'
	DB	'<char>,class std::allocator<char> > > >,class dlib::memory_ma'
	DB	'nager_stateless_kernel_1<char> > >::remove_any(class std::bas'
	DB	'ic_string<char,struct std::char_traits<char>,class std::alloc'
	DB	'ator<char> > &,class dlib::scoped_ptr<struct dlib::logger::gl'
	DB	'obal_data::auto_flush_container,struct dlib::default_deleter<'
	DB	'struct dlib::logger::global_data::auto_flush_container> > &)', 00H
	ORG $+3
$SG-63325 DB	'.', 0aH, 00H
	ORG $+1
$SG-63327 DB	'Failing expression was ', 00H
$SG-63328 DB	0aH, 00H
	ORG $+2
$SG-63326 DB	'(this->size() > 0) && (static_cast<void*>(&d) != static_'
	DB	'cast<void*>(&r))', 00H
	ORG $+3
$SG-63329 DB	0aH, 09H, '&r:     ', 00H
	ORG $+1
$SG-63330 DB	0aH, 09H, '&d:     ', 00H
	ORG $+1
$SG-63331 DB	0aH, 09H, 'this:   ', 00H
	ORG $+1
$SG-63332 DB	0aH, 09H, 'size(): ', 00H
	ORG $+1
$SG-63333 DB	0aH, 09H, 'and d and r must not be the same variable.', 00H
	ORG $+3
$SG-63335 DB	09H, 'void map::remove_any', 00H
	ORG $+2
$SG-63336 DB	'.', 0aH, 00H
	ORG $+1
$SG-63334 DB	0aH, 09H, 'size() must be greater than zero if something '
	DB	'is going to be removed', 00H
	ORG $+1
$SG-63337 DB	0aH, 0aH, 'Error detected at line ', 00H
	ORG $+2
$SG-63338 DB	'.', 0aH, 00H
	ORG $+1
$SG-63339 DB	'e:\library\dlib\dlib\map/map_kernel_c.h', 00H
$SG-63340 DB	'Error detected in file ', 00H
$SG-63341 DB	'.', 0aH, 0aH, 00H
$SG-63343 DB	'Error detected in function ', 00H
$SG-63342 DB	'class dlib::map_pair<class std::basic_string<char,struct'
	DB	' std::char_traits<char>,class std::allocator<char> >,class dl'
	DB	'ib::scoped_ptr<struct dlib::logger::global_data::auto_flush_c'
	DB	'ontainer,struct dlib::default_deleter<struct dlib::logger::gl'
	DB	'obal_data::auto_flush_container> > > &__thiscall dlib::map_ke'
	DB	'rnel_c<class dlib::map_kernel_1<class std::basic_string<char,'
	DB	'struct std::char_traits<char>,class std::allocator<char> >,cl'
	DB	'ass dlib::scoped_ptr<struct dlib::logger::global_data::auto_f'
	DB	'lush_container,struct dlib::default_deleter<struct dlib::logg'
	DB	'er::global_data::auto_flush_container> >,class dlib::binary_s'
	DB	'earch_tree_kernel_2<class std::basic_string<char,struct std::'
	DB	'char_traits<char>,class std::allocator<char> >,class dlib::sc'
	DB	'oped_ptr<struct dlib::logger::global_data::auto_flush_contain'
	DB	'er,struct dlib::default_deleter<struct dlib::logger::global_d'
	DB	'ata::auto_flush_container> >,class dlib::memory_manager_state'
	DB	'less_kernel_1<char>,struct std::less<class std::basic_string<'
	DB	'char,struct std::char_traits<char>,class std::allocator<char>'
	DB	' > > >,class dlib::memory_manager_stateless_kernel_1<char> > '
	DB	'>::element(void)', 00H
	ORG $+2
$SG-63344 DB	'.', 0aH, 00H
	ORG $+1
$SG-63345 DB	'this->current_element_valid() == true', 00H
	ORG $+2
$SG-63346 DB	'Failing expression was ', 00H
$SG-63347 DB	0aH, 00H
	ORG $+2
$SG-63348 DB	0aH, 09H, 'this: ', 00H
	ORG $+3
$SG-63349 DB	0aH, 09H, 'you can''t access the current element if it do'
	DB	'esn''t exist', 00H
	ORG $+1
$SG-63350 DB	09H, 'map_pair<domain,range>& map::element', 00H
	ORG $+2
$SG-63351 DB	'.', 0aH, 00H
	ORG $+1
$SG-63352 DB	0aH, 0aH, 'Error detected at line ', 00H
	ORG $+2
$SG-63353 DB	'.', 0aH, 00H
	ORG $+1
$SG-63354 DB	'e:\library\dlib\dlib\map/map_kernel_c.h', 00H
$SG-63355 DB	'Error detected in file ', 00H
$SG-63356 DB	'.', 0aH, 0aH, 00H
$SG-63357 DB	'const class dlib::map_pair<class std::basic_string<char,'
	DB	'struct std::char_traits<char>,class std::allocator<char> >,cl'
	DB	'ass dlib::scoped_ptr<struct dlib::logger::global_data::auto_f'
	DB	'lush_container,struct dlib::default_deleter<struct dlib::logg'
	DB	'er::global_data::auto_flush_container> > > &__thiscall dlib::'
	DB	'map_kernel_c<class dlib::map_kernel_1<class std::basic_string'
	DB	'<char,struct std::char_traits<char>,class std::allocator<char'
	DB	'> >,class dlib::scoped_ptr<struct dlib::logger::global_data::'
	DB	'auto_flush_container,struct dlib::default_deleter<struct dlib'
	DB	'::logger::global_data::auto_flush_container> >,class dlib::bi'
	DB	'nary_search_tree_kernel_2<class std::basic_string<char,struct'
	DB	' std::char_traits<char>,class std::allocator<char> >,class dl'
	DB	'ib::scoped_ptr<struct dlib::logger::global_data::auto_flush_c'
	DB	'ontainer,struct dlib::default_deleter<struct dlib::logger::gl'
	DB	'obal_data::auto_flush_container> >,class dlib::memory_manager'
	DB	'_stateless_kernel_1<char>,struct std::less<class std::basic_s'
	DB	'tring<char,struct std::char_traits<char>,class std::allocator'
	DB	'<char> > > >,class dlib::memory_manager_stateless_kernel_1<ch'
	DB	'ar> > >::element(void) const', 00H
	ORG $+2
$SG-63358 DB	'Error detected in function ', 00H
$SG-63359 DB	'.', 0aH, 00H
	ORG $+1
$SG-63360 DB	'this->current_element_valid() == true', 00H
	ORG $+2
$SG-63361 DB	'Failing expression was ', 00H
$SG-63362 DB	0aH, 00H
	ORG $+2
$SG-63363 DB	0aH, 09H, 'this: ', 00H
	ORG $+3
$SG-63364 DB	0aH, 09H, 'you can''t access the current element if it do'
	DB	'esn''t exist', 00H
	ORG $+1
$SG-63365 DB	09H, 'const map_pair<domain,range>& map::element', 00H
$SG-63366 DB	'.', 0aH, 00H
	ORG $+1
$SG-63367 DB	0aH, 0aH, 'Error detected at line ', 00H
	ORG $+2
$SG-63368 DB	'.', 0aH, 00H
	ORG $+1
$SG-63369 DB	'e:\library\dlib\dlib\map/map_kernel_c.h', 00H
$SG-63370 DB	'Error detected in file ', 00H
$SG-63371 DB	'.', 0aH, 0aH, 00H
$SG-63373 DB	'Error detected in function ', 00H
$SG-63372 DB	'void __thiscall dlib::map_kernel_c<class dlib::map_kerne'
	DB	'l_1<class std::basic_string<char,struct std::char_traits<char'
	DB	'>,class std::allocator<char> >,class dlib::scoped_ptr<struct '
	DB	'dlib::logger::global_data::output_streambuf_container,struct '
	DB	'dlib::default_deleter<struct dlib::logger::global_data::outpu'
	DB	't_streambuf_container> >,class dlib::binary_search_tree_kerne'
	DB	'l_2<class std::basic_string<char,struct std::char_traits<char'
	DB	'>,class std::allocator<char> >,class dlib::scoped_ptr<struct '
	DB	'dlib::logger::global_data::output_streambuf_container,struct '
	DB	'dlib::default_deleter<struct dlib::logger::global_data::outpu'
	DB	't_streambuf_container> >,class dlib::memory_manager_stateless'
	DB	'_kernel_1<char>,struct std::less<class std::basic_string<char'
	DB	',struct std::char_traits<char>,class std::allocator<char> > >'
	DB	' >,class dlib::memory_manager_stateless_kernel_1<char> > >::r'
	DB	'emove_any(class std::basic_string<char,struct std::char_trait'
	DB	's<char>,class std::allocator<char> > &,class dlib::scoped_ptr'
	DB	'<struct dlib::logger::global_data::output_streambuf_container'
	DB	',struct dlib::default_deleter<struct dlib::logger::global_dat'
	DB	'a::output_streambuf_container> > &)', 00H
	ORG $+3
$SG-63374 DB	'.', 0aH, 00H
	ORG $+1
$SG-63375 DB	'(this->size() > 0) && (static_cast<void*>(&d) != static_'
	DB	'cast<void*>(&r))', 00H
	ORG $+3
$SG-63376 DB	'Failing expression was ', 00H
$SG-63377 DB	0aH, 00H
	ORG $+2
$SG-63378 DB	0aH, 09H, '&r:     ', 00H
	ORG $+1
$SG-63379 DB	0aH, 09H, '&d:     ', 00H
	ORG $+1
$SG-63380 DB	0aH, 09H, 'this:   ', 00H
	ORG $+1
$SG-63381 DB	0aH, 09H, 'size(): ', 00H
	ORG $+1
$SG-63382 DB	0aH, 09H, 'and d and r must not be the same variable.', 00H
	ORG $+3
$SG-63383 DB	0aH, 09H, 'size() must be greater than zero if something '
	DB	'is going to be removed', 00H
	ORG $+1
$SG-63384 DB	09H, 'void map::remove_any', 00H
	ORG $+2
$SG-63385 DB	'.', 0aH, 00H
	ORG $+1
$SG-63386 DB	0aH, 0aH, 'Error detected at line ', 00H
	ORG $+2
$SG-63387 DB	'.', 0aH, 00H
	ORG $+1
$SG-63388 DB	'e:\library\dlib\dlib\map/map_kernel_c.h', 00H
$SG-63389 DB	'Error detected in file ', 00H
$SG-63390 DB	'.', 0aH, 0aH, 00H
$SG-63391 DB	'class dlib::map_pair<class std::basic_string<char,struct'
	DB	' std::char_traits<char>,class std::allocator<char> >,class dl'
	DB	'ib::scoped_ptr<struct dlib::logger::global_data::output_strea'
	DB	'mbuf_container,struct dlib::default_deleter<struct dlib::logg'
	DB	'er::global_data::output_streambuf_container> > > &__thiscall '
	DB	'dlib::map_kernel_c<class dlib::map_kernel_1<class std::basic_'
	DB	'string<char,struct std::char_traits<char>,class std::allocato'
	DB	'r<char> >,class dlib::scoped_ptr<struct dlib::logger::global_'
	DB	'data::output_streambuf_container,struct dlib::default_deleter'
	DB	'<struct dlib::logger::global_data::output_streambuf_container'
	DB	'> >,class dlib::binary_search_tree_kernel_2<class std::basic_'
	DB	'string<char,struct std::char_traits<char>,class std::allocato'
	DB	'r<char> >,class dlib::scoped_ptr<struct dlib::logger::global_'
	DB	'data::output_streambuf_container,struct dlib::default_deleter'
	DB	'<struct dlib::logger::global_data::output_streambuf_container'
	DB	'> >,class dlib::memory_manager_stateless_kernel_1<char>,struc'
	DB	't std::less<class std::basic_string<char,struct std::char_tra'
	DB	'its<char>,class std::allocator<char> > > >,class dlib::memory'
	DB	'_manager_stateless_kernel_1<char> > >::element(void)', 00H
	ORG $+2
$SG-63392 DB	'Error detected in function ', 00H
$SG-63393 DB	'.', 0aH, 00H
	ORG $+1
$SG-63394 DB	'this->current_element_valid() == true', 00H
	ORG $+2
$SG-63395 DB	'Failing expression was ', 00H
$SG-63396 DB	0aH, 00H
	ORG $+2
$SG-63397 DB	0aH, 09H, 'this: ', 00H
	ORG $+3
$SG-63398 DB	0aH, 09H, 'you can''t access the current element if it do'
	DB	'esn''t exist', 00H
	ORG $+1
$SG-63399 DB	09H, 'map_pair<domain,range>& map::element', 00H
	ORG $+2
$SG-63400 DB	'.', 0aH, 00H
	ORG $+1
$SG-63401 DB	0aH, 0aH, 'Error detected at line ', 00H
	ORG $+2
$SG-63402 DB	'.', 0aH, 00H
	ORG $+1
$SG-63403 DB	'e:\library\dlib\dlib\map/map_kernel_c.h', 00H
$SG-63404 DB	'Error detected in file ', 00H
$SG-63405 DB	'.', 0aH, 0aH, 00H
$SG-63406 DB	'const class dlib::map_pair<class std::basic_string<char,'
	DB	'struct std::char_traits<char>,class std::allocator<char> >,cl'
	DB	'ass dlib::scoped_ptr<struct dlib::logger::global_data::output'
	DB	'_streambuf_container,struct dlib::default_deleter<struct dlib'
	DB	'::logger::global_data::output_streambuf_container> > > &__thi'
	DB	'scall dlib::map_kernel_c<class dlib::map_kernel_1<class std::'
	DB	'basic_string<char,struct std::char_traits<char>,class std::al'
	DB	'locator<char> >,class dlib::scoped_ptr<struct dlib::logger::g'
	DB	'lobal_data::output_streambuf_container,struct dlib::default_d'
	DB	'eleter<struct dlib::logger::global_data::output_streambuf_con'
	DB	'tainer> >,class dlib::binary_search_tree_kernel_2<class std::'
	DB	'basic_string<char,struct std::char_traits<char>,class std::al'
	DB	'locator<char> >,class dlib::scoped_ptr<struct dlib::logger::g'
	DB	'lobal_data::output_streambuf_container,struct dlib::default_d'
	DB	'eleter<struct dlib::logger::global_data::output_streambuf_con'
	DB	'tainer> >,class dlib::memory_manager_stateless_kernel_1<char>'
	DB	',struct std::less<class std::basic_string<char,struct std::ch'
	DB	'ar_traits<char>,class std::allocator<char> > > >,class dlib::'
	DB	'memory_manager_stateless_kernel_1<char> > >::element(void) co'
	DB	'nst', 00H
	ORG $+2
$SG-63407 DB	'Error detected in function ', 00H
$SG-63408 DB	'.', 0aH, 00H
	ORG $+1
$SG-63409 DB	'this->current_element_valid() == true', 00H
	ORG $+2
$SG-63410 DB	'Failing expression was ', 00H
$SG-63411 DB	0aH, 00H
	ORG $+2
$SG-63412 DB	0aH, 09H, 'this: ', 00H
	ORG $+3
$SG-63413 DB	0aH, 09H, 'you can''t access the current element if it do'
	DB	'esn''t exist', 00H
	ORG $+1
$SG-63414 DB	09H, 'const map_pair<domain,range>& map::element', 00H
$SG-63415 DB	'.', 0aH, 00H
	ORG $+1
$SG-63416 DB	0aH, 0aH, 'Error detected at line ', 00H
	ORG $+2
$SG-63417 DB	'.', 0aH, 00H
	ORG $+1
$SG-63418 DB	'e:\library\dlib\dlib\map/map_kernel_c.h', 00H
$SG-63419 DB	'Error detected in file ', 00H
$SG-63420 DB	'.', 0aH, 0aH, 00H
$SG-63421 DB	'void __thiscall dlib::map_kernel_c<class dlib::map_kerne'
	DB	'l_1<class std::basic_string<char,struct std::char_traits<char'
	DB	'>,class std::allocator<char> >,class dlib::scoped_ptr<struct '
	DB	'dlib::logger::global_data::output_hook_container,struct dlib:'
	DB	':default_deleter<struct dlib::logger::global_data::output_hoo'
	DB	'k_container> >,class dlib::binary_search_tree_kernel_2<class '
	DB	'std::basic_string<char,struct std::char_traits<char>,class st'
	DB	'd::allocator<char> >,class dlib::scoped_ptr<struct dlib::logg'
	DB	'er::global_data::output_hook_container,struct dlib::default_d'
	DB	'eleter<struct dlib::logger::global_data::output_hook_containe'
	DB	'r> >,class dlib::memory_manager_stateless_kernel_1<char>,stru'
	DB	'ct std::less<class std::basic_string<char,struct std::char_tr'
	DB	'aits<char>,class std::allocator<char> > > >,class dlib::memor'
	DB	'y_manager_stateless_kernel_1<char> > >::remove_any(class std:'
	DB	':basic_string<char,struct std::char_traits<char>,class std::a'
	DB	'llocator<char> > &,class dlib::scoped_ptr<struct dlib::logger'
	DB	'::global_data::output_hook_container,struct dlib::default_del'
	DB	'eter<struct dlib::logger::global_data::output_hook_container>'
	DB	' > &)', 00H
	ORG $+1
$SG-63422 DB	'Error detected in function ', 00H
$SG-63423 DB	'.', 0aH, 00H
	ORG $+1
$SG-63425 DB	'Failing expression was ', 00H
$SG-63426 DB	0aH, 00H
	ORG $+2
$SG-63424 DB	'(this->size() > 0) && (static_cast<void*>(&d) != static_'
	DB	'cast<void*>(&r))', 00H
	ORG $+3
$SG-63427 DB	0aH, 09H, '&r:     ', 00H
	ORG $+1
$SG-63428 DB	0aH, 09H, '&d:     ', 00H
	ORG $+1
$SG-63429 DB	0aH, 09H, 'this:   ', 00H
	ORG $+1
$SG-63430 DB	0aH, 09H, 'size(): ', 00H
	ORG $+1
$SG-63431 DB	0aH, 09H, 'and d and r must not be the same variable.', 00H
	ORG $+3
$SG-63433 DB	09H, 'void map::remove_any', 00H
	ORG $+2
$SG-63434 DB	'.', 0aH, 00H
	ORG $+1
$SG-63432 DB	0aH, 09H, 'size() must be greater than zero if something '
	DB	'is going to be removed', 00H
	ORG $+1
$SG-63435 DB	0aH, 0aH, 'Error detected at line ', 00H
	ORG $+2
$SG-63436 DB	'.', 0aH, 00H
	ORG $+1
$SG-63437 DB	'e:\library\dlib\dlib\map/map_kernel_c.h', 00H
$SG-63438 DB	'Error detected in file ', 00H
$SG-63439 DB	'.', 0aH, 0aH, 00H
$SG-63441 DB	'Error detected in function ', 00H
$SG-63440 DB	'class dlib::map_pair<class std::basic_string<char,struct'
	DB	' std::char_traits<char>,class std::allocator<char> >,class dl'
	DB	'ib::scoped_ptr<struct dlib::logger::global_data::output_hook_'
	DB	'container,struct dlib::default_deleter<struct dlib::logger::g'
	DB	'lobal_data::output_hook_container> > > &__thiscall dlib::map_'
	DB	'kernel_c<class dlib::map_kernel_1<class std::basic_string<cha'
	DB	'r,struct std::char_traits<char>,class std::allocator<char> >,'
	DB	'class dlib::scoped_ptr<struct dlib::logger::global_data::outp'
	DB	'ut_hook_container,struct dlib::default_deleter<struct dlib::l'
	DB	'ogger::global_data::output_hook_container> >,class dlib::bina'
	DB	'ry_search_tree_kernel_2<class std::basic_string<char,struct s'
	DB	'td::char_traits<char>,class std::allocator<char> >,class dlib'
	DB	'::scoped_ptr<struct dlib::logger::global_data::output_hook_co'
	DB	'ntainer,struct dlib::default_deleter<struct dlib::logger::glo'
	DB	'bal_data::output_hook_container> >,class dlib::memory_manager'
	DB	'_stateless_kernel_1<char>,struct std::less<class std::basic_s'
	DB	'tring<char,struct std::char_traits<char>,class std::allocator'
	DB	'<char> > > >,class dlib::memory_manager_stateless_kernel_1<ch'
	DB	'ar> > >::element(void)', 00H
$SG-63442 DB	'.', 0aH, 00H
	ORG $+1
$SG-63443 DB	'this->current_element_valid() == true', 00H
	ORG $+2
$SG-63444 DB	'Failing expression was ', 00H
$SG-63445 DB	0aH, 00H
	ORG $+2
$SG-63446 DB	0aH, 09H, 'this: ', 00H
	ORG $+3
$SG-63447 DB	0aH, 09H, 'you can''t access the current element if it do'
	DB	'esn''t exist', 00H
	ORG $+1
$SG-63448 DB	09H, 'map_pair<domain,range>& map::element', 00H
	ORG $+2
$SG-63449 DB	'.', 0aH, 00H
	ORG $+1
$SG-63450 DB	0aH, 0aH, 'Error detected at line ', 00H
	ORG $+2
$SG-63451 DB	'.', 0aH, 00H
	ORG $+1
$SG-63452 DB	'e:\library\dlib\dlib\map/map_kernel_c.h', 00H
$SG-63453 DB	'Error detected in file ', 00H
$SG-63454 DB	'.', 0aH, 0aH, 00H
$SG-63456 DB	'Error detected in function ', 00H
$SG-63455 DB	'const class dlib::map_pair<class std::basic_string<char,'
	DB	'struct std::char_traits<char>,class std::allocator<char> >,cl'
	DB	'ass dlib::scoped_ptr<struct dlib::logger::global_data::output'
	DB	'_hook_container,struct dlib::default_deleter<struct dlib::log'
	DB	'ger::global_data::output_hook_container> > > &__thiscall dlib'
	DB	'::map_kernel_c<class dlib::map_kernel_1<class std::basic_stri'
	DB	'ng<char,struct std::char_traits<char>,class std::allocator<ch'
	DB	'ar> >,class dlib::scoped_ptr<struct dlib::logger::global_data'
	DB	'::output_hook_container,struct dlib::default_deleter<struct d'
	DB	'lib::logger::global_data::output_hook_container> >,class dlib'
	DB	'::binary_search_tree_kernel_2<class std::basic_string<char,st'
	DB	'ruct std::char_traits<char>,class std::allocator<char> >,clas'
	DB	's dlib::scoped_ptr<struct dlib::logger::global_data::output_h'
	DB	'ook_container,struct dlib::default_deleter<struct dlib::logge'
	DB	'r::global_data::output_hook_container> >,class dlib::memory_m'
	DB	'anager_stateless_kernel_1<char>,struct std::less<class std::b'
	DB	'asic_string<char,struct std::char_traits<char>,class std::all'
	DB	'ocator<char> > > >,class dlib::memory_manager_stateless_kerne'
	DB	'l_1<char> > >::element(void) const', 00H
$SG-63457 DB	'.', 0aH, 00H
	ORG $+1
$SG-63458 DB	'this->current_element_valid() == true', 00H
	ORG $+2
$SG-63459 DB	'Failing expression was ', 00H
$SG-63460 DB	0aH, 00H
	ORG $+2
$SG-63461 DB	0aH, 09H, 'this: ', 00H
	ORG $+3
$SG-63462 DB	0aH, 09H, 'you can''t access the current element if it do'
	DB	'esn''t exist', 00H
	ORG $+1
$SG-63463 DB	09H, 'const map_pair<domain,range>& map::element', 00H
$SG-63464 DB	'.', 0aH, 00H
	ORG $+1
$SG-63465 DB	0aH, 0aH, 'Error detected at line ', 00H
	ORG $+2
$SG-63466 DB	'.', 0aH, 00H
	ORG $+1
$SG-63467 DB	'e:\library\dlib\dlib\map/map_kernel_c.h', 00H
$SG-63468 DB	'Error detected in file ', 00H
$SG-63469 DB	'.', 0aH, 0aH, 00H
$SG-63471 DB	'Error detected in function ', 00H
$SG-63470 DB	'void __thiscall dlib::map_kernel_c<class dlib::map_kerne'
	DB	'l_1<class std::basic_string<char,struct std::char_traits<char'
	DB	'>,class std::allocator<char> >,class dlib::scoped_ptr<struct '
	DB	'dlib::logger::global_data::logger_header_container,struct dli'
	DB	'b::default_deleter<struct dlib::logger::global_data::logger_h'
	DB	'eader_container> >,class dlib::binary_search_tree_kernel_2<cl'
	DB	'ass std::basic_string<char,struct std::char_traits<char>,clas'
	DB	's std::allocator<char> >,class dlib::scoped_ptr<struct dlib::'
	DB	'logger::global_data::logger_header_container,struct dlib::def'
	DB	'ault_deleter<struct dlib::logger::global_data::logger_header_'
	DB	'container> >,class dlib::memory_manager_stateless_kernel_1<ch'
	DB	'ar>,struct std::less<class std::basic_string<char,struct std:'
	DB	':char_traits<char>,class std::allocator<char> > > >,class dli'
	DB	'b::memory_manager_stateless_kernel_1<char> > >::remove_any(cl'
	DB	'ass std::basic_string<char,struct std::char_traits<char>,clas'
	DB	's std::allocator<char> > &,class dlib::scoped_ptr<struct dlib'
	DB	'::logger::global_data::logger_header_container,struct dlib::d'
	DB	'efault_deleter<struct dlib::logger::global_data::logger_heade'
	DB	'r_container> > &)', 00H
	ORG $+1
$SG-63472 DB	'.', 0aH, 00H
	ORG $+1
$SG-63474 DB	'Failing expression was ', 00H
$SG-63475 DB	0aH, 00H
	ORG $+2
$SG-63473 DB	'(this->size() > 0) && (static_cast<void*>(&d) != static_'
	DB	'cast<void*>(&r))', 00H
	ORG $+3
$SG-63476 DB	0aH, 09H, '&r:     ', 00H
	ORG $+1
$SG-63477 DB	0aH, 09H, '&d:     ', 00H
	ORG $+1
$SG-63478 DB	0aH, 09H, 'this:   ', 00H
	ORG $+1
$SG-63479 DB	0aH, 09H, 'size(): ', 00H
	ORG $+1
$SG-63480 DB	0aH, 09H, 'and d and r must not be the same variable.', 00H
	ORG $+3
$SG-63482 DB	09H, 'void map::remove_any', 00H
	ORG $+2
$SG-63483 DB	'.', 0aH, 00H
	ORG $+1
$SG-63481 DB	0aH, 09H, 'size() must be greater than zero if something '
	DB	'is going to be removed', 00H
	ORG $+1
$SG-63484 DB	0aH, 0aH, 'Error detected at line ', 00H
	ORG $+2
$SG-63485 DB	'.', 0aH, 00H
	ORG $+1
$SG-63486 DB	'e:\library\dlib\dlib\map/map_kernel_c.h', 00H
$SG-63487 DB	'Error detected in file ', 00H
$SG-63488 DB	'.', 0aH, 0aH, 00H
$SG-63490 DB	'Error detected in function ', 00H
$SG-63489 DB	'class dlib::map_pair<class std::basic_string<char,struct'
	DB	' std::char_traits<char>,class std::allocator<char> >,class dl'
	DB	'ib::scoped_ptr<struct dlib::logger::global_data::logger_heade'
	DB	'r_container,struct dlib::default_deleter<struct dlib::logger:'
	DB	':global_data::logger_header_container> > > &__thiscall dlib::'
	DB	'map_kernel_c<class dlib::map_kernel_1<class std::basic_string'
	DB	'<char,struct std::char_traits<char>,class std::allocator<char'
	DB	'> >,class dlib::scoped_ptr<struct dlib::logger::global_data::'
	DB	'logger_header_container,struct dlib::default_deleter<struct d'
	DB	'lib::logger::global_data::logger_header_container> >,class dl'
	DB	'ib::binary_search_tree_kernel_2<class std::basic_string<char,'
	DB	'struct std::char_traits<char>,class std::allocator<char> >,cl'
	DB	'ass dlib::scoped_ptr<struct dlib::logger::global_data::logger'
	DB	'_header_container,struct dlib::default_deleter<struct dlib::l'
	DB	'ogger::global_data::logger_header_container> >,class dlib::me'
	DB	'mory_manager_stateless_kernel_1<char>,struct std::less<class '
	DB	'std::basic_string<char,struct std::char_traits<char>,class st'
	DB	'd::allocator<char> > > >,class dlib::memory_manager_stateless'
	DB	'_kernel_1<char> > >::element(void)', 00H
$SG-63491 DB	'.', 0aH, 00H
	ORG $+1
$SG-63492 DB	'this->current_element_valid() == true', 00H
	ORG $+2
$SG-63493 DB	'Failing expression was ', 00H
$SG-63494 DB	0aH, 00H
	ORG $+2
$SG-63495 DB	0aH, 09H, 'this: ', 00H
	ORG $+3
$SG-63496 DB	0aH, 09H, 'you can''t access the current element if it do'
	DB	'esn''t exist', 00H
	ORG $+1
$SG-63497 DB	09H, 'map_pair<domain,range>& map::element', 00H
	ORG $+2
$SG-63498 DB	'.', 0aH, 00H
	ORG $+1
$SG-63499 DB	0aH, 0aH, 'Error detected at line ', 00H
	ORG $+2
$SG-63500 DB	'.', 0aH, 00H
	ORG $+1
$SG-63501 DB	'e:\library\dlib\dlib\map/map_kernel_c.h', 00H
$SG-63502 DB	'Error detected in file ', 00H
$SG-63503 DB	'.', 0aH, 0aH, 00H
$SG-63504 DB	'const class dlib::map_pair<class std::basic_string<char,'
	DB	'struct std::char_traits<char>,class std::allocator<char> >,cl'
	DB	'ass dlib::scoped_ptr<struct dlib::logger::global_data::logger'
	DB	'_header_container,struct dlib::default_deleter<struct dlib::l'
	DB	'ogger::global_data::logger_header_container> > > &__thiscall '
	DB	'dlib::map_kernel_c<class dlib::map_kernel_1<class std::basic_'
	DB	'string<char,struct std::char_traits<char>,class std::allocato'
	DB	'r<char> >,class dlib::scoped_ptr<struct dlib::logger::global_'
	DB	'data::logger_header_container,struct dlib::default_deleter<st'
	DB	'ruct dlib::logger::global_data::logger_header_container> >,cl'
	DB	'ass dlib::binary_search_tree_kernel_2<class std::basic_string'
	DB	'<char,struct std::char_traits<char>,class std::allocator<char'
	DB	'> >,class dlib::scoped_ptr<struct dlib::logger::global_data::'
	DB	'logger_header_container,struct dlib::default_deleter<struct d'
	DB	'lib::logger::global_data::logger_header_container> >,class dl'
	DB	'ib::memory_manager_stateless_kernel_1<char>,struct std::less<'
	DB	'class std::basic_string<char,struct std::char_traits<char>,cl'
	DB	'ass std::allocator<char> > > >,class dlib::memory_manager_sta'
	DB	'teless_kernel_1<char> > >::element(void) const', 00H
$SG-63505 DB	'Error detected in function ', 00H
$SG-63506 DB	'.', 0aH, 00H
	ORG $+1
$SG-63507 DB	'this->current_element_valid() == true', 00H
	ORG $+2
$SG-63508 DB	'Failing expression was ', 00H
$SG-63509 DB	0aH, 00H
	ORG $+2
$SG-63510 DB	0aH, 09H, 'this: ', 00H
	ORG $+3
$SG-63511 DB	0aH, 09H, 'you can''t access the current element if it do'
	DB	'esn''t exist', 00H
	ORG $+1
$SG-63512 DB	09H, 'const map_pair<domain,range>& map::element', 00H
; Function compile flags: /Odtp
;	COMDAT ??_E?$binary_search_tree_kernel_2@_KPAVconnection@dlib@@V?$memory_manager_kernel_2@D$09@2@U?$less@_K@std@@@dlib@@W3AEPAXI@Z
_TEXT	SEGMENT
??_E?$binary_search_tree_kernel_2@_KPAVconnection@dlib@@V?$memory_manager_kernel_2@D$09@2@U?$less@_K@std@@@dlib@@W3AEPAXI@Z PROC ; [thunk]:dlib::binary_search_tree_kernel_2<unsigned __int64,dlib::connection *,dlib::memory_manager_kernel_2<char,10>,std::less<unsigned __int64> >::`vector deleting destructor', COMDAT
	sub	ecx, 4
	jmp	??_E?$binary_search_tree_kernel_2@_KPAVconnection@dlib@@V?$memory_manager_kernel_2@D$09@2@U?$less@_K@std@@@dlib@@UAEPAXI@Z
??_E?$binary_search_tree_kernel_2@_KPAVconnection@dlib@@V?$memory_manager_kernel_2@D$09@2@U?$less@_K@std@@@dlib@@W3AEPAXI@Z ENDP ; [thunk]:dlib::binary_search_tree_kernel_2<unsigned __int64,dlib::connection *,dlib::memory_manager_kernel_2<char,10>,std::less<unsigned __int64> >::`vector deleting destructor'
; Function compile flags: /Odtp
_TEXT	ENDS
;	COMDAT ??_E?$map_kernel_1@_KPAVconnection@dlib@@V?$binary_search_tree_kernel_2@_KPAVconnection@dlib@@V?$memory_manager_kernel_2@D$09@2@U?$less@_K@std@@@2@V?$memory_manager_kernel_2@D$09@2@@dlib@@W3AEPAXI@Z
_TEXT	SEGMENT
??_E?$map_kernel_1@_KPAVconnection@dlib@@V?$binary_search_tree_kernel_2@_KPAVconnection@dlib@@V?$memory_manager_kernel_2@D$09@2@U?$less@_K@std@@@2@V?$memory_manager_kernel_2@D$09@2@@dlib@@W3AEPAXI@Z PROC ; [thunk]:dlib::map_kernel_1<unsigned __int64,dlib::connection *,dlib::binary_search_tree_kernel_2<unsigned __int64,dlib::connection *,dlib::memory_manager_kernel_2<char,10>,std::less<unsigned __int64> >,dlib::memory_manager_kernel_2<char,10> >::`vector deleting destructor', COMDAT
	sub	ecx, 4
	jmp	??_E?$map_kernel_1@_KPAVconnection@dlib@@V?$binary_search_tree_kernel_2@_KPAVconnection@dlib@@V?$memory_manager_kernel_2@D$09@2@U?$less@_K@std@@@2@V?$memory_manager_kernel_2@D$09@2@@dlib@@UAEPAXI@Z
??_E?$map_kernel_1@_KPAVconnection@dlib@@V?$binary_search_tree_kernel_2@_KPAVconnection@dlib@@V?$memory_manager_kernel_2@D$09@2@U?$less@_K@std@@@2@V?$memory_manager_kernel_2@D$09@2@@dlib@@W3AEPAXI@Z ENDP ; [thunk]:dlib::map_kernel_1<unsigned __int64,dlib::connection *,dlib::binary_search_tree_kernel_2<unsigned __int64,dlib::connection *,dlib::memory_manager_kernel_2<char,10>,std::less<unsigned __int64> >,dlib::memory_manager_kernel_2<char,10> >::`vector deleting destructor'
; Function compile flags: /Odtp
_TEXT	ENDS
;	COMDAT ?double_rotate_left@?$binary_search_tree_kernel_2@_KPAVconnection@dlib@@V?$memory_manager_kernel_2@D$09@2@U?$less@_K@std@@@dlib@@AAEXPAVnode@12@@Z
_TEXT	SEGMENT
_this$ = -8						; size = 4
_temp$ = -4						; size = 4
_t$ = 8							; size = 4
?double_rotate_left@?$binary_search_tree_kernel_2@_KPAVconnection@dlib@@V?$memory_manager_kernel_2@D$09@2@U?$less@_K@std@@@dlib@@AAEXPAVnode@12@@Z PROC ; dlib::binary_search_tree_kernel_2<unsigned __int64,dlib::connection *,dlib::memory_manager_kernel_2<char,10>,std::less<unsigned __int64> >::double_rotate_left, COMDAT
; _this$ = ecx
; File e:\library\dlib\dlib\binary_search_tree\binary_search_tree_kernel_2.h
; Line 1191
	push	ebp
	mov	ebp, esp
	sub	esp, 8
	mov	DWORD PTR _this$[ebp], ecx
; Line 1195
	mov	eax, DWORD PTR _t$[ebp]
	mov	ecx, DWORD PTR [eax+4]
	mov	edx, DWORD PTR [ecx]
	mov	DWORD PTR _temp$[ebp], edx
; Line 1196
	mov	eax, DWORD PTR _t$[ebp]
	mov	ecx, DWORD PTR _temp$[ebp]
	mov	edx, DWORD PTR [ecx]
	mov	DWORD PTR [eax+4], edx
; Line 1197
	mov	eax, DWORD PTR _temp$[ebp]
	mov	ecx, DWORD PTR [eax]
	mov	edx, DWORD PTR _t$[ebp]
	mov	DWORD PTR [ecx+8], edx
; Line 1198
	mov	eax, DWORD PTR _temp$[ebp]
	mov	ecx, DWORD PTR [eax+4]
	mov	edx, DWORD PTR _temp$[ebp]
	mov	eax, DWORD PTR [edx+8]
	mov	DWORD PTR [ecx+8], eax
; Line 1199
	mov	ecx, DWORD PTR _temp$[ebp]
	mov	edx, DWORD PTR [ecx+8]
	mov	eax, DWORD PTR _temp$[ebp]
	mov	ecx, DWORD PTR [eax+4]
	mov	DWORD PTR [edx], ecx
; Line 1200
	mov	edx, DWORD PTR _temp$[ebp]
	mov	eax, DWORD PTR [edx+8]
	mov	ecx, DWORD PTR _temp$[ebp]
	mov	DWORD PTR [eax+8], ecx
; Line 1201
	mov	edx, DWORD PTR _temp$[ebp]
	mov	eax, DWORD PTR _t$[ebp]
	mov	DWORD PTR [edx], eax
; Line 1202
	mov	ecx, DWORD PTR _temp$[ebp]
	mov	edx, DWORD PTR _temp$[ebp]
	mov	eax, DWORD PTR [edx+8]
	mov	DWORD PTR [ecx+4], eax
; Line 1203
	mov	ecx, DWORD PTR _temp$[ebp]
	mov	edx, DWORD PTR _t$[ebp]
	mov	eax, DWORD PTR [edx+8]
	mov	DWORD PTR [ecx+8], eax
; Line 1206
	mov	ecx, DWORD PTR _this$[ebp]
	mov	edx, DWORD PTR [ecx+32]
	cmp	edx, DWORD PTR _t$[ebp]
	jne	SHORT $LN4@double_rot
; Line 1207
	mov	eax, DWORD PTR _this$[ebp]
	mov	ecx, DWORD PTR _temp$[ebp]
	mov	DWORD PTR [eax+32], ecx
; Line 1208
	jmp	SHORT $LN3@double_rot
$LN4@double_rot:
; Line 1211
	mov	edx, DWORD PTR _t$[ebp]
	mov	eax, DWORD PTR [edx+8]
	mov	ecx, DWORD PTR [eax]
	cmp	ecx, DWORD PTR _t$[ebp]
	jne	SHORT $LN2@double_rot
; Line 1212
	mov	edx, DWORD PTR _t$[ebp]
	mov	eax, DWORD PTR [edx+8]
	mov	ecx, DWORD PTR _temp$[ebp]
	mov	DWORD PTR [eax], ecx
; Line 1213
	jmp	SHORT $LN3@double_rot
$LN2@double_rot:
; Line 1214
	mov	edx, DWORD PTR _t$[ebp]
	mov	eax, DWORD PTR [edx+8]
	mov	ecx, DWORD PTR _temp$[ebp]
	mov	DWORD PTR [eax+4], ecx
$LN3@double_rot:
; Line 1216
	mov	edx, DWORD PTR _t$[ebp]
	mov	eax, DWORD PTR _temp$[ebp]
	mov	DWORD PTR [edx+8], eax
; Line 1217
	mov	esp, ebp
	pop	ebp
	ret	4
?double_rotate_left@?$binary_search_tree_kernel_2@_KPAVconnection@dlib@@V?$memory_manager_kernel_2@D$09@2@U?$less@_K@std@@@dlib@@AAEXPAVnode@12@@Z ENDP ; dlib::binary_search_tree_kernel_2<unsigned __int64,dlib::connection *,dlib::memory_manager_kernel_2<char,10>,std::less<unsigned __int64> >::double_rotate_left
; Function compile flags: /Odtp
_TEXT	ENDS
;	COMDAT ?double_rotate_right@?$binary_search_tree_kernel_2@_KPAVconnection@dlib@@V?$memory_manager_kernel_2@D$09@2@U?$less@_K@std@@@dlib@@AAEXPAVnode@12@@Z
_TEXT	SEGMENT
_this$ = -8						; size = 4
_temp$ = -4						; size = 4
_t$ = 8							; size = 4
?double_rotate_right@?$binary_search_tree_kernel_2@_KPAVconnection@dlib@@V?$memory_manager_kernel_2@D$09@2@U?$less@_K@std@@@dlib@@AAEXPAVnode@12@@Z PROC ; dlib::binary_search_tree_kernel_2<unsigned __int64,dlib::connection *,dlib::memory_manager_kernel_2<char,10>,std::less<unsigned __int64> >::double_rotate_right, COMDAT
; _this$ = ecx
; Line 1152
	push	ebp
	mov	ebp, esp
	sub	esp, 8
	mov	DWORD PTR _this$[ebp], ecx
; Line 1155
	mov	eax, DWORD PTR _t$[ebp]
	mov	ecx, DWORD PTR [eax]
	mov	edx, DWORD PTR [ecx+4]
	mov	DWORD PTR _temp$[ebp], edx
; Line 1156
	mov	eax, DWORD PTR _t$[ebp]
	mov	ecx, DWORD PTR _temp$[ebp]
	mov	edx, DWORD PTR [ecx+4]
	mov	DWORD PTR [eax], edx
; Line 1157
	mov	eax, DWORD PTR _temp$[ebp]
	mov	ecx, DWORD PTR [eax+4]
	mov	edx, DWORD PTR _t$[ebp]
	mov	DWORD PTR [ecx+8], edx
; Line 1158
	mov	eax, DWORD PTR _temp$[ebp]
	mov	ecx, DWORD PTR [eax]
	mov	edx, DWORD PTR _temp$[ebp]
	mov	eax, DWORD PTR [edx+8]
	mov	DWORD PTR [ecx+8], eax
; Line 1159
	mov	ecx, DWORD PTR _temp$[ebp]
	mov	edx, DWORD PTR [ecx+8]
	mov	eax, DWORD PTR _temp$[ebp]
	mov	ecx, DWORD PTR [eax]
	mov	DWORD PTR [edx+4], ecx
; Line 1160
	mov	edx, DWORD PTR _temp$[ebp]
	mov	eax, DWORD PTR [edx+8]
	mov	ecx, DWORD PTR _temp$[ebp]
	mov	DWORD PTR [eax+8], ecx
; Line 1161
	mov	edx, DWORD PTR _temp$[ebp]
	mov	eax, DWORD PTR _t$[ebp]
	mov	DWORD PTR [edx+4], eax
; Line 1162
	mov	ecx, DWORD PTR _temp$[ebp]
	mov	edx, DWORD PTR _temp$[ebp]
	mov	eax, DWORD PTR [edx+8]
	mov	DWORD PTR [ecx], eax
; Line 1163
	mov	ecx, DWORD PTR _temp$[ebp]
	mov	edx, DWORD PTR _t$[ebp]
	mov	eax, DWORD PTR [edx+8]
	mov	DWORD PTR [ecx+8], eax
; Line 1166
	mov	ecx, DWORD PTR _this$[ebp]
	mov	edx, DWORD PTR [ecx+32]
	cmp	edx, DWORD PTR _t$[ebp]
	jne	SHORT $LN4@double_rot@2
; Line 1167
	mov	eax, DWORD PTR _this$[ebp]
	mov	ecx, DWORD PTR _temp$[ebp]
	mov	DWORD PTR [eax+32], ecx
; Line 1168
	jmp	SHORT $LN3@double_rot@2
$LN4@double_rot@2:
; Line 1171
	mov	edx, DWORD PTR _t$[ebp]
	mov	eax, DWORD PTR [edx+8]
	mov	ecx, DWORD PTR [eax]
	cmp	ecx, DWORD PTR _t$[ebp]
	jne	SHORT $LN2@double_rot@2
; Line 1172
	mov	edx, DWORD PTR _t$[ebp]
	mov	eax, DWORD PTR [edx+8]
	mov	ecx, DWORD PTR _temp$[ebp]
	mov	DWORD PTR [eax], ecx
; Line 1173
	jmp	SHORT $LN3@double_rot@2
$LN2@double_rot@2:
; Line 1174
	mov	edx, DWORD PTR _t$[ebp]
	mov	eax, DWORD PTR [edx+8]
	mov	ecx, DWORD PTR _temp$[ebp]
	mov	DWORD PTR [eax+4], ecx
$LN3@double_rot@2:
; Line 1176
	mov	edx, DWORD PTR _t$[ebp]
	mov	eax, DWORD PTR _temp$[ebp]
	mov	DWORD PTR [edx+8], eax
; Line 1177
	mov	esp, ebp
	pop	ebp
	ret	4
?double_rotate_right@?$binary_search_tree_kernel_2@_KPAVconnection@dlib@@V?$memory_manager_kernel_2@D$09@2@U?$less@_K@std@@@dlib@@AAEXPAVnode@12@@Z ENDP ; dlib::binary_search_tree_kernel_2<unsigned __int64,dlib::connection *,dlib::memory_manager_kernel_2<char,10>,std::less<unsigned __int64> >::double_rotate_right
; Function compile flags: /Odtp
_TEXT	ENDS
;	COMDAT ?rotate_right@?$binary_search_tree_kernel_2@_KPAVconnection@dlib@@V?$memory_manager_kernel_2@D$09@2@U?$less@_K@std@@@dlib@@AAEXPAVnode@12@@Z
_TEXT	SEGMENT
_this$ = -8						; size = 4
_temp$ = -4						; size = 4
_t$ = 8							; size = 4
?rotate_right@?$binary_search_tree_kernel_2@_KPAVconnection@dlib@@V?$memory_manager_kernel_2@D$09@2@U?$less@_K@std@@@dlib@@AAEXPAVnode@12@@Z PROC ; dlib::binary_search_tree_kernel_2<unsigned __int64,dlib::connection *,dlib::memory_manager_kernel_2<char,10>,std::less<unsigned __int64> >::rotate_right, COMDAT
; _this$ = ecx
; Line 1116
	push	ebp
	mov	ebp, esp
	sub	esp, 8
	mov	DWORD PTR _this$[ebp], ecx
; Line 1118
	mov	eax, DWORD PTR _t$[ebp]
	mov	ecx, DWORD PTR [eax]
	mov	DWORD PTR _temp$[ebp], ecx
; Line 1119
	mov	edx, DWORD PTR _t$[ebp]
	mov	eax, DWORD PTR _temp$[ebp]
	mov	ecx, DWORD PTR [eax+4]
	mov	DWORD PTR [edx], ecx
; Line 1120
	mov	edx, DWORD PTR _temp$[ebp]
	mov	eax, DWORD PTR _this$[ebp]
	mov	ecx, DWORD PTR [edx+4]
	cmp	ecx, DWORD PTR [eax+24]
	je	SHORT $LN5@rotate_rig
; Line 1121
	mov	edx, DWORD PTR _temp$[ebp]
	mov	eax, DWORD PTR [edx+4]
	mov	ecx, DWORD PTR _t$[ebp]
	mov	DWORD PTR [eax+8], ecx
$LN5@rotate_rig:
; Line 1122
	mov	edx, DWORD PTR _temp$[ebp]
	mov	eax, DWORD PTR _t$[ebp]
	mov	DWORD PTR [edx+4], eax
; Line 1123
	mov	ecx, DWORD PTR _temp$[ebp]
	mov	edx, DWORD PTR _t$[ebp]
	mov	eax, DWORD PTR [edx+8]
	mov	DWORD PTR [ecx+8], eax
; Line 1125
	mov	ecx, DWORD PTR _this$[ebp]
	mov	edx, DWORD PTR _t$[ebp]
	cmp	edx, DWORD PTR [ecx+32]
	jne	SHORT $LN4@rotate_rig
; Line 1126
	mov	eax, DWORD PTR _this$[ebp]
	mov	ecx, DWORD PTR _temp$[ebp]
	mov	DWORD PTR [eax+32], ecx
; Line 1127
	jmp	SHORT $LN3@rotate_rig
$LN4@rotate_rig:
; Line 1130
	mov	edx, DWORD PTR _t$[ebp]
	mov	eax, DWORD PTR [edx+8]
	mov	ecx, DWORD PTR [eax]
	cmp	ecx, DWORD PTR _t$[ebp]
	jne	SHORT $LN2@rotate_rig
; Line 1131
	mov	edx, DWORD PTR _t$[ebp]
	mov	eax, DWORD PTR [edx+8]
	mov	ecx, DWORD PTR _temp$[ebp]
	mov	DWORD PTR [eax], ecx
; Line 1132
	jmp	SHORT $LN3@rotate_rig
$LN2@rotate_rig:
; Line 1133
	mov	edx, DWORD PTR _t$[ebp]
