; Listing generated by Microsoft (R) Optimizing Compiler Version 16.00.40219.01 

	TITLE	C:\Work\daspirum\Source\src\LGN.cpp
	.686P
	.XMM
	include listing.inc
	.model	flat

INCLUDELIB OLDNAMES

	ORG $+2
$SG-54708 DB	'get|daspirum|version', 0dH, 0aH, 00H
	ORG $+1
$SG-54709 DB	'LGN::GetVersion', 00H
$SG-54710 DB	'..\src\LGN.cpp', 00H
	ORG $+1
$SG-54755 DB	'.', 0aH, 00H
	ORG $+1
$SG-54756 DB	0aH, 0aH, 'Error detected at line ', 00H
	ORG $+2
$SG-54757 DB	'.', 0aH, 00H
	ORG $+1
$SG-54758 DB	'e:\library\dlib\dlib\set/set_kernel_c.h', 00H
$SG-54759 DB	'Error detected in file ', 00H
$SG-54760 DB	'.', 0aH, 0aH, 00H
$SG-54762 DB	'Error detected in function ', 00H
$SG-54761 DB	'void __thiscall dlib::set_kernel_c<class dlib::set_kerne'
	DB	'l_1<unsigned long,class dlib::binary_search_tree_kernel_2<uns'
	DB	'igned long,char,class dlib::memory_manager_kernel_2<char,100>'
	DB	',struct std::less<unsigned long> >,class dlib::memory_manager'
	DB	'_kernel_2<char,100> > >::remove_any(unsigned long &)', 00H
$SG-54763 DB	'.', 0aH, 00H
	ORG $+1
$SG-54764 DB	'this->size() != 0', 00H
	ORG $+2
$SG-54765 DB	'Failing expression was ', 00H
$SG-54766 DB	0aH, 00H
	ORG $+2
$SG-54767 DB	0aH, 09H, 'this: ', 00H
	ORG $+3
$SG-54768 DB	0aH, 09H, 'size must be greater than zero if an item is t'
	DB	'o be removed', 00H
	ORG $+3
$SG-54769 DB	09H, 'void set::remove_any', 00H
	ORG $+2
$SG-54770 DB	'.', 0aH, 00H
	ORG $+1
$SG-54771 DB	0aH, 0aH, 'Error detected at line ', 00H
	ORG $+2
$SG-54772 DB	'.', 0aH, 00H
	ORG $+1
$SG-54773 DB	'e:\library\dlib\dlib\set/set_kernel_c.h', 00H
$SG-54774 DB	'Error detected in file ', 00H
$SG-54775 DB	'.', 0aH, 0aH, 00H
$SG-54777 DB	'Error detected in function ', 00H
$SG-54776 DB	'const unsigned long &__thiscall dlib::set_kernel_c<class'
	DB	' dlib::set_kernel_1<unsigned long,class dlib::binary_search_t'
	DB	'ree_kernel_2<unsigned long,char,class dlib::memory_manager_ke'
	DB	'rnel_2<char,100>,struct std::less<unsigned long> >,class dlib'
	DB	'::memory_manager_kernel_2<char,100> > >::element(void) const', 00H
$SG-54778 DB	'.', 0aH, 00H
	ORG $+1
$SG-54779 DB	'this->current_element_valid() == true', 00H
	ORG $+2
$SG-54780 DB	'Failing expression was ', 00H
$SG-54781 DB	0aH, 00H
	ORG $+2
$SG-54782 DB	0aH, 09H, 'this: ', 00H
	ORG $+3
$SG-54783 DB	0aH, 09H, 'you can''t access the current element if it do'
	DB	'esn''t exist', 00H
	ORG $+1
$SG-54784 DB	09H, 'const T& set::element() const', 00H
	ORG $+1
$SG-54785 DB	'.', 0aH, 00H
	ORG $+1
$SG-54786 DB	0aH, 0aH, 'Error detected at line ', 00H
	ORG $+2
$SG-54787 DB	'.', 0aH, 00H
	ORG $+1
$SG-54788 DB	'e:\library\dlib\dlib\set/set_kernel_c.h', 00H
$SG-54789 DB	'Error detected in file ', 00H
$SG-54790 DB	'.', 0aH, 0aH, 00H
$SG-54792 DB	'Error detected in function ', 00H
$SG-54791 DB	'const unsigned long &__thiscall dlib::set_kernel_c<class'
	DB	' dlib::set_kernel_1<unsigned long,class dlib::binary_search_t'
	DB	'ree_kernel_2<unsigned long,char,class dlib::memory_manager_ke'
	DB	'rnel_2<char,100>,struct std::less<unsigned long> >,class dlib'
	DB	'::memory_manager_kernel_2<char,100> > >::element(void)', 00H
	ORG $+2
$SG-54793 DB	'.', 0aH, 00H
	ORG $+1
$SG-54794 DB	'this->current_element_valid() == true', 00H
	ORG $+2
$SG-54795 DB	'Failing expression was ', 00H
$SG-54796 DB	0aH, 00H
	ORG $+2
$SG-54797 DB	0aH, 09H, 'this: ', 00H
	ORG $+3
$SG-54798 DB	0aH, 09H, 'you can''t access the current element if it do'
	DB	'esn''t exist', 00H
	ORG $+1
$SG-54799 DB	09H, 'const T& set::element', 00H
	ORG $+1
$SG-54800 DB	'.', 0aH, 00H
	ORG $+1
$SG-54801 DB	0aH, 0aH, 'Error detected at line ', 00H
	ORG $+2
$SG-54802 DB	'.', 0aH, 00H
	ORG $+1
$SG-54804 DB	'Error detected in file ', 00H
$SG-54805 DB	'.', 0aH, 0aH, 00H
$SG-54803 DB	'e:\library\dlib\dlib\binary_search_tree/binary_search_tr'
	DB	'ee_kernel_c.h', 00H
	ORG $+2
$SG-54806 DB	'void __thiscall dlib::binary_search_tree_kernel_c<class '
	DB	'dlib::binary_search_tree_kernel_2<unsigned long,class dlib::m'
	DB	'ember_function_pointer<void,void,void,void>,class dlib::memor'
	DB	'y_manager_kernel_2<char,10>,struct std::less<unsigned long> >'
	DB	' >::remove_any(unsigned long &,class dlib::member_function_po'
	DB	'inter<void,void,void,void> &)', 00H
	ORG $+2
$SG-54807 DB	'Error detected in function ', 00H
$SG-54808 DB	'.', 0aH, 00H
	ORG $+1
$SG-54810 DB	'Failing expression was ', 00H
$SG-54811 DB	0aH, 00H
	ORG $+2
$SG-54809 DB	'this->size() != 0 && (static_cast<const void*>(&d) != st'
	DB	'atic_cast<void*>(&r))', 00H
	ORG $+2
$SG-54812 DB	0aH, 09H, '&r:   ', 00H
	ORG $+3
$SG-54813 DB	0aH, 09H, '&d:   ', 00H
	ORG $+3
$SG-54814 DB	0aH, 09H, 'this: ', 00H
	ORG $+3
$SG-54815 DB	0aH, 09H, 'tree must not be empty if something is going t'
	DB	'o be removed', 00H
	ORG $+3
$SG-54816 DB	09H, 'void binary_search_tree::remove_any', 00H
	ORG $+3
$SG-54817 DB	'.', 0aH, 00H
	ORG $+1
$SG-54818 DB	0aH, 0aH, 'Error detected at line ', 00H
	ORG $+2
$SG-54819 DB	'.', 0aH, 00H
	ORG $+1
$SG-54820 DB	'e:\library\dlib\dlib\binary_search_tree/binary_search_tr'
	DB	'ee_kernel_c.h', 00H
	ORG $+2
$SG-54821 DB	'Error detected in file ', 00H
$SG-54822 DB	'.', 0aH, 0aH, 00H
$SG-54824 DB	'Error detected in function ', 00H
$SG-54823 DB	'class dlib::map_pair<unsigned long,class dlib::member_fu'
	DB	'nction_pointer<void,void,void,void> > &__thiscall dlib::binar'
	DB	'y_search_tree_kernel_c<class dlib::binary_search_tree_kernel_'
	DB	'2<unsigned long,class dlib::member_function_pointer<void,void'
	DB	',void,void>,class dlib::memory_manager_kernel_2<char,10>,stru'
	DB	'ct std::less<unsigned long> > >::element(void)', 00H
	ORG $+1
$SG-54825 DB	'.', 0aH, 00H
	ORG $+1
$SG-54826 DB	'this->current_element_valid() == true', 00H
	ORG $+2
$SG-54827 DB	'Failing expression was ', 00H
$SG-54828 DB	0aH, 00H
	ORG $+2
$SG-54829 DB	0aH, 09H, 'this: ', 00H
	ORG $+3
$SG-54830 DB	0aH, 09H, 'you can''t access the current element if it do'
	DB	'esn''t exist', 00H
	ORG $+1
$SG-54831 DB	09H, 'map_pair<domain,range>& binary_search_tree::element'
	DB	'()', 00H
	ORG $+1
$SG-54832 DB	'.', 0aH, 00H
	ORG $+1
$SG-54833 DB	0aH, 0aH, 'Error detected at line ', 00H
	ORG $+2
$SG-54834 DB	'.', 0aH, 00H
	ORG $+1
$SG-54835 DB	'e:\library\dlib\dlib\binary_search_tree/binary_search_tr'
	DB	'ee_kernel_c.h', 00H
	ORG $+2
$SG-54836 DB	'Error detected in file ', 00H
$SG-54837 DB	'.', 0aH, 0aH, 00H
$SG-54839 DB	'Error detected in function ', 00H
$SG-54838 DB	'const class dlib::map_pair<unsigned long,class dlib::mem'
	DB	'ber_function_pointer<void,void,void,void> > &__thiscall dlib:'
	DB	':binary_search_tree_kernel_c<class dlib::binary_search_tree_k'
	DB	'ernel_2<unsigned long,class dlib::member_function_pointer<voi'
	DB	'd,void,void,void>,class dlib::memory_manager_kernel_2<char,10'
	DB	'>,struct std::less<unsigned long> > >::element(void) const', 00H
	ORG $+1
$SG-54840 DB	'.', 0aH, 00H
	ORG $+1
$SG-54841 DB	'this->current_element_valid() == true', 00H
	ORG $+2
$SG-54842 DB	'Failing expression was ', 00H
$SG-54843 DB	0aH, 00H
	ORG $+2
$SG-54844 DB	0aH, 09H, 'this: ', 00H
	ORG $+3
$SG-54845 DB	0aH, 09H, 'you can''t access the current element if it do'
	DB	'esn''t exist', 00H
	ORG $+1
$SG-54846 DB	09H, 'const map_pair<domain,range>& binary_search_tree::e'
	DB	'lement() const', 00H
	ORG $+1
$SG-54847 DB	'.', 0aH, 00H
	ORG $+1
$SG-54848 DB	0aH, 0aH, 'Error detected at line ', 00H
	ORG $+2
$SG-54849 DB	'.', 0aH, 00H
	ORG $+1
$SG-54850 DB	'e:\library\dlib\dlib\binary_search_tree/binary_search_tr'
	DB	'ee_kernel_c.h', 00H
	ORG $+2
$SG-54851 DB	'Error detected in file ', 00H
$SG-54852 DB	'.', 0aH, 0aH, 00H
$SG-54854 DB	'Error detected in function ', 00H
$SG-54853 DB	'void __thiscall dlib::binary_search_tree_kernel_c<class '
	DB	'dlib::binary_search_tree_kernel_2<unsigned __int64,struct dli'
	DB	'b::timer_base *,class dlib::memory_manager_kernel_2<char,100>'
	DB	',struct std::less<unsigned __int64> > >::remove_any(unsigned '
	DB	'__int64 &,struct dlib::timer_base *&)', 00H
	ORG $+3
$SG-54855 DB	'.', 0aH, 00H
	ORG $+1
$SG-54857 DB	'Failing expression was ', 00H
$SG-54858 DB	0aH, 00H
	ORG $+2
$SG-54856 DB	'this->size() != 0 && (static_cast<const void*>(&d) != st'
	DB	'atic_cast<void*>(&r))', 00H
	ORG $+2
$SG-54859 DB	0aH, 09H, '&r:   ', 00H
	ORG $+3
$SG-54860 DB	0aH, 09H, '&d:   ', 00H
	ORG $+3
$SG-54861 DB	0aH, 09H, 'this: ', 00H
	ORG $+3
$SG-54862 DB	0aH, 09H, 'tree must not be empty if something is going t'
	DB	'o be removed', 00H
	ORG $+3
$SG-54863 DB	09H, 'void binary_search_tree::remove_any', 00H
	ORG $+3
$SG-54864 DB	'.', 0aH, 00H
	ORG $+1
$SG-54865 DB	0aH, 0aH, 'Error detected at line ', 00H
	ORG $+2
$SG-54866 DB	'.', 0aH, 00H
	ORG $+1
$SG-54867 DB	'e:\library\dlib\dlib\binary_search_tree/binary_search_tr'
	DB	'ee_kernel_c.h', 00H
	ORG $+2
$SG-54868 DB	'Error detected in file ', 00H
$SG-54869 DB	'.', 0aH, 0aH, 00H
$SG-54871 DB	'Error detected in function ', 00H
$SG-54870 DB	'class dlib::map_pair<unsigned __int64,struct dlib::timer'
	DB	'_base *> &__thiscall dlib::binary_search_tree_kernel_c<class '
	DB	'dlib::binary_search_tree_kernel_2<unsigned __int64,struct dli'
	DB	'b::timer_base *,class dlib::memory_manager_kernel_2<char,100>'
	DB	',struct std::less<unsigned __int64> > >::element(void)', 00H
	ORG $+2
$SG-54872 DB	'.', 0aH, 00H
	ORG $+1
$SG-54873 DB	'this->current_element_valid() == true', 00H
	ORG $+2
$SG-54874 DB	'Failing expression was ', 00H
$SG-54875 DB	0aH, 00H
	ORG $+2
$SG-54876 DB	0aH, 09H, 'this: ', 00H
	ORG $+3
$SG-54877 DB	0aH, 09H, 'you can''t access the current element if it do'
	DB	'esn''t exist', 00H
	ORG $+1
$SG-54878 DB	09H, 'map_pair<domain,range>& binary_search_tree::element'
	DB	'()', 00H
	ORG $+1
$SG-54879 DB	'.', 0aH, 00H
	ORG $+1
$SG-54880 DB	0aH, 0aH, 'Error detected at line ', 00H
	ORG $+2
$SG-54881 DB	'.', 0aH, 00H
	ORG $+1
$SG-54883 DB	'Error detected in file ', 00H
$SG-54884 DB	'.', 0aH, 0aH, 00H
$SG-54882 DB	'e:\library\dlib\dlib\binary_search_tree/binary_search_tr'
	DB	'ee_kernel_c.h', 00H
	ORG $+2
$SG-54885 DB	'const class dlib::map_pair<unsigned __int64,struct dlib:'
	DB	':timer_base *> &__thiscall dlib::binary_search_tree_kernel_c<'
	DB	'class dlib::binary_search_tree_kernel_2<unsigned __int64,stru'
	DB	'ct dlib::timer_base *,class dlib::memory_manager_kernel_2<cha'
	DB	'r,100>,struct std::less<unsigned __int64> > >::element(void) '
	DB	'const', 00H
	ORG $+2
$SG-54886 DB	'Error detected in function ', 00H
$SG-54887 DB	'.', 0aH, 00H
	ORG $+1
$SG-54888 DB	'this->current_element_valid() == true', 00H
	ORG $+2
$SG-54889 DB	'Failing expression was ', 00H
$SG-54890 DB	0aH, 00H
	ORG $+2
$SG-54891 DB	0aH, 09H, 'this: ', 00H
	ORG $+3
$SG-54892 DB	0aH, 09H, 'you can''t access the current element if it do'
	DB	'esn''t exist', 00H
	ORG $+1
$SG-54893 DB	09H, 'const map_pair<domain,range>& binary_search_tree::e'
	DB	'lement() const', 00H
PUBLIC	__$ArrayPad$
PUBLIC	?GetVersion@LGN@@YAHXZ				; LGN::GetVersion
;	COMDAT xdata$x
; File c:\work\daspirum\source\src\lgn.cpp
xdata$x	SEGMENT
__unwindtable$?GetVersion@LGN@@YAHXZ DD 0ffffffffH
	DD	00H
	DD	00H
	DD	FLAT:__unwindfunclet$?GetVersion@LGN@@YAHXZ$2
	DD	01H
	DD	FLAT:__unwindfunclet$?GetVersion@LGN@@YAHXZ$3
	DD	00H
	DD	FLAT:__unwindfunclet$?GetVersion@LGN@@YAHXZ$3
	DD	03H
	DD	FLAT:__unwindfunclet$?GetVersion@LGN@@YAHXZ$4
	DD	0ffffffffH
	DD	00H
__catchsym$?GetVersion@LGN@@YAHXZ$6 DD 08H
	DD	FLAT:??_R0?AVexception@std@@@8
	DD	0ffffff38H
	DD	FLAT:__catch$?GetVersion@LGN@@YAHXZ$0
__tryblocktable$?GetVersion@LGN@@YAHXZ DD 00H
	DD	04H
	DD	05H
	DD	01H
	DD	FLAT:__catchsym$?GetVersion@LGN@@YAHXZ$6
__ehfuncinfo$?GetVersion@LGN@@YAHXZ DD 019930522H
	DD	06H
	DD	FLAT:__unwindtable$?GetVersion@LGN@@YAHXZ
	DD	01H
	DD	FLAT:__tryblocktable$?GetVersion@LGN@@YAHXZ
	DD	2 DUP(00H)
	DD	00H
	DD	01H
; Function compile flags: /Odtp
xdata$x	ENDS
;	COMDAT ?GetVersion@LGN@@YAHXZ
_TEXT	SEGMENT
tv161 = -240						; size = 4
tv167 = -236						; size = 4
tv165 = -232						; size = 4
tv82 = -228						; size = 4
tv79 = -224						; size = 4
tv164 = -220						; size = 4
tv163 = -216						; size = 4
$T369903 = -212						; size = 4
$T369902 = -208						; size = 4
$T369901 = -204						; size = 4
_e$151078 = -200					; size = 4
_version$151053 = -196					; size = 28
_stream$151050 = -168					; size = 112
$T151051 = -52						; size = 32
__$ArrayPad$ = -20					; size = 4
__$EHRec$ = -16						; size = 16
?GetVersion@LGN@@YAHXZ PROC				; LGN::GetVersion, COMDAT
; Line 15
	push	ebp
	mov	ebp, esp
	push	-1
	push	__ehhandler$?GetVersion@LGN@@YAHXZ
	mov	eax, DWORD PTR fs:0
	push	eax
	push	ecx
	sub	esp, 224				; 000000e0H
	mov	eax, DWORD PTR ___security_cookie
	xor	eax, ebp
	mov	DWORD PTR __$ArrayPad$[ebp], eax
	push	ebx
	push	esi
	push	edi
	push	eax
	lea	eax, DWORD PTR __$EHRec$[ebp+4]
	mov	DWORD PTR fs:0, eax
	mov	DWORD PTR __$EHRec$[ebp], esp
; Line 17
	mov	DWORD PTR __$EHRec$[ebp+12], 0
; Line 18
	push	OFFSET ?server@LGN@Config@@3V?$basic_string@DU?$char_traits@D@std@@V?$allocator@D@2@@std@@A ; Config::LGN::server
	lea	ecx, DWORD PTR $T151051[ebp]
	call	??0network_address@dlib@@QAE@ABV?$basic_string@DU?$char_traits@D@std@@V?$allocator@D@2@@std@@@Z ; dlib::network_address::network_address
	mov	DWORD PTR tv163[ebp], eax
	mov	BYTE PTR __$EHRec$[ebp+12], 1
	push	1
	lea	eax, DWORD PTR $T151051[ebp]
	push	eax
	lea	ecx, DWORD PTR _stream$151050[ebp]
	call	??0iosockstream@dlib@@QAE@ABUnetwork_address@1@@Z ; dlib::iosockstream::iosockstream
	mov	DWORD PTR tv164[ebp], eax
	mov	BYTE PTR __$EHRec$[ebp+12], 3
	lea	ecx, DWORD PTR $T151051[ebp]
	call	??1network_address@dlib@@QAE@XZ
; Line 20
	lea	ecx, DWORD PTR _stream$151050[ebp]
	test	ecx, ecx
	je	SHORT $LN6@GetVersion
	lea	edx, DWORD PTR _stream$151050[ebp]
	add	edx, 16					; 00000010H
	mov	DWORD PTR tv79[ebp], edx
	jmp	SHORT $LN7@GetVersion
$LN6@GetVersion:
	mov	DWORD PTR tv79[ebp], 0
$LN7@GetVersion:
	push	OFFSET $SG-54708
	mov	eax, DWORD PTR tv79[ebp]
	push	eax
	call	??$?6U?$char_traits@D@std@@@std@@YAAAV?$basic_ostream@DU?$char_traits@D@std@@@0@AAV10@PBD@Z ; std::operator<<<std::char_traits<char> >
	add	esp, 8
; Line 22
	lea	ecx, DWORD PTR _version$151053[ebp]
	call	??0?$basic_string@DU?$char_traits@D@std@@V?$allocator@D@2@@std@@QAE@XZ ; std::basic_string<char,std::char_traits<char>,std::allocator<char> >::basic_string<char,std::char_traits<char>,std::allocator<char> >
	mov	BYTE PTR __$EHRec$[ebp+12], 4
$LN2@GetVersion:
; Line 24
	lea	ecx, DWORD PTR _stream$151050[ebp]
	call	DWORD PTR __imp_?peek@?$basic_istream@DU?$char_traits@D@std@@@std@@QAEHXZ
	mov	DWORD PTR tv82[ebp], eax
	cmp	DWORD PTR tv82[ebp], -1
	je	SHORT $LN1@GetVersion
; Line 26
	lea	ecx, DWORD PTR _stream$151050[ebp]
	call	DWORD PTR __imp_?get@?$basic_istream@DU?$char_traits@D@std@@@std@@QAEHXZ
	mov	DWORD PTR tv165[ebp], eax
	movzx	ecx, BYTE PTR tv165[ebp]
	push	ecx
	lea	ecx, DWORD PTR _version$151053[ebp]
	call	??Y?$basic_string@DU?$char_traits@D@std@@V?$allocator@D@2@@std@@QAEAAV01@D@Z ; std::basic_string<char,std::char_traits<char>,std::allocator<char> >::operator+=
; Line 27
	jmp	SHORT $LN2@GetVersion
$LN1@GetVersion:
; Line 29
	lea	edx, DWORD PTR _version$151053[ebp]
	push	edx
	call	??$string_cast@HDU?$char_traits@D@std@@V?$allocator@D@2@@dlib@@YA?BHABV?$basic_string@DU?$char_traits@D@std@@V?$allocator@D@2@@std@@@Z ; dlib::string_cast<int,char,std::char_traits<char>,std::allocator<char> >
	add	esp, 4
	mov	DWORD PTR tv167[ebp], eax
	mov	eax, DWORD PTR tv167[ebp]
	mov	DWORD PTR $T369901[ebp], eax
	mov	BYTE PTR __$EHRec$[ebp+12], 3
	lea	ecx, DWORD PTR _version$151053[ebp]
	call	??1?$basic_string@DU?$char_traits@D@std@@V?$allocator@D@2@@std@@QAE@XZ ; std::basic_string<char,std::char_traits<char>,std::allocator<char> >::~basic_string<char,std::char_traits<char>,std::allocator<char> >
	mov	BYTE PTR __$EHRec$[ebp+12], 0
	lea	ecx, DWORD PTR _stream$151050[ebp]
	call	??_Diosockstream@dlib@@QAEXXZ
	mov	eax, DWORD PTR $T369901[ebp]
	jmp	SHORT $LN4@GetVersion
__catch$?GetVersion@LGN@@YAHXZ$0:
; Line 33
	mov	ecx, DWORD PTR _e$151078[ebp]
	mov	edx, DWORD PTR [ecx]
	mov	ecx, DWORD PTR _e$151078[ebp]
	mov	eax, DWORD PTR [edx+4]
	call	eax
	sub	esp, 28					; 0000001cH
	mov	ecx, esp
	mov	DWORD PTR $T369902[ebp], esp
	push	eax
	call	??0?$basic_string@DU?$char_traits@D@std@@V?$allocator@D@2@@std@@QAE@PBD@Z ; std::basic_string<char,std::char_traits<char>,std::allocator<char> >::basic_string<char,std::char_traits<char>,std::allocator<char> >
	mov	DWORD PTR tv161[ebp], eax
	push	33					; 00000021H
	push	OFFSET $SG-54709
	push	OFFSET $SG-54710
	call	?error@log@helper@@YAXPBD0JV?$basic_string@DU?$char_traits@D@std@@V?$allocator@D@2@@std@@@Z ; helper::log::error
	add	esp, 40					; 00000028H
; Line 34
	mov	DWORD PTR $T369903[ebp], -1
	mov	DWORD PTR __$EHRec$[ebp+12], -1
	mov	eax, $LN15@GetVersion
	ret	0
; Line 35
	mov	eax, __tryend$?GetVersion@LGN@@YAHXZ$1
	ret	0
__tryend$?GetVersion@LGN@@YAHXZ$1:
	mov	DWORD PTR __$EHRec$[ebp+12], -1
	jmp	SHORT $LN14@GetVersion
$LN15@GetVersion:
; Line 34
	mov	eax, DWORD PTR $T369903[ebp]
	jmp	SHORT $LN4@GetVersion
$LN14@GetVersion:
; Line 37
	mov	eax, 1
$LN4@GetVersion:
; Line 38
	mov	ecx, DWORD PTR __$EHRec$[ebp+4]
	mov	DWORD PTR fs:0, ecx
	pop	ecx
	pop	edi
	pop	esi
	pop	ebx
	mov	ecx, DWORD PTR __$ArrayPad$[ebp]
	xor	ecx, ebp
	call	@__security_check_cookie@4
	mov	esp, ebp
	pop	ebp
	ret	0
_TEXT	ENDS
;	COMDAT text$x
text$x	SEGMENT
__unwindfunclet$?GetVersion@LGN@@YAHXZ$2:
	lea	ecx, DWORD PTR $T151051[ebp]
	jmp	??1network_address@dlib@@QAE@XZ
__unwindfunclet$?GetVersion@LGN@@YAHXZ$3:
	lea	ecx, DWORD PTR _stream$151050[ebp]
	jmp	??_Diosockstream@dlib@@QAEXXZ
__unwindfunclet$?GetVersion@LGN@@YAHXZ$4:
	lea	ecx, DWORD PTR _version$151053[ebp]
	jmp	??1?$basic_string@DU?$char_traits@D@std@@V?$allocator@D@2@@std@@QAE@XZ ; std::basic_string<char,std::char_traits<char>,std::allocator<char> >::~basic_string<char,std::char_traits<char>,std::allocator<char> >
__ehhandler$?GetVersion@LGN@@YAHXZ:
	mov	edx, DWORD PTR [esp+8]
	lea	eax, DWORD PTR [edx+12]
	mov	ecx, DWORD PTR [edx-244]
	xor	ecx, eax
	call	@__security_check_cookie@4
	mov	ecx, DWORD PTR [edx-8]
	xor	ecx, eax
	call	@__security_check_cookie@4
	mov	eax, OFFSET __ehfuncinfo$?GetVersion@LGN@@YAHXZ
	jmp	___CxxFrameHandler3
text$x	ENDS
?GetVersion@LGN@@YAHXZ ENDP				; LGN::GetVersion
; Function compile flags: /Odtp
;	COMDAT ??__Esa@dlib@@YAXXZ
text$yc	SEGMENT
$T374817 = -1						; size = 1
??__Esa@dlib@@YAXXZ PROC				; dlib::`dynamic initializer for 'sa'', COMDAT
; File e:\library\dlib\dlib\string\string.h
; Line 488
	push	ebp
	mov	ebp, esp
	push	ecx
	xor	eax, eax
	mov	BYTE PTR $T374817[ebp], al
	mov	esp, ebp
	pop	ebp
	ret	0
??__Esa@dlib@@YAXXZ ENDP				; dlib::`dynamic initializer for 'sa''
_sa	DB	01H DUP (?)
_sa$initializer$ DD FLAT:??__Esa@dlib@@YAXXZ
END
