; Listing generated by Microsoft (R) Optimizing Compiler Version 16.00.40219.01 

	TITLE	C:\Work\daspirum\Source\src\mail.cpp
	.686P
	.XMM
	include listing.inc
	.model	flat

INCLUDELIB OLDNAMES

$SG-68394 DB	00H
$SG-68395 DB	00H
$SG-68214 DB	'config.cfg', 00H
	ORG $+1
$SG-68215 DB	'mail', 00H
	ORG $+3
$SG-68216 DB	'smtp_address', 00H
	ORG $+3
$SG-68217 DB	'mail', 00H
	ORG $+3
$SG-68218 DB	'smtp_port', 00H
	ORG $+2
$SG-68219 DB	'#000000', 00H
$SG-68220 DB	'Mail-S: ', 00H
	ORG $+3
$SG-68221 DB	'EHLO exp-clan.com', 0dH, 0aH, 00H
$SG-68222 DB	'#000000', 00H
$SG-68223 DB	'Mail-C: ', 00H
	ORG $+3
$SG-68224 DB	'#000000', 00H
$SG-68225 DB	'Mail-S: ', 00H
	ORG $+3
$SG-68226 DB	'>', 0dH, 0aH, 00H
$SG-68227 DB	'MAIL FROM:<daspirum@', 00H
	ORG $+3
$SG-68228 DB	'#000000', 00H
$SG-68229 DB	'Mail-C: ', 00H
	ORG $+3
$SG-68230 DB	'#000000', 00H
$SG-68231 DB	'Mail: ', 00H
	ORG $+1
$SG-68232 DB	'>', 0dH, 0aH, 00H
$SG-68233 DB	'RCPT TO:<', 00H
	ORG $+2
$SG-68234 DB	'#000000', 00H
$SG-68235 DB	'Mail: ', 00H
	ORG $+1
$SG-68236 DB	'DATA', 0dH, 0aH, 00H
	ORG $+1
$SG-68237 DB	'#000000', 00H
$SG-68238 DB	'Mail: ', 00H
	ORG $+1
$SG-68239 DB	0dH, 0aH, 00H
	ORG $+1
$SG-68240 DB	'From: daspirum@', 00H
$SG-68241 DB	'>', 0dH, 0aH, 00H
$SG-68242 DB	'To: <', 00H
	ORG $+2
$SG-68243 DB	0dH, 0aH, 00H
	ORG $+1
$SG-68244 DB	'Subject: ', 00H
	ORG $+2
$SG-68245 DB	0dH, 0aH, 00H
	ORG $+1
$SG-68246 DB	0dH, 0aH, 00H
	ORG $+1
$SG-68247 DB	'.', 0dH, 0aH, 00H
$SG-68248 DB	'#000000', 00H
$SG-68249 DB	'Mail: ', 00H
	ORG $+1
$SG-68250 DB	'QUIT', 00H
	ORG $+3
$SG-68251 DB	'#000000', 00H
$SG-68252 DB	'Mail: ', 00H
	ORG $+1
$SG-68253 DB	'mail::sendMail', 00H
	ORG $+1
$SG-68254 DB	'..\src\mail.cpp', 00H
$SG-68255 DB	'Unknown error!', 00H
	ORG $+1
$SG-68256 DB	'mail::sendMail', 00H
	ORG $+1
$SG-68257 DB	'..\src\mail.cpp', 00H
$SG-68302 DB	'.', 0aH, 00H
	ORG $+1
$SG-68303 DB	0aH, 0aH, 'Error detected at line ', 00H
	ORG $+2
$SG-68304 DB	'.', 0aH, 00H
	ORG $+1
$SG-68305 DB	'e:\library\dlib\dlib\set/set_kernel_c.h', 00H
$SG-68306 DB	'Error detected in file ', 00H
$SG-68307 DB	'.', 0aH, 0aH, 00H
$SG-68309 DB	'Error detected in function ', 00H
$SG-68308 DB	'void __thiscall dlib::set_kernel_c<class dlib::set_kerne'
	DB	'l_1<unsigned long,class dlib::binary_search_tree_kernel_2<uns'
	DB	'igned long,char,class dlib::memory_manager_kernel_2<char,100>'
	DB	',struct std::less<unsigned long> >,class dlib::memory_manager'
	DB	'_kernel_2<char,100> > >::remove_any(unsigned long &)', 00H
$SG-68310 DB	'.', 0aH, 00H
	ORG $+1
$SG-68311 DB	'this->size() != 0', 00H
	ORG $+2
$SG-68312 DB	'Failing expression was ', 00H
$SG-68313 DB	0aH, 00H
	ORG $+2
$SG-68314 DB	0aH, 09H, 'this: ', 00H
	ORG $+3
$SG-68315 DB	0aH, 09H, 'size must be greater than zero if an item is t'
	DB	'o be removed', 00H
	ORG $+3
$SG-68316 DB	09H, 'void set::remove_any', 00H
	ORG $+2
$SG-68317 DB	'.', 0aH, 00H
	ORG $+1
$SG-68318 DB	0aH, 0aH, 'Error detected at line ', 00H
	ORG $+2
$SG-68319 DB	'.', 0aH, 00H
	ORG $+1
$SG-68320 DB	'e:\library\dlib\dlib\set/set_kernel_c.h', 00H
$SG-68321 DB	'Error detected in file ', 00H
$SG-68322 DB	'.', 0aH, 0aH, 00H
$SG-68324 DB	'Error detected in function ', 00H
$SG-68323 DB	'const unsigned long &__thiscall dlib::set_kernel_c<class'
	DB	' dlib::set_kernel_1<unsigned long,class dlib::binary_search_t'
	DB	'ree_kernel_2<unsigned long,char,class dlib::memory_manager_ke'
	DB	'rnel_2<char,100>,struct std::less<unsigned long> >,class dlib'
	DB	'::memory_manager_kernel_2<char,100> > >::element(void) const', 00H
$SG-68325 DB	'.', 0aH, 00H
	ORG $+1
$SG-68326 DB	'this->current_element_valid() == true', 00H
	ORG $+2
$SG-68327 DB	'Failing expression was ', 00H
$SG-68328 DB	0aH, 00H
	ORG $+2
$SG-68329 DB	0aH, 09H, 'this: ', 00H
	ORG $+3
$SG-68330 DB	0aH, 09H, 'you can''t access the current element if it do'
	DB	'esn''t exist', 00H
	ORG $+1
$SG-68331 DB	09H, 'const T& set::element() const', 00H
	ORG $+1
$SG-68332 DB	'.', 0aH, 00H
	ORG $+1
$SG-68333 DB	0aH, 0aH, 'Error detected at line ', 00H
	ORG $+2
$SG-68334 DB	'.', 0aH, 00H
	ORG $+1
$SG-68335 DB	'e:\library\dlib\dlib\set/set_kernel_c.h', 00H
$SG-68336 DB	'Error detected in file ', 00H
$SG-68337 DB	'.', 0aH, 0aH, 00H
$SG-68339 DB	'Error detected in function ', 00H
$SG-68338 DB	'const unsigned long &__thiscall dlib::set_kernel_c<class'
	DB	' dlib::set_kernel_1<unsigned long,class dlib::binary_search_t'
	DB	'ree_kernel_2<unsigned long,char,class dlib::memory_manager_ke'
	DB	'rnel_2<char,100>,struct std::less<unsigned long> >,class dlib'
	DB	'::memory_manager_kernel_2<char,100> > >::element(void)', 00H
	ORG $+2
$SG-68340 DB	'.', 0aH, 00H
	ORG $+1
$SG-68341 DB	'this->current_element_valid() == true', 00H
	ORG $+2
$SG-68342 DB	'Failing expression was ', 00H
$SG-68343 DB	0aH, 00H
	ORG $+2
$SG-68344 DB	0aH, 09H, 'this: ', 00H
	ORG $+3
$SG-68345 DB	0aH, 09H, 'you can''t access the current element if it do'
	DB	'esn''t exist', 00H
	ORG $+1
$SG-68346 DB	09H, 'const T& set::element', 00H
	ORG $+1
$SG-68347 DB	'.', 0aH, 00H
	ORG $+1
$SG-68348 DB	0aH, 0aH, 'Error detected at line ', 00H
	ORG $+2
$SG-68349 DB	'.', 0aH, 00H
	ORG $+1
$SG-68351 DB	'Error detected in file ', 00H
$SG-68352 DB	'.', 0aH, 0aH, 00H
$SG-68350 DB	'e:\library\dlib\dlib\binary_search_tree/binary_search_tr'
	DB	'ee_kernel_c.h', 00H
	ORG $+2
$SG-68353 DB	'void __thiscall dlib::binary_search_tree_kernel_c<class '
	DB	'dlib::binary_search_tree_kernel_2<unsigned long,class dlib::m'
	DB	'ember_function_pointer<void,void,void,void>,class dlib::memor'
	DB	'y_manager_kernel_2<char,10>,struct std::less<unsigned long> >'
	DB	' >::remove_any(unsigned long &,class dlib::member_function_po'
	DB	'inter<void,void,void,void> &)', 00H
	ORG $+2
$SG-68354 DB	'Error detected in function ', 00H
$SG-68355 DB	'.', 0aH, 00H
	ORG $+1
$SG-68357 DB	'Failing expression was ', 00H
$SG-68358 DB	0aH, 00H
	ORG $+2
$SG-68356 DB	'this->size() != 0 && (static_cast<const void*>(&d) != st'
	DB	'atic_cast<void*>(&r))', 00H
	ORG $+2
$SG-68359 DB	0aH, 09H, '&r:   ', 00H
	ORG $+3
$SG-68360 DB	0aH, 09H, '&d:   ', 00H
	ORG $+3
$SG-68361 DB	0aH, 09H, 'this: ', 00H
	ORG $+3
$SG-68362 DB	0aH, 09H, 'tree must not be empty if something is going t'
	DB	'o be removed', 00H
	ORG $+3
$SG-68363 DB	09H, 'void binary_search_tree::remove_any', 00H
	ORG $+3
$SG-68364 DB	'.', 0aH, 00H
	ORG $+1
$SG-68365 DB	0aH, 0aH, 'Error detected at line ', 00H
	ORG $+2
$SG-68366 DB	'.', 0aH, 00H
	ORG $+1
$SG-68367 DB	'e:\library\dlib\dlib\binary_search_tree/binary_search_tr'
	DB	'ee_kernel_c.h', 00H
	ORG $+2
$SG-68368 DB	'Error detected in file ', 00H
$SG-68369 DB	'.', 0aH, 0aH, 00H
$SG-68371 DB	'Error detected in function ', 00H
$SG-68370 DB	'class dlib::map_pair<unsigned long,class dlib::member_fu'
	DB	'nction_pointer<void,void,void,void> > &__thiscall dlib::binar'
	DB	'y_search_tree_kernel_c<class dlib::binary_search_tree_kernel_'
	DB	'2<unsigned long,class dlib::member_function_pointer<void,void'
	DB	',void,void>,class dlib::memory_manager_kernel_2<char,10>,stru'
	DB	'ct std::less<unsigned long> > >::element(void)', 00H
	ORG $+1
$SG-68372 DB	'.', 0aH, 00H
	ORG $+1
$SG-68373 DB	'this->current_element_valid() == true', 00H
	ORG $+2
$SG-68374 DB	'Failing expression was ', 00H
$SG-68375 DB	0aH, 00H
	ORG $+2
$SG-68376 DB	0aH, 09H, 'this: ', 00H
	ORG $+3
$SG-68377 DB	0aH, 09H, 'you can''t access the current element if it do'
	DB	'esn''t exist', 00H
	ORG $+1
$SG-68378 DB	09H, 'map_pair<domain,range>& binary_search_tree::element'
	DB	'()', 00H
	ORG $+1
$SG-68379 DB	'.', 0aH, 00H
	ORG $+1
$SG-68380 DB	0aH, 0aH, 'Error detected at line ', 00H
	ORG $+2
$SG-68381 DB	'.', 0aH, 00H
	ORG $+1
$SG-68382 DB	'e:\library\dlib\dlib\binary_search_tree/binary_search_tr'
	DB	'ee_kernel_c.h', 00H
	ORG $+2
$SG-68383 DB	'Error detected in file ', 00H
$SG-68384 DB	'.', 0aH, 0aH, 00H
$SG-68386 DB	'Error detected in function ', 00H
$SG-68385 DB	'const class dlib::map_pair<unsigned long,class dlib::mem'
	DB	'ber_function_pointer<void,void,void,void> > &__thiscall dlib:'
	DB	':binary_search_tree_kernel_c<class dlib::binary_search_tree_k'
	DB	'ernel_2<unsigned long,class dlib::member_function_pointer<voi'
	DB	'd,void,void,void>,class dlib::memory_manager_kernel_2<char,10'
	DB	'>,struct std::less<unsigned long> > >::element(void) const', 00H
	ORG $+1
$SG-68387 DB	'.', 0aH, 00H
	ORG $+1
$SG-68388 DB	'this->current_element_valid() == true', 00H
	ORG $+2
$SG-68389 DB	'Failing expression was ', 00H
$SG-68390 DB	0aH, 00H
	ORG $+2
$SG-68391 DB	0aH, 09H, 'this: ', 00H
	ORG $+3
$SG-68392 DB	0aH, 09H, 'you can''t access the current element if it do'
	DB	'esn''t exist', 00H
	ORG $+1
$SG-68393 DB	09H, 'const map_pair<domain,range>& binary_search_tree::e'
	DB	'lement() const', 00H
	ORG $+1
$SG-68402 DB	'_-.', 00H
$SG-68403 DB	' ', 09H, 0dH, 0aH, 00H
PUBLIC	__$ArrayPad$
PUBLIC	?sendMail@mail@@YA_NV?$basic_string@DU?$char_traits@D@std@@V?$allocator@D@2@@std@@00@Z ; mail::sendMail
;	COMDAT xdata$x
; File c:\work\daspirum\source\src\mail.cpp
xdata$x	SEGMENT
__unwindtable$?sendMail@mail@@YA_NV?$basic_string@DU?$char_traits@D@std@@V?$allocator@D@2@@std@@00@Z DD 0ffffffffH
	DD	FLAT:__unwindfunclet$?sendMail@mail@@YA_NV?$basic_string@DU?$char_traits@D@std@@V?$allocator@D@2@@std@@00@Z$3
	DD	00H
	DD	FLAT:__unwindfunclet$?sendMail@mail@@YA_NV?$basic_string@DU?$char_traits@D@std@@V?$allocator@D@2@@std@@00@Z$4
	DD	01H
	DD	FLAT:__unwindfunclet$?sendMail@mail@@YA_NV?$basic_string@DU?$char_traits@D@std@@V?$allocator@D@2@@std@@00@Z$5
	DD	02H
	DD	00H
	DD	03H
	DD	FLAT:__unwindfunclet$?sendMail@mail@@YA_NV?$basic_string@DU?$char_traits@D@std@@V?$allocator@D@2@@std@@00@Z$6
	DD	04H
	DD	FLAT:__unwindfunclet$?sendMail@mail@@YA_NV?$basic_string@DU?$char_traits@D@std@@V?$allocator@D@2@@std@@00@Z$7
	DD	03H
	DD	FLAT:__unwindfunclet$?sendMail@mail@@YA_NV?$basic_string@DU?$char_traits@D@std@@V?$allocator@D@2@@std@@00@Z$7
	DD	06H
	DD	FLAT:__unwindfunclet$?sendMail@mail@@YA_NV?$basic_string@DU?$char_traits@D@std@@V?$allocator@D@2@@std@@00@Z$8
	DD	07H
	DD	FLAT:__unwindfunclet$?sendMail@mail@@YA_NV?$basic_string@DU?$char_traits@D@std@@V?$allocator@D@2@@std@@00@Z$9
	DD	08H
	DD	FLAT:__unwindfunclet$?sendMail@mail@@YA_NV?$basic_string@DU?$char_traits@D@std@@V?$allocator@D@2@@std@@00@Z$10
	DD	09H
	DD	FLAT:__unwindfunclet$?sendMail@mail@@YA_NV?$basic_string@DU?$char_traits@D@std@@V?$allocator@D@2@@std@@00@Z$11
	DD	08H
	DD	FLAT:__unwindfunclet$?sendMail@mail@@YA_NV?$basic_string@DU?$char_traits@D@std@@V?$allocator@D@2@@std@@00@Z$11
	DD	07H
	DD	FLAT:__unwindfunclet$?sendMail@mail@@YA_NV?$basic_string@DU?$char_traits@D@std@@V?$allocator@D@2@@std@@00@Z$11
	DD	0cH
	DD	FLAT:__unwindfunclet$?sendMail@mail@@YA_NV?$basic_string@DU?$char_traits@D@std@@V?$allocator@D@2@@std@@00@Z$12
	DD	0dH
	DD	FLAT:__unwindfunclet$?sendMail@mail@@YA_NV?$basic_string@DU?$char_traits@D@std@@V?$allocator@D@2@@std@@00@Z$13
	DD	0eH
	DD	FLAT:__unwindfunclet$?sendMail@mail@@YA_NV?$basic_string@DU?$char_traits@D@std@@V?$allocator@D@2@@std@@00@Z$14
	DD	0dH
	DD	FLAT:__unwindfunclet$?sendMail@mail@@YA_NV?$basic_string@DU?$char_traits@D@std@@V?$allocator@D@2@@std@@00@Z$14
	DD	0cH
	DD	FLAT:__unwindfunclet$?sendMail@mail@@YA_NV?$basic_string@DU?$char_traits@D@std@@V?$allocator@D@2@@std@@00@Z$14
	DD	011H
	DD	FLAT:__unwindfunclet$?sendMail@mail@@YA_NV?$basic_string@DU?$char_traits@D@std@@V?$allocator@D@2@@std@@00@Z$15
	DD	011H
	DD	FLAT:__unwindfunclet$?sendMail@mail@@YA_NV?$basic_string@DU?$char_traits@D@std@@V?$allocator@D@2@@std@@00@Z$18
	DD	011H
	DD	FLAT:__unwindfunclet$?sendMail@mail@@YA_NV?$basic_string@DU?$char_traits@D@std@@V?$allocator@D@2@@std@@00@Z$20
	DD	014H
	DD	FLAT:__unwindfunclet$?sendMail@mail@@YA_NV?$basic_string@DU?$char_traits@D@std@@V?$allocator@D@2@@std@@00@Z$21
	DD	011H
	DD	FLAT:__unwindfunclet$?sendMail@mail@@YA_NV?$basic_string@DU?$char_traits@D@std@@V?$allocator@D@2@@std@@00@Z$23
	DD	011H
	DD	FLAT:__unwindfunclet$?sendMail@mail@@YA_NV?$basic_string@DU?$char_traits@D@std@@V?$allocator@D@2@@std@@00@Z$25
	DD	017H
	DD	FLAT:__unwindfunclet$?sendMail@mail@@YA_NV?$basic_string@DU?$char_traits@D@std@@V?$allocator@D@2@@std@@00@Z$26
	DD	011H
	DD	FLAT:__unwindfunclet$?sendMail@mail@@YA_NV?$basic_string@DU?$char_traits@D@std@@V?$allocator@D@2@@std@@00@Z$27
	DD	011H
	DD	FLAT:__unwindfunclet$?sendMail@mail@@YA_NV?$basic_string@DU?$char_traits@D@std@@V?$allocator@D@2@@std@@00@Z$29
	DD	011H
	DD	FLAT:__unwindfunclet$?sendMail@mail@@YA_NV?$basic_string@DU?$char_traits@D@std@@V?$allocator@D@2@@std@@00@Z$31
	DD	01bH
	DD	FLAT:__unwindfunclet$?sendMail@mail@@YA_NV?$basic_string@DU?$char_traits@D@std@@V?$allocator@D@2@@std@@00@Z$32
	DD	011H
	DD	FLAT:__unwindfunclet$?sendMail@mail@@YA_NV?$basic_string@DU?$char_traits@D@std@@V?$allocator@D@2@@std@@00@Z$33
	DD	01dH
	DD	FLAT:__unwindfunclet$?sendMail@mail@@YA_NV?$basic_string@DU?$char_traits@D@std@@V?$allocator@D@2@@std@@00@Z$34
	DD	011H
	DD	FLAT:__unwindfunclet$?sendMail@mail@@YA_NV?$basic_string@DU?$char_traits@D@std@@V?$allocator@D@2@@std@@00@Z$35
	DD	01fH
	DD	FLAT:__unwindfunclet$?sendMail@mail@@YA_NV?$basic_string@DU?$char_traits@D@std@@V?$allocator@D@2@@std@@00@Z$36
	DD	011H
	DD	FLAT:__unwindfunclet$?sendMail@mail@@YA_NV?$basic_string@DU?$char_traits@D@std@@V?$allocator@D@2@@std@@00@Z$37
	DD	011H
	DD	FLAT:__unwindfunclet$?sendMail@mail@@YA_NV?$basic_string@DU?$char_traits@D@std@@V?$allocator@D@2@@std@@00@Z$38
	DD	011H
	DD	FLAT:__unwindfunclet$?sendMail@mail@@YA_NV?$basic_string@DU?$char_traits@D@std@@V?$allocator@D@2@@std@@00@Z$40
	DD	02H
	DD	00H
__catchsym$?sendMail@mail@@YA_NV?$basic_string@DU?$char_traits@D@std@@V?$allocator@D@2@@std@@00@Z$44 DD 08H
	DD	FLAT:??_R0?AVexception@std@@@8
	DD	0fffffbb0H
	DD	FLAT:__catch$?sendMail@mail@@YA_NV?$basic_string@DU?$char_traits@D@std@@V?$allocator@D@2@@std@@00@Z$0
	DD	040H
	DD	00H
	DD	00H
	DD	FLAT:__catch$?sendMail@mail@@YA_NV?$basic_string@DU?$char_traits@D@std@@V?$allocator@D@2@@std@@00@Z$1
__tryblocktable$?sendMail@mail@@YA_NV?$basic_string@DU?$char_traits@D@std@@V?$allocator@D@2@@std@@00@Z DD 03H
	DD	023H
	DD	024H
	DD	02H
	DD	FLAT:__catchsym$?sendMail@mail@@YA_NV?$basic_string@DU?$char_traits@D@std@@V?$allocator@D@2@@std@@00@Z$44
__ehfuncinfo$?sendMail@mail@@YA_NV?$basic_string@DU?$char_traits@D@std@@V?$allocator@D@2@@std@@00@Z DD 019930522H
	DD	025H
	DD	FLAT:__unwindtable$?sendMail@mail@@YA_NV?$basic_string@DU?$char_traits@D@std@@V?$allocator@D@2@@std@@00@Z
	DD	01H
	DD	FLAT:__tryblocktable$?sendMail@mail@@YA_NV?$basic_string@DU?$char_traits@D@std@@V?$allocator@D@2@@std@@00@Z
	DD	2 DUP(00H)
	DD	00H
	DD	01H
; Function compile flags: /Odtp
xdata$x	ENDS
;	COMDAT ?sendMail@mail@@YA_NV?$basic_string@DU?$char_traits@D@std@@V?$allocator@D@2@@std@@00@Z
_TEXT	SEGMENT
tv763 = -1416						; size = 4
tv760 = -1412						; size = 4
tv758 = -1408						; size = 4
tv755 = -1404						; size = 4
tv796 = -1400						; size = 4
tv746 = -1396						; size = 4
tv743 = -1392						; size = 4
tv795 = -1388						; size = 4
tv734 = -1384						; size = 4
tv794 = -1380						; size = 4
tv732 = -1376						; size = 4
tv793 = -1372						; size = 4
tv730 = -1368						; size = 4
tv792 = -1364						; size = 4
tv728 = -1360						; size = 4
tv791 = -1356						; size = 4
tv726 = -1352						; size = 4
tv790 = -1348						; size = 4
tv724 = -1344						; size = 4
tv789 = -1340						; size = 4
tv722 = -1336						; size = 4
tv788 = -1332						; size = 4
tv720 = -1328						; size = 4
tv717 = -1324						; size = 4
tv787 = -1320						; size = 4
tv708 = -1316						; size = 4
tv705 = -1312						; size = 4
tv786 = -1308						; size = 4
tv696 = -1304						; size = 4
tv785 = -1300						; size = 4
tv694 = -1296						; size = 4
tv784 = -1292						; size = 4
tv692 = -1288						; size = 4
tv689 = -1284						; size = 4
tv783 = -1280						; size = 4
tv680 = -1276						; size = 4
tv677 = -1272						; size = 4
tv782 = -1268						; size = 4
tv675 = -1264						; size = 4
tv781 = -1260						; size = 4
tv673 = -1256						; size = 4
tv670 = -1252						; size = 4
tv780 = -1248						; size = 4
tv661 = -1244						; size = 4
tv658 = -1240						; size = 4
tv655 = -1236						; size = 4
tv129 = -1232						; size = 4
tv779 = -1228						; size = 4
tv778 = -1222						; size = 2
tv777 = -1220						; size = 4
tv776 = -1216						; size = 4
tv775 = -1212						; size = 4
tv774 = -1208						; size = 4
tv773 = -1204						; size = 4
tv772 = -1200						; size = 4
tv771 = -1196						; size = 4
tv770 = -1192						; size = 4
tv76 = -1188						; size = 4
tv769 = -1184						; size = 4
tv768 = -1180						; size = 4
$T369524 = -1173					; size = 1
$T369523 = -1172					; size = 4
$T369522 = -1168					; size = 4
$T369521 = -1164					; size = 4
$T369520 = -1157					; size = 1
$T369519 = -1156					; size = 4
$T369518 = -1149					; size = 1
$T369517 = -1148					; size = 4
$T369516 = -1141					; size = 1
$T369515 = -1140					; size = 4
$T369514 = -1133					; size = 1
$T369513 = -1132					; size = 4
$T369512 = -1125					; size = 1
$T369511 = -1124					; size = 4
$T369510 = -1120					; size = 4
$T369509 = -1113					; size = 1
$T369508 = -1112					; size = 4
$T369507 = -1108					; size = 4
_e$151744 = -1104					; size = 4
_smtp_address$151623 = -1100				; size = 28
_con$151653 = -1072					; size = 4
_tmpStr$151622 = -1068					; size = 28
_sBuffer$151621 = -1040					; size = 256
_config$151618 = -784					; size = 116
$T151739 = -664						; size = 28
$T151730 = -636						; size = 28
$T151724 = -608						; size = 28
$T151720 = -580						; size = 28
$T151719 = -552						; size = 28
$T151716 = -524						; size = 28
$T151715 = -496						; size = 28
$T151712 = -468						; size = 28
$T151711 = -440						; size = 28
$T151706 = -412						; size = 28
$T151697 = -384						; size = 28
$T151691 = -356						; size = 28
$T151690 = -328						; size = 28
$T151685 = -300						; size = 28
$T151675 = -272						; size = 28
$T151674 = -244						; size = 28
$T151669 = -216						; size = 28
$T151656 = -188						; size = 28
$T151634 = -160						; size = 28
$T151633 = -132						; size = 28
$T151625 = -104						; size = 28
$T151624 = -76						; size = 28
$T151619 = -48						; size = 28
__$ArrayPad$ = -20					; size = 4
__$EHRec$ = -16						; size = 16
_to$ = 8						; size = 28
_subject$ = 36						; size = 28
_msg$ = 64						; size = 28
?sendMail@mail@@YA_NV?$basic_string@DU?$char_traits@D@std@@V?$allocator@D@2@@std@@00@Z PROC ; mail::sendMail, COMDAT
; Line 24
	push	ebp
	mov	ebp, esp
	push	-1
	push	__ehhandler$?sendMail@mail@@YA_NV?$basic_string@DU?$char_traits@D@std@@V?$allocator@D@2@@std@@00@Z
	mov	eax, DWORD PTR fs:0
	push	eax
	push	ecx
	sub	esp, 1400				; 00000578H
	mov	eax, DWORD PTR ___security_cookie
	xor	eax, ebp
	mov	DWORD PTR __$ArrayPad$[ebp], eax
	push	ebx
	push	esi
	push	edi
	push	eax
	lea	eax, DWORD PTR __$EHRec$[ebp+4]
	mov	DWORD PTR fs:0, eax
	mov	DWORD PTR __$EHRec$[ebp], esp
	mov	DWORD PTR __$EHRec$[ebp+12], 2
; Line 26
	mov	BYTE PTR __$EHRec$[ebp+12], 3
; Line 27
	push	OFFSET $SG-68214
	lea	ecx, DWORD PTR $T151619[ebp]
	call	??0?$basic_string@DU?$char_traits@D@std@@V?$allocator@D@2@@std@@QAE@PBD@Z ; std::basic_string<char,std::char_traits<char>,std::allocator<char> >::basic_string<char,std::char_traits<char>,std::allocator<char> >
	mov	DWORD PTR tv768[ebp], eax
	mov	BYTE PTR __$EHRec$[ebp+12], 4
	lea	eax, DWORD PTR $T151619[ebp]
	push	eax
	lea	ecx, DWORD PTR _config$151618[ebp]
	call	??0?$config_reader_kernel_1@V?$map_kernel_1@V?$basic_string@DU?$char_traits@D@std@@V?$allocator@D@2@@std@@V12@V?$binary_search_tree_kernel_2@V?$basic_string@DU?$char_traits@D@std@@V?$allocator@D@2@@std@@V12@V?$memory_manager_stateless_kernel_1@D@dlib@@U?$less@V?$basic_string@DU?$char_traits@D@std@@V?$allocator@D@2@@std@@@2@@dlib@@V?$memory_manager_stateless_kernel_1@D@4@@dlib@@V?$map_kernel_1@V?$basic_string@DU?$char_traits@D@std@@V?$allocator@D@2@@std@@PAXV?$binary_search_tree_kernel_2@V?$basic_string@DU?$char_traits@D@std@@V?$allocator@D@2@@std@@PAXV?$memory_manager_stateless_kernel_1@D@dlib@@U?$less@V?$basic_string@DU?$char_traits@D@std@@V?$allocator@D@2@@std@@@2@@dlib@@V?$memory_manager_stateless_kernel_1@D@4@@2@Vtokenizer_kernel_1@2@@dlib@@QAE@ABV?$basic_string@DU?$char_traits@D@std@@V?$allocator@D@2@@std@@@Z ; dlib::config_reader_kernel_1<dlib::map_kernel_1<std::basic_string<char,std::char_traits<char>,std::allocator<char> >,std::basic_string<char,std::char_traits<char>,std::allocator<char> >,dlib::binary_search_tree_kernel_2<std::basic_string<char,std::char_traits<char>,std::allocator<char> >,std::basic_string<char,std::char_traits<char>,std::allocator<char> >,dlib::memory_manager_stateless_kernel_1<char>,std::less<std::basic_string<char,std::char_traits<char>,std::allocator<char> > > >,dlib::memory_manager_stateless_kernel_1<char> >,dlib::map_kernel_1<std::basic_string<char,std::char_traits<char>,std::allocator<char> >,void *,dlib::binary_search_tree_kernel_2<std::basic_string<char,std::char_traits<char>,std::allocator<char> >,void *,dlib::memory_manager_stateless_kernel_1<char>,std::less<std::basic_string<char,std::char_traits<char>,std::allocator<char> > > >,dlib::memory_manager_stateless_kernel_1<char> >,dlib::tokenizer_kernel_1>::config_reader_kernel_1<dlib::map_kernel_1<std::basic_string<char,std::char_traits<char>,std::allocator<char> >,std::basic_string<char,std::char_traits<char>,std::allocator<char> >,dlib::binary_search_tree_kernel_2<std::basic_string<char,std::char_traits<char>,std::allocator<char> >,std::basic_string<char,std::char_traits<char>,std::allocator<char> >,dlib::memory_manager_stateless_kernel_1<char>,std::less<std::basic_string<char,std::char_traits<char>,std::allocator<char> > > >,dlib::memory_manager_stateless_kernel_1<char> >,dlib::map_kernel_1<std::basic_string<char,std::char_traits<char>,std::allocator<char> >,void *,dlib::binary_search_tree_kernel_2<std::basic_string<char,std::char_traits<char>,std::allocator<char> >,void *,dlib::memory_manager_stateless_kernel_1<char>,std::less<std::basic_string<char,std::char_traits<char>,std::allocator<char> > > >,dlib::memory_manager_stateless_kernel_1<char> >,dlib::tokenizer_kernel_1>
	mov	DWORD PTR tv769[ebp], eax
	mov	BYTE PTR __$EHRec$[ebp+12], 6
	lea	ecx, DWORD PTR $T151619[ebp]
	call	??1?$basic_string@DU?$char_traits@D@std@@V?$allocator@D@2@@std@@QAE@XZ ; std::basic_string<char,std::char_traits<char>,std::allocator<char> >::~basic_string<char,std::char_traits<char>,std::allocator<char> >
; Line 30
	lea	ecx, DWORD PTR _tmpStr$151622[ebp]
	call	??0?$basic_string@DU?$char_traits@D@std@@V?$allocator@D@2@@std@@QAE@XZ ; std::basic_string<char,std::char_traits<char>,std::allocator<char> >::basic_string<char,std::char_traits<char>,std::allocator<char> >
	mov	BYTE PTR __$EHRec$[ebp+12], 7
	push	OFFSET $SG-68216
	lea	ecx, DWORD PTR $T151625[ebp]
	call	??0?$basic_string@DU?$char_traits@D@std@@V?$allocator@D@2@@std@@QAE@PBD@Z ; std::basic_string<char,std::char_traits<char>,std::allocator<char> >::basic_string<char,std::char_traits<char>,std::allocator<char> >
	mov	DWORD PTR tv76[ebp], eax
	mov	BYTE PTR __$EHRec$[ebp+12], 8
	push	OFFSET $SG-68215
	lea	ecx, DWORD PTR $T151624[ebp]
	call	??0?$basic_string@DU?$char_traits@D@std@@V?$allocator@D@2@@std@@QAE@PBD@Z ; std::basic_string<char,std::char_traits<char>,std::allocator<char> >::basic_string<char,std::char_traits<char>,std::allocator<char> >
	mov	DWORD PTR tv770[ebp], eax
	mov	BYTE PTR __$EHRec$[ebp+12], 9
	lea	ecx, DWORD PTR $T151624[ebp]
	push	ecx
	lea	ecx, DWORD PTR _config$151618[ebp]
	call	?block@?$config_reader_kernel_1@V?$map_kernel_1@V?$basic_string@DU?$char_traits@D@std@@V?$allocator@D@2@@std@@V12@V?$binary_search_tree_kernel_2@V?$basic_string@DU?$char_traits@D@std@@V?$allocator@D@2@@std@@V12@V?$memory_manager_stateless_kernel_1@D@dlib@@U?$less@V?$basic_string@DU?$char_traits@D@std@@V?$allocator@D@2@@std@@@2@@dlib@@V?$memory_manager_stateless_kernel_1@D@4@@dlib@@V?$map_kernel_1@V?$basic_string@DU?$char_traits@D@std@@V?$allocator@D@2@@std@@PAXV?$binary_search_tree_kernel_2@V?$basic_string@DU?$char_traits@D@std@@V?$allocator@D@2@@std@@PAXV?$memory_manager_stateless_kernel_1@D@dlib@@U?$less@V?$basic_string@DU?$char_traits@D@std@@V?$allocator@D@2@@std@@@2@@dlib@@V?$memory_manager_stateless_kernel_1@D@4@@2@Vtokenizer_kernel_1@2@@dlib@@QBEABV12@ABV?$basic_string@DU?$char_traits@D@std@@V?$allocator@D@2@@std@@@Z ; dlib::config_reader_kernel_1<dlib::map_kernel_1<std::basic_string<char,std::char_traits<char>,std::allocator<char> >,std::basic_string<char,std::char_traits<char>,std::allocator<char> >,dlib::binary_search_tree_kernel_2<std::basic_string<char,std::char_traits<char>,std::allocator<char> >,std::basic_string<char,std::char_traits<char>,std::allocator<char> >,dlib::memory_manager_stateless_kernel_1<char>,std::less<std::basic_string<char,std::char_traits<char>,std::allocator<char> > > >,dlib::memory_manager_stateless_kernel_1<char> >,dlib::map_kernel_1<std::basic_string<char,std::char_traits<char>,std::allocator<char> >,void *,dlib::binary_search_tree_kernel_2<std::basic_string<char,std::char_traits<char>,std::allocator<char> >,void *,dlib::memory_manager_stateless_kernel_1<char>,std::less<std::basic_string<char,std::char_traits<char>,std::allocator<char> > > >,dlib::memory_manager_stateless_kernel_1<char> >,dlib::tokenizer_kernel_1>::block
	mov	DWORD PTR tv771[ebp], eax
	lea	edx, DWORD PTR $T151625[ebp]
	push	edx
	mov	ecx, DWORD PTR tv771[ebp]
	call	??A?$config_reader_kernel_1@V?$map_kernel_1@V?$basic_string@DU?$char_traits@D@std@@V?$allocator@D@2@@std@@V12@V?$binary_search_tree_kernel_2@V?$basic_string@DU?$char_traits@D@std@@V?$allocator@D@2@@std@@V12@V?$memory_manager_stateless_kernel_1@D@dlib@@U?$less@V?$basic_string@DU?$char_traits@D@std@@V?$allocator@D@2@@std@@@2@@dlib@@V?$memory_manager_stateless_kernel_1@D@4@@dlib@@V?$map_kernel_1@V?$basic_string@DU?$char_traits@D@std@@V?$allocator@D@2@@std@@PAXV?$binary_search_tree_kernel_2@V?$basic_string@DU?$char_traits@D@std@@V?$allocator@D@2@@std@@PAXV?$memory_manager_stateless_kernel_1@D@dlib@@U?$less@V?$basic_string@DU?$char_traits@D@std@@V?$allocator@D@2@@std@@@2@@dlib@@V?$memory_manager_stateless_kernel_1@D@4@@2@Vtokenizer_kernel_1@2@@dlib@@QBEABV?$basic_string@DU?$char_traits@D@std@@V?$allocator@D@2@@std@@ABV23@@Z ; dlib::config_reader_kernel_1<dlib::map_kernel_1<std::basic_string<char,std::char_traits<char>,std::allocator<char> >,std::basic_string<char,std::char_traits<char>,std::allocator<char> >,dlib::binary_search_tree_kernel_2<std::basic_string<char,std::char_traits<char>,std::allocator<char> >,std::basic_string<char,std::char_traits<char>,std::allocator<char> >,dlib::memory_manager_stateless_kernel_1<char>,std::less<std::basic_string<char,std::char_traits<char>,std::allocator<char> > > >,dlib::memory_manager_stateless_kernel_1<char> >,dlib::map_kernel_1<std::basic_string<char,std::char_traits<char>,std::allocator<char> >,void *,dlib::binary_search_tree_kernel_2<std::basic_string<char,std::char_traits<char>,std::allocator<char> >,void *,dlib::memory_manager_stateless_kernel_1<char>,std::less<std::basic_string<char,std::char_traits<char>,std::allocator<char> > > >,dlib::memory_manager_stateless_kernel_1<char> >,dlib::tokenizer_kernel_1>::operator[]
	mov	DWORD PTR tv772[ebp], eax
	mov	eax, DWORD PTR tv772[ebp]
	push	eax
	lea	ecx, DWORD PTR _smtp_address$151623[ebp]
	call	??0?$basic_string@DU?$char_traits@D@std@@V?$allocator@D@2@@std@@QAE@ABV01@@Z ; std::basic_string<char,std::char_traits<char>,std::allocator<char> >::basic_string<char,std::char_traits<char>,std::allocator<char> >
	mov	DWORD PTR tv773[ebp], eax
	mov	BYTE PTR __$EHRec$[ebp+12], 11		; 0000000bH
	lea	ecx, DWORD PTR $T151624[ebp]
	call	??1?$basic_string@DU?$char_traits@D@std@@V?$allocator@D@2@@std@@QAE@XZ ; std::basic_string<char,std::char_traits<char>,std::allocator<char> >::~basic_string<char,std::char_traits<char>,std::allocator<char> >
	mov	BYTE PTR __$EHRec$[ebp+12], 12		; 0000000cH
	lea	ecx, DWORD PTR $T151625[ebp]
	call	??1?$basic_string@DU?$char_traits@D@std@@V?$allocator@D@2@@std@@QAE@XZ ; std::basic_string<char,std::char_traits<char>,std::allocator<char> >::~basic_string<char,std::char_traits<char>,std::allocator<char> >
; Line 33
	push	OFFSET $SG-68218
	lea	ecx, DWORD PTR $T151634[ebp]
	call	??0?$basic_string@DU?$char_traits@D@std@@V?$allocator@D@2@@std@@QAE@PBD@Z ; std::basic_string<char,std::char_traits<char>,std::allocator<char> >::basic_string<char,std::char_traits<char>,std::allocator<char> >
	mov	DWORD PTR tv774[ebp], eax
	mov	BYTE PTR __$EHRec$[ebp+12], 13		; 0000000dH
	push	OFFSET $SG-68217
	lea	ecx, DWORD PTR $T151633[ebp]
	call	??0?$basic_string@DU?$char_traits@D@std@@V?$allocator@D@2@@std@@QAE@PBD@Z ; std::basic_string<char,std::char_traits<char>,std::allocator<char> >::basic_string<char,std::char_traits<char>,std::allocator<char> >
	mov	DWORD PTR tv775[ebp], eax
	mov	BYTE PTR __$EHRec$[ebp+12], 14		; 0000000eH
	lea	ecx, DWORD PTR $T151633[ebp]
	push	ecx
	lea	ecx, DWORD PTR _config$151618[ebp]
	call	?block@?$config_reader_kernel_1@V?$map_kernel_1@V?$basic_string@DU?$char_traits@D@std@@V?$allocator@D@2@@std@@V12@V?$binary_search_tree_kernel_2@V?$basic_string@DU?$char_traits@D@std@@V?$allocator@D@2@@std@@V12@V?$memory_manager_stateless_kernel_1@D@dlib@@U?$less@V?$basic_string@DU?$char_traits@D@std@@V?$allocator@D@2@@std@@@2@@dlib@@V?$memory_manager_stateless_kernel_1@D@4@@dlib@@V?$map_kernel_1@V?$basic_string@DU?$char_traits@D@std@@V?$allocator@D@2@@std@@PAXV?$binary_search_tree_kernel_2@V?$basic_string@DU?$char_traits@D@std@@V?$allocator@D@2@@std@@PAXV?$memory_manager_stateless_kernel_1@D@dlib@@U?$less@V?$basic_string@DU?$char_traits@D@std@@V?$allocator@D@2@@std@@@2@@dlib@@V?$memory_manager_stateless_kernel_1@D@4@@2@Vtokenizer_kernel_1@2@@dlib@@QBEABV12@ABV?$basic_string@DU?$char_traits@D@std@@V?$allocator@D@2@@std@@@Z ; dlib::config_reader_kernel_1<dlib::map_kernel_1<std::basic_string<char,std::char_traits<char>,std::allocator<char> >,std::basic_string<char,std::char_traits<char>,std::allocator<char> >,dlib::binary_search_tree_kernel_2<std::basic_string<char,std::char_traits<char>,std::allocator<char> >,std::basic_string<char,std::char_traits<char>,std::allocator<char> >,dlib::memory_manager_stateless_kernel_1<char>,std::less<std::basic_string<char,std::char_traits<char>,std::allocator<char> > > >,dlib::memory_manager_stateless_kernel_1<char> >,dlib::map_kernel_1<std::basic_string<char,std::char_traits<char>,std::allocator<char> >,void *,dlib::binary_search_tree_kernel_2<std::basic_string<char,std::char_traits<char>,std::allocator<char> >,void *,dlib::memory_manager_stateless_kernel_1<char>,std::less<std::basic_string<char,std::char_traits<char>,std::allocator<char> > > >,dlib::memory_manager_stateless_kernel_1<char> >,dlib::tokenizer_kernel_1>::block
	mov	DWORD PTR tv776[ebp], eax
	lea	edx, DWORD PTR $T151634[ebp]
	push	edx
	mov	ecx, DWORD PTR tv776[ebp]
	call	??A?$config_reader_kernel_1@V?$map_kernel_1@V?$basic_string@DU?$char_traits@D@std@@V?$allocator@D@2@@std@@V12@V?$binary_search_tree_kernel_2@V?$basic_string@DU?$char_traits@D@std@@V?$allocator@D@2@@std@@V12@V?$memory_manager_stateless_kernel_1@D@dlib@@U?$less@V?$basic_string@DU?$char_traits@D@std@@V?$allocator@D@2@@std@@@2@@dlib@@V?$memory_manager_stateless_kernel_1@D@4@@dlib@@V?$map_kernel_1@V?$basic_string@DU?$char_traits@D@std@@V?$allocator@D@2@@std@@PAXV?$binary_search_tree_kernel_2@V?$basic_string@DU?$char_traits@D@std@@V?$allocator@D@2@@std@@PAXV?$memory_manager_stateless_kernel_1@D@dlib@@U?$less@V?$basic_string@DU?$char_traits@D@std@@V?$allocator@D@2@@std@@@2@@dlib@@V?$memory_manager_stateless_kernel_1@D@4@@2@Vtokenizer_kernel_1@2@@dlib@@QBEABV?$basic_string@DU?$char_traits@D@std@@V?$allocator@D@2@@std@@ABV23@@Z ; dlib::config_reader_kernel_1<dlib::map_kernel_1<std::basic_string<char,std::char_traits<char>,std::allocator<char> >,std::basic_string<char,std::char_traits<char>,std::allocator<char> >,dlib::binary_search_tree_kernel_2<std::basic_string<char,std::char_traits<char>,std::allocator<char> >,std::basic_string<char,std::char_traits<char>,std::allocator<char> >,dlib::memory_manager_stateless_kernel_1<char>,std::less<std::basic_string<char,std::char_traits<char>,std::allocator<char> > > >,dlib::memory_manager_stateless_kernel_1<char> >,dlib::map_kernel_1<std::basic_string<char,std::char_traits<char>,std::allocator<char> >,void *,dlib::binary_search_tree_kernel_2<std::basic_string<char,std::char_traits<char>,std::allocator<char> >,void *,dlib::memory_manager_stateless_kernel_1<char>,std::less<std::basic_string<char,std::char_traits<char>,std::allocator<char> > > >,dlib::memory_manager_stateless_kernel_1<char> >,dlib::tokenizer_kernel_1>::operator[]
	mov	DWORD PTR tv777[ebp], eax
	mov	eax, DWORD PTR tv777[ebp]
	push	eax
	call	??$string_cast@GDU?$char_traits@D@std@@V?$allocator@D@2@@dlib@@YA?BGABV?$basic_string@DU?$char_traits@D@std@@V?$allocator@D@2@@std@@@Z ; dlib::string_cast<unsigned short,char,std::char_traits<char>,std::allocator<char> >
	add	esp, 4
	mov	WORD PTR tv778[ebp], ax
	movzx	ecx, WORD PTR tv778[ebp]
	push	ecx
	lea	edx, DWORD PTR _smtp_address$151623[ebp]
	push	edx
	call	?connect@dlib@@YAPAVconnection@1@ABV?$basic_string@DU?$char_traits@D@std@@V?$allocator@D@2@@std@@G@Z ; dlib::connect
	add	esp, 8
	mov	DWORD PTR tv779[ebp], eax
	mov	eax, DWORD PTR tv779[ebp]
	push	eax
	lea	ecx, DWORD PTR _con$151653[ebp]
	call	??0?$scoped_ptr@Vconnection@dlib@@U?$default_deleter@Vconnection@dlib@@@2@@dlib@@QAE@PAVconnection@1@@Z ; dlib::scoped_ptr<dlib::connection,dlib::default_deleter<dlib::connection> >::scoped_ptr<dlib::connection,dlib::default_deleter<dlib::connection> >
	mov	BYTE PTR __$EHRec$[ebp+12], 16		; 00000010H
	lea	ecx, DWORD PTR $T151633[ebp]
	call	??1?$basic_string@DU?$char_traits@D@std@@V?$allocator@D@2@@std@@QAE@XZ ; std::basic_string<char,std::char_traits<char>,std::allocator<char> >::~basic_string<char,std::char_traits<char>,std::allocator<char> >
	mov	BYTE PTR __$EHRec$[ebp+12], 17		; 00000011H
	lea	ecx, DWORD PTR $T151634[ebp]
	call	??1?$basic_string@DU?$char_traits@D@std@@V?$allocator@D@2@@std@@QAE@XZ ; std::basic_string<char,std::char_traits<char>,std::allocator<char> >::~basic_string<char,std::char_traits<char>,std::allocator<char> >
; Line 36
	push	1000					; 000003e8H
	push	256					; 00000100H
	lea	ecx, DWORD PTR _sBuffer$151621[ebp]
	push	ecx
	lea	ecx, DWORD PTR _con$151653[ebp]
	call	??C?$scoped_ptr@Vconnection@dlib@@U?$default_deleter@Vconnection@dlib@@@2@@dlib@@QBEPAVconnection@1@XZ ; dlib::scoped_ptr<dlib::connection,dlib::default_deleter<dlib::connection> >::operator->
	mov	ecx, eax
	call	?read@connection@dlib@@QAEJPADJK@Z	; dlib::connection::read
; Line 37
	push	OFFSET $SG-68219
	push	OFFSET $SG-68220
	lea	ecx, DWORD PTR $T151656[ebp]
	call	??0?$basic_string@DU?$char_traits@D@std@@V?$allocator@D@2@@std@@QAE@PBD@Z ; std::basic_string<char,std::char_traits<char>,std::allocator<char> >::basic_string<char,std::char_traits<char>,std::allocator<char> >
	mov	DWORD PTR tv129[ebp], eax
	mov	edx, DWORD PTR tv129[ebp]
	mov	DWORD PTR tv655[ebp], edx
	mov	BYTE PTR __$EHRec$[ebp+12], 18		; 00000012H
	sub	esp, 28					; 0000001cH
	mov	eax, esp
	mov	DWORD PTR $T369507[ebp], esp
	lea	ecx, DWORD PTR _sBuffer$151621[ebp]
	push	ecx
	mov	edx, DWORD PTR tv655[ebp]
	push	edx
	push	eax
	call	??$?HDU?$char_traits@D@std@@V?$allocator@D@1@@std@@YA?AV?$basic_string@DU?$char_traits@D@std@@V?$allocator@D@2@@0@$$QAV10@PBD@Z ; std::operator+<char,std::char_traits<char>,std::allocator<char> >
	add	esp, 12					; 0000000cH
	mov	DWORD PTR tv658[ebp], eax
	call	?message@log@helper@@YAXV?$basic_string@DU?$char_traits@D@std@@V?$allocator@D@2@@std@@PBD@Z ; helper::log::message
	add	esp, 32					; 00000020H
	mov	BYTE PTR __$EHRec$[ebp+12], 17		; 00000011H
	lea	ecx, DWORD PTR $T151656[ebp]
	call	??1?$basic_string@DU?$char_traits@D@std@@V?$allocator@D@2@@std@@QAE@XZ ; std::basic_string<char,std::char_traits<char>,std::allocator<char> >::~basic_string<char,std::char_traits<char>,std::allocator<char> >
; Line 40
	push	OFFSET $SG-68221
	lea	ecx, DWORD PTR _tmpStr$151622[ebp]
	call	??4?$basic_string@DU?$char_traits@D@std@@V?$allocator@D@2@@std@@QAEAAV01@PBD@Z ; std::basic_string<char,std::char_traits<char>,std::allocator<char> >::operator=
; Line 41
	push	OFFSET $SG-68222
	sub	esp, 28					; 0000001cH
	mov	eax, esp
	mov	DWORD PTR $T369508[ebp], esp
	lea	ecx, DWORD PTR _tmpStr$151622[ebp]
	push	ecx
	push	OFFSET $SG-68223
	push	eax
	call	??$?HDU?$char_traits@D@std@@V?$allocator@D@1@@std@@YA?AV?$basic_string@DU?$char_traits@D@std@@V?$allocator@D@2@@0@PBDABV10@@Z ; std::operator+<char,std::char_traits<char>,std::allocator<char> >
	add	esp, 12					; 0000000cH
	mov	DWORD PTR tv661[ebp], eax
	call	?message@log@helper@@YAXV?$basic_string@DU?$char_traits@D@std@@V?$allocator@D@2@@std@@PBD@Z ; helper::log::message
	add	esp, 32					; 00000020H
; Line 42
	lea	ecx, DWORD PTR _tmpStr$151622[ebp]
	call	?size@?$basic_string@DU?$char_traits@D@std@@V?$allocator@D@2@@std@@QBEIXZ ; std::basic_string<char,std::char_traits<char>,std::allocator<char> >::size
	mov	esi, eax
	lea	ecx, DWORD PTR _tmpStr$151622[ebp]
	call	?size@?$basic_string@DU?$char_traits@D@std@@V?$allocator@D@2@@std@@QBEIXZ ; std::basic_string<char,std::char_traits<char>,std::allocator<char> >::size
	push	eax
	lea	ecx, DWORD PTR _tmpStr$151622[ebp]
	call	?data@?$basic_string@DU?$char_traits@D@std@@V?$allocator@D@2@@std@@QBEPBDXZ ; std::basic_string<char,std::char_traits<char>,std::allocator<char> >::data
	push	eax
	lea	ecx, DWORD PTR _con$151653[ebp]
	call	??C?$scoped_ptr@Vconnection@dlib@@U?$default_deleter@Vconnection@dlib@@@2@@dlib@@QBEPAVconnection@1@XZ ; dlib::scoped_ptr<dlib::connection,dlib::default_deleter<dlib::connection> >::operator->
	mov	ecx, eax
	call	?write@connection@dlib@@QAEJPBDJ@Z	; dlib::connection::write
	cmp	eax, esi
	je	SHORT $LN6@sendMail
; Line 43
	mov	BYTE PTR $T369509[ebp], 0
	mov	BYTE PTR __$EHRec$[ebp+12], 12		; 0000000cH
	lea	ecx, DWORD PTR _con$151653[ebp]
	call	??1?$scoped_ptr@Vconnection@dlib@@U?$default_deleter@Vconnection@dlib@@@2@@dlib@@QAE@XZ ; dlib::scoped_ptr<dlib::connection,dlib::default_deleter<dlib::connection> >::~scoped_ptr<dlib::connection,dlib::default_deleter<dlib::connection> >
	mov	BYTE PTR __$EHRec$[ebp+12], 7
	lea	ecx, DWORD PTR _smtp_address$151623[ebp]
	call	??1?$basic_string@DU?$char_traits@D@std@@V?$allocator@D@2@@std@@QAE@XZ ; std::basic_string<char,std::char_traits<char>,std::allocator<char> >::~basic_string<char,std::char_traits<char>,std::allocator<char> >
	mov	BYTE PTR __$EHRec$[ebp+12], 6
	lea	ecx, DWORD PTR _tmpStr$151622[ebp]
	call	??1?$basic_string@DU?$char_traits@D@std@@V?$allocator@D@2@@std@@QAE@XZ ; std::basic_string<char,std::char_traits<char>,std::allocator<char> >::~basic_string<char,std::char_traits<char>,std::allocator<char> >
	mov	BYTE PTR __$EHRec$[ebp+12], 3
	lea	ecx, DWORD PTR _config$151618[ebp]
	call	??1?$config_reader_kernel_1@V?$map_kernel_1@V?$basic_string@DU?$char_traits@D@std@@V?$allocator@D@2@@std@@V12@V?$binary_search_tree_kernel_2@V?$basic_string@DU?$char_traits@D@std@@V?$allocator@D@2@@std@@V12@V?$memory_manager_stateless_kernel_1@D@dlib@@U?$less@V?$basic_string@DU?$char_traits@D@std@@V?$allocator@D@2@@std@@@2@@dlib@@V?$memory_manager_stateless_kernel_1@D@4@@dlib@@V?$map_kernel_1@V?$basic_string@DU?$char_traits@D@std@@V?$allocator@D@2@@std@@PAXV?$binary_search_tree_kernel_2@V?$basic_string@DU?$char_traits@D@std@@V?$allocator@D@2@@std@@PAXV?$memory_manager_stateless_kernel_1@D@dlib@@U?$less@V?$basic_string@DU?$char_traits@D@std@@V?$allocator@D@2@@std@@@2@@dlib@@V?$memory_manager_stateless_kernel_1@D@4@@2@Vtokenizer_kernel_1@2@@dlib@@UAE@XZ ; dlib::config_reader_kernel_1<dlib::map_kernel_1<std::basic_string<char,std::char_traits<char>,std::allocator<char> >,std::basic_string<char,std::char_traits<char>,std::allocator<char> >,dlib::binary_search_tree_kernel_2<std::basic_string<char,std::char_traits<char>,std::allocator<char> >,std::basic_string<char,std::char_traits<char>,std::allocator<char> >,dlib::memory_manager_stateless_kernel_1<char>,std::less<std::basic_string<char,std::char_traits<char>,std::allocator<char> > > >,dlib::memory_manager_stateless_kernel_1<char> >,dlib::map_kernel_1<std::basic_string<char,std::char_traits<char>,std::allocator<char> >,void *,dlib::binary_search_tree_kernel_2<std::basic_string<char,std::char_traits<char>,std::allocator<char> >,void *,dlib::memory_manager_stateless_kernel_1<char>,std::less<std::basic_string<char,std::char_traits<char>,std::allocator<char> > > >,dlib::memory_manager_stateless_kernel_1<char> >,dlib::tokenizer_kernel_1>::~config_reader_kernel_1<dlib::map_kernel_1<std::basic_string<char,std::char_traits<char>,std::allocator<char> >,std::basic_string<char,std::char_traits<char>,std::allocator<char> >,dlib::binary_search_tree_kernel_2<std::basic_string<char,std::char_traits<char>,std::allocator<char> >,std::basic_string<char,std::char_traits<char>,std::allocator<char> >,dlib::memory_manager_stateless_kernel_1<char>,std::less<std::basic_string<char,std::char_traits<char>,std::allocator<char> > > >,dlib::memory_manager_stateless_kernel_1<char> >,dlib::map_kernel_1<std::basic_string<char,std::char_traits<char>,std::allocator<char> >,void *,dlib::binary_search_tree_kernel_2<std::basic_string<char,std::char_traits<char>,std::allocator<char> >,void *,dlib::memory_manager_stateless_kernel_1<char>,std::less<std::basic_string<char,std::char_traits<char>,std::allocator<char> > > >,dlib::memory_manager_stateless_kernel_1<char> >,dlib::tokenizer_kernel_1>
	mov	BYTE PTR __$EHRec$[ebp+12], 1
	lea	ecx, DWORD PTR _to$[ebp]
	call	??1?$basic_string@DU?$char_traits@D@std@@V?$allocator@D@2@@std@@QAE@XZ ; std::basic_string<char,std::char_traits<char>,std::allocator<char> >::~basic_string<char,std::char_traits<char>,std::allocator<char> >
	mov	BYTE PTR __$EHRec$[ebp+12], 0
	lea	ecx, DWORD PTR _subject$[ebp]
	call	??1?$basic_string@DU?$char_traits@D@std@@V?$allocator@D@2@@std@@QAE@XZ ; std::basic_string<char,std::char_traits<char>,std::allocator<char> >::~basic_string<char,std::char_traits<char>,std::allocator<char> >
	mov	DWORD PTR __$EHRec$[ebp+12], -1
	lea	ecx, DWORD PTR _msg$[ebp]
	call	??1?$basic_string@DU?$char_traits@D@std@@V?$allocator@D@2@@std@@QAE@XZ ; std::basic_string<char,std::char_traits<char>,std::allocator<char> >::~basic_string<char,std::char_traits<char>,std::allocator<char> >
	mov	al, BYTE PTR $T369509[ebp]
	jmp	$LN8@sendMail
$LN6@sendMail:
; Line 45
	push	1000					; 000003e8H
	push	256					; 00000100H
	lea	edx, DWORD PTR _sBuffer$151621[ebp]
	push	edx
	lea	ecx, DWORD PTR _con$151653[ebp]
	call	??C?$scoped_ptr@Vconnection@dlib@@U?$default_deleter@Vconnection@dlib@@@2@@dlib@@QBEPAVconnection@1@XZ ; dlib::scoped_ptr<dlib::connection,dlib::default_deleter<dlib::connection> >::operator->
	mov	ecx, eax
	call	?read@connection@dlib@@QAEJPADJK@Z	; dlib::connection::read
; Line 46
	push	OFFSET $SG-68224
	push	OFFSET $SG-68225
	lea	ecx, DWORD PTR $T151669[ebp]
	call	??0?$basic_string@DU?$char_traits@D@std@@V?$allocator@D@2@@std@@QAE@PBD@Z ; std::basic_string<char,std::char_traits<char>,std::allocator<char> >::basic_string<char,std::char_traits<char>,std::allocator<char> >
	mov	DWORD PTR tv780[ebp], eax
	mov	eax, DWORD PTR tv780[ebp]
	mov	DWORD PTR tv670[ebp], eax
	mov	BYTE PTR __$EHRec$[ebp+12], 19		; 00000013H
	sub	esp, 28					; 0000001cH
	mov	ecx, esp
	mov	DWORD PTR $T369510[ebp], esp
	lea	edx, DWORD PTR _sBuffer$151621[ebp]
	push	edx
	mov	eax, DWORD PTR tv670[ebp]
	push	eax
	push	ecx
	call	??$?HDU?$char_traits@D@std@@V?$allocator@D@1@@std@@YA?AV?$basic_string@DU?$char_traits@D@std@@V?$allocator@D@2@@0@$$QAV10@PBD@Z ; std::operator+<char,std::char_traits<char>,std::allocator<char> >
	add	esp, 12					; 0000000cH
	mov	DWORD PTR tv673[ebp], eax
	call	?message@log@helper@@YAXV?$basic_string@DU?$char_traits@D@std@@V?$allocator@D@2@@std@@PBD@Z ; helper::log::message
	add	esp, 32					; 00000020H
	mov	BYTE PTR __$EHRec$[ebp+12], 17		; 00000011H
	lea	ecx, DWORD PTR $T151669[ebp]
	call	??1?$basic_string@DU?$char_traits@D@std@@V?$allocator@D@2@@std@@QAE@XZ ; std::basic_string<char,std::char_traits<char>,std::allocator<char> >::~basic_string<char,std::char_traits<char>,std::allocator<char> >
; Line 78
	lea	ecx, DWORD PTR _smtp_address$151623[ebp]
	push	ecx
	push	OFFSET $SG-68227
	lea	edx, DWORD PTR $T151674[ebp]
	push	edx
	call	??$?HDU?$char_traits@D@std@@V?$allocator@D@1@@std@@YA?AV?$basic_string@DU?$char_traits@D@std@@V?$allocator@D@2@@0@PBDABV10@@Z ; std::operator+<char,std::char_traits<char>,std::allocator<char> >
	add	esp, 12					; 0000000cH
	mov	DWORD PTR tv781[ebp], eax
	mov	eax, DWORD PTR tv781[ebp]
	mov	DWORD PTR tv675[ebp], eax
	mov	BYTE PTR __$EHRec$[ebp+12], 20		; 00000014H
	push	OFFSET $SG-68226
	mov	ecx, DWORD PTR tv675[ebp]
	push	ecx
	lea	edx, DWORD PTR $T151675[ebp]
	push	edx
	call	??$?HDU?$char_traits@D@std@@V?$allocator@D@1@@std@@YA?AV?$basic_string@DU?$char_traits@D@std@@V?$allocator@D@2@@0@$$QAV10@PBD@Z ; std::operator+<char,std::char_traits<char>,std::allocator<char> >
	add	esp, 12					; 0000000cH
	mov	DWORD PTR tv782[ebp], eax
	mov	eax, DWORD PTR tv782[ebp]
	mov	DWORD PTR tv677[ebp], eax
	mov	BYTE PTR __$EHRec$[ebp+12], 21		; 00000015H
	mov	ecx, DWORD PTR tv677[ebp]
	push	ecx
	lea	ecx, DWORD PTR _tmpStr$151622[ebp]
	call	??4?$basic_string@DU?$char_traits@D@std@@V?$allocator@D@2@@std@@QAEAAV01@$$QAV01@@Z ; std::basic_string<char,std::char_traits<char>,std::allocator<char> >::operator=
	mov	BYTE PTR __$EHRec$[ebp+12], 20		; 00000014H
	lea	ecx, DWORD PTR $T151675[ebp]
	call	??1?$basic_string@DU?$char_traits@D@std@@V?$allocator@D@2@@std@@QAE@XZ ; std::basic_string<char,std::char_traits<char>,std::allocator<char> >::~basic_string<char,std::char_traits<char>,std::allocator<char> >
	mov	BYTE PTR __$EHRec$[ebp+12], 17		; 00000011H
	lea	ecx, DWORD PTR $T151674[ebp]
	call	??1?$basic_string@DU?$char_traits@D@std@@V?$allocator@D@2@@std@@QAE@XZ ; std::basic_string<char,std::char_traits<char>,std::allocator<char> >::~basic_string<char,std::char_traits<char>,std::allocator<char> >
; Line 79
	push	OFFSET $SG-68228
	sub	esp, 28					; 0000001cH
	mov	edx, esp
	mov	DWORD PTR $T369511[ebp], esp
	lea	eax, DWORD PTR _tmpStr$151622[ebp]
	push	eax
	push	OFFSET $SG-68229
	push	edx
	call	??$?HDU?$char_traits@D@std@@V?$allocator@D@1@@std@@YA?AV?$basic_string@DU?$char_traits@D@std@@V?$allocator@D@2@@0@PBDABV10@@Z ; std::operator+<char,std::char_traits<char>,std::allocator<char> >
	add	esp, 12					; 0000000cH
	mov	DWORD PTR tv680[ebp], eax
	call	?message@log@helper@@YAXV?$basic_string@DU?$char_traits@D@std@@V?$allocator@D@2@@std@@PBD@Z ; helper::log::message
	add	esp, 32					; 00000020H
; Line 80
	lea	ecx, DWORD PTR _tmpStr$151622[ebp]
	call	?size@?$basic_string@DU?$char_traits@D@std@@V?$allocator@D@2@@std@@QBEIXZ ; std::basic_string<char,std::char_traits<char>,std::allocator<char> >::size
	mov	esi, eax
	lea	ecx, DWORD PTR _tmpStr$151622[ebp]
	call	?size@?$basic_string@DU?$char_traits@D@std@@V?$allocator@D@2@@std@@QBEIXZ ; std::basic_string<char,std::char_traits<char>,std::allocator<char> >::size
	push	eax
	lea	ecx, DWORD PTR _tmpStr$151622[ebp]
	call	?data@?$basic_string@DU?$char_traits@D@std@@V?$allocator@D@2@@std@@QBEPBDXZ ; std::basic_string<char,std::char_traits<char>,std::allocator<char> >::data
	push	eax
	lea	ecx, DWORD PTR _con$151653[ebp]
	call	??C?$scoped_ptr@Vconnection@dlib@@U?$default_deleter@Vconnection@dlib@@@2@@dlib@@QBEPAVconnection@1@XZ ; dlib::scoped_ptr<dlib::connection,dlib::default_deleter<dlib::connection> >::operator->
	mov	ecx, eax
	call	?write@connection@dlib@@QAEJPBDJ@Z	; dlib::connection::write
	cmp	eax, esi
	je	SHORT $LN5@sendMail
; Line 81
	mov	BYTE PTR $T369512[ebp], 0
	mov	BYTE PTR __$EHRec$[ebp+12], 12		; 0000000cH
	lea	ecx, DWORD PTR _con$151653[ebp]
	call	??1?$scoped_ptr@Vconnection@dlib@@U?$default_deleter@Vconnection@dlib@@@2@@dlib@@QAE@XZ ; dlib::scoped_ptr<dlib::connection,dlib::default_deleter<dlib::connection> >::~scoped_ptr<dlib::connection,dlib::default_deleter<dlib::connection> >
	mov	BYTE PTR __$EHRec$[ebp+12], 7
	lea	ecx, DWORD PTR _smtp_address$151623[ebp]
	call	??1?$basic_string@DU?$char_traits@D@std@@V?$allocator@D@2@@std@@QAE@XZ ; std::basic_string<char,std::char_traits<char>,std::allocator<char> >::~basic_string<char,std::char_traits<char>,std::allocator<char> >
	mov	BYTE PTR __$EHRec$[ebp+12], 6
	lea	ecx, DWORD PTR _tmpStr$151622[ebp]
	call	??1?$basic_string@DU?$char_traits@D@std@@V?$allocator@D@2@@std@@QAE@XZ ; std::basic_string<char,std::char_traits<char>,std::allocator<char> >::~basic_string<char,std::char_traits<char>,std::allocator<char> >
	mov	BYTE PTR __$EHRec$[ebp+12], 3
	lea	ecx, DWORD PTR _config$151618[ebp]
	call	??1?$config_reader_kernel_1@V?$map_kernel_1@V?$basic_string@DU?$char_traits@D@std@@V?$allocator@D@2@@std@@V12@V?$binary_search_tree_kernel_2@V?$basic_string@DU?$char_traits@D@std@@V?$allocator@D@2@@std@@V12@V?$memory_manager_stateless_kernel_1@D@dlib@@U?$less@V?$basic_string@DU?$char_traits@D@std@@V?$allocator@D@2@@std@@@2@@dlib@@V?$memory_manager_stateless_kernel_1@D@4@@dlib@@V?$map_kernel_1@V?$basic_string@DU?$char_traits@D@std@@V?$allocator@D@2@@std@@PAXV?$binary_search_tree_kernel_2@V?$basic_string@DU?$char_traits@D@std@@V?$allocator@D@2@@std@@PAXV?$memory_manager_stateless_kernel_1@D@dlib@@U?$less@V?$basic_string@DU?$char_traits@D@std@@V?$allocator@D@2@@std@@@2@@dlib@@V?$memory_manager_stateless_kernel_1@D@4@@2@Vtokenizer_kernel_1@2@@dlib@@UAE@XZ ; dlib::config_reader_kernel_1<dlib::map_kernel_1<std::basic_string<char,std::char_traits<char>,std::allocator<char> >,std::basic_string<char,std::char_traits<char>,std::allocator<char> >,dlib::binary_search_tree_kernel_2<std::basic_string<char,std::char_traits<char>,std::allocator<char> >,std::basic_string<char,std::char_traits<char>,std::allocator<char> >,dlib::memory_manager_stateless_kernel_1<char>,std::less<std::basic_string<char,std::char_traits<char>,std::allocator<char> > > >,dlib::memory_manager_stateless_kernel_1<char> >,dlib::map_kernel_1<std::basic_string<char,std::char_traits<char>,std::allocator<char> >,void *,dlib::binary_search_tree_kernel_2<std::basic_string<char,std::char_traits<char>,std::allocator<char> >,void *,dlib::memory_manager_stateless_kernel_1<char>,std::less<std::basic_string<char,std::char_traits<char>,std::allocator<char> > > >,dlib::memory_manager_stateless_kernel_1<char> >,dlib::tokenizer_kernel_1>::~config_reader_kernel_1<dlib::map_kernel_1<std::basic_string<char,std::char_traits<char>,std::allocator<char> >,std::basic_string<char,std::char_traits<char>,std::allocator<char> >,dlib::binary_search_tree_kernel_2<std::basic_string<char,std::char_traits<char>,std::allocator<char> >,std::basic_string<char,std::char_traits<char>,std::allocator<char> >,dlib::memory_manager_stateless_kernel_1<char>,std::less<std::basic_string<char,std::char_traits<char>,std::allocator<char> > > >,dlib::memory_manager_stateless_kernel_1<char> >,dlib::map_kernel_1<std::basic_string<char,std::char_traits<char>,std::allocator<char> >,void *,dlib::binary_search_tree_kernel_2<std::basic_string<char,std::char_traits<char>,std::allocator<char> >,void *,dlib::memory_manager_stateless_kernel_1<char>,std::less<std::basic_string<char,std::char_traits<char>,std::allocator<char> > > >,dlib::memory_manager_stateless_kernel_1<char> >,dlib::tokenizer_kernel_1>
	mov	BYTE PTR __$EHRec$[ebp+12], 1
	lea	ecx, DWORD PTR _to$[ebp]
	call	??1?$basic_string@DU?$char_traits@D@std@@V?$allocator@D@2@@std@@QAE@XZ ; std::basic_string<char,std::char_traits<char>,std::allocator<char> >::~basic_string<char,std::char_traits<char>,std::allocator<char> >
	mov	BYTE PTR __$EHRec$[ebp+12], 0
	lea	ecx, DWORD PTR _subject$[ebp]
	call	??1?$basic_string@DU?$char_traits@D@std@@V?$allocator@D@2@@std@@QAE@XZ ; std::basic_string<char,std::char_traits<char>,std::allocator<char> >::~basic_string<char,std::char_traits<char>,std::allocator<char> >
	mov	DWORD PTR __$EHRec$[ebp+12], -1
	lea	ecx, DWORD PTR _msg$[ebp]
	call	??1?$basic_string@DU?$char_traits@D@std@@V?$allocator@D@2@@std@@QAE@XZ ; std::basic_string<char,std::char_traits<char>,std::allocator<char> >::~basic_string<char,std::char_traits<char>,std::allocator<char> >
	mov	al, BYTE PTR $T369512[ebp]
	jmp	$LN8@sendMail
$LN5@sendMail:
; Line 83
	push	200					; 000000c8H
	push	256					; 00000100H
	lea	ecx, DWORD PTR _sBuffer$151621[ebp]
	push	ecx
	lea	ecx, DWORD PTR _con$151653[ebp]
	call	??C?$scoped_ptr@Vconnection@dlib@@U?$default_deleter@Vconnection@dlib@@@2@@dlib@@QBEPAVconnection@1@XZ ; dlib::scoped_ptr<dlib::connection,dlib::default_deleter<dlib::connection> >::operator->
	mov	ecx, eax
	call	?read@connection@dlib@@QAEJPADJK@Z	; dlib::connection::read
; Line 84
	push	OFFSET $SG-68230
	push	OFFSET $SG-68231
	lea	ecx, DWORD PTR $T151685[ebp]
	call	??0?$basic_string@DU?$char_traits@D@std@@V?$allocator@D@2@@std@@QAE@PBD@Z ; std::basic_string<char,std::char_traits<char>,std::allocator<char> >::basic_string<char,std::char_traits<char>,std::allocator<char> >
	mov	DWORD PTR tv783[ebp], eax
	mov	edx, DWORD PTR tv783[ebp]
	mov	DWORD PTR tv689[ebp], edx
	mov	BYTE PTR __$EHRec$[ebp+12], 22		; 00000016H
	sub	esp, 28					; 0000001cH
	mov	eax, esp
	mov	DWORD PTR $T369513[ebp], esp
	lea	ecx, DWORD PTR _sBuffer$151621[ebp]
	push	ecx
	mov	edx, DWORD PTR tv689[ebp]
	push	edx
	push	eax
	call	??$?HDU?$char_traits@D@std@@V?$allocator@D@1@@std@@YA?AV?$basic_string@DU?$char_traits@D@std@@V?$allocator@D@2@@0@$$QAV10@PBD@Z ; std::operator+<char,std::char_traits<char>,std::allocator<char> >
	add	esp, 12					; 0000000cH
	mov	DWORD PTR tv692[ebp], eax
	call	?message@log@helper@@YAXV?$basic_string@DU?$char_traits@D@std@@V?$allocator@D@2@@std@@PBD@Z ; helper::log::message
	add	esp, 32					; 00000020H
	mov	BYTE PTR __$EHRec$[ebp+12], 17		; 00000011H
	lea	ecx, DWORD PTR $T151685[ebp]
	call	??1?$basic_string@DU?$char_traits@D@std@@V?$allocator@D@2@@std@@QAE@XZ ; std::basic_string<char,std::char_traits<char>,std::allocator<char> >::~basic_string<char,std::char_traits<char>,std::allocator<char> >
; Line 86
	lea	eax, DWORD PTR _to$[ebp]
	push	eax
	push	OFFSET $SG-68233
	lea	ecx, DWORD PTR $T151690[ebp]
	push	ecx
	call	??$?HDU?$char_traits@D@std@@V?$allocator@D@1@@std@@YA?AV?$basic_string@DU?$char_traits@D@std@@V?$allocator@D@2@@0@PBDABV10@@Z ; std::operator+<char,std::char_traits<char>,std::allocator<char> >
	add	esp, 12					; 0000000cH
	mov	DWORD PTR tv784[ebp], eax
	mov	edx, DWORD PTR tv784[ebp]
	mov	DWORD PTR tv694[ebp], edx
	mov	BYTE PTR __$EHRec$[ebp+12], 23		; 00000017H
	push	OFFSET $SG-68232
	mov	eax, DWORD PTR tv694[ebp]
	push	eax
	lea	ecx, DWORD PTR $T151691[ebp]
	push	ecx
	call	??$?HDU?$char_traits@D@std@@V?$allocator@D@1@@std@@YA?AV?$basic_string@DU?$char_traits@D@std@@V?$allocator@D@2@@0@$$QAV10@PBD@Z ; std::operator+<char,std::char_traits<char>,std::allocator<char> >
	add	esp, 12					; 0000000cH
	mov	DWORD PTR tv785[ebp], eax
	mov	edx, DWORD PTR tv785[ebp]
	mov	DWORD PTR tv696[ebp], edx
	mov	BYTE PTR __$EHRec$[ebp+12], 24		; 00000018H
	mov	eax, DWORD PTR tv696[ebp]
	push	eax
	lea	ecx, DWORD PTR _tmpStr$151622[ebp]
	call	??4?$basic_string@DU?$char_traits@D@std@@V?$allocator@D@2@@std@@QAEAAV01@$$QAV01@@Z ; std::basic_string<char,std::char_traits<char>,std::allocator<char> >::operator=
	mov	BYTE PTR __$EHRec$[ebp+12], 23		; 00000017H
	lea	ecx, DWORD PTR $T151691[ebp]
	call	??1?$basic_string@DU?$char_traits@D@std@@V?$allocator@D@2@@std@@QAE@XZ ; std::basic_string<char,std::char_traits<char>,std::allocator<char> >::~basic_string<char,std::char_traits<char>,std::allocator<char> >
	mov	BYTE PTR __$EHRec$[ebp+12], 17		; 00000011H
	lea	ecx, DWORD PTR $T151690[ebp]
	call	??1?$basic_string@DU?$char_traits@D@std@@V?$allocator@D@2@@std@@QAE@XZ ; std::basic_string<char,std::char_traits<char>,std::allocator<char> >::~basic_string<char,std::char_traits<char>,std::allocator<char> >
; Line 87
	lea	ecx, DWORD PTR _tmpStr$151622[ebp]
	call	?size@?$basic_string@DU?$char_traits@D@std@@V?$allocator@D@2@@std@@QBEIXZ ; std::basic_string<char,std::char_traits<char>,std::allocator<char> >::size
	mov	esi, eax
	lea	ecx, DWORD PTR _tmpStr$151622[ebp]
	call	?size@?$basic_string@DU?$char_traits@D@std@@V?$allocator@D@2@@std@@QBEIXZ ; std::basic_string<char,std::char_traits<char>,std::allocator<char> >::size
	push	eax
	lea	ecx, DWORD PTR _tmpStr$151622[ebp]
	call	?data@?$basic_string@DU?$char_traits@D@std@@V?$allocator@D@2@@std@@QBEPBDXZ ; std::basic_string<char,std::char_traits<char>,std::allocator<char> >::data
	push	eax
	lea	ecx, DWORD PTR _con$151653[ebp]
	call	??C?$scoped_ptr@Vconnection@dlib@@U?$default_deleter@Vconnection@dlib@@@2@@dlib@@QBEPAVconnection@1@XZ ; dlib::scoped_ptr<dlib::connection,dlib::default_deleter<dlib::connection> >::operator->
	mov	ecx, eax
	call	?write@connection@dlib@@QAEJPBDJ@Z	; dlib::connection::write
	cmp	eax, esi
	je	SHORT $LN4@sendMail
; Line 88
	mov	BYTE PTR $T369514[ebp], 0
	mov	BYTE PTR __$EHRec$[ebp+12], 12		; 0000000cH
	lea	ecx, DWORD PTR _con$151653[ebp]
	call	??1?$scoped_ptr@Vconnection@dlib@@U?$default_deleter@Vconnection@dlib@@@2@@dlib@@QAE@XZ ; dlib::scoped_ptr<dlib::connection,dlib::default_deleter<dlib::connection> >::~scoped_ptr<dlib::connection,dlib::default_deleter<dlib::connection> >
	mov	BYTE PTR __$EHRec$[ebp+12], 7
	lea	ecx, DWORD PTR _smtp_address$151623[ebp]
	call	??1?$basic_string@DU?$char_traits@D@std@@V?$allocator@D@2@@std@@QAE@XZ ; std::basic_string<char,std::char_traits<char>,std::allocator<char> >::~basic_string<char,std::char_traits<char>,std::allocator<char> >
	mov	BYTE PTR __$EHRec$[ebp+12], 6
	lea	ecx, DWORD PTR _tmpStr$151622[ebp]
	call	??1?$basic_string@DU?$char_traits@D@std@@V?$allocator@D@2@@std@@QAE@XZ ; std::basic_string<char,std::char_traits<char>,std::allocator<char> >::~basic_string<char,std::char_traits<char>,std::allocator<char> >
	mov	BYTE PTR __$EHRec$[ebp+12], 3
	lea	ecx, DWORD PTR _config$151618[ebp]
	call	??1?$config_reader_kernel_1@V?$map_kernel_1@V?$basic_string@DU?$char_traits@D@std@@V?$allocator@D@2@@std@@V12@V?$binary_search_tree_kernel_2@V?$basic_string@DU?$char_traits@D@std@@V?$allocator@D@2@@std@@V12@V?$memory_manager_stateless_kernel_1@D@dlib@@U?$less@V?$basic_string@DU?$char_traits@D@std@@V?$allocator@D@2@@std@@@2@@dlib@@V?$memory_manager_stateless_kernel_1@D@4@@dlib@@V?$map_kernel_1@V?$basic_string@DU?$char_traits@D@std@@V?$allocator@D@2@@std@@PAXV?$binary_search_tree_kernel_2@V?$basic_string@DU?$char_traits@D@std@@V?$allocator@D@2@@std@@PAXV?$memory_manager_stateless_kernel_1@D@dlib@@U?$less@V?$basic_string@DU?$char_traits@D@std@@V?$allocator@D@2@@std@@@2@@dlib@@V?$memory_manager_stateless_kernel_1@D@4@@2@Vtokenizer_kernel_1@2@@dlib@@UAE@XZ ; dlib::config_reader_kernel_1<dlib::map_kernel_1<std::basic_string<char,std::char_traits<char>,std::allocator<char> >,std::basic_string<char,std::char_traits<char>,std::allocator<char> >,dlib::binary_search_tree_kernel_2<std::basic_string<char,std::char_traits<char>,std::allocator<char> >,std::basic_string<char,std::char_traits<char>,std::allocator<char> >,dlib::memory_manager_stateless_kernel_1<char>,std::less<std::basic_string<char,std::char_traits<char>,std::allocator<char> > > >,dlib::memory_manager_stateless_kernel_1<char> >,dlib::map_kernel_1<std::basic_string<char,std::char_traits<char>,std::allocator<char> >,void *,dlib::binary_search_tree_kernel_2<std::basic_string<char,std::char_traits<char>,std::allocator<char> >,void *,dlib::memory_manager_stateless_kernel_1<char>,std::less<std::basic_string<char,std::char_traits<char>,std::allocator<char> > > >,dlib::memory_manager_stateless_kernel_1<char> >,dlib::tokenizer_kernel_1>::~config_reader_kernel_1<dlib::map_kernel_1<std::basic_string<char,std::char_traits<char>,std::allocator<char> >,std::basic_string<char,std::char_traits<char>,std::allocator<char> >,dlib::binary_search_tree_kernel_2<std::basic_string<char,std::char_traits<char>,std::allocator<char> >,std::basic_string<char,std::char_traits<char>,std::allocator<char> >,dlib::memory_manager_stateless_kernel_1<char>,std::less<std::basic_string<char,std::char_traits<char>,std::allocator<char> > > >,dlib::memory_manager_stateless_kernel_1<char> >,dlib::map_kernel_1<std::basic_string<char,std::char_traits<char>,std::allocator<char> >,void *,dlib::binary_search_tree_kernel_2<std::basic_string<char,std::char_traits<char>,std::allocator<char> >,void *,dlib::memory_manager_stateless_kernel_1<char>,std::less<std::basic_string<char,std::char_traits<char>,std::allocator<char> > > >,dlib::memory_manager_stateless_kernel_1<char> >,dlib::tokenizer_kernel_1>
	mov	BYTE PTR __$EHRec$[ebp+12], 1
	lea	ecx, DWORD PTR _to$[ebp]
	call	??1?$basic_string@DU?$char_traits@D@std@@V?$allocator@D@2@@std@@QAE@XZ ; std::basic_string<char,std::char_traits<char>,std::allocator<char> >::~basic_string<char,std::char_traits<char>,std::allocator<char> >
	mov	BYTE PTR __$EHRec$[ebp+12], 0
	lea	ecx, DWORD PTR _subject$[ebp]
	call	??1?$basic_string@DU?$char_traits@D@std@@V?$allocator@D@2@@std@@QAE@XZ ; std::basic_string<char,std::char_traits<char>,std::allocator<char> >::~basic_string<char,std::char_traits<char>,std::allocator<char> >
	mov	DWORD PTR __$EHRec$[ebp+12], -1
	lea	ecx, DWORD PTR _msg$[ebp]
	call	??1?$basic_string@DU?$char_traits@D@std@@V?$allocator@D@2@@std@@QAE@XZ ; std::basic_string<char,std::char_traits<char>,std::allocator<char> >::~basic_string<char,std::char_traits<char>,std::allocator<char> >
	mov	al, BYTE PTR $T369514[ebp]
	jmp	$LN8@sendMail
$LN4@sendMail:
; Line 90
	push	200					; 000000c8H
	push	256					; 00000100H
	lea	ecx, DWORD PTR _sBuffer$151621[ebp]
	push	ecx
	lea	ecx, DWORD PTR _con$151653[ebp]
	call	??C?$scoped_ptr@Vconnection@dlib@@U?$default_deleter@Vconnection@dlib@@@2@@dlib@@QBEPAVconnection@1@XZ ; dlib::scoped_ptr<dlib::connection,dlib::default_deleter<dlib::connection> >::operator->
	mov	ecx, eax
	call	?read@connection@dlib@@QAEJPADJK@Z	; dlib::connection::read
; Line 91
	push	OFFSET $SG-68234
	push	OFFSET $SG-68235
	lea	ecx, DWORD PTR $T151697[ebp]
	call	??0?$basic_string@DU?$char_traits@D@std@@V?$allocator@D@2@@std@@QAE@PBD@Z ; std::basic_string<char,std::char_traits<char>,std::allocator<char> >::basic_string<char,std::char_traits<char>,std::allocator<char> >
	mov	DWORD PTR tv786[ebp], eax
	mov	edx, DWORD PTR tv786[ebp]
	mov	DWORD PTR tv705[ebp], edx
	mov	BYTE PTR __$EHRec$[ebp+12], 25		; 00000019H
	sub	esp, 28					; 0000001cH
	mov	eax, esp
	mov	DWORD PTR $T369515[ebp], esp
	lea	ecx, DWORD PTR _sBuffer$151621[ebp]
	push	ecx
	mov	edx, DWORD PTR tv705[ebp]
	push	edx
	push	eax
	call	??$?HDU?$char_traits@D@std@@V?$allocator@D@1@@std@@YA?AV?$basic_string@DU?$char_traits@D@std@@V?$allocator@D@2@@0@$$QAV10@PBD@Z ; std::operator+<char,std::char_traits<char>,std::allocator<char> >
	add	esp, 12					; 0000000cH
	mov	DWORD PTR tv708[ebp], eax
	call	?message@log@helper@@YAXV?$basic_string@DU?$char_traits@D@std@@V?$allocator@D@2@@std@@PBD@Z ; helper::log::message
	add	esp, 32					; 00000020H
	mov	BYTE PTR __$EHRec$[ebp+12], 17		; 00000011H
	lea	ecx, DWORD PTR $T151697[ebp]
	call	??1?$basic_string@DU?$char_traits@D@std@@V?$allocator@D@2@@std@@QAE@XZ ; std::basic_string<char,std::char_traits<char>,std::allocator<char> >::~basic_string<char,std::char_traits<char>,std::allocator<char> >
; Line 94
	push	OFFSET $SG-68236
	lea	ecx, DWORD PTR _tmpStr$151622[ebp]
	call	??4?$basic_string@DU?$char_traits@D@std@@V?$allocator@D@2@@std@@QAEAAV01@PBD@Z ; std::basic_string<char,std::char_traits<char>,std::allocator<char> >::operator=
; Line 95
	lea	ecx, DWORD PTR _tmpStr$151622[ebp]
	call	?size@?$basic_string@DU?$char_traits@D@std@@V?$allocator@D@2@@std@@QBEIXZ ; std::basic_string<char,std::char_traits<char>,std::allocator<char> >::size
	mov	esi, eax
	lea	ecx, DWORD PTR _tmpStr$151622[ebp]
	call	?size@?$basic_string@DU?$char_traits@D@std@@V?$allocator@D@2@@std@@QBEIXZ ; std::basic_string<char,std::char_traits<char>,std::allocator<char> >::size
	push	eax
	lea	ecx, DWORD PTR _tmpStr$151622[ebp]
	call	?data@?$basic_string@DU?$char_traits@D@std@@V?$allocator@D@2@@std@@QBEPBDXZ ; std::basic_string<char,std::char_traits<char>,std::allocator<char> >::data
	push	eax
	lea	ecx, DWORD PTR _con$151653[ebp]
	call	??C?$scoped_ptr@Vconnection@dlib@@U?$default_deleter@Vconnection@dlib@@@2@@dlib@@QBEPAVconnection@1@XZ ; dlib::scoped_ptr<dlib::connection,dlib::default_deleter<dlib::connection> >::operator->
	mov	ecx, eax
	call	?write@connection@dlib@@QAEJPBDJ@Z	; dlib::connection::write
	cmp	eax, esi
	je	SHORT $LN3@sendMail
; Line 96
	mov	BYTE PTR $T369516[ebp], 0
	mov	BYTE PTR __$EHRec$[ebp+12], 12		; 0000000cH
	lea	ecx, DWORD PTR _con$151653[ebp]
	call	??1?$scoped_ptr@Vconnection@dlib@@U?$default_deleter@Vconnection@dlib@@@2@@dlib@@QAE@XZ ; dlib::scoped_ptr<dlib::connection,dlib::default_deleter<dlib::connection> >::~scoped_ptr<dlib::connection,dlib::default_deleter<dlib::connection> >
	mov	BYTE PTR __$EHRec$[ebp+12], 7
	lea	ecx, DWORD PTR _smtp_address$151623[ebp]
	call	??1?$basic_string@DU?$char_traits@D@std@@V?$allocator@D@2@@std@@QAE@XZ ; std::basic_string<char,std::char_traits<char>,std::allocator<char> >::~basic_string<char,std::char_traits<char>,std::allocator<char> >
	mov	BYTE PTR __$EHRec$[ebp+12], 6
	lea	ecx, DWORD PTR _tmpStr$151622[ebp]
	call	??1?$basic_string@DU?$char_traits@D@std@@V?$allocator@D@2@@std@@QAE@XZ ; std::basic_string<char,std::char_traits<char>,std::allocator<char> >::~basic_string<char,std::char_traits<char>,std::allocator<char> >
	mov	BYTE PTR __$EHRec$[ebp+12], 3
	lea	ecx, DWORD PTR _config$151618[ebp]
	call	??1?$config_reader_kernel_1@V?$map_kernel_1@V?$basic_string@DU?$char_traits@D@std@@V?$allocator@D@2@@std@@V12@V?$binary_search_tree_kernel_2@V?$basic_string@DU?$char_traits@D@std@@V?$allocator@D@2@@std@@V12@V?$memory_manager_stateless_kernel_1@D@dlib@@U?$less@V?$basic_string@DU?$char_traits@D@std@@V?$allocator@D@2@@std@@@2@@dlib@@V?$memory_manager_stateless_kernel_1@D@4@@dlib@@V?$map_kernel_1@V?$basic_string@DU?$char_traits@D@std@@V?$allocator@D@2@@std@@PAXV?$binary_search_tree_kernel_2@V?$basic_string@DU?$char_traits@D@std@@V?$allocator@D@2@@std@@PAXV?$memory_manager_stateless_kernel_1@D@dlib@@U?$less@V?$basic_string@DU?$char_traits@D@std@@V?$allocator@D@2@@std@@@2@@dlib@@V?$memory_manager_stateless_kernel_1@D@4@@2@Vtokenizer_kernel_1@2@@dlib@@UAE@XZ ; dlib::config_reader_kernel_1<dlib::map_kernel_1<std::basic_string<char,std::char_traits<char>,std::allocator<char> >,std::basic_string<char,std::char_traits<char>,std::allocator<char> >,dlib::binary_search_tree_kernel_2<std::basic_string<char,std::char_traits<char>,std::allocator<char> >,std::basic_string<char,std::char_traits<char>,std::allocator<char> >,dlib::memory_manager_stateless_kernel_1<char>,std::less<std::basic_string<char,std::char_traits<char>,std::allocator<char> > > >,dlib::memory_manager_stateless_kernel_1<char> >,dlib::map_kernel_1<std::basic_string<char,std::char_traits<char>,std::allocator<char> >,void *,dlib::binary_search_tree_kernel_2<std::basic_string<char,std::char_traits<char>,std::allocator<char> >,void *,dlib::memory_manager_stateless_kernel_1<char>,std::less<std::basic_string<char,std::char_traits<char>,std::allocator<char> > > >,dlib::memory_manager_stateless_kernel_1<char> >,dlib::tokenizer_kernel_1>::~config_reader_kernel_1<dlib::map_kernel_1<std::basic_string<char,std::char_traits<char>,std::allocator<char> >,std::basic_string<char,std::char_traits<char>,std::allocator<char> >,dlib::binary_search_tree_kernel_2<std::basic_string<char,std::char_traits<char>,std::allocator<char> >,std::basic_string<char,std::char_traits<char>,std::allocator<char> >,dlib::memory_manager_stateless_kernel_1<char>,std::less<std::basic_string<char,std::char_traits<char>,std::allocator<char> > > >,dlib::memory_manager_stateless_kernel_1<char> >,dlib::map_kernel_1<std::basic_string<char,std::char_traits<char>,std::allocator<char> >,void *,dlib::binary_search_tree_kernel_2<std::basic_string<char,std::char_traits<char>,std::allocator<char> >,void *,dlib::memory_manager_stateless_kernel_1<char>,std::less<std::basic_string<char,std::char_traits<char>,std::allocator<char> > > >,dlib::memory_manager_stateless_kernel_1<char> >,dlib::tokenizer_kernel_1>
	mov	BYTE PTR __$EHRec$[ebp+12], 1
	lea	ecx, DWORD PTR _to$[ebp]
	call	??1?$basic_string@DU?$char_traits@D@std@@V?$allocator@D@2@@std@@QAE@XZ ; std::basic_string<char,std::char_traits<char>,std::allocator<char> >::~basic_string<char,std::char_traits<char>,std::allocator<char> >
	mov	BYTE PTR __$EHRec$[ebp+12], 0
	lea	ecx, DWORD PTR _subject$[ebp]
	call	??1?$basic_string@DU?$char_traits@D@std@@V?$allocator@D@2@@std@@QAE@XZ ; std::basic_string<char,std::char_traits<char>,std::allocator<char> >::~basic_string<char,std::char_traits<char>,std::allocator<char> >
	mov	DWORD PTR __$EHRec$[ebp+12], -1
	lea	ecx, DWORD PTR _msg$[ebp]
	call	??1?$basic_string@DU?$char_traits@D@std@@V?$allocator@D@2@@std@@QAE@XZ ; std::basic_string<char,std::char_traits<char>,std::allocator<char> >::~basic_string<char,std::char_traits<char>,std::allocator<char> >
	mov	al, BYTE PTR $T369516[ebp]
	jmp	$LN8@sendMail
$LN3@sendMail:
; Line 98
	push	200					; 000000c8H
	push	256					; 00000100H
	lea	eax, DWORD PTR _sBuffer$151621[ebp]
	push	eax
	lea	ecx, DWORD PTR _con$151653[ebp]
	call	??C?$scoped_ptr@Vconnection@dlib@@U?$default_deleter@Vconnection@dlib@@@2@@dlib@@QBEPAVconnection@1@XZ ; dlib::scoped_ptr<dlib::connection,dlib::default_deleter<dlib::connection> >::operator->
	mov	ecx, eax
	call	?read@connection@dlib@@QAEJPADJK@Z	; dlib::connection::read
; Line 99
	push	OFFSET $SG-68237
	push	OFFSET $SG-68238
	lea	ecx, DWORD PTR $T151706[ebp]
	call	??0?$basic_string@DU?$char_traits@D@std@@V?$allocator@D@2@@std@@QAE@PBD@Z ; std::basic_string<char,std::char_traits<char>,std::allocator<char> >::basic_string<char,std::char_traits<char>,std::allocator<char> >
	mov	DWORD PTR tv787[ebp], eax
	mov	ecx, DWORD PTR tv787[ebp]
	mov	DWORD PTR tv717[ebp], ecx
	mov	BYTE PTR __$EHRec$[ebp+12], 26		; 0000001aH
	sub	esp, 28					; 0000001cH
	mov	edx, esp
	mov	DWORD PTR $T369517[ebp], esp
	lea	eax, DWORD PTR _sBuffer$151621[ebp]
	push	eax
	mov	ecx, DWORD PTR tv717[ebp]
	push	ecx
	push	edx
	call	??$?HDU?$char_traits@D@std@@V?$allocator@D@1@@std@@YA?AV?$basic_string@DU?$char_traits@D@std@@V?$allocator@D@2@@0@$$QAV10@PBD@Z ; std::operator+<char,std::char_traits<char>,std::allocator<char> >
	add	esp, 12					; 0000000cH
	mov	DWORD PTR tv720[ebp], eax
	call	?message@log@helper@@YAXV?$basic_string@DU?$char_traits@D@std@@V?$allocator@D@2@@std@@PBD@Z ; helper::log::message
	add	esp, 32					; 00000020H
	mov	BYTE PTR __$EHRec$[ebp+12], 17		; 00000011H
	lea	ecx, DWORD PTR $T151706[ebp]
	call	??1?$basic_string@DU?$char_traits@D@std@@V?$allocator@D@2@@std@@QAE@XZ ; std::basic_string<char,std::char_traits<char>,std::allocator<char> >::~basic_string<char,std::char_traits<char>,std::allocator<char> >
; Line 102
	lea	edx, DWORD PTR _smtp_address$151623[ebp]
	push	edx
	push	OFFSET $SG-68240
	lea	eax, DWORD PTR $T151711[ebp]
	push	eax
	call	??$?HDU?$char_traits@D@std@@V?$allocator@D@1@@std@@YA?AV?$basic_string@DU?$char_traits@D@std@@V?$allocator@D@2@@0@PBDABV10@@Z ; std::operator+<char,std::char_traits<char>,std::allocator<char> >
	add	esp, 12					; 0000000cH
	mov	DWORD PTR tv788[ebp], eax
	mov	ecx, DWORD PTR tv788[ebp]
	mov	DWORD PTR tv722[ebp], ecx
	mov	BYTE PTR __$EHRec$[ebp+12], 27		; 0000001bH
	push	OFFSET $SG-68239
	mov	edx, DWORD PTR tv722[ebp]
	push	edx
	lea	eax, DWORD PTR $T151712[ebp]
	push	eax
	call	??$?HDU?$char_traits@D@std@@V?$allocator@D@1@@std@@YA?AV?$basic_string@DU?$char_traits@D@std@@V?$allocator@D@2@@0@$$QAV10@PBD@Z ; std::operator+<char,std::char_traits<char>,std::allocator<char> >
	add	esp, 12					; 0000000cH
	mov	DWORD PTR tv789[ebp], eax
	mov	ecx, DWORD PTR tv789[ebp]
	mov	DWORD PTR tv724[ebp], ecx
	mov	BYTE PTR __$EHRec$[ebp+12], 28		; 0000001cH
	mov	edx, DWORD PTR tv724[ebp]
	push	edx
	lea	ecx, DWORD PTR _tmpStr$151622[ebp]
	call	??4?$basic_string@DU?$char_traits@D@std@@V?$allocator@D@2@@std@@QAEAAV01@$$QAV01@@Z ; std::basic_string<char,std::char_traits<char>,std::allocator<char> >::operator=
	mov	BYTE PTR __$EHRec$[ebp+12], 27		; 0000001bH
	lea	ecx, DWORD PTR $T151712[ebp]
	call	??1?$basic_string@DU?$char_traits@D@std@@V?$allocator@D@2@@std@@QAE@XZ ; std::basic_string<char,std::char_traits<char>,std::allocator<char> >::~basic_string<char,std::char_traits<char>,std::allocator<char> >
	mov	BYTE PTR __$EHRec$[ebp+12], 17		; 00000011H
	lea	ecx, DWORD PTR $T151711[ebp]
	call	??1?$basic_string@DU?$char_traits@D@std@@V?$allocator@D@2@@std@@QAE@XZ ; std::basic_string<char,std::char_traits<char>,std::allocator<char> >::~basic_string<char,std::char_traits<char>,std::allocator<char> >
; Line 103
	lea	eax, DWORD PTR _to$[ebp]
	push	eax
	push	OFFSET $SG-68242
	lea	ecx, DWORD PTR $T151715[ebp]
	push	ecx
	call	??$?HDU?$char_traits@D@std@@V?$allocator@D@1@@std@@YA?AV?$basic_string@DU?$char_traits@D@std@@V?$allocator@D@2@@0@PBDABV10@@Z ; std::operator+<char,std::char_traits<char>,std::allocator<char> >
	add	esp, 12					; 0000000cH
	mov	DWORD PTR tv790[ebp], eax
	mov	edx, DWORD PTR tv790[ebp]
	mov	DWORD PTR tv726[ebp], edx
	mov	BYTE PTR __$EHRec$[ebp+12], 29		; 0000001dH
	push	OFFSET $SG-68241
	mov	eax, DWORD PTR tv726[ebp]
	push	eax
	lea	ecx, DWORD PTR $T151716[ebp]
	push	ecx
	call	??$?HDU?$char_traits@D@std@@V?$allocator@D@1@@std@@YA?AV?$basic_string@DU?$char_traits@D@std@@V?$allocator@D@2@@0@$$QAV10@PBD@Z ; std::operator+<char,std::char_traits<char>,std::allocator<char> >
	add	esp, 12					; 0000000cH
	mov	DWORD PTR tv791[ebp], eax
	mov	edx, DWORD PTR tv791[ebp]
	mov	DWORD PTR tv728[ebp], edx
	mov	BYTE PTR __$EHRec$[ebp+12], 30		; 0000001eH
	mov	eax, DWORD PTR tv728[ebp]
	push	eax
	lea	ecx, DWORD PTR _tmpStr$151622[ebp]
	call	??Y?$basic_string@DU?$char_traits@D@std@@V?$allocator@D@2@@std@@QAEAAV01@ABV01@@Z ; std::basic_string<char,std::char_traits<char>,std::allocator<char> >::operator+=
	mov	BYTE PTR __$EHRec$[ebp+12], 29		; 0000001dH
	lea	ecx, DWORD PTR $T151716[ebp]
	call	??1?$basic_string@DU?$char_traits@D@std@@V?$allocator@D@2@@std@@QAE@XZ ; std::basic_string<char,std::char_traits<char>,std::allocator<char> >::~basic_string<char,std::char_traits<char>,std::allocator<char> >
	mov	BYTE PTR __$EHRec$[ebp+12], 17		; 00000011H
	lea	ecx, DWORD PTR $T151715[ebp]
	call	??1?$basic_string@DU?$char_traits@D@std@@V?$allocator@D@2@@std@@QAE@XZ ; std::basic_string<char,std::char_traits<char>,std::allocator<char> >::~basic_string<char,std::char_traits<char>,std::allocator<char> >
; Line 104
	lea	ecx, DWORD PTR _subject$[ebp]
	push	ecx
	push	OFFSET $SG-68244
	lea	edx, DWORD PTR $T151719[ebp]
	push	edx
	call	??$?HDU?$char_traits@D@std@@V?$allocator@D@1@@std@@YA?AV?$basic_string@DU?$char_traits@D@std@@V?$allocator@D@2@@0@PBDABV10@@Z ; std::operator+<char,std::char_traits<char>,std::allocator<char> >
	add	esp, 12					; 0000000cH
	mov	DWORD PTR tv792[ebp], eax
	mov	eax, DWORD PTR tv792[ebp]
	mov	DWORD PTR tv730[ebp], eax
	mov	BYTE PTR __$EHRec$[ebp+12], 31		; 0000001fH
	push	OFFSET $SG-68243
	mov	ecx, DWORD PTR tv730[ebp]
	push	ecx
	lea	edx, DWORD PTR $T151720[ebp]
	push	edx
	call	??$?HDU?$char_traits@D@std@@V?$allocator@D@1@@std@@YA?AV?$basic_string@DU?$char_traits@D@std@@V?$allocator@D@2@@0@$$QAV10@PBD@Z ; std::operator+<char,std::char_traits<char>,std::allocator<char> >
	add	esp, 12					; 0000000cH
	mov	DWORD PTR tv793[ebp], eax
	mov	eax, DWORD PTR tv793[ebp]
	mov	DWORD PTR tv732[ebp], eax
	mov	BYTE PTR __$EHRec$[ebp+12], 32		; 00000020H
	mov	ecx, DWORD PTR tv732[ebp]
	push	ecx
	lea	ecx, DWORD PTR _tmpStr$151622[ebp]
	call	??Y?$basic_string@DU?$char_traits@D@std@@V?$allocator@D@2@@std@@QAEAAV01@ABV01@@Z ; std::basic_string<char,std::char_traits<char>,std::allocator<char> >::operator+=
	mov	BYTE PTR __$EHRec$[ebp+12], 31		; 0000001fH
	lea	ecx, DWORD PTR $T151720[ebp]
	call	??1?$basic_string@DU?$char_traits@D@std@@V?$allocator@D@2@@std@@QAE@XZ ; std::basic_string<char,std::char_traits<char>,std::allocator<char> >::~basic_string<char,std::char_traits<char>,std::allocator<char> >
	mov	BYTE PTR __$EHRec$[ebp+12], 17		; 00000011H
	lea	ecx, DWORD PTR $T151719[ebp]
	call	??1?$basic_string@DU?$char_traits@D@std@@V?$allocator@D@2@@std@@QAE@XZ ; std::basic_string<char,std::char_traits<char>,std::allocator<char> >::~basic_string<char,std::char_traits<char>,std::allocator<char> >
; Line 106
	push	OFFSET $SG-68245
	lea	ecx, DWORD PTR _tmpStr$151622[ebp]
	call	??Y?$basic_string@DU?$char_traits@D@std@@V?$allocator@D@2@@std@@QAEAAV01@PBD@Z ; std::basic_string<char,std::char_traits<char>,std::allocator<char> >::operator+=
; Line 108
	push	OFFSET $SG-68246
	lea	edx, DWORD PTR _msg$[ebp]
	push	edx
	lea	eax, DWORD PTR $T151724[ebp]
	push	eax
	call	??$?HDU?$char_traits@D@std@@V?$allocator@D@1@@std@@YA?AV?$basic_string@DU?$char_traits@D@std@@V?$allocator@D@2@@0@ABV10@PBD@Z ; std::operator+<char,std::char_traits<char>,std::allocator<char> >
	add	esp, 12					; 0000000cH
	mov	DWORD PTR tv794[ebp], eax
	mov	ecx, DWORD PTR tv794[ebp]
	mov	DWORD PTR tv734[ebp], ecx
	mov	BYTE PTR __$EHRec$[ebp+12], 33		; 00000021H
	mov	edx, DWORD PTR tv734[ebp]
	push	edx
	lea	ecx, DWORD PTR _tmpStr$151622[ebp]
	call	??Y?$basic_string@DU?$char_traits@D@std@@V?$allocator@D@2@@std@@QAEAAV01@ABV01@@Z ; std::basic_string<char,std::char_traits<char>,std::allocator<char> >::operator+=
	mov	BYTE PTR __$EHRec$[ebp+12], 17		; 00000011H
	lea	ecx, DWORD PTR $T151724[ebp]
	call	??1?$basic_string@DU?$char_traits@D@std@@V?$allocator@D@2@@std@@QAE@XZ ; std::basic_string<char,std::char_traits<char>,std::allocator<char> >::~basic_string<char,std::char_traits<char>,std::allocator<char> >
; Line 109
	push	OFFSET $SG-68247
	lea	ecx, DWORD PTR _tmpStr$151622[ebp]
	call	??Y?$basic_string@DU?$char_traits@D@std@@V?$allocator@D@2@@std@@QAEAAV01@PBD@Z ; std::basic_string<char,std::char_traits<char>,std::allocator<char> >::operator+=
; Line 111
	lea	ecx, DWORD PTR _tmpStr$151622[ebp]
	call	?size@?$basic_string@DU?$char_traits@D@std@@V?$allocator@D@2@@std@@QBEIXZ ; std::basic_string<char,std::char_traits<char>,std::allocator<char> >::size
	mov	esi, eax
	lea	ecx, DWORD PTR _tmpStr$151622[ebp]
	call	?size@?$basic_string@DU?$char_traits@D@std@@V?$allocator@D@2@@std@@QBEIXZ ; std::basic_string<char,std::char_traits<char>,std::allocator<char> >::size
	push	eax
	lea	ecx, DWORD PTR _tmpStr$151622[ebp]
	call	?data@?$basic_string@DU?$char_traits@D@std@@V?$allocator@D@2@@std@@QBEPBDXZ ; std::basic_string<char,std::char_traits<char>,std::allocator<char> >::data
	push	eax
	lea	ecx, DWORD PTR _con$151653[ebp]
	call	??C?$scoped_ptr@Vconnection@dlib@@U?$default_deleter@Vconnection@dlib@@@2@@dlib@@QBEPAVconnection@1@XZ ; dlib::scoped_ptr<dlib::connection,dlib::default_deleter<dlib::connection> >::operator->
	mov	ecx, eax
	call	?write@connection@dlib@@QAEJPBDJ@Z	; dlib::connection::write
	cmp	eax, esi
	je	SHORT $LN2@sendMail
; Line 112
	mov	BYTE PTR $T369518[ebp], 0
	mov	BYTE PTR __$EHRec$[ebp+12], 12		; 0000000cH
	lea	ecx, DWORD PTR _con$151653[ebp]
	call	??1?$scoped_ptr@Vconnection@dlib@@U?$default_deleter@Vconnection@dlib@@@2@@dlib@@QAE@XZ ; dlib::scoped_ptr<dlib::connection,dlib::default_deleter<dlib::connection> >::~scoped_ptr<dlib::connection,dlib::default_deleter<dlib::connection> >
	mov	BYTE PTR __$EHRec$[ebp+12], 7
	lea	ecx, DWORD PTR _smtp_address$151623[ebp]
	call	??1?$basic_string@DU?$char_traits@D@std@@V?$allocator@D@2@@std@@QAE@XZ ; std::basic_string<char,std::char_traits<char>,std::allocator<char> >::~basic_string<char,std::char_traits<char>,std::allocator<char> >
	mov	BYTE PTR __$EHRec$[ebp+12], 6
	lea	ecx, DWORD PTR _tmpStr$151622[ebp]
	call	??1?$basic_string@DU?$char_traits@D@std@@V?$allocator@D@2@@std@@QAE@XZ ; std::basic_string<char,std::char_traits<char>,std::allocator<char> >::~basic_string<char,std::char_traits<char>,std::allocator<char> >
	mov	BYTE PTR __$EHRec$[ebp+12], 3
	lea	ecx, DWORD PTR _config$151618[ebp]
	call	??1?$config_reader_kernel_1@V?$map_kernel_1@V?$basic_string@DU?$char_traits@D@std@@V?$allocator@D@2@@std@@V12@V?$binary_search_tree_kernel_2@V?$basic_string@DU?$char_traits@D@std@@V?$allocator@D@2@@std@@V12@V?$memory_manager_stateless_kernel_1@D@dlib@@U?$less@V?$basic_string@DU?$char_traits@D@std@@V?$allocator@D@2@@std@@@2@@dlib@@V?$memory_manager_stateless_kernel_1@D@4@@dlib@@V?$map_kernel_1@V?$basic_string@DU?$char_traits@D@std@@V?$allocator@D@2@@std@@PAXV?$binary_search_tree_kernel_2@V?$basic_string@DU?$char_traits@D@std@@V?$allocator@D@2@@std@@PAXV?$memory_manager_stateless_kernel_1@D@dlib@@U?$less@V?$basic_string@DU?$char_traits@D@std@@V?$allocator@D@2@@std@@@2@@dlib@@V?$memory_manager_stateless_kernel_1@D@4@@2@Vtokenizer_kernel_1@2@@dlib@@UAE@XZ ; dlib::config_reader_kernel_1<dlib::map_kernel_1<std::basic_string<char,std::char_traits<char>,std::allocator<char> >,std::basic_string<char,std::char_traits<char>,std::allocator<char> >,dlib::binary_search_tree_kernel_2<std::basic_string<char,std::char_traits<char>,std::allocator<char> >,std::basic_string<char,std::char_traits<char>,std::allocator<char> >,dlib::memory_manager_stateless_kernel_1<char>,std::less<std::basic_string<char,std::char_traits<char>,std::allocator<char> > > >,dlib::memory_manager_stateless_kernel_1<char> >,dlib::map_kernel_1<std::basic_string<char,std::char_traits<char>,std::allocator<char> >,void *,dlib::binary_search_tree_kernel_2<std::basic_string<char,std::char_traits<char>,std::allocator<char> >,void *,dlib::memory_manager_stateless_kernel_1<char>,std::less<std::basic_string<char,std::char_traits<char>,std::allocator<char> > > >,dlib::memory_manager_stateless_kernel_1<char> >,dlib::tokenizer_kernel_1>::~config_reader_kernel_1<dlib::map_kernel_1<std::basic_string<char,std::char_traits<char>,std::allocator<char> >,std::basic_string<char,std::char_traits<char>,std::allocator<char> >,dlib::binary_search_tree_kernel_2<std::basic_string<char,std::char_traits<char>,std::allocator<char> >,std::basic_string<char,std::char_traits<char>,std::allocator<char> >,dlib::memory_manager_stateless_kernel_1<char>,std::less<std::basic_string<char,std::char_traits<char>,std::allocator<char> > > >,dlib::memory_manager_stateless_kernel_1<char> >,dlib::map_kernel_1<std::basic_string<char,std::char_traits<char>,std::allocator<char> >,void *,dlib::binary_search_tree_kernel_2<std::basic_string<char,std::char_traits<char>,std::allocator<char> >,void *,dlib::memory_manager_stateless_kernel_1<char>,std::less<std::basic_string<char,std::char_traits<char>,std::allocator<char> > > >,dlib::memory_manager_stateless_kernel_1<char> >,dlib::tokenizer_kernel_1>
	mov	BYTE PTR __$EHRec$[ebp+12], 1
	lea	ecx, DWORD PTR _to$[ebp]
	call	??1?$basic_string@DU?$char_traits@D@std@@V?$allocator@D@2@@std@@QAE@XZ ; std::basic_string<char,std::char_traits<char>,std::allocator<char> >::~basic_string<char,std::char_traits<char>,std::allocator<char> >
	mov	BYTE PTR __$EHRec$[ebp+12], 0
	lea	ecx, DWORD PTR _subject$[ebp]
	call	??1?$basic_string@DU?$char_traits@D@std@@V?$allocator@D@2@@std@@QAE@XZ ; std::basic_string<char,std::char_traits<char>,std::allocator<char> >::~basic_string<char,std::char_traits<char>,std::allocator<char> >
	mov	DWORD PTR __$EHRec$[ebp+12], -1
	lea	ecx, DWORD PTR _msg$[ebp]
	call	??1?$basic_string@DU?$char_traits@D@std@@V?$allocator@D@2@@std@@QAE@XZ ; std::basic_string<char,std::char_traits<char>,std::allocator<char> >::~basic_string<char,std::char_traits<char>,std::allocator<char> >
	mov	al, BYTE PTR $T369518[ebp]
	jmp	$LN8@sendMail
$LN2@sendMail:
; Line 114
	push	200					; 000000c8H
	push	256					; 00000100H
	lea	eax, DWORD PTR _sBuffer$151621[ebp]
	push	eax
	lea	ecx, DWORD PTR _con$151653[ebp]
	call	??C?$scoped_ptr@Vconnection@dlib@@U?$default_deleter@Vconnection@dlib@@@2@@dlib@@QBEPAVconnection@1@XZ ; dlib::scoped_ptr<dlib::connection,dlib::default_deleter<dlib::connection> >::operator->
	mov	ecx, eax
	call	?read@connection@dlib@@QAEJPADJK@Z	; dlib::connection::read
; Line 115
	push	OFFSET $SG-68248
	push	OFFSET $SG-68249
	lea	ecx, DWORD PTR $T151730[ebp]
	call	??0?$basic_string@DU?$char_traits@D@std@@V?$allocator@D@2@@std@@QAE@PBD@Z ; std::basic_string<char,std::char_traits<char>,std::allocator<char> >::basic_string<char,std::char_traits<char>,std::allocator<char> >
	mov	DWORD PTR tv795[ebp], eax
	mov	ecx, DWORD PTR tv795[ebp]
	mov	DWORD PTR tv743[ebp], ecx
	mov	BYTE PTR __$EHRec$[ebp+12], 34		; 00000022H
	sub	esp, 28					; 0000001cH
	mov	edx, esp
	mov	DWORD PTR $T369519[ebp], esp
	lea	eax, DWORD PTR _sBuffer$151621[ebp]
	push	eax
	mov	ecx, DWORD PTR tv743[ebp]
	push	ecx
	push	edx
	call	??$?HDU?$char_traits@D@std@@V?$allocator@D@1@@std@@YA?AV?$basic_string@DU?$char_traits@D@std@@V?$allocator@D@2@@0@$$QAV10@PBD@Z ; std::operator+<char,std::char_traits<char>,std::allocator<char> >
	add	esp, 12					; 0000000cH
	mov	DWORD PTR tv746[ebp], eax
	call	?message@log@helper@@YAXV?$basic_string@DU?$char_traits@D@std@@V?$allocator@D@2@@std@@PBD@Z ; helper::log::message
	add	esp, 32					; 00000020H
	mov	BYTE PTR __$EHRec$[ebp+12], 17		; 00000011H
	lea	ecx, DWORD PTR $T151730[ebp]
	call	??1?$basic_string@DU?$char_traits@D@std@@V?$allocator@D@2@@std@@QAE@XZ ; std::basic_string<char,std::char_traits<char>,std::allocator<char> >::~basic_string<char,std::char_traits<char>,std::allocator<char> >
; Line 118
	push	OFFSET $SG-68250
	lea	ecx, DWORD PTR _tmpStr$151622[ebp]
	call	??4?$basic_string@DU?$char_traits@D@std@@V?$allocator@D@2@@std@@QAEAAV01@PBD@Z ; std::basic_string<char,std::char_traits<char>,std::allocator<char> >::operator=
; Line 119
	lea	ecx, DWORD PTR _tmpStr$151622[ebp]
	call	?size@?$basic_string@DU?$char_traits@D@std@@V?$allocator@D@2@@std@@QBEIXZ ; std::basic_string<char,std::char_traits<char>,std::allocator<char> >::size
	mov	esi, eax
	lea	ecx, DWORD PTR _tmpStr$151622[ebp]
	call	?size@?$basic_string@DU?$char_traits@D@std@@V?$allocator@D@2@@std@@QBEIXZ ; std::basic_string<char,std::char_traits<char>,std::allocator<char> >::size
	push	eax
	lea	ecx, DWORD PTR _tmpStr$151622[ebp]
	call	?data@?$basic_string@DU?$char_traits@D@std@@V?$allocator@D@2@@std@@QBEPBDXZ ; std::basic_string<char,std::char_traits<char>,std::allocator<char> >::data
	push	eax
	lea	ecx, DWORD PTR _con$151653[ebp]
	call	??C?$scoped_ptr@Vconnection@dlib@@U?$default_deleter@Vconnection@dlib@@@2@@dlib@@QBEPAVconnection@1@XZ ; dlib::scoped_ptr<dlib::connection,dlib::default_deleter<dlib::connection> >::operator->
	mov	ecx, eax
	call	?write@connection@dlib@@QAEJPBDJ@Z	; dlib::connection::write
	cmp	eax, esi
	je	SHORT $LN1@sendMail
; Line 120
	mov	BYTE PTR $T369520[ebp], 0
	mov	BYTE PTR __$EHRec$[ebp+12], 12		; 0000000cH
	lea	ecx, DWORD PTR _con$151653[ebp]
	call	??1?$scoped_ptr@Vconnection@dlib@@U?$default_deleter@Vconnection@dlib@@@2@@dlib@@QAE@XZ ; dlib::scoped_ptr<dlib::connection,dlib::default_deleter<dlib::connection> >::~scoped_ptr<dlib::connection,dlib::default_deleter<dlib::connection> >
	mov	BYTE PTR __$EHRec$[ebp+12], 7
	lea	ecx, DWORD PTR _smtp_address$151623[ebp]
	call	??1?$basic_string@DU?$char_traits@D@std@@V?$allocator@D@2@@std@@QAE@XZ ; std::basic_string<char,std::char_traits<char>,std::allocator<char> >::~basic_string<char,std::char_traits<char>,std::allocator<char> >
	mov	BYTE PTR __$EHRec$[ebp+12], 6
	lea	ecx, DWORD PTR _tmpStr$151622[ebp]
	call	??1?$basic_string@DU?$char_traits@D@std@@V?$allocator@D@2@@std@@QAE@XZ ; std::basic_string<char,std::char_traits<char>,std::allocator<char> >::~basic_string<char,std::char_traits<char>,std::allocator<char> >
	mov	BYTE PTR __$EHRec$[ebp+12], 3
	lea	ecx, DWORD PTR _config$151618[ebp]
	call	??1?$config_reader_kernel_1@V?$map_kernel_1@V?$basic_string@DU?$char_traits@D@std@@V?$allocator@D@2@@std@@V12@V?$binary_search_tree_kernel_2@V?$basic_string@DU?$char_traits@D@std@@V?$allocator@D@2@@std@@V12@V?$memory_manager_stateless_kernel_1@D@dlib@@U?$less@V?$basic_string@DU?$char_traits@D@std@@V?$allocator@D@2@@std@@@2@@dlib@@V?$memory_manager_stateless_kernel_1@D@4@@dlib@@V?$map_kernel_1@V?$basic_string@DU?$char_traits@D@std@@V?$allocator@D@2@@std@@PAXV?$binary_search_tree_kernel_2@V?$basic_string@DU?$char_traits@D@std@@V?$allocator@D@2@@std@@PAXV?$memory_manager_stateless_kernel_1@D@dlib@@U?$less@V?$basic_string@DU?$char_traits@D@std@@V?$allocator@D@2@@std@@@2@@dlib@@V?$memory_manager_stateless_kernel_1@D@4@@2@Vtokenizer_kernel_1@2@@dlib@@UAE@XZ ; dlib::config_reader_kernel_1<dlib::map_kernel_1<std::basic_string<char,std::char_traits<char>,std::allocator<char> >,std::basic_string<char,std::char_traits<char>,std::allocator<char> >,dlib::binary_search_tree_kernel_2<std::basic_string<char,std::char_traits<char>,std::allocator<char> >,std::basic_string<char,std::char_traits<char>,std::allocator<char> >,dlib::memory_manager_stateless_kernel_1<char>,std::less<std::basic_string<char,std::char_traits<char>,std::allocator<char> > > >,dlib::memory_manager_stateless_kernel_1<char> >,dlib::map_kernel_1<std::basic_string<char,std::char_traits<char>,std::allocator<char> >,void *,dlib::binary_search_tree_kernel_2<std::basic_string<char,std::char_traits<char>,std::allocator<char> >,void *,dlib::memory_manager_stateless_kernel_1<char>,std::less<std::basic_string<char,std::char_traits<char>,std::allocator<char> > > >,dlib::memory_manager_stateless_kernel_1<char> >,dlib::tokenizer_kernel_1>::~config_reader_kernel_1<dlib::map_kernel_1<std::basic_string<char,std::char_traits<char>,std::allocator<char> >,std::basic_string<char,std::char_traits<char>,std::allocator<char> >,dlib::binary_search_tree_kernel_2<std::basic_string<char,std::char_traits<char>,std::allocator<char> >,std::basic_string<char,std::char_traits<char>,std::allocator<char> >,dlib::memory_manager_stateless_kernel_1<char>,std::less<std::basic_string<char,std::char_traits<char>,std::allocator<char> > > >,dlib::memory_manager_stateless_kernel_1<char> >,dlib::map_kernel_1<std::basic_string<char,std::char_traits<char>,std::allocator<char> >,void *,dlib::binary_search_tree_kernel_2<std::basic_string<char,std::char_traits<char>,std::allocator<char> >,void *,dlib::memory_manager_stateless_kernel_1<char>,std::less<std::basic_string<char,std::char_traits<char>,std::allocator<char> > > >,dlib::memory_manager_stateless_kernel_1<char> >,dlib::tokenizer_kernel_1>
	mov	BYTE PTR __$EHRec$[ebp+12], 1
	lea	ecx, DWORD PTR _to$[ebp]
	call	??1?$basic_string@DU?$char_traits@D@std@@V?$allocator@D@2@@std@@QAE@XZ ; std::basic_string<char,std::char_traits<char>,std::allocator<char> >::~basic_string<char,std::char_traits<char>,std::allocator<char> >
	mov	BYTE PTR __$EHRec$[ebp+12], 0
	lea	ecx, DWORD PTR _subject$[ebp]
	call	??1?$basic_string@DU?$char_traits@D@std@@V?$allocator@D@2@@std@@QAE@XZ ; std::basic_string<char,std::char_traits<char>,std::allocator<char> >::~basic_string<char,std::char_traits<char>,std::allocator<char> >
	mov	DWORD PTR __$EHRec$[ebp+12], -1
	lea	ecx, DWORD PTR _msg$[ebp]
	call	??1?$basic_string@DU?$char_traits@D@std@@V?$allocator@D@2@@std@@QAE@XZ ; std::basic_string<char,std::char_traits<char>,std::allocator<char> >::~basic_string<char,std::char_traits<char>,std::allocator<char> >
	mov	al, BYTE PTR $T369520[ebp]
	jmp	$LN8@sendMail
$LN1@sendMail:
; Line 122
	push	200					; 000000c8H
	push	256					; 00000100H
	lea	edx, DWORD PTR _sBuffer$151621[ebp]
	push	edx
	lea	ecx, DWORD PTR _con$151653[ebp]
	call	??C?$scoped_ptr@Vconnection@dlib@@U?$default_deleter@Vconnection@dlib@@@2@@dlib@@QBEPAVconnection@1@XZ ; dlib::scoped_ptr<dlib::connection,dlib::default_deleter<dlib::connection> >::operator->
	mov	ecx, eax
	call	?read@connection@dlib@@QAEJPADJK@Z	; dlib::connection::read
; Line 123
	push	OFFSET $SG-68251
	push	OFFSET $SG-68252
	lea	ecx, DWORD PTR $T151739[ebp]
	call	??0?$basic_string@DU?$char_traits@D@std@@V?$allocator@D@2@@std@@QAE@PBD@Z ; std::basic_string<char,std::char_traits<char>,std::allocator<char> >::basic_string<char,std::char_traits<char>,std::allocator<char> >
	mov	DWORD PTR tv796[ebp], eax
	mov	eax, DWORD PTR tv796[ebp]
	mov	DWORD PTR tv755[ebp], eax
	mov	BYTE PTR __$EHRec$[ebp+12], 35		; 00000023H
	sub	esp, 28					; 0000001cH
	mov	ecx, esp
	mov	DWORD PTR $T369521[ebp], esp
	lea	edx, DWORD PTR _sBuffer$151621[ebp]
	push	edx
	mov	eax, DWORD PTR tv755[ebp]
	push	eax
	push	ecx
	call	??$?HDU?$char_traits@D@std@@V?$allocator@D@1@@std@@YA?AV?$basic_string@DU?$char_traits@D@std@@V?$allocator@D@2@@0@$$QAV10@PBD@Z ; std::operator+<char,std::char_traits<char>,std::allocator<char> >
	add	esp, 12					; 0000000cH
	mov	DWORD PTR tv758[ebp], eax
	call	?message@log@helper@@YAXV?$basic_string@DU?$char_traits@D@std@@V?$allocator@D@2@@std@@PBD@Z ; helper::log::message
	add	esp, 32					; 00000020H
	mov	BYTE PTR __$EHRec$[ebp+12], 17		; 00000011H
	lea	ecx, DWORD PTR $T151739[ebp]
	call	??1?$basic_string@DU?$char_traits@D@std@@V?$allocator@D@2@@std@@QAE@XZ ; std::basic_string<char,std::char_traits<char>,std::allocator<char> >::~basic_string<char,std::char_traits<char>,std::allocator<char> >
; Line 125
	push	500					; 000001f4H
	lea	ecx, DWORD PTR _con$151653[ebp]
	push	ecx
	call	?close_gracefully@dlib@@YAXAAV?$scoped_ptr@Vconnection@dlib@@U?$default_deleter@Vconnection@dlib@@@2@@1@K@Z ; dlib::close_gracefully
	add	esp, 8
; Line 126
	mov	BYTE PTR __$EHRec$[ebp+12], 12		; 0000000cH
	lea	ecx, DWORD PTR _con$151653[ebp]
	call	??1?$scoped_ptr@Vconnection@dlib@@U?$default_deleter@Vconnection@dlib@@@2@@dlib@@QAE@XZ ; dlib::scoped_ptr<dlib::connection,dlib::default_deleter<dlib::connection> >::~scoped_ptr<dlib::connection,dlib::default_deleter<dlib::connection> >
	mov	BYTE PTR __$EHRec$[ebp+12], 7
	lea	ecx, DWORD PTR _smtp_address$151623[ebp]
	call	??1?$basic_string@DU?$char_traits@D@std@@V?$allocator@D@2@@std@@QAE@XZ ; std::basic_string<char,std::char_traits<char>,std::allocator<char> >::~basic_string<char,std::char_traits<char>,std::allocator<char> >
	mov	BYTE PTR __$EHRec$[ebp+12], 6
	lea	ecx, DWORD PTR _tmpStr$151622[ebp]
	call	??1?$basic_string@DU?$char_traits@D@std@@V?$allocator@D@2@@std@@QAE@XZ ; std::basic_string<char,std::char_traits<char>,std::allocator<char> >::~basic_string<char,std::char_traits<char>,std::allocator<char> >
	mov	BYTE PTR __$EHRec$[ebp+12], 3
	lea	ecx, DWORD PTR _config$151618[ebp]
	call	??1?$config_reader_kernel_1@V?$map_kernel_1@V?$basic_string@DU?$char_traits@D@std@@V?$allocator@D@2@@std@@V12@V?$binary_search_tree_kernel_2@V?$basic_string@DU?$char_traits@D@std@@V?$allocator@D@2@@std@@V12@V?$memory_manager_stateless_kernel_1@D@dlib@@U?$less@V?$basic_string@DU?$char_traits@D@std@@V?$allocator@D@2@@std@@@2@@dlib@@V?$memory_manager_stateless_kernel_1@D@4@@dlib@@V?$map_kernel_1@V?$basic_string@DU?$char_traits@D@std@@V?$allocator@D@2@@std@@PAXV?$binary_search_tree_kernel_2@V?$basic_string@DU?$char_traits@D@std@@V?$allocator@D@2@@std@@PAXV?$memory_manager_stateless_kernel_1@D@dlib@@U?$less@V?$basic_string@DU?$char_traits@D@std@@V?$allocator@D@2@@std@@@2@@dlib@@V?$memory_manager_stateless_kernel_1@D@4@@2@Vtokenizer_kernel_1@2@@dlib@@UAE@XZ ; dlib::config_reader_kernel_1<dlib::map_kernel_1<std::basic_string<char,std::char_traits<char>,std::allocator<char> >,std::basic_string<char,std::char_traits<char>,std::allocator<char> >,dlib::binary_search_tree_kernel_2<std::basic_string<char,std::char_traits<char>,std::allocator<char> >,std::basic_string<char,std::char_traits<char>,std::allocator<char> >,dlib::memory_manager_stateless_kernel_1<char>,std::less<std::basic_string<char,std::char_traits<char>,std::allocator<char> > > >,dlib::memory_manager_stateless_kernel_1<char> >,dlib::map_kernel_1<std::basic_string<char,std::char_traits<char>,std::allocator<char> >,void *,dlib::binary_search_tree_kernel_2<std::basic_string<char,std::char_traits<char>,std::allocator<char> >,void *,dlib::memory_manager_stateless_kernel_1<char>,std::less<std::basic_string<char,std::char_traits<char>,std::allocator<char> > > >,dlib::memory_manager_stateless_kernel_1<char> >,dlib::tokenizer_kernel_1>::~config_reader_kernel_1<dlib::map_kernel_1<std::basic_string<char,std::char_traits<char>,std::allocator<char> >,std::basic_string<char,std::char_traits<char>,std::allocator<char> >,dlib::binary_search_tree_kernel_2<std::basic_string<char,std::char_traits<char>,std::allocator<char> >,std::basic_string<char,std::char_traits<char>,std::allocator<char> >,dlib::memory_manager_stateless_kernel_1<char>,std::less<std::basic_string<char,std::char_traits<char>,std::allocator<char> > > >,dlib::memory_manager_stateless_kernel_1<char> >,dlib::map_kernel_1<std::basic_string<char,std::char_traits<char>,std::allocator<char> >,void *,dlib::binary_search_tree_kernel_2<std::basic_string<char,std::char_traits<char>,std::allocator<char> >,void *,dlib::memory_manager_stateless_kernel_1<char>,std::less<std::basic_string<char,std::char_traits<char>,std::allocator<char> > > >,dlib::memory_manager_stateless_kernel_1<char> >,dlib::tokenizer_kernel_1>
	jmp	$LN10@sendMail
__catch$?sendMail@mail@@YA_NV?$basic_string@DU?$char_traits@D@std@@V?$allocator@D@2@@std@@00@Z$0:
; Line 129
	mov	edx, DWORD PTR _e$151744[ebp]
	mov	eax, DWORD PTR [edx]
	mov	ecx, DWORD PTR _e$151744[ebp]
	mov	edx, DWORD PTR [eax+4]
	call	edx
	sub	esp, 28					; 0000001cH
	mov	ecx, esp
	mov	DWORD PTR $T369522[ebp], esp
	push	eax
	call	??0?$basic_string@DU?$char_traits@D@std@@V?$allocator@D@2@@std@@QAE@PBD@Z ; std::basic_string<char,std::char_traits<char>,std::allocator<char> >::basic_string<char,std::char_traits<char>,std::allocator<char> >
	mov	DWORD PTR tv760[ebp], eax
	push	129					; 00000081H
	push	OFFSET $SG-68253
	push	OFFSET $SG-68254
	call	?error@log@helper@@YAXPBD0JV?$basic_string@DU?$char_traits@D@std@@V?$allocator@D@2@@std@@@Z ; helper::log::error
	add	esp, 40					; 00000028H
; Line 130
	mov	DWORD PTR __$EHRec$[ebp+12], 2
	mov	eax, __tryend$?sendMail@mail@@YA_NV?$basic_string@DU?$char_traits@D@std@@V?$allocator@D@2@@std@@00@Z$2
	ret	0
__catch$?sendMail@mail@@YA_NV?$basic_string@DU?$char_traits@D@std@@V?$allocator@D@2@@std@@00@Z$1:
; Line 133
	sub	esp, 28					; 0000001cH
	mov	ecx, esp
	mov	DWORD PTR $T369523[ebp], esp
	push	OFFSET $SG-68255
	call	??0?$basic_string@DU?$char_traits@D@std@@V?$allocator@D@2@@std@@QAE@PBD@Z ; std::basic_string<char,std::char_traits<char>,std::allocator<char> >::basic_string<char,std::char_traits<char>,std::allocator<char> >
	mov	DWORD PTR tv763[ebp], eax
	push	133					; 00000085H
	push	OFFSET $SG-68256
	push	OFFSET $SG-68257
	call	?error@log@helper@@YAXPBD0JV?$basic_string@DU?$char_traits@D@std@@V?$allocator@D@2@@std@@@Z ; helper::log::error
	add	esp, 40					; 00000028H
; Line 134
	mov	DWORD PTR __$EHRec$[ebp+12], 2
	mov	eax, __tryend$?sendMail@mail@@YA_NV?$basic_string@DU?$char_traits@D@std@@V?$allocator@D@2@@std@@00@Z$2
	ret	0
$LN10@sendMail:
	mov	DWORD PTR __$EHRec$[ebp+12], 2
__tryend$?sendMail@mail@@YA_NV?$basic_string@DU?$char_traits@D@std@@V?$allocator@D@2@@std@@00@Z$2:
; Line 136
	mov	BYTE PTR $T369524[ebp], 1
	mov	BYTE PTR __$EHRec$[ebp+12], 1
	lea	ecx, DWORD PTR _to$[ebp]
	call	??1?$basic_string@DU?$char_traits@D@std@@V?$allocator@D@2@@std@@QAE@XZ ; std::basic_string<char,std::char_traits<char>,std::allocator<char> >::~basic_string<char,std::char_traits<char>,std::allocator<char> >
	mov	BYTE PTR __$EHRec$[ebp+12], 0
	lea	ecx, DWORD PTR _subject$[ebp]
	call	??1?$basic_string@DU?$char_traits@D@std@@V?$allocator@D@2@@std@@QAE@XZ ; std::basic_string<char,std::char_traits<char>,std::allocator<char> >::~basic_string<char,std::char_traits<char>,std::allocator<char> >
	mov	DWORD PTR __$EHRec$[ebp+12], -1
	lea	ecx, DWORD PTR _msg$[ebp]
	call	??1?$basic_string@DU?$char_traits@D@std@@V?$allocator@D@2@@std@@QAE@XZ ; std::basic_string<char,std::char_traits<char>,std::allocator<char> >::~basic_string<char,std::char_traits<char>,std::allocator<char> >
	mov	al, BYTE PTR $T369524[ebp]
$LN8@sendMail:
; Line 137
	mov	ecx, DWORD PTR __$EHRec$[ebp+4]
	mov	DWORD PTR fs:0, ecx
	pop	ecx
	pop	edi
	pop	esi
	pop	ebx
	mov	ecx, DWORD PTR __$ArrayPad$[ebp]
	xor	ecx, ebp
	call	@__security_check_cookie@4
	mov	esp, ebp
	pop	ebp
	ret	0
_TEXT	ENDS
;	COMDAT text$x
text$x	SEGMENT
__unwindfunclet$?sendMail@mail@@YA_NV?$basic_string@DU?$char_traits@D@std@@V?$allocator@D@2@@std@@00@Z$3:
	lea	ecx, DWORD PTR _msg$[ebp]
	jmp	??1?$basic_string@DU?$char_traits@D@std@@V?$allocator@D@2@@std@@QAE@XZ ; std::basic_string<char,std::char_traits<char>,std::allocator<char> >::~basic_string<char,std::char_traits<char>,std::allocator<char> >
__unwindfunclet$?sendMail@mail@@YA_NV?$basic_string@DU?$char_traits@D@std@@V?$allocator@D@2@@std@@00@Z$4:
	lea	ecx, DWORD PTR _subject$[ebp]
	jmp	??1?$basic_string@DU?$char_traits@D@std@@V?$allocator@D@2@@std@@QAE@XZ ; std::basic_string<char,std::char_traits<char>,std::allocator<char> >::~basic_string<char,std::char_traits<char>,std::allocator<char> >
__unwindfunclet$?sendMail@mail@@YA_NV?$basic_string@DU?$char_traits@D@std@@V?$allocator@D@2@@std@@00@Z$5:
	lea	ecx, DWORD PTR _to$[ebp]
	jmp	??1?$basic_string@DU?$char_traits@D@std@@V?$allocator@D@2@@std@@QAE@XZ ; std::basic_string<char,std::char_traits<char>,std::allocator<char> >::~basic_string<char,std::char_traits<char>,std::allocator<char> >
__unwindfunclet$?sendMail@mail@@YA_NV?$basic_string@DU?$char_traits@D@std@@V?$allocator@D@2@@std@@00@Z$6:
	lea	ecx, DWORD PTR $T151619[ebp]
	jmp	??1?$basic_string@DU?$char_traits@D@std@@V?$allocator@D@2@@std@@QAE@XZ ; std::basic_string<char,std::char_traits<char>,std::allocator<char> >::~basic_string<char,std::char_traits<char>,std::allocator<char> >
__unwindfunclet$?sendMail@mail@@YA_NV?$basic_string@DU?$char_traits@D@std@@V?$allocator@D@2@@std@@00@Z$7:
	lea	ecx, DWORD PTR _config$151618[ebp]
	jmp	??1?$config_reader_kernel_1@V?$map_kernel_1@V?$basic_string@DU?$char_traits@D@std@@V?$allocator@D@2@@std@@V12@V?$binary_search_tree_kernel_2@V?$basic_string@DU?$char_traits@D@std@@V?$allocator@D@2@@std@@V12@V?$memory_manager_stateless_kernel_1@D@dlib@@U?$less@V?$basic_string@DU?$char_traits@D@std@@V?$allocator@D@2@@std@@@2@@dlib@@V?$memory_manager_stateless_kernel_1@D@4@@dlib@@V?$map_kernel_1@V?$basic_string@DU?$char_traits@D@std@@V?$allocator@D@2@@std@@PAXV?$binary_search_tree_kernel_2@V?$basic_string@DU?$char_traits@D@std@@V?$allocator@D@2@@std@@PAXV?$memory_manager_stateless_kernel_1@D@dlib@@U?$less@V?$basic_string@DU?$char_traits@D@std@@V?$allocator@D@2@@std@@@2@@dlib@@V?$memory_manager_stateless_kernel_1@D@4@@2@Vtokenizer_kernel_1@2@@dlib@@UAE@XZ ; dlib::config_reader_kernel_1<dlib::map_kernel_1<std::basic_string<char,std::char_traits<char>,std::allocator<char> >,std::basic_string<char,std::char_traits<char>,std::allocator<char> >,dlib::binary_search_tree_kernel_2<std::basic_string<char,std::char_traits<char>,std::allocator<char> >,std::basic_string<char,std::char_traits<char>,std::allocator<char> >,dlib::memory_manager_stateless_kernel_1<char>,std::less<std::basic_string<char,std::char_traits<char>,std::allocator<char> > > >,dlib::memory_manager_stateless_kernel_1<char> >,dlib::map_kernel_1<std::basic_string<char,std::char_traits<char>,std::allocator<char> >,void *,dlib::binary_search_tree_kernel_2<std::basic_string<char,std::char_traits<char>,std::allocator<char> >,void *,dlib::memory_manager_stateless_kernel_1<char>,std::less<std::basic_string<char,std::char_traits<char>,std::allocator<char> > > >,dlib::memory_manager_stateless_kernel_1<char> >,dlib::tokenizer_kernel_1>::~config_reader_kernel_1<dlib::map_kernel_1<std::basic_string<char,std::char_traits<char>,std::allocator<char> >,std::basic_string<char,std::char_traits<char>,std::allocator<char> >,dlib::binary_search_tree_kernel_2<std::basic_string<char,std::char_traits<char>,std::allocator<char> >,std::basic_string<char,std::char_traits<char>,std::allocator<char> >,dlib::memory_manager_stateless_kernel_1<char>,std::less<std::basic_string<char,std::char_traits<char>,std::allocator<char> > > >,dlib::memory_manager_stateless_kernel_1<char> >,dlib::map_kernel_1<std::basic_string<char,std::char_traits<char>,std::allocator<char> >,void *,dlib::binary_search_tree_kernel_2<std::basic_string<char,std::char_traits<char>,std::allocator<char> >,void *,dlib::memory_manager_stateless_kernel_1<char>,std::less<std::basic_string<char,std::char_traits<char>,std::allocator<char> > > >,dlib::memory_manager_stateless_kernel_1<char> >,dlib::tokenizer_kernel_1>
__unwindfunclet$?sendMail@mail@@YA_NV?$basic_string@DU?$char_traits@D@std@@V?$allocator@D@2@@std@@00@Z$8:
	lea	ecx, DWORD PTR _tmpStr$151622[ebp]
	jmp	??1?$basic_string@DU?$char_traits@D@std@@V?$allocator@D@2@@std@@QAE@XZ ; std::basic_string<char,std::char_traits<char>,std::allocator<char> >::~basic_string<char,std::char_traits<char>,std::allocator<char> >
__unwindfunclet$?sendMail@mail@@YA_NV?$basic_string@DU?$char_traits@D@std@@V?$allocator@D@2@@std@@00@Z$9:
	lea	ecx, DWORD PTR $T151625[ebp]
	jmp	??1?$basic_string@DU?$char_traits@D@std@@V?$allocator@D@2@@std@@QAE@XZ ; std::basic_string<char,std::char_traits<char>,std::allocator<char> >::~basic_string<char,std::char_traits<char>,std::allocator<char> >
__unwindfunclet$?sendMail@mail@@YA_NV?$basic_string@DU?$char_traits@D@std@@V?$allocator@D@2@@std@@00@Z$10:
	lea	ecx, DWORD PTR $T151624[ebp]
	jmp	??1?$basic_string@DU?$char_traits@D@std@@V?$allocator@D@2@@std@@QAE@XZ ; std::basic_string<char,std::char_traits<char>,std::allocator<char> >::~basic_string<char,std::char_traits<char>,std::allocator<char> >
__unwindfunclet$?sendMail@mail@@YA_NV?$basic_string@DU?$char_traits@D@std@@V?$allocator@D@2@@std@@00@Z$11:
	lea	ecx, DWORD PTR _smtp_address$151623[ebp]
	jmp	??1?$basic_string@DU?$char_traits@D@std@@V?$allocator@D@2@@std@@QAE@XZ ; std::basic_string<char,std::char_traits<char>,std::allocator<char> >::~basic_string<char,std::char_traits<char>,std::allocator<char> >
__unwindfunclet$?sendMail@mail@@YA_NV?$basic_string@DU?$char_traits@D@std@@V?$allocator@D@2@@std@@00@Z$12:
	lea	ecx, DWORD PTR $T151634[ebp]
	jmp	??1?$basic_string@DU?$char_traits@D@std@@V?$allocator@D@2@@std@@QAE@XZ ; std::basic_string<char,std::char_traits<char>,std::allocator<char> >::~basic_string<char,std::char_traits<char>,std::allocator<char> >
__unwindfunclet$?sendMail@mail@@YA_NV?$basic_string@DU?$char_traits@D@std@@V?$allocator@D@2@@std@@00@Z$13:
	lea	ecx, DWORD PTR $T151633[ebp]
	jmp	??1?$basic_string@DU?$char_traits@D@std@@V?$allocator@D@2@@std@@QAE@XZ ; std::basic_string<char,std::char_traits<char>,std::allocator<char> >::~basic_string<char,std::char_traits<char>,std::allocator<char> >
__unwindfunclet$?sendMail@mail@@YA_NV?$basic_string@DU?$char_traits@D@std@@V?$allocator@D@2@@std@@00@Z$14:
	lea	ecx, DWORD PTR _con$151653[ebp]
	jmp	??1?$scoped_ptr@Vconnection@dlib@@U?$default_deleter@Vconnection@dlib@@@2@@dlib@@QAE@XZ ; dlib::scoped_ptr<dlib::connection,dlib::default_deleter<dlib::connection> >::~scoped_ptr<dlib::connection,dlib::default_deleter<dlib::connection> >
__unwindfunclet$?sendMail@mail@@YA_NV?$basic_string@DU?$char_traits@D@std@@V?$allocator@D@2@@std@@00@Z$15:
	lea	ecx, DWORD PTR $T151656[ebp]
	jmp	??1?$basic_string@DU?$char_traits@D@std@@V?$allocator@D@2@@std@@QAE@XZ ; std::basic_string<char,std::char_traits<char>,std::allocator<char> >::~basic_string<char,std::char_traits<char>,std::allocator<char> >
__unwindfunclet$?sendMail@mail@@YA_NV?$basic_string@DU?$char_traits@D@std@@V?$allocator@D@2@@std@@00@Z$18:
	lea	ecx, DWORD PTR $T151669[ebp]
	jmp	??1?$basic_string@DU?$char_traits@D@std@@V?$allocator@D@2@@std@@QAE@XZ ; std::basic_string<char,std::char_traits<char>,std::allocator<char> >::~basic_string<char,std::char_traits<char>,std::allocator<char> >
__unwindfunclet$?sendMail@mail@@YA_NV?$basic_string@DU?$char_traits@D@std@@V?$allocator@D@2@@std@@00@Z$20:
	lea	ecx, DWORD PTR $T151674[ebp]
	jmp	??1?$basic_string@DU?$char_traits@D@std@@V?$allocator@D@2@@std@@QAE@XZ ; std::basic_string<char,std::char_traits<char>,std::allocator<char> >::~basic_string<char,std::char_traits<char>,std::allocator<char> >
__unwindfunclet$?sendMail@mail@@YA_NV?$basic_string@DU?$char_traits@D@std@@V?$allocator@D@2@@std@@00@Z$21:
	lea	ecx, DWORD PTR $T151675[ebp]
	jmp	??1?$basic_string@DU?$char_traits@D@std@@V?$allocator@D@2@@std@@QAE@XZ ; std::basic_string<char,std::char_traits<char>,std::allocator<char> >::~basic_string<char,std::char_traits<char>,std::allocator<char> >
__unwindfunclet$?sendMail@mail@@YA_NV?$basic_string@DU?$char_traits@D@std@@V?$allocator@D@2@@std@@00@Z$23:
	lea	ecx, DWORD PTR $T151685[ebp]
	jmp	??1?$basic_string@DU?$char_traits@D@std@@V?$allocator@D@2@@std@@QAE@XZ ; std::basic_string<char,std::char_traits<char>,std::allocator<char> >::~basic_string<char,std::char_traits<char>,std::allocator<char> >
__unwindfunclet$?sendMail@mail@@YA_NV?$basic_string@DU?$char_traits@D@std@@V?$allocator@D@2@@std@@00@Z$25:
	lea	ecx, DWORD PTR $T151690[ebp]
	jmp	??1?$basic_string@DU?$char_traits@D@std@@V?$allocator@D@2@@std@@QAE@XZ ; std::basic_string<char,std::char_traits<char>,std::allocator<char> >::~basic_string<char,std::char_traits<char>,std::allocator<char> >
__unwindfunclet$?sendMail@mail@@YA_NV?$basic_string@DU?$char_traits@D@std@@V?$allocator@D@2@@std@@00@Z$26:
	lea	ecx, DWORD PTR $T151691[ebp]
	jmp	??1?$basic_string@DU?$char_traits@D@std@@V?$allocator@D@2@@std@@QAE@XZ ; std::basic_string<char,std::char_traits<char>,std::allocator<char> >::~basic_string<char,std::char_traits<char>,std::allocator<char> >
__unwindfunclet$?sendMail@mail@@YA_NV?$basic_string@DU?$char_traits@D@std@@V?$allocator@D@2@@std@@00@Z$27:
	lea	ecx, DWORD PTR $T151697[ebp]
	jmp	??1?$basic_string@DU?$char_traits@D@std@@V?$allocator@D@2@@std@@QAE@XZ ; std::basic_string<char,std::char_traits<char>,std::allocator<char> >::~basic_string<char,std::char_traits<char>,std::allocator<char> >
__unwindfunclet$?sendMail@mail@@YA_NV?$basic_string@DU?$char_traits@D@std@@V?$allocator@D@2@@std@@00@Z$29:
	lea	ecx, DWORD PTR $T151706[ebp]
	jmp	??1?$basic_string@DU?$char_traits@D@std@@V?$allocator@D@2@@std@@QAE@XZ ; std::basic_string<char,std::char_traits<char>,std::allocator<char> >::~basic_string<char,std::char_traits<char>,std::allocator<char> >
__unwindfunclet$?sendMail@mail@@YA_NV?$basic_string@DU?$char_traits@D@std@@V?$allocator@D@2@@std@@00@Z$31:
	lea	ecx, DWORD PTR $T151711[ebp]
	jmp	??1?$basic_string@DU?$char_traits@D@std@@V?$allocator@D@2@@std@@QAE@XZ ; std::basic_string<char,std::char_traits<char>,std::allocator<char> >::~basic_string<char,std::char_traits<char>,std::allocator<char> >
__unwindfunclet$?sendMail@mail@@YA_NV?$basic_string@DU?$char_traits@D@std@@V?$allocator@D@2@@std@@00@Z$32:
	lea	ecx, DWORD PTR $T151712[ebp]
	jmp	??1?$basic_string@DU?$char_traits@D@std@@V?$allocator@D@2@@std@@QAE@XZ ; std::basic_string<char,std::char_traits<char>,std::allocator<char> >::~basic_string<char,std::char_traits<char>,std::allocator<char> >
__unwindfunclet$?sendMail@mail@@YA_NV?$basic_string@DU?$char_traits@D@std@@V?$allocator@D@2@@std@@00@Z$33:
	lea	ecx, DWORD PTR $T151715[ebp]
	jmp	??1?$basic_string@DU?$char_traits@D@std@@V?$allocator@D@2@@std@@QAE@XZ ; std::basic_string<char,std::char_traits<char>,std::allocator<char> >::~basic_string<char,std::char_traits<char>,std::allocator<char> >
__unwindfunclet$?sendMail@mail@@YA_NV?$basic_string@DU?$char_traits@D@std@@V?$allocator@D@2@@std@@00@Z$34:
	lea	ecx, DWORD PTR $T151716[ebp]
	jmp	??1?$basic_string@DU?$char_traits@D@std@@V?$allocator@D@2@@std@@QAE@XZ ; std::basic_string<char,std::char_traits<char>,std::allocator<char> >::~basic_string<char,std::char_traits<char>,std::allocator<char> >
__unwindfunclet$?sendMail@mail@@YA_NV?$basic_string@DU?$char_traits@D@std@@V?$allocator@D@2@@std@@00@Z$35:
	lea	ecx, DWORD PTR $T151719[ebp]
	jmp	??1?$basic_string@DU?$char_traits@D@std@@V?$allocator@D@2@@std@@QAE@XZ ; std::basic_string<char,std::char_traits<char>,std::allocator<char> >::~basic_string<char,std::char_traits<char>,std::allocator<char> >
__unwindfunclet$?sendMail@mail@@YA_NV?$basic_string@DU?$char_traits@D@std@@V?$allocator@D@2@@std@@00@Z$36:
	lea	ecx, DWORD PTR $T151720[ebp]
	jmp	??1?$basic_string@DU?$char_traits@D@std@@V?$allocator@D@2@@std@@QAE@XZ ; std::basic_string<char,std::char_traits<char>,std::allocator<char> >::~basic_string<char,std::char_traits<char>,std::allocator<char> >
__unwindfunclet$?sendMail@mail@@YA_NV?$basic_string@DU?$char_traits@D@std@@V?$allocator@D@2@@std@@00@Z$37:
	lea	ecx, DWORD PTR $T151724[ebp]
	jmp	??1?$basic_string@DU?$char_traits@D@std@@V?$allocator@D@2@@std@@QAE@XZ ; std::basic_string<char,std::char_traits<char>,std::allocator<char> >::~basic_string<char,std::char_traits<char>,std::allocator<char> >
__unwindfunclet$?sendMail@mail@@YA_NV?$basic_string@DU?$char_traits@D@std@@V?$allocator@D@2@@std@@00@Z$38:
	lea	ecx, DWORD PTR $T151730[ebp]
	jmp	??1?$basic_string@DU?$char_traits@D@std@@V?$allocator@D@2@@std@@QAE@XZ ; std::basic_string<char,std::char_traits<char>,std::allocator<char> >::~basic_string<char,std::char_traits<char>,std::allocator<char> >
__unwindfunclet$?sendMail@mail@@YA_NV?$basic_string@DU?$char_traits@D@std@@V?$allocator@D@2@@std@@00@Z$40:
	lea	ecx, DWORD PTR $T151739[ebp]
	jmp	??1?$basic_string@DU?$char_traits@D@std@@V?$allocator@D@2@@std@@QAE@XZ ; std::basic_string<char,std::char_traits<char>,std::allocator<char> >::~basic_string<char,std::char_traits<char>,std::allocator<char> >
__ehhandler$?sendMail@mail@@YA_NV?$basic_string@DU?$char_traits@D@std@@V?$allocator@D@2@@std@@00@Z:
	mov	edx, DWORD PTR [esp+8]
	lea	eax, DWORD PTR [edx+12]
	mov	ecx, DWORD PTR [edx-1420]
	xor	ecx, eax
	call	@__security_check_cookie@4
	mov	ecx, DWORD PTR [edx-8]
	xor	ecx, eax
	call	@__security_check_cookie@4
	mov	eax, OFFSET __ehfuncinfo$?sendMail@mail@@YA_NV?$basic_string@DU?$char_traits@D@std@@V?$allocator@D@2@@std@@00@Z
	jmp	___CxxFrameHandler3
text$x	ENDS
?sendMail@mail@@YA_NV?$basic_string@DU?$char_traits@D@std@@V?$allocator@D@2@@std@@00@Z ENDP ; mail::sendMail
; Function compile flags: /Odtp
;	COMDAT ??__Esa@dlib@@YAXXZ
text$yc	SEGMENT
$T374864 = -1						; size = 1
??__Esa@dlib@@YAXXZ PROC				; dlib::`dynamic initializer for 'sa'', COMDAT
; File e:\library\dlib\dlib\string\string.h
; Line 488
	push	ebp
	mov	ebp, esp
	push	ecx
	xor	eax, eax
	mov	BYTE PTR $T374864[ebp], al
	mov	esp, ebp
	pop	ebp
	ret	0
??__Esa@dlib@@YAXXZ ENDP				; dlib::`dynamic initializer for 'sa''
_sa	DB	01H DUP (?)
_sa$initializer$ DD FLAT:??__Esa@dlib@@YAXXZ
END
