; Listing generated by Microsoft (R) Optimizing Compiler Version 16.00.40219.01 

	TITLE	C:\Work\daspirum\Source\src\main.cpp
	.686P
	.XMM
	include listing.inc
	.model	flat

INCLUDELIB OLDNAMES

PUBLIC	??_R4?$memory_manager_stateless_kernel_1@Unode@?$queue_kernel_2@Vfile@dlib@@$0BE@V?$memory_manager_stateless_kernel_1@D@2@@dlib@@@dlib@@6B@ ; dlib::memory_manager_stateless_kernel_1<dlib::queue_kernel_2<dlib::file,20,dlib::memory_manager_stateless_kernel_1<char> >::node>::`RTTI Complete Object Locator'
PUBLIC	??_R3?$memory_manager_stateless_kernel_1@Unode@?$queue_kernel_2@Vfile@dlib@@$0BE@V?$memory_manager_stateless_kernel_1@D@2@@dlib@@@dlib@@8 ; dlib::memory_manager_stateless_kernel_1<dlib::queue_kernel_2<dlib::file,20,dlib::memory_manager_stateless_kernel_1<char> >::node>::`RTTI Class Hierarchy Descriptor'
PUBLIC	??_R2?$memory_manager_stateless_kernel_1@Unode@?$queue_kernel_2@Vfile@dlib@@$0BE@V?$memory_manager_stateless_kernel_1@D@2@@dlib@@@dlib@@8 ; dlib::memory_manager_stateless_kernel_1<dlib::queue_kernel_2<dlib::file,20,dlib::memory_manager_stateless_kernel_1<char> >::node>::`RTTI Base Class Array'
PUBLIC	??_R1A@?0A@EA@?$memory_manager_stateless_kernel_1@Unode@?$queue_kernel_2@Vfile@dlib@@$0BE@V?$memory_manager_stateless_kernel_1@D@2@@dlib@@@dlib@@8 ; dlib::memory_manager_stateless_kernel_1<dlib::queue_kernel_2<dlib::file,20,dlib::memory_manager_stateless_kernel_1<char> >::node>::`RTTI Base Class Descriptor at (0,-1,0,64)'
PUBLIC	??_R0?AV?$memory_manager_stateless_kernel_1@Unode@?$queue_kernel_2@Vfile@dlib@@$0BE@V?$memory_manager_stateless_kernel_1@D@2@@dlib@@@dlib@@@8 ; dlib::memory_manager_stateless_kernel_1<dlib::queue_kernel_2<dlib::file,20,dlib::memory_manager_stateless_kernel_1<char> >::node> `RTTI Type Descriptor'
PUBLIC	??_R4?$remover@Vfile@dlib@@@dlib@@6B@		; dlib::remover<dlib::file>::`RTTI Complete Object Locator'
PUBLIC	??_R4?$enumerable@Vfile@dlib@@@dlib@@6B@	; dlib::enumerable<dlib::file>::`RTTI Complete Object Locator'
PUBLIC	??_R4?$queue_kernel_2@Vfile@dlib@@$0BE@V?$memory_manager_stateless_kernel_1@D@2@@dlib@@6B?$remover@Vfile@dlib@@@1@@ ; dlib::queue_kernel_2<dlib::file,20,dlib::memory_manager_stateless_kernel_1<char> >::`RTTI Complete Object Locator'
PUBLIC	??_R4?$queue_kernel_2@Vfile@dlib@@$0BE@V?$memory_manager_stateless_kernel_1@D@2@@dlib@@6B?$enumerable@Vfile@dlib@@@1@@ ; dlib::queue_kernel_2<dlib::file,20,dlib::memory_manager_stateless_kernel_1<char> >::`RTTI Complete Object Locator'
PUBLIC	??_R3?$queue_kernel_2@Vfile@dlib@@$0BE@V?$memory_manager_stateless_kernel_1@D@2@@dlib@@8 ; dlib::queue_kernel_2<dlib::file,20,dlib::memory_manager_stateless_kernel_1<char> >::`RTTI Class Hierarchy Descriptor'
PUBLIC	??_R2?$queue_kernel_2@Vfile@dlib@@$0BE@V?$memory_manager_stateless_kernel_1@D@2@@dlib@@8 ; dlib::queue_kernel_2<dlib::file,20,dlib::memory_manager_stateless_kernel_1<char> >::`RTTI Base Class Array'
PUBLIC	??_R13?0A@EA@?$remover@Vfile@dlib@@@dlib@@8	; dlib::remover<dlib::file>::`RTTI Base Class Descriptor at (4,-1,0,64)'
PUBLIC	??_R3?$remover@Vfile@dlib@@@dlib@@8		; dlib::remover<dlib::file>::`RTTI Class Hierarchy Descriptor'
PUBLIC	??_R2?$remover@Vfile@dlib@@@dlib@@8		; dlib::remover<dlib::file>::`RTTI Base Class Array'
PUBLIC	??_R1A@?0A@EA@?$remover@Vfile@dlib@@@dlib@@8	; dlib::remover<dlib::file>::`RTTI Base Class Descriptor at (0,-1,0,64)'
PUBLIC	??_R0?AV?$remover@Vfile@dlib@@@dlib@@@8		; dlib::remover<dlib::file> `RTTI Type Descriptor'
PUBLIC	??_R1A@?0A@EA@?$enumerable@Vfile@dlib@@@dlib@@8	; dlib::enumerable<dlib::file>::`RTTI Base Class Descriptor at (0,-1,0,64)'
PUBLIC	??_R3?$enumerable@Vfile@dlib@@@dlib@@8		; dlib::enumerable<dlib::file>::`RTTI Class Hierarchy Descriptor'
PUBLIC	??_R2?$enumerable@Vfile@dlib@@@dlib@@8		; dlib::enumerable<dlib::file>::`RTTI Base Class Array'
PUBLIC	??_R0?AV?$enumerable@Vfile@dlib@@@dlib@@@8	; dlib::enumerable<dlib::file> `RTTI Type Descriptor'
PUBLIC	??_R1A@?0A@EA@?$queue_kernel_2@Vfile@dlib@@$0BE@V?$memory_manager_stateless_kernel_1@D@2@@dlib@@8 ; dlib::queue_kernel_2<dlib::file,20,dlib::memory_manager_stateless_kernel_1<char> >::`RTTI Base Class Descriptor at (0,-1,0,64)'
PUBLIC	??_R0?AV?$queue_kernel_2@Vfile@dlib@@$0BE@V?$memory_manager_stateless_kernel_1@D@2@@dlib@@@8 ; dlib::queue_kernel_2<dlib::file,20,dlib::memory_manager_stateless_kernel_1<char> > `RTTI Type Descriptor'
PUBLIC	??0struct_gamestatus@@QAE@XZ			; struct_gamestatus::struct_gamestatus
PUBLIC	?_Inside@?$vector@PAUstruct_gamestatus@@V?$allocator@PAUstruct_gamestatus@@@std@@@std@@IBE_NPBQAUstruct_gamestatus@@@Z ; std::vector<struct_gamestatus *,std::allocator<struct_gamestatus *> >::_Inside
PUBLIC	??$_Allocate@PAUstruct_gamestatus@@@std@@YAPAPAUstruct_gamestatus@@IPAPAU1@@Z ; std::_Allocate<struct_gamestatus *>
PUBLIC	?allocate@?$allocator@PAUstruct_gamestatus@@@std@@QAEPAPAUstruct_gamestatus@@I@Z ; std::allocator<struct_gamestatus *>::allocate
PUBLIC	??$_Val_type@PAPAUstruct_gamestatus@@@std@@YAPAPAUstruct_gamestatus@@PAPAU1@@Z ; std::_Val_type<struct_gamestatus * *>
PUBLIC	??$_Uninit_move@PAUstruct_gamestatus@@PAU1@PAU1@@std@@YAPAPAUstruct_gamestatus@@PAPAU1@00AAV?$allocator@PAUstruct_gamestatus@@@0@0U_Scalar_ptr_iterator_tag@0@@Z ; std::_Uninit_move<struct_gamestatus *,struct_gamestatus *,struct_gamestatus *>
PUBLIC	??$_Uninitialized_move@PAPAUstruct_gamestatus@@PAPAU1@V?$allocator@PAUstruct_gamestatus@@@std@@@std@@YAPAPAUstruct_gamestatus@@PAPAU1@00AAV?$allocator@PAUstruct_gamestatus@@@0@@Z ; std::_Uninitialized_move<struct_gamestatus * *,struct_gamestatus * *,std::allocator<struct_gamestatus *> >
PUBLIC	??$_Umove@PAPAUstruct_gamestatus@@@?$vector@PAUstruct_gamestatus@@V?$allocator@PAUstruct_gamestatus@@@std@@@std@@IAEPAPAUstruct_gamestatus@@PAPAU2@00@Z ; std::vector<struct_gamestatus *,std::allocator<struct_gamestatus *> >::_Umove<struct_gamestatus * *>
PUBLIC	?reserve@?$vector@PAUstruct_gamestatus@@V?$allocator@PAUstruct_gamestatus@@@std@@@std@@QAEXI@Z ; std::vector<struct_gamestatus *,std::allocator<struct_gamestatus *> >::reserve
PUBLIC	?size@?$vector@PAUstruct_gamestatus@@V?$allocator@PAUstruct_gamestatus@@@std@@@std@@QBEIXZ ; std::vector<struct_gamestatus *,std::allocator<struct_gamestatus *> >::size
PUBLIC	?capacity@?$vector@PAUstruct_gamestatus@@V?$allocator@PAUstruct_gamestatus@@@std@@@std@@QBEIXZ ; std::vector<struct_gamestatus *,std::allocator<struct_gamestatus *> >::capacity
PUBLIC	?max_size@?$allocator@PAUstruct_gamestatus@@@std@@QBEIXZ ; std::allocator<struct_gamestatus *>::max_size
PUBLIC	?max_size@?$vector@PAUstruct_gamestatus@@V?$allocator@PAUstruct_gamestatus@@@std@@@std@@QBEIXZ ; std::vector<struct_gamestatus *,std::allocator<struct_gamestatus *> >::max_size
PUBLIC	?_Grow_to@?$vector@PAUstruct_gamestatus@@V?$allocator@PAUstruct_gamestatus@@@std@@@std@@IBEII@Z ; std::vector<struct_gamestatus *,std::allocator<struct_gamestatus *> >::_Grow_to
PUBLIC	?_Xlen@?$vector@PAUstruct_gamestatus@@V?$allocator@PAUstruct_gamestatus@@@std@@@std@@IBEXXZ ; std::vector<struct_gamestatus *,std::allocator<struct_gamestatus *> >::_Xlen
PUBLIC	?_Reserve@?$vector@PAUstruct_gamestatus@@V?$allocator@PAUstruct_gamestatus@@@std@@@std@@IAEXI@Z ; std::vector<struct_gamestatus *,std::allocator<struct_gamestatus *> >::_Reserve
PUBLIC	?_Orphan_range@?$vector@PAUstruct_gamestatus@@V?$allocator@PAUstruct_gamestatus@@@std@@@std@@IBEXPAPAUstruct_gamestatus@@0@Z ; std::vector<struct_gamestatus *,std::allocator<struct_gamestatus *> >::_Orphan_range
PUBLIC	??$addressof@QAUstruct_gamestatus@@@std@@YAPBQAUstruct_gamestatus@@ABQAU1@@Z ; std::addressof<struct_gamestatus * const>
PUBLIC	??$forward@AAPAUstruct_gamestatus@@@std@@YAAAPAUstruct_gamestatus@@AAPAU1@@Z ; std::forward<struct_gamestatus * &>
PUBLIC	??$construct@AAPAUstruct_gamestatus@@@?$allocator@PAUstruct_gamestatus@@@std@@QAEXPAPAUstruct_gamestatus@@AAPAU2@@Z ; std::allocator<struct_gamestatus *>::construct<struct_gamestatus * &>
PUBLIC	??$_Cons_val@V?$allocator@PAUstruct_gamestatus@@@std@@PAUstruct_gamestatus@@AAPAU3@@std@@YAXAAV?$allocator@PAUstruct_gamestatus@@@0@PAPAUstruct_gamestatus@@AAPAU2@@Z ; std::_Cons_val<std::allocator<struct_gamestatus *>,struct_gamestatus *,struct_gamestatus * &>
PUBLIC	??$_Construct@PAUstruct_gamestatus@@ABQAU1@@std@@YAXPAPAUstruct_gamestatus@@ABQAU1@@Z ; std::_Construct<struct_gamestatus *,struct_gamestatus * const &>
PUBLIC	?construct@?$allocator@PAUstruct_gamestatus@@@std@@QAEXPAPAUstruct_gamestatus@@ABQAU3@@Z ; std::allocator<struct_gamestatus *>::construct
PUBLIC	??$forward@ABQAUstruct_gamestatus@@@std@@YAABQAUstruct_gamestatus@@ABQAU1@@Z ; std::forward<struct_gamestatus * const &>
PUBLIC	??$_Cons_val@V?$allocator@PAUstruct_gamestatus@@@std@@PAUstruct_gamestatus@@ABQAU3@@std@@YAXAAV?$allocator@PAUstruct_gamestatus@@@0@PAPAUstruct_gamestatus@@ABQAU2@@Z ; std::_Cons_val<std::allocator<struct_gamestatus *>,struct_gamestatus *,struct_gamestatus * const &>
PUBLIC	?push_back@?$vector@PAUstruct_gamestatus@@V?$allocator@PAUstruct_gamestatus@@@std@@@std@@QAEXABQAUstruct_gamestatus@@@Z ; std::vector<struct_gamestatus *,std::allocator<struct_gamestatus *> >::push_back
PUBLIC	?name@file@dlib@@QBEABV?$basic_string@DU?$char_traits@D@std@@V?$allocator@D@2@@std@@XZ ; dlib::file::name
PUBLIC	??0directory@dlib@@QAE@PBD@Z			; dlib::directory::directory
PUBLIC	??0?$allocator@Vfile@dlib@@@std@@QAE@XZ		; std::allocator<dlib::file>::allocator<dlib::file>
PUBLIC	??0?$allocator@Vfile@dlib@@@std@@QAE@ABV01@@Z	; std::allocator<dlib::file>::allocator<dlib::file>
PUBLIC	??0?$_Vector_val@Vfile@dlib@@V?$allocator@Vfile@dlib@@@std@@@std@@QAE@V?$allocator@Vfile@dlib@@@1@@Z ; std::_Vector_val<dlib::file,std::allocator<dlib::file> >::_Vector_val<dlib::file,std::allocator<dlib::file> >
PUBLIC	??0?$vector@Vfile@dlib@@V?$allocator@Vfile@dlib@@@std@@@std@@QAE@XZ ; std::vector<dlib::file,std::allocator<dlib::file> >::vector<dlib::file,std::allocator<dlib::file> >
PUBLIC	??1?$_Vector_val@Vfile@dlib@@V?$allocator@Vfile@dlib@@@std@@@std@@QAE@XZ ; std::_Vector_val<dlib::file,std::allocator<dlib::file> >::~_Vector_val<dlib::file,std::allocator<dlib::file> >
PUBLIC	?_Tidy@?$vector@Vfile@dlib@@V?$allocator@Vfile@dlib@@@std@@@std@@IAEXXZ ; std::vector<dlib::file,std::allocator<dlib::file> >::_Tidy
PUBLIC	??1?$vector@Vfile@dlib@@V?$allocator@Vfile@dlib@@@std@@@std@@QAE@XZ ; std::vector<dlib::file,std::allocator<dlib::file> >::~vector<dlib::file,std::allocator<dlib::file> >
PUBLIC	??A?$vector@Vfile@dlib@@V?$allocator@Vfile@dlib@@@std@@@std@@QAEAAVfile@dlib@@I@Z ; std::vector<dlib::file,std::allocator<dlib::file> >::operator[]
PUBLIC	?_Inside@?$vector@Vfile@dlib@@V?$allocator@Vfile@dlib@@@std@@@std@@IBE_NPBVfile@dlib@@@Z ; std::vector<dlib::file,std::allocator<dlib::file> >::_Inside
PUBLIC	?deallocate@?$allocator@Vfile@dlib@@@std@@QAEXPAVfile@dlib@@I@Z ; std::allocator<dlib::file>::deallocate
PUBLIC	??$_Allocate@Vfile@dlib@@@std@@YAPAVfile@dlib@@IPAV12@@Z ; std::_Allocate<dlib::file>
PUBLIC	?allocate@?$allocator@Vfile@dlib@@@std@@QAEPAVfile@dlib@@I@Z ; std::allocator<dlib::file>::allocate
PUBLIC	??$_Val_type@PAVfile@dlib@@@std@@YAPAVfile@dlib@@PAV12@@Z ; std::_Val_type<dlib::file *>
PUBLIC	?construct@?$allocator@Vfile@dlib@@@std@@QAEXPAVfile@dlib@@$$QAV34@@Z ; std::allocator<dlib::file>::construct
PUBLIC	??$forward@Vfile@dlib@@@std@@YA$$QAVfile@dlib@@AAV12@@Z ; std::forward<dlib::file>
PUBLIC	??$_Cons_val@V?$allocator@Vfile@dlib@@@std@@Vfile@dlib@@V34@@std@@YAXAAV?$allocator@Vfile@dlib@@@0@PAVfile@dlib@@$$QAV23@@Z ; std::_Cons_val<std::allocator<dlib::file>,dlib::file,dlib::file>
PUBLIC	??$_Uninit_move@PAVfile@dlib@@PAV12@V?$allocator@Vfile@dlib@@@std@@V12@@std@@YAPAVfile@dlib@@PAV12@00AAV?$allocator@Vfile@dlib@@@0@0U_Nonscalar_ptr_iterator_tag@0@@Z ; std::_Uninit_move<dlib::file *,dlib::file *,std::allocator<dlib::file>,dlib::file>
PUBLIC	??$_Uninitialized_move@PAVfile@dlib@@PAV12@V?$allocator@Vfile@dlib@@@std@@@std@@YAPAVfile@dlib@@PAV12@00AAV?$allocator@Vfile@dlib@@@0@@Z ; std::_Uninitialized_move<dlib::file *,dlib::file *,std::allocator<dlib::file> >
PUBLIC	??$_Umove@PAVfile@dlib@@@?$vector@Vfile@dlib@@V?$allocator@Vfile@dlib@@@std@@@std@@IAEPAVfile@dlib@@PAV23@00@Z ; std::vector<dlib::file,std::allocator<dlib::file> >::_Umove<dlib::file *>
PUBLIC	?reserve@?$vector@Vfile@dlib@@V?$allocator@Vfile@dlib@@@std@@@std@@QAEXI@Z ; std::vector<dlib::file,std::allocator<dlib::file> >::reserve
PUBLIC	?size@?$vector@Vfile@dlib@@V?$allocator@Vfile@dlib@@@std@@@std@@QBEIXZ ; std::vector<dlib::file,std::allocator<dlib::file> >::size
PUBLIC	?capacity@?$vector@Vfile@dlib@@V?$allocator@Vfile@dlib@@@std@@@std@@QBEIXZ ; std::vector<dlib::file,std::allocator<dlib::file> >::capacity
PUBLIC	?max_size@?$allocator@Vfile@dlib@@@std@@QBEIXZ	; std::allocator<dlib::file>::max_size
PUBLIC	?max_size@?$vector@Vfile@dlib@@V?$allocator@Vfile@dlib@@@std@@@std@@QBEIXZ ; std::vector<dlib::file,std::allocator<dlib::file> >::max_size
PUBLIC	?_Grow_to@?$vector@Vfile@dlib@@V?$allocator@Vfile@dlib@@@std@@@std@@IBEII@Z ; std::vector<dlib::file,std::allocator<dlib::file> >::_Grow_to
PUBLIC	?_Xlen@?$vector@Vfile@dlib@@V?$allocator@Vfile@dlib@@@std@@@std@@IBEXXZ ; std::vector<dlib::file,std::allocator<dlib::file> >::_Xlen
PUBLIC	?_Reserve@?$vector@Vfile@dlib@@V?$allocator@Vfile@dlib@@@std@@@std@@IAEXI@Z ; std::vector<dlib::file,std::allocator<dlib::file> >::_Reserve
PUBLIC	?_Orphan_range@?$vector@Vfile@dlib@@V?$allocator@Vfile@dlib@@@std@@@std@@IBEXPAVfile@dlib@@0@Z ; std::vector<dlib::file,std::allocator<dlib::file> >::_Orphan_range
PUBLIC	??$addressof@$$CBVfile@dlib@@@std@@YAPBVfile@dlib@@ABV12@@Z ; std::addressof<dlib::file const >
PUBLIC	??$forward@AAVfile@dlib@@@std@@YAAAVfile@dlib@@AAV12@@Z ; std::forward<dlib::file &>
PUBLIC	??$construct@AAVfile@dlib@@@?$allocator@Vfile@dlib@@@std@@QAEXPAVfile@dlib@@AAV23@@Z ; std::allocator<dlib::file>::construct<dlib::file &>
PUBLIC	??$_Cons_val@V?$allocator@Vfile@dlib@@@std@@Vfile@dlib@@AAV34@@std@@YAXAAV?$allocator@Vfile@dlib@@@0@PAVfile@dlib@@AAV23@@Z ; std::_Cons_val<std::allocator<dlib::file>,dlib::file,dlib::file &>
PUBLIC	??0file@dlib@@QAE@ABV01@@Z			; dlib::file::file
PUBLIC	??$_Construct@Vfile@dlib@@ABV12@@std@@YAXPAVfile@dlib@@ABV12@@Z ; std::_Construct<dlib::file,dlib::file const &>
PUBLIC	?construct@?$allocator@Vfile@dlib@@@std@@QAEXPAVfile@dlib@@ABV34@@Z ; std::allocator<dlib::file>::construct
PUBLIC	??$forward@ABVfile@dlib@@@std@@YAABVfile@dlib@@ABV12@@Z ; std::forward<dlib::file const &>
PUBLIC	??$_Cons_val@V?$allocator@Vfile@dlib@@@std@@Vfile@dlib@@ABV34@@std@@YAXAAV?$allocator@Vfile@dlib@@@0@PAVfile@dlib@@ABV23@@Z ; std::_Cons_val<std::allocator<dlib::file>,dlib::file,dlib::file const &>
PUBLIC	?push_back@?$vector@Vfile@dlib@@V?$allocator@Vfile@dlib@@@std@@@std@@QAEXABVfile@dlib@@@Z ; std::vector<dlib::file,std::allocator<dlib::file> >::push_back
PUBLIC	?begin@?$vector@Vfile@dlib@@V?$allocator@Vfile@dlib@@@std@@@std@@QAE?AV?$_Vector_iterator@V?$_Vector_val@Vfile@dlib@@V?$allocator@Vfile@dlib@@@std@@@std@@@2@XZ ; std::vector<dlib::file,std::allocator<dlib::file> >::begin
PUBLIC	?end@?$vector@Vfile@dlib@@V?$allocator@Vfile@dlib@@@std@@@std@@QAE?AV?$_Vector_iterator@V?$_Vector_val@Vfile@dlib@@V?$allocator@Vfile@dlib@@@std@@@std@@@2@XZ ; std::vector<dlib::file,std::allocator<dlib::file> >::end
PUBLIC	??0?$_Vector_const_iterator@V?$_Vector_val@Vfile@dlib@@V?$allocator@Vfile@dlib@@@std@@@std@@@std@@QAE@PAVfile@dlib@@PBU_Container_base0@1@@Z ; std::_Vector_const_iterator<std::_Vector_val<dlib::file,std::allocator<dlib::file> > >::_Vector_const_iterator<std::_Vector_val<dlib::file,std::allocator<dlib::file> > >
PUBLIC	??0?$_Vector_iterator@V?$_Vector_val@Vfile@dlib@@V?$allocator@Vfile@dlib@@@std@@@std@@@std@@QAE@PAVfile@dlib@@PBU_Container_base0@1@@Z ; std::_Vector_iterator<std::_Vector_val<dlib::file,std::allocator<dlib::file> > >::_Vector_iterator<std::_Vector_val<dlib::file,std::allocator<dlib::file> > >
PUBLIC	?_Make_iter@?$vector@Vfile@dlib@@V?$allocator@Vfile@dlib@@@std@@@std@@QBE?AV?$_Vector_iterator@V?$_Vector_val@Vfile@dlib@@V?$allocator@Vfile@dlib@@@std@@@std@@@2@V?$_Vector_const_iterator@V?$_Vector_val@Vfile@dlib@@V?$allocator@Vfile@dlib@@@std@@@std@@@2@@Z ; std::vector<dlib::file,std::allocator<dlib::file> >::_Make_iter
PUBLIC	??_Gfile@dlib@@QAEPAXI@Z			; dlib::file::`scalar deleting destructor'
PUBLIC	??$_Destroy@Vfile@dlib@@@std@@YAXPAVfile@dlib@@@Z ; std::_Destroy<dlib::file>
PUBLIC	?destroy@?$allocator@Vfile@dlib@@@std@@QAEXPAVfile@dlib@@@Z ; std::allocator<dlib::file>::destroy
PUBLIC	??$_Dest_val@V?$allocator@Vfile@dlib@@@std@@Vfile@dlib@@@std@@YAXAAV?$allocator@Vfile@dlib@@@0@PAVfile@dlib@@@Z ; std::_Dest_val<std::allocator<dlib::file>,dlib::file>
PUBLIC	??$_Destroy_range@V?$allocator@Vfile@dlib@@@std@@@std@@YAXPAVfile@dlib@@0AAV?$allocator@Vfile@dlib@@@0@U_Nonscalar_ptr_iterator_tag@0@@Z ; std::_Destroy_range<std::allocator<dlib::file> >
PUBLIC	??$_Destroy_range@V?$allocator@Vfile@dlib@@@std@@@std@@YAXPAVfile@dlib@@0AAV?$allocator@Vfile@dlib@@@0@@Z ; std::_Destroy_range<std::allocator<dlib::file> >
PUBLIC	?_Destroy@?$vector@Vfile@dlib@@V?$allocator@Vfile@dlib@@@std@@@std@@IAEXPAVfile@dlib@@0@Z ; std::vector<dlib::file,std::allocator<dlib::file> >::_Destroy
PUBLIC	?_Compat@?$_Vector_const_iterator@V?$_Vector_val@Vfile@dlib@@V?$allocator@Vfile@dlib@@@std@@@std@@@std@@QBEXABV12@@Z ; std::_Vector_const_iterator<std::_Vector_val<dlib::file,std::allocator<dlib::file> > >::_Compat
PUBLIC	??8?$_Vector_const_iterator@V?$_Vector_val@Vfile@dlib@@V?$allocator@Vfile@dlib@@@std@@@std@@@std@@QBE_NABV01@@Z ; std::_Vector_const_iterator<std::_Vector_val<dlib::file,std::allocator<dlib::file> > >::operator==
PUBLIC	??9?$_Vector_const_iterator@V?$_Vector_val@Vfile@dlib@@V?$allocator@Vfile@dlib@@@std@@@std@@@std@@QBE_NABV01@@Z ; std::_Vector_const_iterator<std::_Vector_val<dlib::file,std::allocator<dlib::file> > >::operator!=
PUBLIC	??$_Ptr_cat@Vfile@dlib@@V12@@std@@YA?AU_Nonscalar_ptr_iterator_tag@0@PAVfile@dlib@@0@Z ; std::_Ptr_cat<dlib::file,dlib::file>
PUBLIC	??4file@dlib@@QAEAAV01@ABV01@@Z			; dlib::file::operator=
PUBLIC	??$move@AAVfile@dlib@@@std@@YA$$QAVfile@dlib@@AAV12@@Z ; std::move<dlib::file &>
PUBLIC	??$_Move@PAVfile@dlib@@PAV12@@std@@YAPAVfile@dlib@@PAV12@00U_Nonscalar_ptr_iterator_tag@0@@Z ; std::_Move<dlib::file *,dlib::file *>
PUBLIC	??$_Move@PAVfile@dlib@@PAV12@@std@@YAPAVfile@dlib@@PAV12@00@Z ; std::_Move<dlib::file *,dlib::file *>
PUBLIC	?erase@?$vector@Vfile@dlib@@V?$allocator@Vfile@dlib@@@std@@@std@@QAE?AV?$_Vector_iterator@V?$_Vector_val@Vfile@dlib@@V?$allocator@Vfile@dlib@@@std@@@std@@@2@V?$_Vector_const_iterator@V?$_Vector_val@Vfile@dlib@@V?$allocator@Vfile@dlib@@@std@@@std@@@2@0@Z ; std::vector<dlib::file,std::allocator<dlib::file> >::erase
PUBLIC	?clear@?$vector@Vfile@dlib@@V?$allocator@Vfile@dlib@@@std@@@std@@QAEXXZ ; std::vector<dlib::file,std::allocator<dlib::file> >::clear
PUBLIC	??0?$enumerable@Vfile@dlib@@@dlib@@QAE@XZ	; dlib::enumerable<dlib::file>::enumerable<dlib::file>
PUBLIC	??0?$remover@Vfile@dlib@@@dlib@@QAE@XZ		; dlib::remover<dlib::file>::remover<dlib::file>
PUBLIC	??0?$memory_manager_stateless_kernel_1@Unode@?$queue_kernel_2@Vfile@dlib@@$0BE@V?$memory_manager_stateless_kernel_1@D@2@@dlib@@@dlib@@QAE@XZ ; dlib::memory_manager_stateless_kernel_1<dlib::queue_kernel_2<dlib::file,20,dlib::memory_manager_stateless_kernel_1<char> >::node>::memory_manager_stateless_kernel_1<dlib::queue_kernel_2<dlib::file,20,dlib::memory_manager_stateless_kernel_1<char> >::node>
PUBLIC	??0?$queue_kernel_2@Vfile@dlib@@$0BE@V?$memory_manager_stateless_kernel_1@D@2@@dlib@@QAE@XZ ; dlib::queue_kernel_2<dlib::file,20,dlib::memory_manager_stateless_kernel_1<char> >::queue_kernel_2<dlib::file,20,dlib::memory_manager_stateless_kernel_1<char> >
PUBLIC	??1?$enumerable@Vfile@dlib@@@dlib@@UAE@XZ	; dlib::enumerable<dlib::file>::~enumerable<dlib::file>
PUBLIC	??_G?$remover@Vfile@dlib@@@dlib@@UAEPAXI@Z	; dlib::remover<dlib::file>::`scalar deleting destructor'
PUBLIC	??1?$remover@Vfile@dlib@@@dlib@@UAE@XZ		; dlib::remover<dlib::file>::~remover<dlib::file>
PUBLIC	??_G?$memory_manager_stateless_kernel_1@Unode@?$queue_kernel_2@Vfile@dlib@@$0BE@V?$memory_manager_stateless_kernel_1@D@2@@dlib@@@dlib@@UAEPAXI@Z ; dlib::memory_manager_stateless_kernel_1<dlib::queue_kernel_2<dlib::file,20,dlib::memory_manager_stateless_kernel_1<char> >::node>::`scalar deleting destructor'
PUBLIC	??1?$memory_manager_stateless_kernel_1@Unode@?$queue_kernel_2@Vfile@dlib@@$0BE@V?$memory_manager_stateless_kernel_1@D@2@@dlib@@@dlib@@UAE@XZ ; dlib::memory_manager_stateless_kernel_1<dlib::queue_kernel_2<dlib::file,20,dlib::memory_manager_stateless_kernel_1<char> >::node>::~memory_manager_stateless_kernel_1<dlib::queue_kernel_2<dlib::file,20,dlib::memory_manager_stateless_kernel_1<char> >::node>
PUBLIC	?at_start@?$queue_kernel_2@Vfile@dlib@@$0BE@V?$memory_manager_stateless_kernel_1@D@2@@dlib@@UBE_NXZ ; dlib::queue_kernel_2<dlib::file,20,dlib::memory_manager_stateless_kernel_1<char> >::at_start
PUBLIC	?current_element_valid@?$queue_kernel_2@Vfile@dlib@@$0BE@V?$memory_manager_stateless_kernel_1@D@2@@dlib@@UBE_NXZ ; dlib::queue_kernel_2<dlib::file,20,dlib::memory_manager_stateless_kernel_1<char> >::current_element_valid
PUBLIC	?element@?$queue_kernel_2@Vfile@dlib@@$0BE@V?$memory_manager_stateless_kernel_1@D@2@@dlib@@UBEABVfile@2@XZ ; dlib::queue_kernel_2<dlib::file,20,dlib::memory_manager_stateless_kernel_1<char> >::element
PUBLIC	?dequeue@?$queue_kernel_2@Vfile@dlib@@$0BE@V?$memory_manager_stateless_kernel_1@D@2@@dlib@@QAEXAAVfile@2@@Z ; dlib::queue_kernel_2<dlib::file,20,dlib::memory_manager_stateless_kernel_1<char> >::dequeue
PUBLIC	?remove_any@?$queue_kernel_2@Vfile@dlib@@$0BE@V?$memory_manager_stateless_kernel_1@D@2@@dlib@@UAEXAAVfile@2@@Z ; dlib::queue_kernel_2<dlib::file,20,dlib::memory_manager_stateless_kernel_1<char> >::remove_any
PUBLIC	??_G?$queue_kernel_2@Vfile@dlib@@$0BE@V?$memory_manager_stateless_kernel_1@D@2@@dlib@@UAEPAXI@Z ; dlib::queue_kernel_2<dlib::file,20,dlib::memory_manager_stateless_kernel_1<char> >::`scalar deleting destructor'
PUBLIC	??_E?$queue_kernel_2@Vfile@dlib@@$0BE@V?$memory_manager_stateless_kernel_1@D@2@@dlib@@W3AEPAXI@Z ; [thunk]:dlib::queue_kernel_2<dlib::file,20,dlib::memory_manager_stateless_kernel_1<char> >::`vector deleting destructor'
PUBLIC	?size@?$queue_kernel_2@Vfile@dlib@@$0BE@V?$memory_manager_stateless_kernel_1@D@2@@dlib@@UBEKXZ ; dlib::queue_kernel_2<dlib::file,20,dlib::memory_manager_stateless_kernel_1<char> >::size
PUBLIC	?size@?$queue_kernel_2@Vfile@dlib@@$0BE@V?$memory_manager_stateless_kernel_1@D@2@@dlib@@W3BEKXZ ; [thunk]:dlib::queue_kernel_2<dlib::file,20,dlib::memory_manager_stateless_kernel_1<char> >::size`adjustor{4}'
PUBLIC	??1?$queue_kernel_2@Vfile@dlib@@$0BE@V?$memory_manager_stateless_kernel_1@D@2@@dlib@@UAE@XZ ; dlib::queue_kernel_2<dlib::file,20,dlib::memory_manager_stateless_kernel_1<char> >::~queue_kernel_2<dlib::file,20,dlib::memory_manager_stateless_kernel_1<char> >
PUBLIC	?reset@?$queue_kernel_2@Vfile@dlib@@$0BE@V?$memory_manager_stateless_kernel_1@D@2@@dlib@@UBEXXZ ; dlib::queue_kernel_2<dlib::file,20,dlib::memory_manager_stateless_kernel_1<char> >::reset
PUBLIC	?element@?$queue_kernel_2@Vfile@dlib@@$0BE@V?$memory_manager_stateless_kernel_1@D@2@@dlib@@UAEAAVfile@2@XZ ; dlib::queue_kernel_2<dlib::file,20,dlib::memory_manager_stateless_kernel_1<char> >::element
PUBLIC	?move_next@?$queue_kernel_2@Vfile@dlib@@$0BE@V?$memory_manager_stateless_kernel_1@D@2@@dlib@@UBE_NXZ ; dlib::queue_kernel_2<dlib::file,20,dlib::memory_manager_stateless_kernel_1<char> >::move_next
PUBLIC	??0file@dlib@@QAE@ABV?$basic_string@DU?$char_traits@D@std@@V?$allocator@D@2@@std@@0_KUprivate_constructor@01@@Z ; dlib::file::file
PUBLIC	??1node@?$queue_kernel_2@Vfile@dlib@@$0BE@V?$memory_manager_stateless_kernel_1@D@2@@dlib@@QAE@XZ ; dlib::queue_kernel_2<dlib::file,20,dlib::memory_manager_stateless_kernel_1<char> >::node::~node
PUBLIC	??_Gnode@?$queue_kernel_2@Vfile@dlib@@$0BE@V?$memory_manager_stateless_kernel_1@D@2@@dlib@@QAEPAXI@Z ; dlib::queue_kernel_2<dlib::file,20,dlib::memory_manager_stateless_kernel_1<char> >::node::`scalar deleting destructor'
PUBLIC	?deallocate@?$memory_manager_stateless_kernel_1@Unode@?$queue_kernel_2@Vfile@dlib@@$0BE@V?$memory_manager_stateless_kernel_1@D@2@@dlib@@@dlib@@QAEXPAUnode@?$queue_kernel_2@Vfile@dlib@@$0BE@V?$memory_manager_stateless_kernel_1@D@2@@2@@Z ; dlib::memory_manager_stateless_kernel_1<dlib::queue_kernel_2<dlib::file,20,dlib::memory_manager_stateless_kernel_1<char> >::node>::deallocate
PUBLIC	?delete_nodes@?$queue_kernel_2@Vfile@dlib@@$0BE@V?$memory_manager_stateless_kernel_1@D@2@@dlib@@AAEXPAUnode@12@0@Z ; dlib::queue_kernel_2<dlib::file,20,dlib::memory_manager_stateless_kernel_1<char> >::delete_nodes
PUBLIC	?clear@?$queue_kernel_2@Vfile@dlib@@$0BE@V?$memory_manager_stateless_kernel_1@D@2@@dlib@@QAEXXZ ; dlib::queue_kernel_2<dlib::file,20,dlib::memory_manager_stateless_kernel_1<char> >::clear
PUBLIC	??0file@dlib@@QAE@XZ				; dlib::file::file
PUBLIC	??0node@?$queue_kernel_2@Vfile@dlib@@$0BE@V?$memory_manager_stateless_kernel_1@D@2@@dlib@@QAE@XZ ; dlib::queue_kernel_2<dlib::file,20,dlib::memory_manager_stateless_kernel_1<char> >::node::node
PUBLIC	?allocate@?$memory_manager_stateless_kernel_1@Unode@?$queue_kernel_2@Vfile@dlib@@$0BE@V?$memory_manager_stateless_kernel_1@D@2@@dlib@@@dlib@@QAEPAUnode@?$queue_kernel_2@Vfile@dlib@@$0BE@V?$memory_manager_stateless_kernel_1@D@2@@2@XZ ; dlib::memory_manager_stateless_kernel_1<dlib::queue_kernel_2<dlib::file,20,dlib::memory_manager_stateless_kernel_1<char> >::node>::allocate
PUBLIC	??0data@file@dlib@@QAE@ABU012@@Z		; dlib::file::data::data
PUBLIC	??4data@file@dlib@@QAEAAU012@ABU012@@Z		; dlib::file::data::operator=
PUBLIC	??$_Move@AAUdata@file@dlib@@@std@@YA$$QAUdata@file@dlib@@AAU123@@Z ; std::_Move<dlib::file::data &>
PUBLIC	??$swap@Udata@file@dlib@@@std@@YAXAAUdata@file@dlib@@0@Z ; std::swap<dlib::file::data>
PUBLIC	??$exchange@Udata@file@dlib@@@dlib@@YAXAAUdata@file@0@0@Z ; dlib::exchange<dlib::file::data>
PUBLIC	?swap@file@dlib@@QAEXAAV12@@Z			; dlib::file::swap
PUBLIC	?swap@dlib@@YAXAAVfile@1@0@Z			; dlib::swap
PUBLIC	??$exchange@Vfile@dlib@@@dlib@@YAXAAVfile@0@0@Z	; dlib::exchange<dlib::file>
PUBLIC	?enqueue@?$queue_kernel_2@Vfile@dlib@@$0BE@V?$memory_manager_stateless_kernel_1@D@2@@dlib@@QAEXAAVfile@2@@Z ; dlib::queue_kernel_2<dlib::file,20,dlib::memory_manager_stateless_kernel_1<char> >::enqueue
PUBLIC	??$directory_helper_get_files@V?$queue_kernel_2@Vfile@dlib@@$0BE@V?$memory_manager_stateless_kernel_1@D@2@@dlib@@@dlib@@YAXABUdata@directory@0@AAV?$queue_kernel_2@Vfile@dlib@@$0BE@V?$memory_manager_stateless_kernel_1@D@2@@0@@Z ; dlib::directory_helper_get_files<dlib::queue_kernel_2<dlib::file,20,dlib::memory_manager_stateless_kernel_1<char> > >
PUBLIC	??$directory_helper_get_files@V?$vector@Vfile@dlib@@V?$allocator@Vfile@dlib@@@std@@@std@@@dlib@@YAXABUdata@directory@0@AAV?$vector@Vfile@dlib@@V?$allocator@Vfile@dlib@@@std@@@std@@@Z ; dlib::directory_helper_get_files<std::vector<dlib::file,std::allocator<dlib::file> > >
PUBLIC	??$get_files@V?$vector@Vfile@dlib@@V?$allocator@Vfile@dlib@@@std@@@std@@@directory@dlib@@QBEXAAV?$vector@Vfile@dlib@@V?$allocator@Vfile@dlib@@@std@@@std@@@Z ; dlib::directory::get_files<std::vector<dlib::file,std::allocator<dlib::file> > >
PUBLIC	??$cast_to_string@F@dlib@@YA?BV?$basic_string@DU?$char_traits@D@std@@V?$allocator@D@2@@std@@ABF@Z ; dlib::cast_to_string<short>
PUBLIC	??$?HDU?$char_traits@D@std@@V?$allocator@D@1@@std@@YA?AV?$basic_string@DU?$char_traits@D@std@@V?$allocator@D@2@@0@DABV10@@Z ; std::operator+<char,std::char_traits<char>,std::allocator<char> >
PUBLIC	??$?HDU?$char_traits@D@std@@V?$allocator@D@1@@std@@YA?AV?$basic_string@DU?$char_traits@D@std@@V?$allocator@D@2@@0@ABV10@D@Z ; std::operator+<char,std::char_traits<char>,std::allocator<char> >
PUBLIC	??_Ggame@Battlefield@@QAEPAXI@Z			; Battlefield::game::`scalar deleting destructor'
PUBLIC	??0?$allocator@PAUstruct_gamestatus@@@std@@QAE@XZ ; std::allocator<struct_gamestatus *>::allocator<struct_gamestatus *>
PUBLIC	??0?$allocator@PAUstruct_gamestatus@@@std@@QAE@ABV01@@Z ; std::allocator<struct_gamestatus *>::allocator<struct_gamestatus *>
PUBLIC	??0?$_Vector_val@PAUstruct_gamestatus@@V?$allocator@PAUstruct_gamestatus@@@std@@@std@@QAE@V?$allocator@PAUstruct_gamestatus@@@1@@Z ; std::_Vector_val<struct_gamestatus *,std::allocator<struct_gamestatus *> >::_Vector_val<struct_gamestatus *,std::allocator<struct_gamestatus *> >
PUBLIC	??0?$vector@PAUstruct_gamestatus@@V?$allocator@PAUstruct_gamestatus@@@std@@@std@@QAE@XZ ; std::vector<struct_gamestatus *,std::allocator<struct_gamestatus *> >::vector<struct_gamestatus *,std::allocator<struct_gamestatus *> >
PUBLIC	??1?$_Vector_val@PAUstruct_gamestatus@@V?$allocator@PAUstruct_gamestatus@@@std@@@std@@QAE@XZ ; std::_Vector_val<struct_gamestatus *,std::allocator<struct_gamestatus *> >::~_Vector_val<struct_gamestatus *,std::allocator<struct_gamestatus *> >
PUBLIC	?deallocate@?$allocator@PAUstruct_gamestatus@@@std@@QAEXPAPAUstruct_gamestatus@@I@Z ; std::allocator<struct_gamestatus *>::deallocate
PUBLIC	??$_Ptr_cat@PAUstruct_gamestatus@@PAU1@@std@@YA?AU_Scalar_ptr_iterator_tag@0@PAPAUstruct_gamestatus@@0@Z ; std::_Ptr_cat<struct_gamestatus *,struct_gamestatus *>
PUBLIC	??$_Destroy_range@V?$allocator@PAUstruct_gamestatus@@@std@@@std@@YAXPAPAUstruct_gamestatus@@0AAV?$allocator@PAUstruct_gamestatus@@@0@U_Scalar_ptr_iterator_tag@0@@Z ; std::_Destroy_range<std::allocator<struct_gamestatus *> >
PUBLIC	??$_Destroy_range@V?$allocator@PAUstruct_gamestatus@@@std@@@std@@YAXPAPAUstruct_gamestatus@@0AAV?$allocator@PAUstruct_gamestatus@@@0@@Z ; std::_Destroy_range<std::allocator<struct_gamestatus *> >
PUBLIC	?_Destroy@?$vector@PAUstruct_gamestatus@@V?$allocator@PAUstruct_gamestatus@@@std@@@std@@IAEXPAPAUstruct_gamestatus@@0@Z ; std::vector<struct_gamestatus *,std::allocator<struct_gamestatus *> >::_Destroy
PUBLIC	?_Tidy@?$vector@PAUstruct_gamestatus@@V?$allocator@PAUstruct_gamestatus@@@std@@@std@@IAEXXZ ; std::vector<struct_gamestatus *,std::allocator<struct_gamestatus *> >::_Tidy
PUBLIC	??1?$vector@PAUstruct_gamestatus@@V?$allocator@PAUstruct_gamestatus@@@std@@@std@@QAE@XZ ; std::vector<struct_gamestatus *,std::allocator<struct_gamestatus *> >::~vector<struct_gamestatus *,std::allocator<struct_gamestatus *> >
PUBLIC	?bAlive@@3_NA					; bAlive
PUBLIC	??_7?$queue_kernel_2@Vfile@dlib@@$0BE@V?$memory_manager_stateless_kernel_1@D@2@@dlib@@6B?$enumerable@Vfile@dlib@@@1@@ ; dlib::queue_kernel_2<dlib::file,20,dlib::memory_manager_stateless_kernel_1<char> >::`vftable'
PUBLIC	??_7?$queue_kernel_2@Vfile@dlib@@$0BE@V?$memory_manager_stateless_kernel_1@D@2@@dlib@@6B?$remover@Vfile@dlib@@@1@@ ; dlib::queue_kernel_2<dlib::file,20,dlib::memory_manager_stateless_kernel_1<char> >::`vftable'
PUBLIC	??_7?$enumerable@Vfile@dlib@@@dlib@@6B@		; dlib::enumerable<dlib::file>::`vftable'
PUBLIC	??_7?$remover@Vfile@dlib@@@dlib@@6B@		; dlib::remover<dlib::file>::`vftable'
PUBLIC	??_7?$memory_manager_stateless_kernel_1@Unode@?$queue_kernel_2@Vfile@dlib@@$0BE@V?$memory_manager_stateless_kernel_1@D@2@@dlib@@@dlib@@6B@ ; dlib::memory_manager_stateless_kernel_1<dlib::queue_kernel_2<dlib::file,20,dlib::memory_manager_stateless_kernel_1<char> >::node>::`vftable'
EXTRN	__imp__SetConsoleTitleW@4:PROC
EXTRN	??_E?$remover@Vfile@dlib@@@dlib@@UAEPAXI@Z:PROC	; dlib::remover<dlib::file>::`vector deleting destructor'
EXTRN	??_E?$memory_manager_stateless_kernel_1@Unode@?$queue_kernel_2@Vfile@dlib@@$0BE@V?$memory_manager_stateless_kernel_1@D@2@@dlib@@@dlib@@UAEPAXI@Z:PROC ; dlib::memory_manager_stateless_kernel_1<dlib::queue_kernel_2<dlib::file,20,dlib::memory_manager_stateless_kernel_1<char> >::node>::`vector deleting destructor'
EXTRN	??_E?$queue_kernel_2@Vfile@dlib@@$0BE@V?$memory_manager_stateless_kernel_1@D@2@@dlib@@UAEPAXI@Z:PROC ; dlib::queue_kernel_2<dlib::file,20,dlib::memory_manager_stateless_kernel_1<char> >::`vector deleting destructor'
EXTRN	__imp__exit:PROC
EXTRN	__imp_?getline@?$basic_istream@DU?$char_traits@D@std@@@std@@QAEAAV12@PAD_J@Z:PROC
EXTRN	__imp_?cin@std@@3V?$basic_istream@DU?$char_traits@D@std@@@1@A:BYTE
EXTRN	__imp_??6?$basic_ostream@DU?$char_traits@D@std@@@std@@QAEAAV01@F@Z:PROC
EXTRN	__imp__clock:PROC
;	COMDAT ??_7?$memory_manager_stateless_kernel_1@Unode@?$queue_kernel_2@Vfile@dlib@@$0BE@V?$memory_manager_stateless_kernel_1@D@2@@dlib@@@dlib@@6B@
CONST	SEGMENT
??_7?$memory_manager_stateless_kernel_1@Unode@?$queue_kernel_2@Vfile@dlib@@$0BE@V?$memory_manager_stateless_kernel_1@D@2@@dlib@@@dlib@@6B@ DD FLAT:??_R4?$memory_manager_stateless_kernel_1@Unode@?$queue_kernel_2@Vfile@dlib@@$0BE@V?$memory_manager_stateless_kernel_1@D@2@@dlib@@@dlib@@6B@ ; dlib::memory_manager_stateless_kernel_1<dlib::queue_kernel_2<dlib::file,20,dlib::memory_manager_stateless_kernel_1<char> >::node>::`vftable'
	DD	FLAT:??_E?$memory_manager_stateless_kernel_1@Unode@?$queue_kernel_2@Vfile@dlib@@$0BE@V?$memory_manager_stateless_kernel_1@D@2@@dlib@@@dlib@@UAEPAXI@Z
CONST	ENDS
;	COMDAT ??_R4?$memory_manager_stateless_kernel_1@Unode@?$queue_kernel_2@Vfile@dlib@@$0BE@V?$memory_manager_stateless_kernel_1@D@2@@dlib@@@dlib@@6B@
rdata$r	SEGMENT
??_R4?$memory_manager_stateless_kernel_1@Unode@?$queue_kernel_2@Vfile@dlib@@$0BE@V?$memory_manager_stateless_kernel_1@D@2@@dlib@@@dlib@@6B@ DD 00H ; dlib::memory_manager_stateless_kernel_1<dlib::queue_kernel_2<dlib::file,20,dlib::memory_manager_stateless_kernel_1<char> >::node>::`RTTI Complete Object Locator'
	DD	00H
	DD	00H
	DD	FLAT:??_R0?AV?$memory_manager_stateless_kernel_1@Unode@?$queue_kernel_2@Vfile@dlib@@$0BE@V?$memory_manager_stateless_kernel_1@D@2@@dlib@@@dlib@@@8
	DD	FLAT:??_R3?$memory_manager_stateless_kernel_1@Unode@?$queue_kernel_2@Vfile@dlib@@$0BE@V?$memory_manager_stateless_kernel_1@D@2@@dlib@@@dlib@@8
rdata$r	ENDS
;	COMDAT ??_R3?$memory_manager_stateless_kernel_1@Unode@?$queue_kernel_2@Vfile@dlib@@$0BE@V?$memory_manager_stateless_kernel_1@D@2@@dlib@@@dlib@@8
rdata$r	SEGMENT
??_R3?$memory_manager_stateless_kernel_1@Unode@?$queue_kernel_2@Vfile@dlib@@$0BE@V?$memory_manager_stateless_kernel_1@D@2@@dlib@@@dlib@@8 DD 00H ; dlib::memory_manager_stateless_kernel_1<dlib::queue_kernel_2<dlib::file,20,dlib::memory_manager_stateless_kernel_1<char> >::node>::`RTTI Class Hierarchy Descriptor'
	DD	00H
	DD	01H
	DD	FLAT:??_R2?$memory_manager_stateless_kernel_1@Unode@?$queue_kernel_2@Vfile@dlib@@$0BE@V?$memory_manager_stateless_kernel_1@D@2@@dlib@@@dlib@@8
rdata$r	ENDS
;	COMDAT ??_R2?$memory_manager_stateless_kernel_1@Unode@?$queue_kernel_2@Vfile@dlib@@$0BE@V?$memory_manager_stateless_kernel_1@D@2@@dlib@@@dlib@@8
rdata$r	SEGMENT
??_R2?$memory_manager_stateless_kernel_1@Unode@?$queue_kernel_2@Vfile@dlib@@$0BE@V?$memory_manager_stateless_kernel_1@D@2@@dlib@@@dlib@@8 DD FLAT:??_R1A@?0A@EA@?$memory_manager_stateless_kernel_1@Unode@?$queue_kernel_2@Vfile@dlib@@$0BE@V?$memory_manager_stateless_kernel_1@D@2@@dlib@@@dlib@@8 ; dlib::memory_manager_stateless_kernel_1<dlib::queue_kernel_2<dlib::file,20,dlib::memory_manager_stateless_kernel_1<char> >::node>::`RTTI Base Class Array'
rdata$r	ENDS
;	COMDAT ??_R1A@?0A@EA@?$memory_manager_stateless_kernel_1@Unode@?$queue_kernel_2@Vfile@dlib@@$0BE@V?$memory_manager_stateless_kernel_1@D@2@@dlib@@@dlib@@8
rdata$r	SEGMENT
??_R1A@?0A@EA@?$memory_manager_stateless_kernel_1@Unode@?$queue_kernel_2@Vfile@dlib@@$0BE@V?$memory_manager_stateless_kernel_1@D@2@@dlib@@@dlib@@8 DD FLAT:??_R0?AV?$memory_manager_stateless_kernel_1@Unode@?$queue_kernel_2@Vfile@dlib@@$0BE@V?$memory_manager_stateless_kernel_1@D@2@@dlib@@@dlib@@@8 ; dlib::memory_manager_stateless_kernel_1<dlib::queue_kernel_2<dlib::file,20,dlib::memory_manager_stateless_kernel_1<char> >::node>::`RTTI Base Class Descriptor at (0,-1,0,64)'
	DD	00H
	DD	00H
	DD	0ffffffffH
	DD	00H
	DD	040H
	DD	FLAT:??_R3?$memory_manager_stateless_kernel_1@Unode@?$queue_kernel_2@Vfile@dlib@@$0BE@V?$memory_manager_stateless_kernel_1@D@2@@dlib@@@dlib@@8
rdata$r	ENDS
;	COMDAT ??_R0?AV?$memory_manager_stateless_kernel_1@Unode@?$queue_kernel_2@Vfile@dlib@@$0BE@V?$memory_manager_stateless_kernel_1@D@2@@dlib@@@dlib@@@8
_DATA	SEGMENT
??_R0?AV?$memory_manager_stateless_kernel_1@Unode@?$queue_kernel_2@Vfile@dlib@@$0BE@V?$memory_manager_stateless_kernel_1@D@2@@dlib@@@dlib@@@8 DD FLAT:??_7type_info@@6B@ ; dlib::memory_manager_stateless_kernel_1<dlib::queue_kernel_2<dlib::file,20,dlib::memory_manager_stateless_kernel_1<char> >::node> `RTTI Type Descriptor'
	DD	00H
	DB	'.?AV?$memory_manager_stateless_kernel_1@Unode@?$queue_ke'
	DB	'rnel_2@Vfile@dlib@@$0BE@V?$memory_manager_stateless_kernel_1@'
	DB	'D@2@@dlib@@@dlib@@', 00H
_DATA	ENDS
;	COMDAT ??_7?$remover@Vfile@dlib@@@dlib@@6B@
CONST	SEGMENT
??_7?$remover@Vfile@dlib@@@dlib@@6B@ DD FLAT:??_R4?$remover@Vfile@dlib@@@dlib@@6B@ ; dlib::remover<dlib::file>::`vftable'
	DD	FLAT:??_E?$remover@Vfile@dlib@@@dlib@@UAEPAXI@Z
	DD	FLAT:__purecall
	DD	FLAT:__purecall
CONST	ENDS
;	COMDAT ??_R4?$remover@Vfile@dlib@@@dlib@@6B@
rdata$r	SEGMENT
??_R4?$remover@Vfile@dlib@@@dlib@@6B@ DD 00H		; dlib::remover<dlib::file>::`RTTI Complete Object Locator'
	DD	00H
	DD	00H
	DD	FLAT:??_R0?AV?$remover@Vfile@dlib@@@dlib@@@8
	DD	FLAT:??_R3?$remover@Vfile@dlib@@@dlib@@8
rdata$r	ENDS
;	COMDAT ??_7?$enumerable@Vfile@dlib@@@dlib@@6B@
CONST	SEGMENT
??_7?$enumerable@Vfile@dlib@@@dlib@@6B@ DD FLAT:??_R4?$enumerable@Vfile@dlib@@@dlib@@6B@ ; dlib::enumerable<dlib::file>::`vftable'
	DD	FLAT:__purecall
	DD	FLAT:__purecall
	DD	FLAT:__purecall
	DD	FLAT:__purecall
	DD	FLAT:__purecall
	DD	FLAT:__purecall
	DD	FLAT:__purecall
	DD	FLAT:__purecall
CONST	ENDS
;	COMDAT ??_R4?$enumerable@Vfile@dlib@@@dlib@@6B@
rdata$r	SEGMENT
??_R4?$enumerable@Vfile@dlib@@@dlib@@6B@ DD 00H		; dlib::enumerable<dlib::file>::`RTTI Complete Object Locator'
	DD	00H
	DD	00H
	DD	FLAT:??_R0?AV?$enumerable@Vfile@dlib@@@dlib@@@8
	DD	FLAT:??_R3?$enumerable@Vfile@dlib@@@dlib@@8
rdata$r	ENDS
;	COMDAT ??_7?$queue_kernel_2@Vfile@dlib@@$0BE@V?$memory_manager_stateless_kernel_1@D@2@@dlib@@6B?$remover@Vfile@dlib@@@1@@
CONST	SEGMENT
??_7?$queue_kernel_2@Vfile@dlib@@$0BE@V?$memory_manager_stateless_kernel_1@D@2@@dlib@@6B?$remover@Vfile@dlib@@@1@@ DD FLAT:??_R4?$queue_kernel_2@Vfile@dlib@@$0BE@V?$memory_manager_stateless_kernel_1@D@2@@dlib@@6B?$remover@Vfile@dlib@@@1@@ ; dlib::queue_kernel_2<dlib::file,20,dlib::memory_manager_stateless_kernel_1<char> >::`vftable'
	DD	FLAT:??_E?$queue_kernel_2@Vfile@dlib@@$0BE@V?$memory_manager_stateless_kernel_1@D@2@@dlib@@W3AEPAXI@Z
	DD	FLAT:?remove_any@?$queue_kernel_2@Vfile@dlib@@$0BE@V?$memory_manager_stateless_kernel_1@D@2@@dlib@@UAEXAAVfile@2@@Z
	DD	FLAT:?size@?$queue_kernel_2@Vfile@dlib@@$0BE@V?$memory_manager_stateless_kernel_1@D@2@@dlib@@W3BEKXZ
CONST	ENDS
;	COMDAT ??_R4?$queue_kernel_2@Vfile@dlib@@$0BE@V?$memory_manager_stateless_kernel_1@D@2@@dlib@@6B?$remover@Vfile@dlib@@@1@@
rdata$r	SEGMENT
??_R4?$queue_kernel_2@Vfile@dlib@@$0BE@V?$memory_manager_stateless_kernel_1@D@2@@dlib@@6B?$remover@Vfile@dlib@@@1@@ DD 00H ; dlib::queue_kernel_2<dlib::file,20,dlib::memory_manager_stateless_kernel_1<char> >::`RTTI Complete Object Locator'
	DD	04H
	DD	00H
	DD	FLAT:??_R0?AV?$queue_kernel_2@Vfile@dlib@@$0BE@V?$memory_manager_stateless_kernel_1@D@2@@dlib@@@8
	DD	FLAT:??_R3?$queue_kernel_2@Vfile@dlib@@$0BE@V?$memory_manager_stateless_kernel_1@D@2@@dlib@@8
rdata$r	ENDS
;	COMDAT ??_7?$queue_kernel_2@Vfile@dlib@@$0BE@V?$memory_manager_stateless_kernel_1@D@2@@dlib@@6B?$enumerable@Vfile@dlib@@@1@@
CONST	SEGMENT
??_7?$queue_kernel_2@Vfile@dlib@@$0BE@V?$memory_manager_stateless_kernel_1@D@2@@dlib@@6B?$enumerable@Vfile@dlib@@@1@@ DD FLAT:??_R4?$queue_kernel_2@Vfile@dlib@@$0BE@V?$memory_manager_stateless_kernel_1@D@2@@dlib@@6B?$enumerable@Vfile@dlib@@@1@@ ; dlib::queue_kernel_2<dlib::file,20,dlib::memory_manager_stateless_kernel_1<char> >::`vftable'
	DD	FLAT:??_E?$queue_kernel_2@Vfile@dlib@@$0BE@V?$memory_manager_stateless_kernel_1@D@2@@dlib@@UAEPAXI@Z
	DD	FLAT:?at_start@?$queue_kernel_2@Vfile@dlib@@$0BE@V?$memory_manager_stateless_kernel_1@D@2@@dlib@@UBE_NXZ
	DD	FLAT:?reset@?$queue_kernel_2@Vfile@dlib@@$0BE@V?$memory_manager_stateless_kernel_1@D@2@@dlib@@UBEXXZ
	DD	FLAT:?current_element_valid@?$queue_kernel_2@Vfile@dlib@@$0BE@V?$memory_manager_stateless_kernel_1@D@2@@dlib@@UBE_NXZ
	DD	FLAT:?element@?$queue_kernel_2@Vfile@dlib@@$0BE@V?$memory_manager_stateless_kernel_1@D@2@@dlib@@UAEAAVfile@2@XZ
	DD	FLAT:?element@?$queue_kernel_2@Vfile@dlib@@$0BE@V?$memory_manager_stateless_kernel_1@D@2@@dlib@@UBEABVfile@2@XZ
	DD	FLAT:?move_next@?$queue_kernel_2@Vfile@dlib@@$0BE@V?$memory_manager_stateless_kernel_1@D@2@@dlib@@UBE_NXZ
	DD	FLAT:?size@?$queue_kernel_2@Vfile@dlib@@$0BE@V?$memory_manager_stateless_kernel_1@D@2@@dlib@@UBEKXZ
CONST	ENDS
;	COMDAT ??_R4?$queue_kernel_2@Vfile@dlib@@$0BE@V?$memory_manager_stateless_kernel_1@D@2@@dlib@@6B?$enumerable@Vfile@dlib@@@1@@
rdata$r	SEGMENT
??_R4?$queue_kernel_2@Vfile@dlib@@$0BE@V?$memory_manager_stateless_kernel_1@D@2@@dlib@@6B?$enumerable@Vfile@dlib@@@1@@ DD 00H ; dlib::queue_kernel_2<dlib::file,20,dlib::memory_manager_stateless_kernel_1<char> >::`RTTI Complete Object Locator'
	DD	00H
	DD	00H
	DD	FLAT:??_R0?AV?$queue_kernel_2@Vfile@dlib@@$0BE@V?$memory_manager_stateless_kernel_1@D@2@@dlib@@@8
	DD	FLAT:??_R3?$queue_kernel_2@Vfile@dlib@@$0BE@V?$memory_manager_stateless_kernel_1@D@2@@dlib@@8
rdata$r	ENDS
;	COMDAT ??_R3?$queue_kernel_2@Vfile@dlib@@$0BE@V?$memory_manager_stateless_kernel_1@D@2@@dlib@@8
rdata$r	SEGMENT
??_R3?$queue_kernel_2@Vfile@dlib@@$0BE@V?$memory_manager_stateless_kernel_1@D@2@@dlib@@8 DD 00H ; dlib::queue_kernel_2<dlib::file,20,dlib::memory_manager_stateless_kernel_1<char> >::`RTTI Class Hierarchy Descriptor'
	DD	01H
	DD	03H
	DD	FLAT:??_R2?$queue_kernel_2@Vfile@dlib@@$0BE@V?$memory_manager_stateless_kernel_1@D@2@@dlib@@8
rdata$r	ENDS
;	COMDAT ??_R2?$queue_kernel_2@Vfile@dlib@@$0BE@V?$memory_manager_stateless_kernel_1@D@2@@dlib@@8
rdata$r	SEGMENT
??_R2?$queue_kernel_2@Vfile@dlib@@$0BE@V?$memory_manager_stateless_kernel_1@D@2@@dlib@@8 DD FLAT:??_R1A@?0A@EA@?$queue_kernel_2@Vfile@dlib@@$0BE@V?$memory_manager_stateless_kernel_1@D@2@@dlib@@8 ; dlib::queue_kernel_2<dlib::file,20,dlib::memory_manager_stateless_kernel_1<char> >::`RTTI Base Class Array'
	DD	FLAT:??_R1A@?0A@EA@?$enumerable@Vfile@dlib@@@dlib@@8
	DD	FLAT:??_R13?0A@EA@?$remover@Vfile@dlib@@@dlib@@8
rdata$r	ENDS
;	COMDAT ??_R13?0A@EA@?$remover@Vfile@dlib@@@dlib@@8
rdata$r	SEGMENT
??_R13?0A@EA@?$remover@Vfile@dlib@@@dlib@@8 DD FLAT:??_R0?AV?$remover@Vfile@dlib@@@dlib@@@8 ; dlib::remover<dlib::file>::`RTTI Base Class Descriptor at (4,-1,0,64)'
	DD	00H
	DD	04H
	DD	0ffffffffH
	DD	00H
	DD	040H
	DD	FLAT:??_R3?$remover@Vfile@dlib@@@dlib@@8
rdata$r	ENDS
;	COMDAT ??_R3?$remover@Vfile@dlib@@@dlib@@8
rdata$r	SEGMENT
??_R3?$remover@Vfile@dlib@@@dlib@@8 DD 00H		; dlib::remover<dlib::file>::`RTTI Class Hierarchy Descriptor'
	DD	00H
	DD	01H
	DD	FLAT:??_R2?$remover@Vfile@dlib@@@dlib@@8
rdata$r	ENDS
;	COMDAT ??_R2?$remover@Vfile@dlib@@@dlib@@8
rdata$r	SEGMENT
??_R2?$remover@Vfile@dlib@@@dlib@@8 DD FLAT:??_R1A@?0A@EA@?$remover@Vfile@dlib@@@dlib@@8 ; dlib::remover<dlib::file>::`RTTI Base Class Array'
rdata$r	ENDS
;	COMDAT ??_R1A@?0A@EA@?$remover@Vfile@dlib@@@dlib@@8
rdata$r	SEGMENT
??_R1A@?0A@EA@?$remover@Vfile@dlib@@@dlib@@8 DD FLAT:??_R0?AV?$remover@Vfile@dlib@@@dlib@@@8 ; dlib::remover<dlib::file>::`RTTI Base Class Descriptor at (0,-1,0,64)'
	DD	00H
	DD	00H
	DD	0ffffffffH
	DD	00H
	DD	040H
	DD	FLAT:??_R3?$remover@Vfile@dlib@@@dlib@@8
rdata$r	ENDS
;	COMDAT ??_R0?AV?$remover@Vfile@dlib@@@dlib@@@8
_DATA	SEGMENT
??_R0?AV?$remover@Vfile@dlib@@@dlib@@@8 DD FLAT:??_7type_info@@6B@ ; dlib::remover<dlib::file> `RTTI Type Descriptor'
	DD	00H
	DB	'.?AV?$remover@Vfile@dlib@@@dlib@@', 00H
_DATA	ENDS
;	COMDAT ??_R1A@?0A@EA@?$enumerable@Vfile@dlib@@@dlib@@8
rdata$r	SEGMENT
??_R1A@?0A@EA@?$enumerable@Vfile@dlib@@@dlib@@8 DD FLAT:??_R0?AV?$enumerable@Vfile@dlib@@@dlib@@@8 ; dlib::enumerable<dlib::file>::`RTTI Base Class Descriptor at (0,-1,0,64)'
	DD	00H
	DD	00H
	DD	0ffffffffH
	DD	00H
	DD	040H
	DD	FLAT:??_R3?$enumerable@Vfile@dlib@@@dlib@@8
rdata$r	ENDS
;	COMDAT ??_R3?$enumerable@Vfile@dlib@@@dlib@@8
rdata$r	SEGMENT
??_R3?$enumerable@Vfile@dlib@@@dlib@@8 DD 00H		; dlib::enumerable<dlib::file>::`RTTI Class Hierarchy Descriptor'
	DD	00H
	DD	01H
	DD	FLAT:??_R2?$enumerable@Vfile@dlib@@@dlib@@8
rdata$r	ENDS
;	COMDAT ??_R2?$enumerable@Vfile@dlib@@@dlib@@8
rdata$r	SEGMENT
??_R2?$enumerable@Vfile@dlib@@@dlib@@8 DD FLAT:??_R1A@?0A@EA@?$enumerable@Vfile@dlib@@@dlib@@8 ; dlib::enumerable<dlib::file>::`RTTI Base Class Array'
rdata$r	ENDS
;	COMDAT ??_R0?AV?$enumerable@Vfile@dlib@@@dlib@@@8
_DATA	SEGMENT
??_R0?AV?$enumerable@Vfile@dlib@@@dlib@@@8 DD FLAT:??_7type_info@@6B@ ; dlib::enumerable<dlib::file> `RTTI Type Descriptor'
	DD	00H
	DB	'.?AV?$enumerable@Vfile@dlib@@@dlib@@', 00H
_DATA	ENDS
;	COMDAT ??_R1A@?0A@EA@?$queue_kernel_2@Vfile@dlib@@$0BE@V?$memory_manager_stateless_kernel_1@D@2@@dlib@@8
rdata$r	SEGMENT
??_R1A@?0A@EA@?$queue_kernel_2@Vfile@dlib@@$0BE@V?$memory_manager_stateless_kernel_1@D@2@@dlib@@8 DD FLAT:??_R0?AV?$queue_kernel_2@Vfile@dlib@@$0BE@V?$memory_manager_stateless_kernel_1@D@2@@dlib@@@8 ; dlib::queue_kernel_2<dlib::file,20,dlib::memory_manager_stateless_kernel_1<char> >::`RTTI Base Class Descriptor at (0,-1,0,64)'
	DD	02H
	DD	00H
	DD	0ffffffffH
	DD	00H
	DD	040H
	DD	FLAT:??_R3?$queue_kernel_2@Vfile@dlib@@$0BE@V?$memory_manager_stateless_kernel_1@D@2@@dlib@@8
rdata$r	ENDS
;	COMDAT ??_R0?AV?$queue_kernel_2@Vfile@dlib@@$0BE@V?$memory_manager_stateless_kernel_1@D@2@@dlib@@@8
_DATA	SEGMENT
??_R0?AV?$queue_kernel_2@Vfile@dlib@@$0BE@V?$memory_manager_stateless_kernel_1@D@2@@dlib@@@8 DD FLAT:??_7type_info@@6B@ ; dlib::queue_kernel_2<dlib::file,20,dlib::memory_manager_stateless_kernel_1<char> > `RTTI Type Descriptor'
	DD	00H
	DB	'.?AV?$queue_kernel_2@Vfile@dlib@@$0BE@V?$memory_manager_'
	DB	'stateless_kernel_1@D@2@@dlib@@', 00H
?bAlive@@3_NA DB 01H					; bAlive
$SG-72306 DB	00H
$SG-72308 DB	00H
$SG-72310 DB	00H
$SG-72312 DB	00H
$SG-72314 DB	00H
$SG-72316 DB	00H
$SG-72318 DB	00H
$SG-72320 DB	00H
$SG-72322 DB	00H
$SG-72325 DB	00H
$SG-72327 DB	00H
$SG-72329 DB	00H
$SG-72331 DB	00H
$SG-72333 DB	00H
$SG-72335 DB	00H
$SG-72337 DB	00H
$SG-72339 DB	00H
$SG-72341 DB	00H
$SG-72343 DB	00H
$SG-72348 DB	00H
$SG-72383 DB	00H
$SG-72385 DB	00H
	ORG $+1
$SG-72273 DB	'e', 00H, 'X', 00H, 'p', 00H, '-', 00H, 'A', 00H, 'd', 00H
	DB	'm', 00H, 'i', 00H, 'n', 00H, 'i', 00H, 's', 00H, 't', 00H, 'r'
	DB	00H, 'a', 00H, 't', 00H, 'i', 00H, 'o', 00H, 'n', 00H, '-', 00H
	DB	'T', 00H, 'o', 00H, 'o', 00H, 'l', 00H, 00H, 00H
$SG-72274 DB	'#FFAA00', 00H
$SG-72275 DB	'eXp-Administration-Tool', 00H
$SG-72276 DB	'#FFAA00', 00H
$SG-72277 DB	'Version ', 00H
	ORG $+3
$SG-72278 DB	'#00DD00', 00H
$SG-72279 DB	'Running on Windows', 00H
	ORG $+1
$SG-72280 DB	'#00DD00', 00H
$SG-72281 DB	'Reading config', 00H
	ORG $+1
$SG-72282 DB	'#FFAA00', 00H
$SG-72283 DB	'Your daspirum-version is outdated. Please consider updat'
	DB	'ing.', 00H
	ORG $+3
$SG-72284 DB	'#00DD00', 00H
$SG-72285 DB	'Starting Webserver...', 00H
	ORG $+2
$SG-72286 DB	'#00DD00', 00H
$SG-72287 DB	'Webserver started on port ', 00H
	ORG $+1
$SG-72288 DB	'#FFAA00', 00H
$SG-72289 DB	'Webserver started on default port 80. error in config fi'
	DB	'le', 00H
	ORG $+1
$SG-72290 DB	'#00DD00', 00H
$SG-72291 DB	'Reading Server-Databases...', 00H
$SG-72292 DB	'db', 00H
	ORG $+1
$SG-72293 DB	'#0000DD', 00H
$SG-72294 DB	'Init finished. Starting main-function-loop...', 00H
	ORG $+2
$SG-72295 DB	'#FFAA00', 00H
$SG-72296 DB	'quit', 00H
	ORG $+3
$SG-72297 DB	'#FFAA00', 00H
$SG-72298 DB	'Stopping Server...', 00H
	ORG $+1
$SG-72299 DB	'#FFAA00', 00H
$SG-72300 DB	'This may take up to 30 seconds.', 00H
$SG-72301 DB	'#00DD00', 00H
$SG-72302 DB	'Stopping Webserver...', 00H
	ORG $+2
$SG-72303 DB	'#00DD00', 00H
$SG-72304 DB	'Bye Bye! Copyright (c) Raffael ''LeGone'' Holz | <a href'
	DB	'="http://www.exp-clan.com">exp-clan.com</a>', 00H
	ORG $+2
$SG-72305 DB	'bug', 00H
$SG-72307 DB	'all', 00H
$SG-72309 DB	'all', 00H
$SG-72311 DB	'all', 00H
$SG-72313 DB	'all', 00H
$SG-72315 DB	'all', 00H
$SG-72317 DB	'all', 00H
$SG-72319 DB	'all', 00H
$SG-72321 DB	'all', 00H
$SG-72323 DB	'all', 00H
$SG-72324 DB	'eXcellent performance!', 00H
	ORG $+1
$SG-72326 DB	'all', 00H
$SG-72328 DB	'all', 00H
$SG-72330 DB	'all', 00H
$SG-72332 DB	'all', 00H
$SG-72334 DB	'all', 00H
$SG-72336 DB	'all', 00H
$SG-72338 DB	'all', 00H
$SG-72340 DB	'all', 00H
$SG-72342 DB	'all', 00H
$SG-72344 DB	'all', 00H
$SG-72345 DB	'#000000', 00H
$SG-72346 DB	'Error while sending manual-command.', 00H
$SG-72347 DB	'say', 00H
$SG-72349 DB	'all', 00H
$SG-72350 DB	'#000000', 00H
$SG-72351 DB	'Error while sending manual-command.', 00H
$SG-72352 DB	'status', 00H
	ORG $+1
$SG-72353 DB	'#00DD00', 00H
$SG-72354 DB	' is currently active', 00H
	ORG $+3
$SG-72355 DB	'#DD0000', 00H
$SG-72356 DB	' is not active. ', 00H
	ORG $+3
$SG-72357 DB	'#000000', 00H
$SG-72358 DB	'Error while sending manual-command.', 00H
$SG-72359 DB	'#000000', 00H
$SG-72360 DB	' servers are currently active', 00H
	ORG $+2
$SG-72361 DB	'#FFAA00', 00H
$SG-72362 DB	'Unknown Command: ', 00H
	ORG $+2
$SG-72363 DB	'Error while starting server: ', 00H
	ORG $+2
$SG-72364 DB	'main_command_loop', 00H
	ORG $+2
$SG-72365 DB	'..\src\main.cpp', 00H
$SG-72366 DB	'Unknown Error!', 00H
	ORG $+1
$SG-72367 DB	'main_command_loop', 00H
	ORG $+2
$SG-72368 DB	'..\src\main.cpp', 00H
$SG-72369 DB	'] Connection to SQLite-DB failed:', 00H
	ORG $+2
$SG-72370 DB	'[', 00H
	ORG $+2
$SG-72371 DB	'thread_game', 00H
$SG-72372 DB	'..\src\main.cpp', 00H
$SG-72373 DB	'] Connection to SQLite-DB failed:', 00H
	ORG $+2
$SG-72374 DB	'[', 00H
	ORG $+2
$SG-72375 DB	'thread_game', 00H
$SG-72376 DB	'..\src\main.cpp', 00H
$SG-72377 DB	'] Connection to Server failed (Reconnecting in 10 second'
	DB	's)', 00H
	ORG $+1
$SG-72378 DB	'[', 00H
	ORG $+2
$SG-72379 DB	'thread_game', 00H
$SG-72380 DB	'..\src\main.cpp', 00H
$SG-72381 DB	'Unable to connect', 00H
	ORG $+2
$SG-72382 DB	'all', 00H
$SG-72384 DB	'all', 00H
$SG-72386 DB	'all', 00H
$SG-72387 DB	'] ', 00H
	ORG $+1
$SG-72388 DB	'[', 00H
	ORG $+2
$SG-72389 DB	'thread_game', 00H
$SG-72390 DB	'..\src\main.cpp', 00H
$SG-72391 DB	'] ', 00H
	ORG $+1
$SG-72392 DB	'[', 00H
	ORG $+2
$SG-72393 DB	'thread_game', 00H
$SG-72394 DB	'..\src\main.cpp', 00H
$SG-72395 DB	'] Unknown Error!', 00H
	ORG $+3
$SG-72396 DB	'[', 00H
	ORG $+2
$SG-72397 DB	'thread_game', 00H
$SG-72398 DB	'..\src\main.cpp', 00H
$SG-72399 DB	'Unknown Error in inner loop!', 00H
	ORG $+3
$SG-72400 DB	'] Error while starting server: ', 00H
$SG-72401 DB	'[', 00H
	ORG $+2
$SG-72402 DB	'thread_game', 00H
$SG-72403 DB	'..\src\main.cpp', 00H
$SG-72404 DB	'Error while starting server: ', 00H
	ORG $+2
$SG-72405 DB	'] ', 00H
	ORG $+1
$SG-72406 DB	'[', 00H
	ORG $+2
$SG-72407 DB	'thread_game', 00H
$SG-72408 DB	'..\src\main.cpp', 00H
$SG-72409 DB	'] Unknown Error!', 00H
	ORG $+3
$SG-72410 DB	'[', 00H
	ORG $+2
$SG-72411 DB	'thread_game', 00H
$SG-72412 DB	'..\src\main.cpp', 00H
$SG-72413 DB	'Unknown Error in outter loop!', 00H
	ORG $+2
$SG-72458 DB	'.', 0aH, 00H
	ORG $+1
$SG-72459 DB	0aH, 0aH, 'Error detected at line ', 00H
	ORG $+2
$SG-72460 DB	'.', 0aH, 00H
	ORG $+1
$SG-72461 DB	'e:\library\dlib\dlib\set/set_kernel_c.h', 00H
$SG-72462 DB	'Error detected in file ', 00H
$SG-72463 DB	'.', 0aH, 0aH, 00H
$SG-72464 DB	'void __thiscall dlib::set_kernel_c<class dlib::set_kerne'
	DB	'l_1<unsigned long,class dlib::binary_search_tree_kernel_2<uns'
	DB	'igned long,char,class dlib::memory_manager_kernel_2<char,100>'
	DB	',struct std::less<unsigned long> >,class dlib::memory_manager'
	DB	'_kernel_2<char,100> > >::remove_any(unsigned long &)', 00H
$SG-72465 DB	'Error detected in function ', 00H
$SG-72466 DB	'.', 0aH, 00H
	ORG $+1
$SG-72467 DB	'this->size() != 0', 00H
	ORG $+2
$SG-72468 DB	'Failing expression was ', 00H
$SG-72469 DB	0aH, 00H
	ORG $+2
$SG-72470 DB	0aH, 09H, 'this: ', 00H
	ORG $+3
$SG-72471 DB	0aH, 09H, 'size must be greater than zero if an item is t'
	DB	'o be removed', 00H
	ORG $+3
$SG-72472 DB	09H, 'void set::remove_any', 00H
	ORG $+2
$SG-72473 DB	'.', 0aH, 00H
	ORG $+1
$SG-72474 DB	0aH, 0aH, 'Error detected at line ', 00H
	ORG $+2
$SG-72475 DB	'.', 0aH, 00H
	ORG $+1
$SG-72476 DB	'e:\library\dlib\dlib\set/set_kernel_c.h', 00H
$SG-72477 DB	'Error detected in file ', 00H
$SG-72478 DB	'.', 0aH, 0aH, 00H
$SG-72479 DB	'const unsigned long &__thiscall dlib::set_kernel_c<class'
	DB	' dlib::set_kernel_1<unsigned long,class dlib::binary_search_t'
	DB	'ree_kernel_2<unsigned long,char,class dlib::memory_manager_ke'
	DB	'rnel_2<char,100>,struct std::less<unsigned long> >,class dlib'
	DB	'::memory_manager_kernel_2<char,100> > >::element(void) const', 00H
$SG-72480 DB	'Error detected in function ', 00H
$SG-72481 DB	'.', 0aH, 00H
	ORG $+1
$SG-72482 DB	'this->current_element_valid() == true', 00H
	ORG $+2
$SG-72483 DB	'Failing expression was ', 00H
$SG-72484 DB	0aH, 00H
	ORG $+2
$SG-72485 DB	0aH, 09H, 'this: ', 00H
	ORG $+3
$SG-72486 DB	0aH, 09H, 'you can''t access the current element if it do'
	DB	'esn''t exist', 00H
	ORG $+1
$SG-72487 DB	09H, 'const T& set::element() const', 00H
	ORG $+1
$SG-72488 DB	'.', 0aH, 00H
	ORG $+1
$SG-72489 DB	0aH, 0aH, 'Error detected at line ', 00H
	ORG $+2
$SG-72490 DB	'.', 0aH, 00H
	ORG $+1
$SG-72491 DB	'e:\library\dlib\dlib\set/set_kernel_c.h', 00H
$SG-72492 DB	'Error detected in file ', 00H
$SG-72493 DB	'.', 0aH, 0aH, 00H
$SG-72494 DB	'const unsigned long &__thiscall dlib::set_kernel_c<class'
	DB	' dlib::set_kernel_1<unsigned long,class dlib::binary_search_t'
	DB	'ree_kernel_2<unsigned long,char,class dlib::memory_manager_ke'
	DB	'rnel_2<char,100>,struct std::less<unsigned long> >,class dlib'
	DB	'::memory_manager_kernel_2<char,100> > >::element(void)', 00H
	ORG $+2
$SG-72495 DB	'Error detected in function ', 00H
$SG-72496 DB	'.', 0aH, 00H
	ORG $+1
$SG-72497 DB	'this->current_element_valid() == true', 00H
	ORG $+2
$SG-72498 DB	'Failing expression was ', 00H
$SG-72499 DB	0aH, 00H
	ORG $+2
$SG-72500 DB	0aH, 09H, 'this: ', 00H
	ORG $+3
$SG-72501 DB	0aH, 09H, 'you can''t access the current element if it do'
	DB	'esn''t exist', 00H
	ORG $+1
$SG-72502 DB	09H, 'const T& set::element', 00H
	ORG $+1
$SG-72503 DB	'.', 0aH, 00H
	ORG $+1
$SG-72504 DB	0aH, 0aH, 'Error detected at line ', 00H
	ORG $+2
$SG-72505 DB	'.', 0aH, 00H
	ORG $+1
$SG-72506 DB	'e:\library\dlib\dlib\binary_search_tree/binary_search_tr'
	DB	'ee_kernel_c.h', 00H
	ORG $+2
$SG-72507 DB	'Error detected in file ', 00H
$SG-72508 DB	'.', 0aH, 0aH, 00H
$SG-72510 DB	'Error detected in function ', 00H
$SG-72509 DB	'void __thiscall dlib::binary_search_tree_kernel_c<class '
	DB	'dlib::binary_search_tree_kernel_2<unsigned long,class dlib::m'
	DB	'ember_function_pointer<void,void,void,void>,class dlib::memor'
	DB	'y_manager_kernel_2<char,10>,struct std::less<unsigned long> >'
	DB	' >::remove_any(unsigned long &,class dlib::member_function_po'
	DB	'inter<void,void,void,void> &)', 00H
	ORG $+2
$SG-72511 DB	'.', 0aH, 00H
	ORG $+1
$SG-72512 DB	'this->size() != 0 && (static_cast<const void*>(&d) != st'
	DB	'atic_cast<void*>(&r))', 00H
	ORG $+2
$SG-72513 DB	'Failing expression was ', 00H
$SG-72514 DB	0aH, 00H
	ORG $+2
$SG-72515 DB	0aH, 09H, '&r:   ', 00H
	ORG $+3
$SG-72516 DB	0aH, 09H, '&d:   ', 00H
	ORG $+3
$SG-72517 DB	0aH, 09H, 'this: ', 00H
	ORG $+3
$SG-72518 DB	0aH, 09H, 'tree must not be empty if something is going t'
	DB	'o be removed', 00H
	ORG $+3
$SG-72519 DB	09H, 'void binary_search_tree::remove_any', 00H
	ORG $+3
$SG-72520 DB	'.', 0aH, 00H
	ORG $+1
$SG-72521 DB	0aH, 0aH, 'Error detected at line ', 00H
	ORG $+2
$SG-72522 DB	'.', 0aH, 00H
	ORG $+1
$SG-72524 DB	'Error detected in file ', 00H
$SG-72525 DB	'.', 0aH, 0aH, 00H
$SG-72523 DB	'e:\library\dlib\dlib\binary_search_tree/binary_search_tr'
	DB	'ee_kernel_c.h', 00H
	ORG $+2
$SG-72526 DB	'class dlib::map_pair<unsigned long,class dlib::member_fu'
	DB	'nction_pointer<void,void,void,void> > &__thiscall dlib::binar'
	DB	'y_search_tree_kernel_c<class dlib::binary_search_tree_kernel_'
	DB	'2<unsigned long,class dlib::member_function_pointer<void,void'
	DB	',void,void>,class dlib::memory_manager_kernel_2<char,10>,stru'
	DB	'ct std::less<unsigned long> > >::element(void)', 00H
	ORG $+1
$SG-72527 DB	'Error detected in function ', 00H
$SG-72528 DB	'.', 0aH, 00H
	ORG $+1
$SG-72529 DB	'this->current_element_valid() == true', 00H
	ORG $+2
$SG-72530 DB	'Failing expression was ', 00H
$SG-72531 DB	0aH, 00H
	ORG $+2
$SG-72532 DB	0aH, 09H, 'this: ', 00H
	ORG $+3
$SG-72533 DB	0aH, 09H, 'you can''t access the current element if it do'
	DB	'esn''t exist', 00H
	ORG $+1
$SG-72534 DB	09H, 'map_pair<domain,range>& binary_search_tree::element'
	DB	'()', 00H
	ORG $+1
$SG-72535 DB	'.', 0aH, 00H
	ORG $+1
$SG-72536 DB	0aH, 0aH, 'Error detected at line ', 00H
	ORG $+2
$SG-72537 DB	'.', 0aH, 00H
	ORG $+1
$SG-72539 DB	'Error detected in file ', 00H
$SG-72540 DB	'.', 0aH, 0aH, 00H
$SG-72538 DB	'e:\library\dlib\dlib\binary_search_tree/binary_search_tr'
	DB	'ee_kernel_c.h', 00H
	ORG $+2
$SG-72541 DB	'const class dlib::map_pair<unsigned long,class dlib::mem'
	DB	'ber_function_pointer<void,void,void,void> > &__thiscall dlib:'
	DB	':binary_search_tree_kernel_c<class dlib::binary_search_tree_k'
	DB	'ernel_2<unsigned long,class dlib::member_function_pointer<voi'
	DB	'd,void,void,void>,class dlib::memory_manager_kernel_2<char,10'
	DB	'>,struct std::less<unsigned long> > >::element(void) const', 00H
	ORG $+1
$SG-72542 DB	'Error detected in function ', 00H
$SG-72543 DB	'.', 0aH, 00H
	ORG $+1
$SG-72544 DB	'this->current_element_valid() == true', 00H
	ORG $+2
$SG-72545 DB	'Failing expression was ', 00H
$SG-72546 DB	0aH, 00H
	ORG $+2
$SG-72547 DB	0aH, 09H, 'this: ', 00H
	ORG $+3
$SG-72548 DB	0aH, 09H, 'you can''t access the current element if it do'
	DB	'esn''t exist', 00H
	ORG $+1
$SG-72550 DB	'.', 0aH, 00H
	ORG $+1
$SG-72549 DB	09H, 'const map_pair<domain,range>& binary_search_tree::e'
	DB	'lement() const', 00H
	ORG $+1
$SG-72551 DB	0aH, 0aH, 'Error detected at line ', 00H
	ORG $+2
$SG-72552 DB	'.', 0aH, 00H
	ORG $+1
$SG-72554 DB	'Error detected in file ', 00H
$SG-72555 DB	'.', 0aH, 0aH, 00H
$SG-72553 DB	'e:\library\dlib\dlib\binary_search_tree/binary_search_tr'
	DB	'ee_kernel_c.h', 00H
	ORG $+2
$SG-72556 DB	'void __thiscall dlib::binary_search_tree_kernel_c<class '
	DB	'dlib::binary_search_tree_kernel_2<unsigned __int64,struct dli'
	DB	'b::timer_base *,class dlib::memory_manager_kernel_2<char,100>'
	DB	',struct std::less<unsigned __int64> > >::remove_any(unsigned '
	DB	'__int64 &,struct dlib::timer_base *&)', 00H
	ORG $+3
$SG-72557 DB	'Error detected in function ', 00H
$SG-72558 DB	'.', 0aH, 00H
	ORG $+1
$SG-72559 DB	'this->size() != 0 && (static_cast<const void*>(&d) != st'
	DB	'atic_cast<void*>(&r))', 00H
	ORG $+2
$SG-72560 DB	'Failing expression was ', 00H
$SG-72561 DB	0aH, 00H
	ORG $+2
$SG-72562 DB	0aH, 09H, '&r:   ', 00H
	ORG $+3
$SG-72563 DB	0aH, 09H, '&d:   ', 00H
	ORG $+3
$SG-72564 DB	0aH, 09H, 'this: ', 00H
	ORG $+3
$SG-72565 DB	0aH, 09H, 'tree must not be empty if something is going t'
	DB	'o be removed', 00H
	ORG $+3
$SG-72566 DB	09H, 'void binary_search_tree::remove_any', 00H
	ORG $+3
$SG-72567 DB	'.', 0aH, 00H
	ORG $+1
$SG-72568 DB	0aH, 0aH, 'Error detected at line ', 00H
	ORG $+2
$SG-72569 DB	'.', 0aH, 00H
	ORG $+1
$SG-72571 DB	'Error detected in file ', 00H
$SG-72572 DB	'.', 0aH, 0aH, 00H
$SG-72570 DB	'e:\library\dlib\dlib\binary_search_tree/binary_search_tr'
	DB	'ee_kernel_c.h', 00H
	ORG $+2
$SG-72573 DB	'class dlib::map_pair<unsigned __int64,struct dlib::timer'
	DB	'_base *> &__thiscall dlib::binary_search_tree_kernel_c<class '
	DB	'dlib::binary_search_tree_kernel_2<unsigned __int64,struct dli'
	DB	'b::timer_base *,class dlib::memory_manager_kernel_2<char,100>'
	DB	',struct std::less<unsigned __int64> > >::element(void)', 00H
	ORG $+2
$SG-72574 DB	'Error detected in function ', 00H
$SG-72575 DB	'.', 0aH, 00H
	ORG $+1
$SG-72576 DB	'this->current_element_valid() == true', 00H
	ORG $+2
$SG-72577 DB	'Failing expression was ', 00H
$SG-72578 DB	0aH, 00H
	ORG $+2
$SG-72579 DB	0aH, 09H, 'this: ', 00H
	ORG $+3
$SG-72580 DB	0aH, 09H, 'you can''t access the current element if it do'
	DB	'esn''t exist', 00H
	ORG $+1
$SG-72581 DB	09H, 'map_pair<domain,range>& binary_search_tree::element'
	DB	'()', 00H
	ORG $+1
$SG-72582 DB	'.', 0aH, 00H
	ORG $+1
$SG-72583 DB	0aH, 0aH, 'Error detected at line ', 00H
	ORG $+2
$SG-72584 DB	'.', 0aH, 00H
	ORG $+1
$SG-72585 DB	'e:\library\dlib\dlib\binary_search_tree/binary_search_tr'
	DB	'ee_kernel_c.h', 00H
	ORG $+2
$SG-72586 DB	'Error detected in file ', 00H
$SG-72587 DB	'.', 0aH, 0aH, 00H
$SG-72589 DB	'Error detected in function ', 00H
$SG-72588 DB	'const class dlib::map_pair<unsigned __int64,struct dlib:'
	DB	':timer_base *> &__thiscall dlib::binary_search_tree_kernel_c<'
	DB	'class dlib::binary_search_tree_kernel_2<unsigned __int64,stru'
	DB	'ct dlib::timer_base *,class dlib::memory_manager_kernel_2<cha'
	DB	'r,100>,struct std::less<unsigned __int64> > >::element(void) '
	DB	'const', 00H
	ORG $+2
$SG-72590 DB	'.', 0aH, 00H
	ORG $+1
$SG-72591 DB	'this->current_element_valid() == true', 00H
	ORG $+2
$SG-72592 DB	'Failing expression was ', 00H
$SG-72593 DB	0aH, 00H
	ORG $+2
$SG-72594 DB	0aH, 09H, 'this: ', 00H
	ORG $+3
$SG-72595 DB	0aH, 09H, 'you can''t access the current element if it do'
	DB	'esn''t exist', 00H
	ORG $+1
$SG-72604 DB	'*', 00H
	ORG $+2
$SG-72596 DB	09H, 'const map_pair<domain,range>& binary_search_tree::e'
	DB	'lement() const', 00H
	ORG $+1
$SG-72605 DB	'Unable to list the contents of ', 00H
$SG-72608 DB	'*', 00H
	ORG $+2
$SG-72603 DB	'This directory object currently doesn''t represent any d'
	DB	'irectory.', 00H
	ORG $+3
$SG-72606 DB	'Unable to list the contents of ', 00H
$SG-72610 DB	'.', 00H
	ORG $+2
$SG-72607 DB	'This directory object currently doesn''t represent any d'
	DB	'irectory.', 00H
	ORG $+3
$SG-72609 DB	'Unable to list the contents of ', 00H
$SG-72611 DB	'..', 00H
	ORG $+1
$SG-72612 DB	'Unable to list the contents of ', 00H
; Function compile flags: /Odtp
;	COMDAT ??_E?$queue_kernel_2@Vfile@dlib@@$0BE@V?$memory_manager_stateless_kernel_1@D@2@@dlib@@W3AEPAXI@Z
_TEXT	SEGMENT
??_E?$queue_kernel_2@Vfile@dlib@@$0BE@V?$memory_manager_stateless_kernel_1@D@2@@dlib@@W3AEPAXI@Z PROC ; [thunk]:dlib::queue_kernel_2<dlib::file,20,dlib::memory_manager_stateless_kernel_1<char> >::`vector deleting destructor', COMDAT
	sub	ecx, 4
	jmp	??_E?$queue_kernel_2@Vfile@dlib@@$0BE@V?$memory_manager_stateless_kernel_1@D@2@@dlib@@UAEPAXI@Z
??_E?$queue_kernel_2@Vfile@dlib@@$0BE@V?$memory_manager_stateless_kernel_1@D@2@@dlib@@W3AEPAXI@Z ENDP ; [thunk]:dlib::queue_kernel_2<dlib::file,20,dlib::memory_manager_stateless_kernel_1<char> >::`vector deleting destructor'
; Function compile flags: /Odtp
_TEXT	ENDS
;	COMDAT ??$forward@ABVfile@dlib@@@std@@YAABVfile@dlib@@ABV12@@Z
_TEXT	SEGMENT
__Arg$ = 8						; size = 4
??$forward@ABVfile@dlib@@@std@@YAABVfile@dlib@@ABV12@@Z PROC ; std::forward<dlib::file const &>, COMDAT
; File e:\program files (x86)\microsoft visual studio 10.0\vc\include\utility
; Line 78
	push	ebp
	mov	ebp, esp
; Line 79
	mov	eax, DWORD PTR __Arg$[ebp]
; Line 80
	pop	ebp
	ret	0
??$forward@ABVfile@dlib@@@std@@YAABVfile@dlib@@ABV12@@Z ENDP ; std::forward<dlib::file const &>
; Function compile flags: /Odtp
_TEXT	ENDS
;	COMDAT ??$forward@AAVfile@dlib@@@std@@YAAAVfile@dlib@@AAV12@@Z
_TEXT	SEGMENT
__Arg$ = 8						; size = 4
??$forward@AAVfile@dlib@@@std@@YAAAVfile@dlib@@AAV12@@Z PROC ; std::forward<dlib::file &>, COMDAT
; Line 78
	push	ebp
	mov	ebp, esp
; Line 79
	mov	eax, DWORD PTR __Arg$[ebp]
; Line 80
	pop	ebp
	ret	0
??$forward@AAVfile@dlib@@@std@@YAAAVfile@dlib@@AAV12@@Z ENDP ; std::forward<dlib::file &>
; Function compile flags: /Odtp
_TEXT	ENDS
;	COMDAT ??$addressof@$$CBVfile@dlib@@@std@@YAPBVfile@dlib@@ABV12@@Z
_TEXT	SEGMENT
__Val$ = 8						; size = 4
??$addressof@$$CBVfile@dlib@@@std@@YAPBVfile@dlib@@ABV12@@Z PROC ; std::addressof<dlib::file const >, COMDAT
; File e:\program files (x86)\microsoft visual studio 10.0\vc\include\xmemory
; Line 110
	push	ebp
	mov	ebp, esp
; Line 111
	mov	eax, DWORD PTR __Val$[ebp]
; Line 112
	pop	ebp
	ret	0
??$addressof@$$CBVfile@dlib@@@std@@YAPBVfile@dlib@@ABV12@@Z ENDP ; std::addressof<dlib::file const >
; Function compile flags: /Odtp
_TEXT	ENDS
;	COMDAT ??$_Val_type@PAVfile@dlib@@@std@@YAPAVfile@dlib@@PAV12@@Z
_TEXT	SEGMENT
___formal$ = 8						; size = 4
??$_Val_type@PAVfile@dlib@@@std@@YAPAVfile@dlib@@PAV12@@Z PROC ; std::_Val_type<dlib::file *>, COMDAT
; File e:\program files (x86)\microsoft visual studio 10.0\vc\include\xutility
; Line 801
	push	ebp
	mov	ebp, esp
; Line 802
	xor	eax, eax
; Line 803
	pop	ebp
	ret	0
??$_Val_type@PAVfile@dlib@@@std@@YAPAVfile@dlib@@PAV12@@Z ENDP ; std::_Val_type<dlib::file *>
; Function compile flags: /Odtp
_TEXT	ENDS
;	COMDAT ??$move@AAVfile@dlib@@@std@@YA$$QAVfile@dlib@@AAV12@@Z
_TEXT	SEGMENT
__Arg$ = 8						; size = 4
??$move@AAVfile@dlib@@@std@@YA$$QAVfile@dlib@@AAV12@@Z PROC ; std::move<dlib::file &>, COMDAT
; File e:\program files (x86)\microsoft visual studio 10.0\vc\include\utility
; Line 86
	push	ebp
	mov	ebp, esp
; Line 87
	mov	eax, DWORD PTR __Arg$[ebp]
; Line 88
	pop	ebp
	ret	0
??$move@AAVfile@dlib@@@std@@YA$$QAVfile@dlib@@AAV12@@Z ENDP ; std::move<dlib::file &>
; Function compile flags: /Odtp
_TEXT	ENDS
;	COMDAT ??$_Uninit_move@PAUstruct_gamestatus@@PAU1@PAU1@@std@@YAPAPAUstruct_gamestatus@@PAPAU1@00AAV?$allocator@PAUstruct_gamestatus@@@0@0U_Scalar_ptr_iterator_tag@0@@Z
_TEXT	SEGMENT
__Count$ = -4						; size = 4
__First$ = 8						; size = 4
__Last$ = 12						; size = 4
__Dest$ = 16						; size = 4
___formal$ = 20						; size = 4
___formal$ = 24						; size = 4
___formal$ = 28						; size = 1
??$_Uninit_move@PAUstruct_gamestatus@@PAU1@PAU1@@std@@YAPAPAUstruct_gamestatus@@PAPAU1@00AAV?$allocator@PAUstruct_gamestatus@@@0@0U_Scalar_ptr_iterator_tag@0@@Z PROC ; std::_Uninit_move<struct_gamestatus *,struct_gamestatus *,struct_gamestatus *>, COMDAT
; File e:\program files (x86)\microsoft visual studio 10.0\vc\include\memory
; Line 456
	push	ebp
	mov	ebp, esp
	push	ecx
; Line 459
	mov	eax, DWORD PTR __Last$[ebp]
	sub	eax, DWORD PTR __First$[ebp]
	sar	eax, 2
	mov	DWORD PTR __Count$[ebp], eax
; Line 461
	mov	ecx, DWORD PTR __Count$[ebp]
	shl	ecx, 2
	push	ecx
	mov	edx, DWORD PTR __First$[ebp]
	push	edx
	mov	eax, DWORD PTR __Dest$[ebp]
	push	eax
	call	DWORD PTR __imp__memmove
	add	esp, 12					; 0000000cH
	mov	ecx, DWORD PTR __Count$[ebp]
	lea	eax, DWORD PTR [eax+ecx*4]
; Line 462
	mov	esp, ebp
	pop	ebp
	ret	0
??$_Uninit_move@PAUstruct_gamestatus@@PAU1@PAU1@@std@@YAPAPAUstruct_gamestatus@@PAPAU1@00AAV?$allocator@PAUstruct_gamestatus@@@0@0U_Scalar_ptr_iterator_tag@0@@Z ENDP ; std::_Uninit_move<struct_gamestatus *,struct_gamestatus *,struct_gamestatus *>
; Function compile flags: /Odtp
_TEXT	ENDS
;	COMDAT ??$_Val_type@PAPAUstruct_gamestatus@@@std@@YAPAPAUstruct_gamestatus@@PAPAU1@@Z
_TEXT	SEGMENT
___formal$ = 8						; size = 4
??$_Val_type@PAPAUstruct_gamestatus@@@std@@YAPAPAUstruct_gamestatus@@PAPAU1@@Z PROC ; std::_Val_type<struct_gamestatus * *>, COMDAT
; File e:\program files (x86)\microsoft visual studio 10.0\vc\include\xutility
; Line 801
	push	ebp
	mov	ebp, esp
; Line 802
	xor	eax, eax
; Line 803
	pop	ebp
	ret	0
??$_Val_type@PAPAUstruct_gamestatus@@@std@@YAPAPAUstruct_gamestatus@@PAPAU1@@Z ENDP ; std::_Val_type<struct_gamestatus * *>
; Function compile flags: /Odtp
_TEXT	ENDS
;	COMDAT ?move_next@?$queue_kernel_2@Vfile@dlib@@$0BE@V?$memory_manager_stateless_kernel_1@D@2@@dlib@@UBE_NXZ
_TEXT	SEGMENT
_this$ = -4						; size = 4
?move_next@?$queue_kernel_2@Vfile@dlib@@$0BE@V?$memory_manager_stateless_kernel_1@D@2@@dlib@@UBE_NXZ PROC ; dlib::queue_kernel_2<dlib::file,20,dlib::memory_manager_stateless_kernel_1<char> >::move_next, COMDAT
; _this$ = ecx
; File e:\library\dlib\dlib\queue\queue_kernel_2.h
; Line 510
	push	ebp
	mov	ebp, esp
	push	ecx
	mov	DWORD PTR _this$[ebp], ecx
; Line 511
	mov	eax, DWORD PTR _this$[ebp]
	movzx	ecx, BYTE PTR [eax+40]
	test	ecx, ecx
	je	SHORT $LN9@move_next
; Line 513
	mov	edx, DWORD PTR _this$[ebp]
	mov	BYTE PTR [edx+40], 0
; Line 515
	mov	eax, DWORD PTR _this$[ebp]
	cmp	DWORD PTR [eax+20], 0
	jne	SHORT $LN8@move_next
; Line 517
	xor	al, al
	jmp	$LN10@move_next
; Line 519
	jmp	SHORT $LN7@move_next
$LN8@move_next:
; Line 521
	mov	ecx, DWORD PTR _this$[ebp]
	mov	edx, DWORD PTR _this$[ebp]
	mov	eax, DWORD PTR [edx+16]
	mov	DWORD PTR [ecx+32], eax
; Line 522
	mov	ecx, DWORD PTR _this$[ebp]
	mov	edx, DWORD PTR _this$[ebp]
	mov	eax, DWORD PTR [edx+28]
	mov	DWORD PTR [ecx+36], eax
; Line 523
	mov	al, 1
	jmp	SHORT $LN10@move_next
$LN7@move_next:
; Line 524
	jmp	SHORT $LN10@move_next
$LN9@move_next:
; Line 526
	mov	ecx, DWORD PTR _this$[ebp]
	cmp	DWORD PTR [ecx+32], 0
	jne	SHORT $LN5@move_next
; Line 528
	xor	al, al
	jmp	SHORT $LN10@move_next
; Line 530
	jmp	SHORT $LN10@move_next
$LN5@move_next:
; Line 532
	mov	edx, DWORD PTR _this$[ebp]
	mov	eax, DWORD PTR [edx+36]
	add	eax, 1
	mov	ecx, DWORD PTR _this$[ebp]
	mov	DWORD PTR [ecx+36], eax
; Line 534
	mov	edx, DWORD PTR _this$[ebp]
	mov	eax, DWORD PTR _this$[ebp]
	mov	ecx, DWORD PTR [edx+32]
	cmp	ecx, DWORD PTR [eax+12]
	jne	SHORT $LN3@move_next
	mov	edx, DWORD PTR _this$[ebp]
	mov	eax, DWORD PTR _this$[ebp]
	mov	ecx, DWORD PTR [edx+36]
	cmp	ecx, DWORD PTR [eax+24]
	jne	SHORT $LN3@move_next
; Line 536
	mov	edx, DWORD PTR _this$[ebp]
	mov	DWORD PTR [edx+32], 0
; Line 537
	xor	al, al
	jmp	SHORT $LN10@move_next
	jmp	SHORT $LN2@move_next
$LN3@move_next:
; Line 539
	mov	eax, DWORD PTR _this$[ebp]
	cmp	DWORD PTR [eax+36], 20			; 00000014H
	jne	SHORT $LN2@move_next
; Line 541
	mov	ecx, DWORD PTR _this$[ebp]
	mov	DWORD PTR [ecx+36], 0
; Line 542
	mov	edx, DWORD PTR _this$[ebp]
	mov	eax, DWORD PTR [edx+32]
	mov	ecx, DWORD PTR _this$[ebp]
	mov	edx, DWORD PTR [eax]
	mov	DWORD PTR [ecx+32], edx
$LN2@move_next:
; Line 545
	mov	al, 1
$LN10@move_next:
; Line 547
	mov	esp, ebp
	pop	ebp
	ret	0
?move_next@?$queue_kernel_2@Vfile@dlib@@$0BE@V?$memory_manager_stateless_kernel_1@D@2@@dlib@@UBE_NXZ ENDP ; dlib::queue_kernel_2<dlib::file,20,dlib::memory_manager_stateless_kernel_1<char> >::move_next
; Function compile flags: /Odtp
_TEXT	ENDS
;	COMDAT ?element@?$queue_kernel_2@Vfile@dlib@@$0BE@V?$memory_manager_stateless_kernel_1@D@2@@dlib@@UBEABVfile@2@XZ
_TEXT	SEGMENT
_this$ = -4						; size = 4
?element@?$queue_kernel_2@Vfile@dlib@@$0BE@V?$memory_manager_stateless_kernel_1@D@2@@dlib@@UBEABVfile@2@XZ PROC ; dlib::queue_kernel_2<dlib::file,20,dlib::memory_manager_stateless_kernel_1<char> >::element, COMDAT
; _this$ = ecx
; Line 482
	push	ebp
	mov	ebp, esp
	push	ecx
	mov	DWORD PTR _this$[ebp], ecx
; Line 483
	mov	eax, DWORD PTR _this$[ebp]
	mov	ecx, DWORD PTR [eax+32]
	mov	edx, DWORD PTR _this$[ebp]
	mov	eax, DWORD PTR [edx+36]
	shl	eax, 6
	lea	eax, DWORD PTR [ecx+eax+8]
; Line 484
	mov	esp, ebp
	pop	ebp
	ret	0
?element@?$queue_kernel_2@Vfile@dlib@@$0BE@V?$memory_manager_stateless_kernel_1@D@2@@dlib@@UBEABVfile@2@XZ ENDP ; dlib::queue_kernel_2<dlib::file,20,dlib::memory_manager_stateless_kernel_1<char> >::element
; Function compile flags: /Odtp
_TEXT	ENDS
;	COMDAT ?element@?$queue_kernel_2@Vfile@dlib@@$0BE@V?$memory_manager_stateless_kernel_1@D@2@@dlib@@UAEAAVfile@2@XZ
_TEXT	SEGMENT
_this$ = -4						; size = 4
?element@?$queue_kernel_2@Vfile@dlib@@$0BE@V?$memory_manager_stateless_kernel_1@D@2@@dlib@@UAEAAVfile@2@XZ PROC ; dlib::queue_kernel_2<dlib::file,20,dlib::memory_manager_stateless_kernel_1<char> >::element, COMDAT
; _this$ = ecx
; Line 496
	push	ebp
	mov	ebp, esp
	push	ecx
	mov	DWORD PTR _this$[ebp], ecx
; Line 497
	mov	eax, DWORD PTR _this$[ebp]
	mov	ecx, DWORD PTR [eax+32]
	mov	edx, DWORD PTR _this$[ebp]
	mov	eax, DWORD PTR [edx+36]
	shl	eax, 6
	lea	eax, DWORD PTR [ecx+eax+8]
; Line 498
	mov	esp, ebp
	pop	ebp
	ret	0
?element@?$queue_kernel_2@Vfile@dlib@@$0BE@V?$memory_manager_stateless_kernel_1@D@2@@dlib@@UAEAAVfile@2@XZ ENDP ; dlib::queue_kernel_2<dlib::file,20,dlib::memory_manager_stateless_kernel_1<char> >::element
; Function compile flags: /Odtp
_TEXT	ENDS
;	COMDAT ?current_element_valid@?$queue_kernel_2@Vfile@dlib@@$0BE@V?$memory_manager_stateless_kernel_1@D@2@@dlib@@UBE_NXZ
_TEXT	SEGMENT
_this$ = -4						; size = 4
?current_element_valid@?$queue_kernel_2@Vfile@dlib@@$0BE@V?$memory_manager_stateless_kernel_1@D@2@@dlib@@UBE_NXZ PROC ; dlib::queue_kernel_2<dlib::file,20,dlib::memory_manager_stateless_kernel_1<char> >::current_element_valid, COMDAT
; _this$ = ecx
; Line 468
	push	ebp
	mov	ebp, esp
	push	ecx
	mov	DWORD PTR _this$[ebp], ecx
; Line 469
	mov	eax, DWORD PTR _this$[ebp]
	xor	ecx, ecx
	cmp	DWORD PTR [eax+32], 0
	setne	cl
	mov	al, cl
; Line 470
	mov	esp, ebp
	pop	ebp
	ret	0
?current_element_valid@?$queue_kernel_2@Vfile@dlib@@$0BE@V?$memory_manager_stateless_kernel_1@D@2@@dlib@@UBE_NXZ ENDP ; dlib::queue_kernel_2<dlib::file,20,dlib::memory_manager_stateless_kernel_1<char> >::current_element_valid
; Function compile flags: /Odtp
_TEXT	ENDS
;	COMDAT ?reset@?$queue_kernel_2@Vfile@dlib@@$0BE@V?$memory_manager_stateless_kernel_1@D@2@@dlib@@UBEXXZ
_TEXT	SEGMENT
_this$ = -4						; size = 4
?reset@?$queue_kernel_2@Vfile@dlib@@$0BE@V?$memory_manager_stateless_kernel_1@D@2@@dlib@@UBEXXZ PROC ; dlib::queue_kernel_2<dlib::file,20,dlib::memory_manager_stateless_kernel_1<char> >::reset, COMDAT
; _this$ = ecx
; Line 453
	push	ebp
	mov	ebp, esp
	push	ecx
	mov	DWORD PTR _this$[ebp], ecx
; Line 454
	mov	eax, DWORD PTR _this$[ebp]
	mov	BYTE PTR [eax+40], 1
; Line 455
	mov	ecx, DWORD PTR _this$[ebp]
	mov	DWORD PTR [ecx+32], 0
; Line 456
	mov	esp, ebp
	pop	ebp
	ret	0
?reset@?$queue_kernel_2@Vfile@dlib@@$0BE@V?$memory_manager_stateless_kernel_1@D@2@@dlib@@UBEXXZ ENDP ; dlib::queue_kernel_2<dlib::file,20,dlib::memory_manager_stateless_kernel_1<char> >::reset
; Function compile flags: /Odtp
_TEXT	ENDS
;	COMDAT ?at_start@?$queue_kernel_2@Vfile@dlib@@$0BE@V?$memory_manager_stateless_kernel_1@D@2@@dlib@@UBE_NXZ
_TEXT	SEGMENT
_this$ = -4						; size = 4
?at_start@?$queue_kernel_2@Vfile@dlib@@$0BE@V?$memory_manager_stateless_kernel_1@D@2@@dlib@@UBE_NXZ PROC ; dlib::queue_kernel_2<dlib::file,20,dlib::memory_manager_stateless_kernel_1<char> >::at_start, COMDAT
; _this$ = ecx
; Line 439
	push	ebp
	mov	ebp, esp
	push	ecx
	mov	DWORD PTR _this$[ebp], ecx
; Line 440
	mov	eax, DWORD PTR _this$[ebp]
	mov	al, BYTE PTR [eax+40]
; Line 441
	mov	esp, ebp
	pop	ebp
	ret	0
?at_start@?$queue_kernel_2@Vfile@dlib@@$0BE@V?$memory_manager_stateless_kernel_1@D@2@@dlib@@UBE_NXZ ENDP ; dlib::queue_kernel_2<dlib::file,20,dlib::memory_manager_stateless_kernel_1<char> >::at_start
; Function compile flags: /Odtp
_TEXT	ENDS
;	COMDAT ?size@?$queue_kernel_2@Vfile@dlib@@$0BE@V?$memory_manager_stateless_kernel_1@D@2@@dlib@@UBEKXZ
_TEXT	SEGMENT
_this$ = -4						; size = 4
?size@?$queue_kernel_2@Vfile@dlib@@$0BE@V?$memory_manager_stateless_kernel_1@D@2@@dlib@@UBEKXZ PROC ; dlib::queue_kernel_2<dlib::file,20,dlib::memory_manager_stateless_kernel_1<char> >::size, COMDAT
; _this$ = ecx
; Line 425
	push	ebp
	mov	ebp, esp
	push	ecx
	mov	DWORD PTR _this$[ebp], ecx
; Line 426
	mov	eax, DWORD PTR _this$[ebp]
	mov	eax, DWORD PTR [eax+20]
; Line 427
	mov	esp, ebp
	pop	ebp
	ret	0
?size@?$queue_kernel_2@Vfile@dlib@@$0BE@V?$memory_manager_stateless_kernel_1@D@2@@dlib@@UBEKXZ ENDP ; dlib::queue_kernel_2<dlib::file,20,dlib::memory_manager_stateless_kernel_1<char> >::size
; Function compile flags: /Odtp
_TEXT	ENDS
;	COMDAT ??1?$remover@Vfile@dlib@@@dlib@@UAE@XZ
_TEXT	SEGMENT
_this$ = -4						; size = 4
??1?$remover@Vfile@dlib@@@dlib@@UAE@XZ PROC		; dlib::remover<dlib::file>::~remover<dlib::file>, COMDAT
; _this$ = ecx
; File e:\library\dlib\dlib\interfaces\remover.h
; Line 207
	push	ebp
	mov	ebp, esp
	push	ecx
	mov	DWORD PTR _this$[ebp], ecx
	mov	eax, DWORD PTR _this$[ebp]
	mov	DWORD PTR [eax], OFFSET ??_7?$remover@Vfile@dlib@@@dlib@@6B@
	mov	esp, ebp
	pop	ebp
	ret	0
??1?$remover@Vfile@dlib@@@dlib@@UAE@XZ ENDP		; dlib::remover<dlib::file>::~remover<dlib::file>
; Function compile flags: /Odtp
_TEXT	ENDS
;	COMDAT ??1?$enumerable@Vfile@dlib@@@dlib@@UAE@XZ
_TEXT	SEGMENT
_this$ = -4						; size = 4
??1?$enumerable@Vfile@dlib@@@dlib@@UAE@XZ PROC		; dlib::enumerable<dlib::file>::~enumerable<dlib::file>, COMDAT
; _this$ = ecx
; File e:\library\dlib\dlib\interfaces\enumerable.h
; Line 123
	push	ebp
	mov	ebp, esp
	push	ecx
	mov	DWORD PTR _this$[ebp], ecx
	mov	eax, DWORD PTR _this$[ebp]
	mov	DWORD PTR [eax], OFFSET ??_7?$enumerable@Vfile@dlib@@@dlib@@6B@
	mov	esp, ebp
	pop	ebp
	ret	0
??1?$enumerable@Vfile@dlib@@@dlib@@UAE@XZ ENDP		; dlib::enumerable<dlib::file>::~enumerable<dlib::file>
; Function compile flags: /Odtp
_TEXT	ENDS
;	COMDAT ??$_Move@AAUdata@file@dlib@@@std@@YA$$QAUdata@file@dlib@@AAU123@@Z
_TEXT	SEGMENT
__Arg$ = 8						; size = 4
??$_Move@AAUdata@file@dlib@@@std@@YA$$QAUdata@file@dlib@@AAU123@@Z PROC ; std::_Move<dlib::file::data &>, COMDAT
; File e:\program files (x86)\microsoft visual studio 10.0\vc\include\utility
; Line 94
	push	ebp
	mov	ebp, esp
; Line 95
	mov	eax, DWORD PTR __Arg$[ebp]
; Line 96
	pop	ebp
	ret	0
??$_Move@AAUdata@file@dlib@@@std@@YA$$QAUdata@file@dlib@@AAU123@@Z ENDP ; std::_Move<dlib::file::data &>
; Function compile flags: /Odtp
_TEXT	ENDS
;	COMDAT ??0?$memory_manager_stateless_kernel_1@Unode@?$queue_kernel_2@Vfile@dlib@@$0BE@V?$memory_manager_stateless_kernel_1@D@2@@dlib@@@dlib@@QAE@XZ
_TEXT	SEGMENT
_this$ = -4						; size = 4
??0?$memory_manager_stateless_kernel_1@Unode@?$queue_kernel_2@Vfile@dlib@@$0BE@V?$memory_manager_stateless_kernel_1@D@2@@dlib@@@dlib@@QAE@XZ PROC ; dlib::memory_manager_stateless_kernel_1<dlib::queue_kernel_2<dlib::file,20,dlib::memory_manager_stateless_kernel_1<char> >::node>::memory_manager_stateless_kernel_1<dlib::queue_kernel_2<dlib::file,20,dlib::memory_manager_stateless_kernel_1<char> >::node>, COMDAT
; _this$ = ecx
; File e:\library\dlib\dlib\memory_manager_stateless\memory_manager_stateless_kernel_1.h
; Line 29
	push	ebp
	mov	ebp, esp
	push	ecx
	mov	DWORD PTR _this$[ebp], ecx
	mov	eax, DWORD PTR _this$[ebp]
	mov	DWORD PTR [eax], OFFSET ??_7?$memory_manager_stateless_kernel_1@Unode@?$queue_kernel_2@Vfile@dlib@@$0BE@V?$memory_manager_stateless_kernel_1@D@2@@dlib@@@dlib@@6B@
	mov	eax, DWORD PTR _this$[ebp]
	mov	esp, ebp
	pop	ebp
	ret	0
??0?$memory_manager_stateless_kernel_1@Unode@?$queue_kernel_2@Vfile@dlib@@$0BE@V?$memory_manager_stateless_kernel_1@D@2@@dlib@@@dlib@@QAE@XZ ENDP ; dlib::memory_manager_stateless_kernel_1<dlib::queue_kernel_2<dlib::file,20,dlib::memory_manager_stateless_kernel_1<char> >::node>::memory_manager_stateless_kernel_1<dlib::queue_kernel_2<dlib::file,20,dlib::memory_manager_stateless_kernel_1<char> >::node>
; Function compile flags: /Odtp
_TEXT	ENDS
;	COMDAT ??_G?$remover@Vfile@dlib@@@dlib@@UAEPAXI@Z
_TEXT	SEGMENT
_this$ = -4						; size = 4
___flags$ = 8						; size = 4
??_G?$remover@Vfile@dlib@@@dlib@@UAEPAXI@Z PROC		; dlib::remover<dlib::file>::`scalar deleting destructor', COMDAT
; _this$ = ecx
	push	ebp
	mov	ebp, esp
	push	ecx
	mov	DWORD PTR _this$[ebp], ecx
	mov	ecx, DWORD PTR _this$[ebp]
	call	??1?$remover@Vfile@dlib@@@dlib@@UAE@XZ	; dlib::remover<dlib::file>::~remover<dlib::file>
	mov	eax, DWORD PTR ___flags$[ebp]
	and	eax, 1
	je	SHORT $LN1@scalar
	mov	ecx, DWORD PTR _this$[ebp]
	push	ecx
	call	DWORD PTR __imp_??3@YAXPAX@Z
	add	esp, 4
$LN1@scalar:
	mov	eax, DWORD PTR _this$[ebp]
	mov	esp, ebp
	pop	ebp
	ret	4
??_G?$remover@Vfile@dlib@@@dlib@@UAEPAXI@Z ENDP		; dlib::remover<dlib::file>::`scalar deleting destructor'
; Function compile flags: /Odtp
_TEXT	ENDS
;	COMDAT ??0?$remover@Vfile@dlib@@@dlib@@QAE@XZ
_TEXT	SEGMENT
_this$ = -4						; size = 4
??0?$remover@Vfile@dlib@@@dlib@@QAE@XZ PROC		; dlib::remover<dlib::file>::remover<dlib::file>, COMDAT
; _this$ = ecx
	push	ebp
	mov	ebp, esp
	push	ecx
	mov	DWORD PTR _this$[ebp], ecx
	mov	eax, DWORD PTR _this$[ebp]
	mov	DWORD PTR [eax], OFFSET ??_7?$remover@Vfile@dlib@@@dlib@@6B@
	mov	eax, DWORD PTR _this$[ebp]
	mov	esp, ebp
	pop	ebp
	ret	0
??0?$remover@Vfile@dlib@@@dlib@@QAE@XZ ENDP		; dlib::remover<dlib::file>::remover<dlib::file>
; Function compile flags: /Odtp
_TEXT	ENDS
;	COMDAT ??0?$enumerable@Vfile@dlib@@@dlib@@QAE@XZ
_TEXT	SEGMENT
_this$ = -4						; size = 4
??0?$enumerable@Vfile@dlib@@@dlib@@QAE@XZ PROC		; dlib::enumerable<dlib::file>::enumerable<dlib::file>, COMDAT
; _this$ = ecx
	push	ebp
	mov	ebp, esp
	push	ecx
	mov	DWORD PTR _this$[ebp], ecx
	mov	eax, DWORD PTR _this$[ebp]
	mov	DWORD PTR [eax], OFFSET ??_7?$enumerable@Vfile@dlib@@@dlib@@6B@
	mov	eax, DWORD PTR _this$[ebp]
	mov	esp, ebp
	pop	ebp
	ret	0
??0?$enumerable@Vfile@dlib@@@dlib@@QAE@XZ ENDP		; dlib::enumerable<dlib::file>::enumerable<dlib::file>
; Function compile flags: /Odtp
_TEXT	ENDS
;	COMDAT ??1?$memory_manager_stateless_kernel_1@Unode@?$queue_kernel_2@Vfile@dlib@@$0BE@V?$memory_manager_stateless_kernel_1@D@2@@dlib@@@dlib@@UAE@XZ
_TEXT	SEGMENT
_this$ = -4						; size = 4
??1?$memory_manager_stateless_kernel_1@Unode@?$queue_kernel_2@Vfile@dlib@@$0BE@V?$memory_manager_stateless_kernel_1@D@2@@dlib@@@dlib@@UAE@XZ PROC ; dlib::memory_manager_stateless_kernel_1<dlib::queue_kernel_2<dlib::file,20,dlib::memory_manager_stateless_kernel_1<char> >::node>::~memory_manager_stateless_kernel_1<dlib::queue_kernel_2<dlib::file,20,dlib::memory_manager_stateless_kernel_1<char> >::node>, COMDAT
; _this$ = ecx
; Line 34
	push	ebp
	mov	ebp, esp
	push	ecx
	mov	DWORD PTR _this$[ebp], ecx
	mov	eax, DWORD PTR _this$[ebp]
	mov	DWORD PTR [eax], OFFSET ??_7?$memory_manager_stateless_kernel_1@Unode@?$queue_kernel_2@Vfile@dlib@@$0BE@V?$memory_manager_stateless_kernel_1@D@2@@dlib@@@dlib@@6B@
	mov	esp, ebp
	pop	ebp
	ret	0
??1?$memory_manager_stateless_kernel_1@Unode@?$queue_kernel_2@Vfile@dlib@@$0BE@V?$memory_manager_stateless_kernel_1@D@2@@dlib@@@dlib@@UAE@XZ ENDP ; dlib::memory_manager_stateless_kernel_1<dlib::queue_kernel_2<dlib::file,20,dlib::memory_manager_stateless_kernel_1<char> >::node>::~memory_manager_stateless_kernel_1<dlib::queue_kernel_2<dlib::file,20,dlib::memory_manager_stateless_kernel_1<char> >::node>
; Function compile flags: /Odtp
_TEXT	ENDS
;	COMDAT ??0?$queue_kernel_2@Vfile@dlib@@$0BE@V?$memory_manager_stateless_kernel_1@D@2@@dlib@@QAE@XZ
_TEXT	SEGMENT
_this$ = -4						; size = 4
??0?$queue_kernel_2@Vfile@dlib@@$0BE@V?$memory_manager_stateless_kernel_1@D@2@@dlib@@QAE@XZ PROC ; dlib::queue_kernel_2<dlib::file,20,dlib::memory_manager_stateless_kernel_1<char> >::queue_kernel_2<dlib::file,20,dlib::memory_manager_stateless_kernel_1<char> >, COMDAT
; _this$ = ecx
; File e:\library\dlib\dlib\queue\queue_kernel_2.h
; Line 78
	push	ebp
	mov	ebp, esp
	push	ecx
	mov	DWORD PTR _this$[ebp], ecx
	mov	ecx, DWORD PTR _this$[ebp]
	call	??0?$enumerable@Vfile@dlib@@@dlib@@QAE@XZ
	mov	ecx, DWORD PTR _this$[ebp]
	add	ecx, 4
	call	??0?$remover@Vfile@dlib@@@dlib@@QAE@XZ
	mov	eax, DWORD PTR _this$[ebp]
	mov	DWORD PTR [eax], OFFSET ??_7?$queue_kernel_2@Vfile@dlib@@$0BE@V?$memory_manager_stateless_kernel_1@D@2@@dlib@@6B?$enumerable@Vfile@dlib@@@1@@
	mov	ecx, DWORD PTR _this$[ebp]
	mov	DWORD PTR [ecx+4], OFFSET ??_7?$queue_kernel_2@Vfile@dlib@@$0BE@V?$memory_manager_stateless_kernel_1@D@2@@dlib@@6B?$remover@Vfile@dlib@@@1@@
	mov	ecx, DWORD PTR _this$[ebp]
	add	ecx, 8
	call	??0?$memory_manager_stateless_kernel_1@Unode@?$queue_kernel_2@Vfile@dlib@@$0BE@V?$memory_manager_stateless_kernel_1@D@2@@dlib@@@dlib@@QAE@XZ ; dlib::memory_manager_stateless_kernel_1<dlib::queue_kernel_2<dlib::file,20,dlib::memory_manager_stateless_kernel_1<char> >::node>::memory_manager_stateless_kernel_1<dlib::queue_kernel_2<dlib::file,20,dlib::memory_manager_stateless_kernel_1<char> >::node>
	mov	edx, DWORD PTR _this$[ebp]
	mov	DWORD PTR [edx+12], 0
	mov	eax, DWORD PTR _this$[ebp]
	mov	DWORD PTR [eax+16], 0
	mov	ecx, DWORD PTR _this$[ebp]
	mov	DWORD PTR [ecx+20], 0
	mov	edx, DWORD PTR _this$[ebp]
	mov	DWORD PTR [edx+32], 0
	mov	eax, DWORD PTR _this$[ebp]
	mov	BYTE PTR [eax+40], 1
; Line 79
	mov	eax, DWORD PTR _this$[ebp]
	mov	esp, ebp
	pop	ebp
	ret	0
??0?$queue_kernel_2@Vfile@dlib@@$0BE@V?$memory_manager_stateless_kernel_1@D@2@@dlib@@QAE@XZ ENDP ; dlib::queue_kernel_2<dlib::file,20,dlib::memory_manager_stateless_kernel_1<char> >::queue_kernel_2<dlib::file,20,dlib::memory_manager_stateless_kernel_1<char> >
; Function compile flags: /Odtp
_TEXT	ENDS
;	COMDAT ??$_Ptr_cat@Vfile@dlib@@V12@@std@@YA?AU_Nonscalar_ptr_iterator_tag@0@PAVfile@dlib@@0@Z
_TEXT	SEGMENT
__Cat$ = -1						; size = 1
___formal$ = 8						; size = 4
___formal$ = 12						; size = 4
??$_Ptr_cat@Vfile@dlib@@V12@@std@@YA?AU_Nonscalar_ptr_iterator_tag@0@PAVfile@dlib@@0@Z PROC ; std::_Ptr_cat<dlib::file,dlib::file>, COMDAT
; File e:\program files (x86)\microsoft visual studio 10.0\vc\include\xutility
; Line 528
	push	ebp
	mov	ebp, esp
	push	ecx
; Line 530
	mov	al, BYTE PTR __Cat$[ebp]
; Line 531
	mov	esp, ebp
	pop	ebp
	ret	0
??$_Ptr_cat@Vfile@dlib@@V12@@std@@YA?AU_Nonscalar_ptr_iterator_tag@0@PAVfile@dlib@@0@Z ENDP ; std::_Ptr_cat<dlib::file,dlib::file>
; Function compile flags: /Odtp
_TEXT	ENDS
;	COMDAT ??$_Destroy_range@V?$allocator@PAUstruct_gamestatus@@@std@@@std@@YAXPAPAUstruct_gamestatus@@0AAV?$allocator@PAUstruct_gamestatus@@@0@U_Scalar_ptr_iterator_tag@0@@Z
_TEXT	SEGMENT
__First$ = 8						; size = 4
__Last$ = 12						; size = 4
__Al$ = 16						; size = 4
___formal$ = 20						; size = 1
??$_Destroy_range@V?$allocator@PAUstruct_gamestatus@@@std@@@std@@YAXPAPAUstruct_gamestatus@@0AAV?$allocator@PAUstruct_gamestatus@@@0@U_Scalar_ptr_iterator_tag@0@@Z PROC ; std::_Destroy_range<std::allocator<struct_gamestatus *> >, COMDAT
; File e:\program files (x86)\microsoft visual studio 10.0\vc\include\xmemory
; Line 104
	push	ebp
	mov	ebp, esp
; Line 105
	pop	ebp
	ret	0
??$_Destroy_range@V?$allocator@PAUstruct_gamestatus@@@std@@@std@@YAXPAPAUstruct_gamestatus@@0AAV?$allocator@PAUstruct_gamestatus@@@0@U_Scalar_ptr_iterator_tag@0@@Z ENDP ; std::_Destroy_range<std::allocator<struct_gamestatus *> >
; Function compile flags: /Odtp
_TEXT	ENDS
;	COMDAT ??$_Ptr_cat@PAUstruct_gamestatus@@PAU1@@std@@YA?AU_Scalar_ptr_iterator_tag@0@PAPAUstruct_gamestatus@@0@Z
_TEXT	SEGMENT
__Cat$ = -1						; size = 1
___formal$ = 8						; size = 4
___formal$ = 12						; size = 4
??$_Ptr_cat@PAUstruct_gamestatus@@PAU1@@std@@YA?AU_Scalar_ptr_iterator_tag@0@PAPAUstruct_gamestatus@@0@Z PROC ; std::_Ptr_cat<struct_gamestatus *,struct_gamestatus *>, COMDAT
; File e:\program files (x86)\microsoft visual studio 10.0\vc\include\xutility
; Line 528
	push	ebp
	mov	ebp, esp
	push	ecx
; Line 530
	mov	al, BYTE PTR __Cat$[ebp]
; Line 531
	mov	esp, ebp
	pop	ebp
	ret	0
??$_Ptr_cat@PAUstruct_gamestatus@@PAU1@@std@@YA?AU_Scalar_ptr_iterator_tag@0@PAPAUstruct_gamestatus@@0@Z ENDP ; std::_Ptr_cat<struct_gamestatus *,struct_gamestatus *>
; Function compile flags: /Odtp
_TEXT	ENDS
;	COMDAT ??$_Uninitialized_move@PAPAUstruct_gamestatus@@PAPAU1@V?$allocator@PAUstruct_gamestatus@@@std@@@std@@YAPAPAUstruct_gamestatus@@PAPAU1@00AAV?$allocator@PAUstruct_gamestatus@@@0@@Z
_TEXT	SEGMENT
$T351500 = -1						; size = 1
__First$ = 8						; size = 4
__Last$ = 12						; size = 4
__Dest$ = 16						; size = 4
__Al$ = 20						; size = 4
??$_Uninitialized_move@PAPAUstruct_gamestatus@@PAPAU1@V?$allocator@PAUstruct_gamestatus@@@std@@@std@@YAPAPAUstruct_gamestatus@@PAPAU1@00AAV?$allocator@PAUstruct_gamestatus@@@0@@Z PROC ; std::_Uninitialized_move<struct_gamestatus * *,struct_gamestatus * *,std::allocator<struct_gamestatus *> >, COMDAT
; File e:\program files (x86)\microsoft visual studio 10.0\vc\include\memory
; Line 469
	push	ebp
	mov	ebp, esp
	push	ecx
; Line 471
	mov	eax, DWORD PTR __Dest$[ebp]
	push	eax
	mov	ecx, DWORD PTR __First$[ebp]
	push	ecx
	call	??$_Ptr_cat@PAUstruct_gamestatus@@PAU1@@std@@YA?AU_Scalar_ptr_iterator_tag@0@PAPAUstruct_gamestatus@@0@Z ; std::_Ptr_cat<struct_gamestatus *,struct_gamestatus *>
	add	esp, 8
	mov	BYTE PTR $T351500[ebp], al
	movzx	edx, BYTE PTR $T351500[ebp]
	push	edx
	mov	eax, DWORD PTR __First$[ebp]
	push	eax
	call	??$_Val_type@PAPAUstruct_gamestatus@@@std@@YAPAPAUstruct_gamestatus@@PAPAU1@@Z ; std::_Val_type<struct_gamestatus * *>
	add	esp, 4
	push	eax
	mov	ecx, DWORD PTR __Al$[ebp]
	push	ecx
	mov	edx, DWORD PTR __Dest$[ebp]
	push	edx
	mov	eax, DWORD PTR __Last$[ebp]
	push	eax
	mov	ecx, DWORD PTR __First$[ebp]
	push	ecx
	call	??$_Uninit_move@PAUstruct_gamestatus@@PAU1@PAU1@@std@@YAPAPAUstruct_gamestatus@@PAPAU1@00AAV?$allocator@PAUstruct_gamestatus@@@0@0U_Scalar_ptr_iterator_tag@0@@Z ; std::_Uninit_move<struct_gamestatus *,struct_gamestatus *,struct_gamestatus *>
	add	esp, 24					; 00000018H
; Line 472
	mov	esp, ebp
	pop	ebp
	ret	0
??$_Uninitialized_move@PAPAUstruct_gamestatus@@PAPAU1@V?$allocator@PAUstruct_gamestatus@@@std@@@std@@YAPAPAUstruct_gamestatus@@PAPAU1@00AAV?$allocator@PAUstruct_gamestatus@@@0@@Z ENDP ; std::_Uninitialized_move<struct_gamestatus * *,struct_gamestatus * *,std::allocator<struct_gamestatus *> >
; Function compile flags: /Odtp
_TEXT	ENDS
;	COMDAT ??$forward@ABQAUstruct_gamestatus@@@std@@YAABQAUstruct_gamestatus@@ABQAU1@@Z
_TEXT	SEGMENT
__Arg$ = 8						; size = 4
??$forward@ABQAUstruct_gamestatus@@@std@@YAABQAUstruct_gamestatus@@ABQAU1@@Z PROC ; std::forward<struct_gamestatus * const &>, COMDAT
; File e:\program files (x86)\microsoft visual studio 10.0\vc\include\utility
; Line 78
	push	ebp
	mov	ebp, esp
; Line 79
	mov	eax, DWORD PTR __Arg$[ebp]
; Line 80
	pop	ebp
	ret	0
??$forward@ABQAUstruct_gamestatus@@@std@@YAABQAUstruct_gamestatus@@ABQAU1@@Z ENDP ; std::forward<struct_gamestatus * const &>
; Function compile flags: /Odtp
_TEXT	ENDS
;	COMDAT ??$forward@AAPAUstruct_gamestatus@@@std@@YAAAPAUstruct_gamestatus@@AAPAU1@@Z
_TEXT	SEGMENT
__Arg$ = 8						; size = 4
??$forward@AAPAUstruct_gamestatus@@@std@@YAAAPAUstruct_gamestatus@@AAPAU1@@Z PROC ; std::forward<struct_gamestatus * &>, COMDAT
; Line 78
	push	ebp
	mov	ebp, esp
; Line 79
	mov	eax, DWORD PTR __Arg$[ebp]
; Line 80
	pop	ebp
	ret	0
??$forward@AAPAUstruct_gamestatus@@@std@@YAAAPAUstruct_gamestatus@@AAPAU1@@Z ENDP ; std::forward<struct_gamestatus * &>
; Function compile flags: /Odtp
_TEXT	ENDS
;	COMDAT ??$_Destroy_range@V?$allocator@PAUstruct_gamestatus@@@std@@@std@@YAXPAPAUstruct_gamestatus@@0AAV?$allocator@PAUstruct_gamestatus@@@0@@Z
_TEXT	SEGMENT
$T351507 = -1						; size = 1
__First$ = 8						; size = 4
__Last$ = 12						; size = 4
__Al$ = 16						; size = 4
??$_Destroy_range@V?$allocator@PAUstruct_gamestatus@@@std@@@std@@YAXPAPAUstruct_gamestatus@@0AAV?$allocator@PAUstruct_gamestatus@@@0@@Z PROC ; std::_Destroy_range<std::allocator<struct_gamestatus *> >, COMDAT
; File e:\program files (x86)\microsoft visual studio 10.0\vc\include\xmemory
; Line 87
	push	ebp
	mov	ebp, esp
	push	ecx
; Line 88
	mov	eax, DWORD PTR __Last$[ebp]
	push	eax
	mov	ecx, DWORD PTR __First$[ebp]
	push	ecx
	call	??$_Ptr_cat@PAUstruct_gamestatus@@PAU1@@std@@YA?AU_Scalar_ptr_iterator_tag@0@PAPAUstruct_gamestatus@@0@Z ; std::_Ptr_cat<struct_gamestatus *,struct_gamestatus *>
	add	esp, 8
	mov	BYTE PTR $T351507[ebp], al
	movzx	edx, BYTE PTR $T351507[ebp]
	push	edx
	mov	eax, DWORD PTR __Al$[ebp]
	push	eax
	mov	ecx, DWORD PTR __Last$[ebp]
	push	ecx
	mov	edx, DWORD PTR __First$[ebp]
	push	edx
	call	??$_Destroy_range@V?$allocator@PAUstruct_gamestatus@@@std@@@std@@YAXPAPAUstruct_gamestatus@@0AAV?$allocator@PAUstruct_gamestatus@@@0@U_Scalar_ptr_iterator_tag@0@@Z ; std::_Destroy_range<std::allocator<struct_gamestatus *> >
	add	esp, 16					; 00000010H
; Line 89
	mov	esp, ebp
	pop	ebp
	ret	0
??$_Destroy_range@V?$allocator@PAUstruct_gamestatus@@@std@@@std@@YAXPAPAUstruct_gamestatus@@0AAV?$allocator@PAUstruct_gamestatus@@@0@@Z ENDP ; std::_Destroy_range<std::allocator<struct_gamestatus *> >
; Function compile flags: /Odtp
_TEXT	ENDS
;	COMDAT ??$_Umove@PAPAUstruct_gamestatus@@@?$vector@PAUstruct_gamestatus@@V?$allocator@PAUstruct_gamestatus@@@std@@@std@@IAEPAPAUstruct_gamestatus@@PAPAU2@00@Z
_TEXT	SEGMENT
_this$ = -4						; size = 4
__First$ = 8						; size = 4
__Last$ = 12						; size = 4
__Ptr$ = 16						; size = 4
??$_Umove@PAPAUstruct_gamestatus@@@?$vector@PAUstruct_gamestatus@@V?$allocator@PAUstruct_gamestatus@@@std@@@std@@IAEPAPAUstruct_gamestatus@@PAPAU2@00@Z PROC ; std::vector<struct_gamestatus *,std::allocator<struct_gamestatus *> >::_Umove<struct_gamestatus * *>, COMDAT
; _this$ = ecx
; File e:\program files (x86)\microsoft visual studio 10.0\vc\include\vector
; Line 1322
	push	ebp
	mov	ebp, esp
	push	ecx
	mov	DWORD PTR _this$[ebp], ecx
; Line 1325
	mov	eax, DWORD PTR _this$[ebp]
	add	eax, 12					; 0000000cH
	push	eax
	mov	ecx, DWORD PTR __Ptr$[ebp]
	push	ecx
	mov	edx, DWORD PTR __Last$[ebp]
	push	edx
	mov	eax, DWORD PTR __First$[ebp]
	push	eax
	call	??$_Uninitialized_move@PAPAUstruct_gamestatus@@PAPAU1@V?$allocator@PAUstruct_gamestatus@@@std@@@std@@YAPAPAUstruct_gamestatus@@PAPAU1@00AAV?$allocator@PAUstruct_gamestatus@@@0@@Z ; std::_Uninitialized_move<struct_gamestatus * *,struct_gamestatus * *,std::allocator<struct_gamestatus *> >
	add	esp, 16					; 00000010H
; Line 1326
	mov	esp, ebp
	pop	ebp
	ret	12					; 0000000cH
??$_Umove@PAPAUstruct_gamestatus@@@?$vector@PAUstruct_gamestatus@@V?$allocator@PAUstruct_gamestatus@@@std@@@std@@IAEPAPAUstruct_gamestatus@@PAPAU2@00@Z ENDP ; std::vector<struct_gamestatus *,std::allocator<struct_gamestatus *> >::_Umove<struct_gamestatus * *>
; Function compile flags: /Odtp
_TEXT	ENDS
;	COMDAT ??$forward@Vfile@dlib@@@std@@YA$$QAVfile@dlib@@AAV12@@Z
_TEXT	SEGMENT
__Arg$ = 8						; size = 4
??$forward@Vfile@dlib@@@std@@YA$$QAVfile@dlib@@AAV12@@Z PROC ; std::forward<dlib::file>, COMDAT
; File e:\program files (x86)\microsoft visual studio 10.0\vc\include\utility
; Line 78
	push	ebp
	mov	ebp, esp
; Line 79
	mov	eax, DWORD PTR __Arg$[ebp]
; Line 80
	pop	ebp
	ret	0
??$forward@Vfile@dlib@@@std@@YA$$QAVfile@dlib@@AAV12@@Z ENDP ; std::forward<dlib::file>
; Function compile flags: /Odtp
_TEXT	ENDS
;	COMDAT ??$addressof@QAUstruct_gamestatus@@@std@@YAPBQAUstruct_gamestatus@@ABQAU1@@Z
_TEXT	SEGMENT
__Val$ = 8						; size = 4
??$addressof@QAUstruct_gamestatus@@@std@@YAPBQAUstruct_gamestatus@@ABQAU1@@Z PROC ; std::addressof<struct_gamestatus * const>, COMDAT
; File e:\program files (x86)\microsoft visual studio 10.0\vc\include\xmemory
; Line 110
	push	ebp
	mov	ebp, esp
; Line 111
	mov	eax, DWORD PTR __Val$[ebp]
; Line 112
	pop	ebp
	ret	0
??$addressof@QAUstruct_gamestatus@@@std@@YAPBQAUstruct_gamestatus@@ABQAU1@@Z ENDP ; std::addressof<struct_gamestatus * const>
; Function compile flags: /Odtp
_TEXT	ENDS
;	COMDAT ?max_size@?$allocator@Vfile@dlib@@@std@@QBEIXZ
_TEXT	SEGMENT
tv65 = -12						; size = 4
_this$ = -8						; size = 4
__Count$ = -4						; size = 4
?max_size@?$allocator@Vfile@dlib@@@std@@QBEIXZ PROC	; std::allocator<dlib::file>::max_size, COMDAT
; _this$ = ecx
; Line 217
	push	ebp
	mov	ebp, esp
	sub	esp, 12					; 0000000cH
	mov	DWORD PTR _this$[ebp], ecx
; Line 218
	mov	DWORD PTR __Count$[ebp], 67108863	; 03ffffffH
; Line 219
	cmp	DWORD PTR __Count$[ebp], 0
	jbe	SHORT $LN3@max_size@8
	mov	eax, DWORD PTR __Count$[ebp]
	mov	DWORD PTR tv65[ebp], eax
	jmp	SHORT $LN4@max_size@8
$LN3@max_size@8:
	mov	DWORD PTR tv65[ebp], 1
$LN4@max_size@8:
	mov	eax, DWORD PTR tv65[ebp]
; Line 220
	mov	esp, ebp
	pop	ebp
	ret	0
?max_size@?$allocator@Vfile@dlib@@@std@@QBEIXZ ENDP	; std::allocator<dlib::file>::max_size
; Function compile flags: /Odtp
_TEXT	ENDS
;	COMDAT ?_Compat@?$_Vector_const_iterator@V?$_Vector_val@Vfile@dlib@@V?$allocator@Vfile@dlib@@@std@@@std@@@std@@QBEXABV12@@Z
_TEXT	SEGMENT
_this$ = -4						; size = 4
___formal$ = 8						; size = 4
?_Compat@?$_Vector_const_iterator@V?$_Vector_val@Vfile@dlib@@V?$allocator@Vfile@dlib@@@std@@@std@@@std@@QBEXABV12@@Z PROC ; std::_Vector_const_iterator<std::_Vector_val<dlib::file,std::allocator<dlib::file> > >::_Compat, COMDAT
; _this$ = ecx
; File e:\program files (x86)\microsoft visual studio 10.0\vc\include\vector
; Line 252
	push	ebp
	mov	ebp, esp
	push	ecx
	mov	DWORD PTR _this$[ebp], ecx
; Line 253
	mov	esp, ebp
	pop	ebp
	ret	4
?_Compat@?$_Vector_const_iterator@V?$_Vector_val@Vfile@dlib@@V?$allocator@Vfile@dlib@@@std@@@std@@@std@@QBEXABV12@@Z ENDP ; std::_Vector_const_iterator<std::_Vector_val<dlib::file,std::allocator<dlib::file> > >::_Compat
; Function compile flags: /Odtp
_TEXT	ENDS
;	COMDAT ?_Xlen@?$vector@Vfile@dlib@@V?$allocator@Vfile@dlib@@@std@@@std@@IBEXXZ
_TEXT	SEGMENT
_this$ = -4						; size = 4
?_Xlen@?$vector@Vfile@dlib@@V?$allocator@Vfile@dlib@@@std@@@std@@IBEXXZ PROC ; std::vector<dlib::file,std::allocator<dlib::file> >::_Xlen, COMDAT
; _this$ = ecx
; Line 1426
	push	ebp
	mov	ebp, esp
	push	ecx
	mov	DWORD PTR _this$[ebp], ecx
; Line 1427
	push	OFFSET ??_C@_0BD@OLBABOEK@vector?$DMT?$DO?5too?5long?$AA@
	call	DWORD PTR __imp_?_Xlength_error@std@@YAXPBD@Z
$LN2@Xlen@8:
; Line 1428
	mov	esp, ebp
	pop	ebp
	ret	0
?_Xlen@?$vector@Vfile@dlib@@V?$allocator@Vfile@dlib@@@std@@@std@@IBEXXZ ENDP ; std::vector<dlib::file,std::allocator<dlib::file> >::_Xlen
; Function compile flags: /Odtp
_TEXT	ENDS
;	COMDAT ?max_size@?$vector@Vfile@dlib@@V?$allocator@Vfile@dlib@@@std@@@std@@QBEIXZ
_TEXT	SEGMENT
_this$ = -4						; size = 4
?max_size@?$vector@Vfile@dlib@@V?$allocator@Vfile@dlib@@@std@@@std@@QBEIXZ PROC ; std::vector<dlib::file,std::allocator<dlib::file> >::max_size, COMDAT
; _this$ = ecx
; Line 883
	push	ebp
	mov	ebp, esp
	push	ecx
	mov	DWORD PTR _this$[ebp], ecx
; Line 884
	mov	ecx, DWORD PTR _this$[ebp]
	add	ecx, 12					; 0000000cH
	call	?max_size@?$allocator@Vfile@dlib@@@std@@QBEIXZ ; std::allocator<dlib::file>::max_size
; Line 885
	mov	esp, ebp
	pop	ebp
	ret	0
?max_size@?$vector@Vfile@dlib@@V?$allocator@Vfile@dlib@@@std@@@std@@QBEIXZ ENDP ; std::vector<dlib::file,std::allocator<dlib::file> >::max_size
; Function compile flags: /Odtp
_TEXT	ENDS
;	COMDAT ?capacity@?$vector@Vfile@dlib@@V?$allocator@Vfile@dlib@@@std@@@std@@QBEIXZ
_TEXT	SEGMENT
_this$ = -4						; size = 4
?capacity@?$vector@Vfile@dlib@@V?$allocator@Vfile@dlib@@@std@@@std@@QBEIXZ PROC ; std::vector<dlib::file,std::allocator<dlib::file> >::capacity, COMDAT
; _this$ = ecx
; Line 776
	push	ebp
	mov	ebp, esp
	push	ecx
	mov	DWORD PTR _this$[ebp], ecx
; Line 777
	mov	eax, DWORD PTR _this$[ebp]
	mov	ecx, DWORD PTR _this$[ebp]
	mov	eax, DWORD PTR [eax+8]
	sub	eax, DWORD PTR [ecx]
	sar	eax, 6
; Line 778
	mov	esp, ebp
	pop	ebp
	ret	0
?capacity@?$vector@Vfile@dlib@@V?$allocator@Vfile@dlib@@@std@@@std@@QBEIXZ ENDP ; std::vector<dlib::file,std::allocator<dlib::file> >::capacity
; Function compile flags: /Odtp
_TEXT	ENDS
;	COMDAT ??8?$_Vector_const_iterator@V?$_Vector_val@Vfile@dlib@@V?$allocator@Vfile@dlib@@@std@@@std@@@std@@QBE_NABV01@@Z
_TEXT	SEGMENT
_this$ = -4						; size = 4
__Right$ = 8						; size = 4
??8?$_Vector_const_iterator@V?$_Vector_val@Vfile@dlib@@V?$allocator@Vfile@dlib@@@std@@@std@@@std@@QBE_NABV01@@Z PROC ; std::_Vector_const_iterator<std::_Vector_val<dlib::file,std::allocator<dlib::file> > >::operator==, COMDAT
; _this$ = ecx
; Line 201
	push	ebp
	mov	ebp, esp
	push	ecx
	mov	DWORD PTR _this$[ebp], ecx
; Line 202
	mov	eax, DWORD PTR __Right$[ebp]
	push	eax
	mov	ecx, DWORD PTR _this$[ebp]
	call	?_Compat@?$_Vector_const_iterator@V?$_Vector_val@Vfile@dlib@@V?$allocator@Vfile@dlib@@@std@@@std@@@std@@QBEXABV12@@Z ; std::_Vector_const_iterator<std::_Vector_val<dlib::file,std::allocator<dlib::file> > >::_Compat
; Line 203
	mov	ecx, DWORD PTR _this$[ebp]
	mov	edx, DWORD PTR __Right$[ebp]
	mov	eax, DWORD PTR [ecx]
	xor	ecx, ecx
	cmp	eax, DWORD PTR [edx]
	sete	cl
	mov	al, cl
; Line 204
	mov	esp, ebp
	pop	ebp
	ret	4
??8?$_Vector_const_iterator@V?$_Vector_val@Vfile@dlib@@V?$allocator@Vfile@dlib@@@std@@@std@@@std@@QBE_NABV01@@Z ENDP ; std::_Vector_const_iterator<std::_Vector_val<dlib::file,std::allocator<dlib::file> > >::operator==
; Function compile flags: /Odtp
_TEXT	ENDS
;	COMDAT ?_Orphan_range@?$vector@Vfile@dlib@@V?$allocator@Vfile@dlib@@@std@@@std@@IBEXPAVfile@dlib@@0@Z
_TEXT	SEGMENT
_this$ = -4						; size = 4
___formal$ = 8						; size = 4
___formal$ = 12						; size = 4
?_Orphan_range@?$vector@Vfile@dlib@@V?$allocator@Vfile@dlib@@@std@@@std@@IBEXPAVfile@dlib@@0@Z PROC ; std::vector<dlib::file,std::allocator<dlib::file> >::_Orphan_range, COMDAT
; _this$ = ecx
; Line 1453
	push	ebp
	mov	ebp, esp
	push	ecx
	mov	DWORD PTR _this$[ebp], ecx
; Line 1454
	mov	esp, ebp
	pop	ebp
	ret	8
?_Orphan_range@?$vector@Vfile@dlib@@V?$allocator@Vfile@dlib@@@std@@@std@@IBEXPAVfile@dlib@@0@Z ENDP ; std::vector<dlib::file,std::allocator<dlib::file> >::_Orphan_range
; Function compile flags: /Odtp
_TEXT	ENDS
;	COMDAT ?_Inside@?$vector@Vfile@dlib@@V?$allocator@Vfile@dlib@@@std@@@std@@IBE_NPBVfile@dlib@@@Z
_TEXT	SEGMENT
tv76 = -8						; size = 4
_this$ = -4						; size = 4
__Ptr$ = 8						; size = 4
?_Inside@?$vector@Vfile@dlib@@V?$allocator@Vfile@dlib@@@std@@@std@@IBE_NPBVfile@dlib@@@Z PROC ; std::vector<dlib::file,std::allocator<dlib::file> >::_Inside, COMDAT
; _this$ = ecx
; Line 1285
	push	ebp
	mov	ebp, esp
	sub	esp, 8
	mov	DWORD PTR _this$[ebp], ecx
; Line 1286
	mov	eax, DWORD PTR _this$[ebp]
	mov	ecx, DWORD PTR __Ptr$[ebp]
	cmp	ecx, DWORD PTR [eax+4]
	jae	SHORT $LN3@Inside@8
	mov	edx, DWORD PTR _this$[ebp]
	mov	eax, DWORD PTR [edx]
	cmp	eax, DWORD PTR __Ptr$[ebp]
	ja	SHORT $LN3@Inside@8
	mov	DWORD PTR tv76[ebp], 1
	jmp	SHORT $LN4@Inside@8
$LN3@Inside@8:
	mov	DWORD PTR tv76[ebp], 0
$LN4@Inside@8:
	mov	al, BYTE PTR tv76[ebp]
; Line 1287
	mov	esp, ebp
	pop	ebp
	ret	4
?_Inside@?$vector@Vfile@dlib@@V?$allocator@Vfile@dlib@@@std@@@std@@IBE_NPBVfile@dlib@@@Z ENDP ; std::vector<dlib::file,std::allocator<dlib::file> >::_Inside
; Function compile flags: /Odtp
_TEXT	ENDS
;	COMDAT ?max_size@?$allocator@PAUstruct_gamestatus@@@std@@QBEIXZ
_TEXT	SEGMENT
tv65 = -12						; size = 4
_this$ = -8						; size = 4
__Count$ = -4						; size = 4
?max_size@?$allocator@PAUstruct_gamestatus@@@std@@QBEIXZ PROC ; std::allocator<struct_gamestatus *>::max_size, COMDAT
; _this$ = ecx
; File e:\program files (x86)\microsoft visual studio 10.0\vc\include\xmemory
; Line 217
	push	ebp
	mov	ebp, esp
	sub	esp, 12					; 0000000cH
	mov	DWORD PTR _this$[ebp], ecx
; Line 218
	mov	DWORD PTR __Count$[ebp], 1073741823	; 3fffffffH
; Line 219
	cmp	DWORD PTR __Count$[ebp], 0
	jbe	SHORT $LN3@max_size@9
	mov	eax, DWORD PTR __Count$[ebp]
	mov	DWORD PTR tv65[ebp], eax
	jmp	SHORT $LN4@max_size@9
$LN3@max_size@9:
	mov	DWORD PTR tv65[ebp], 1
$LN4@max_size@9:
	mov	eax, DWORD PTR tv65[ebp]
; Line 220
	mov	esp, ebp
	pop	ebp
	ret	0
?max_size@?$allocator@PAUstruct_gamestatus@@@std@@QBEIXZ ENDP ; std::allocator<struct_gamestatus *>::max_size
; Function compile flags: /Odtp
_TEXT	ENDS
;	COMDAT ??9?$_Vector_const_iterator@V?$_Vector_val@Vfile@dlib@@V?$allocator@Vfile@dlib@@@std@@@std@@@std@@QBE_NABV01@@Z
_TEXT	SEGMENT
_this$ = -4						; size = 4
__Right$ = 8						; size = 4
??9?$_Vector_const_iterator@V?$_Vector_val@Vfile@dlib@@V?$allocator@Vfile@dlib@@@std@@@std@@@std@@QBE_NABV01@@Z PROC ; std::_Vector_const_iterator<std::_Vector_val<dlib::file,std::allocator<dlib::file> > >::operator!=, COMDAT
; _this$ = ecx
; File e:\program files (x86)\microsoft visual studio 10.0\vc\include\vector
; Line 207
	push	ebp
	mov	ebp, esp
	push	ecx
	mov	DWORD PTR _this$[ebp], ecx
; Line 208
	mov	eax, DWORD PTR __Right$[ebp]
	push	eax
	mov	ecx, DWORD PTR _this$[ebp]
	call	??8?$_Vector_const_iterator@V?$_Vector_val@Vfile@dlib@@V?$allocator@Vfile@dlib@@@std@@@std@@@std@@QBE_NABV01@@Z ; std::_Vector_const_iterator<std::_Vector_val<dlib::file,std::allocator<dlib::file> > >::operator==
	movzx	eax, al
	neg	eax
	sbb	eax, eax
	add	eax, 1
; Line 209
	mov	esp, ebp
	pop	ebp
	ret	4
??9?$_Vector_const_iterator@V?$_Vector_val@Vfile@dlib@@V?$allocator@Vfile@dlib@@@std@@@std@@@std@@QBE_NABV01@@Z ENDP ; std::_Vector_const_iterator<std::_Vector_val<dlib::file,std::allocator<dlib::file> > >::operator!=
; Function compile flags: /Odtp
_TEXT	ENDS
;	COMDAT ?deallocate@?$allocator@Vfile@dlib@@@std@@QAEXPAVfile@dlib@@I@Z
_TEXT	SEGMENT
_this$ = -4						; size = 4
__Ptr$ = 8						; size = 4
___formal$ = 12						; size = 4
?deallocate@?$allocator@Vfile@dlib@@@std@@QAEXPAVfile@dlib@@I@Z PROC ; std::allocator<dlib::file>::deallocate, COMDAT
; _this$ = ecx
; File e:\program files (x86)\microsoft visual studio 10.0\vc\include\xmemory
; Line 181
	push	ebp
	mov	ebp, esp
	push	ecx
	mov	DWORD PTR _this$[ebp], ecx
; Line 182
	mov	eax, DWORD PTR __Ptr$[ebp]
	push	eax
	call	DWORD PTR __imp_??3@YAXPAX@Z
	add	esp, 4
; Line 183
	mov	esp, ebp
	pop	ebp
	ret	8
?deallocate@?$allocator@Vfile@dlib@@@std@@QAEXPAVfile@dlib@@I@Z ENDP ; std::allocator<dlib::file>::deallocate
; Function compile flags: /Odtp
_TEXT	ENDS
;	COMDAT ?deallocate@?$allocator@PAUstruct_gamestatus@@@std@@QAEXPAPAUstruct_gamestatus@@I@Z
_TEXT	SEGMENT
_this$ = -4						; size = 4
__Ptr$ = 8						; size = 4
___formal$ = 12						; size = 4
?deallocate@?$allocator@PAUstruct_gamestatus@@@std@@QAEXPAPAUstruct_gamestatus@@I@Z PROC ; std::allocator<struct_gamestatus *>::deallocate, COMDAT
; _this$ = ecx
; Line 181
	push	ebp
	mov	ebp, esp
	push	ecx
	mov	DWORD PTR _this$[ebp], ecx
; Line 182
	mov	eax, DWORD PTR __Ptr$[ebp]
	push	eax
	call	DWORD PTR __imp_??3@YAXPAX@Z
	add	esp, 4
; Line 183
	mov	esp, ebp
	pop	ebp
	ret	8
?deallocate@?$allocator@PAUstruct_gamestatus@@@std@@QAEXPAPAUstruct_gamestatus@@I@Z ENDP ; std::allocator<struct_gamestatus *>::deallocate
; Function compile flags: /Odtp
_TEXT	ENDS
;	COMDAT ??0?$allocator@PAUstruct_gamestatus@@@std@@QAE@ABV01@@Z
_TEXT	SEGMENT
_this$ = -4						; size = 4
___formal$ = 8						; size = 4
??0?$allocator@PAUstruct_gamestatus@@@std@@QAE@ABV01@@Z PROC ; std::allocator<struct_gamestatus *>::allocator<struct_gamestatus *>, COMDAT
; _this$ = ecx
; Line 165
	push	ebp
	mov	ebp, esp
	push	ecx
	mov	DWORD PTR _this$[ebp], ecx
; Line 167
	mov	eax, DWORD PTR _this$[ebp]
	mov	esp, ebp
	pop	ebp
	ret	4
??0?$allocator@PAUstruct_gamestatus@@@std@@QAE@ABV01@@Z ENDP ; std::allocator<struct_gamestatus *>::allocator<struct_gamestatus *>
; Function compile flags: /Odtp
_TEXT	ENDS
;	COMDAT ?_Xlen@?$vector@PAUstruct_gamestatus@@V?$allocator@PAUstruct_gamestatus@@@std@@@std@@IBEXXZ
_TEXT	SEGMENT
_this$ = -4						; size = 4
?_Xlen@?$vector@PAUstruct_gamestatus@@V?$allocator@PAUstruct_gamestatus@@@std@@@std@@IBEXXZ PROC ; std::vector<struct_gamestatus *,std::allocator<struct_gamestatus *> >::_Xlen, COMDAT
; _this$ = ecx
; File e:\program files (x86)\microsoft visual studio 10.0\vc\include\vector
; Line 1426
	push	ebp
	mov	ebp, esp
	push	ecx
	mov	DWORD PTR _this$[ebp], ecx
; Line 1427
	push	OFFSET ??_C@_0BD@OLBABOEK@vector?$DMT?$DO?5too?5long?$AA@
	call	DWORD PTR __imp_?_Xlength_error@std@@YAXPBD@Z
$LN2@Xlen@9:
; Line 1428
	mov	esp, ebp
	pop	ebp
	ret	0
?_Xlen@?$vector@PAUstruct_gamestatus@@V?$allocator@PAUstruct_gamestatus@@@std@@@std@@IBEXXZ ENDP ; std::vector<struct_gamestatus *,std::allocator<struct_gamestatus *> >::_Xlen
; Function compile flags: /Odtp
_TEXT	ENDS
;	COMDAT ?_Destroy@?$vector@PAUstruct_gamestatus@@V?$allocator@PAUstruct_gamestatus@@@std@@@std@@IAEXPAPAUstruct_gamestatus@@0@Z
_TEXT	SEGMENT
_this$ = -4						; size = 4
__First$ = 8						; size = 4
__Last$ = 12						; size = 4
?_Destroy@?$vector@PAUstruct_gamestatus@@V?$allocator@PAUstruct_gamestatus@@@std@@@std@@IAEXPAPAUstruct_gamestatus@@0@Z PROC ; std::vector<struct_gamestatus *,std::allocator<struct_gamestatus *> >::_Destroy, COMDAT
; _this$ = ecx
; Line 1269
	push	ebp
	mov	ebp, esp
	push	ecx
	mov	DWORD PTR _this$[ebp], ecx
; Line 1270
	mov	eax, DWORD PTR _this$[ebp]
	add	eax, 12					; 0000000cH
	push	eax
	mov	ecx, DWORD PTR __Last$[ebp]
	push	ecx
	mov	edx, DWORD PTR __First$[ebp]
	push	edx
	call	??$_Destroy_range@V?$allocator@PAUstruct_gamestatus@@@std@@@std@@YAXPAPAUstruct_gamestatus@@0AAV?$allocator@PAUstruct_gamestatus@@@0@@Z ; std::_Destroy_range<std::allocator<struct_gamestatus *> >
	add	esp, 12					; 0000000cH
; Line 1271
	mov	esp, ebp
	pop	ebp
	ret	8
?_Destroy@?$vector@PAUstruct_gamestatus@@V?$allocator@PAUstruct_gamestatus@@@std@@@std@@IAEXPAPAUstruct_gamestatus@@0@Z ENDP ; std::vector<struct_gamestatus *,std::allocator<struct_gamestatus *> >::_Destroy
; Function compile flags: /Odtp
_TEXT	ENDS
;	COMDAT ?max_size@?$vector@PAUstruct_gamestatus@@V?$allocator@PAUstruct_gamestatus@@@std@@@std@@QBEIXZ
_TEXT	SEGMENT
_this$ = -4						; size = 4
?max_size@?$vector@PAUstruct_gamestatus@@V?$allocator@PAUstruct_gamestatus@@@std@@@std@@QBEIXZ PROC ; std::vector<struct_gamestatus *,std::allocator<struct_gamestatus *> >::max_size, COMDAT
; _this$ = ecx
; Line 883
	push	ebp
	mov	ebp, esp
	push	ecx
	mov	DWORD PTR _this$[ebp], ecx
; Line 884
	mov	ecx, DWORD PTR _this$[ebp]
	add	ecx, 12					; 0000000cH
	call	?max_size@?$allocator@PAUstruct_gamestatus@@@std@@QBEIXZ ; std::allocator<struct_gamestatus *>::max_size
; Line 885
	mov	esp, ebp
	pop	ebp
	ret	0
?max_size@?$vector@PAUstruct_gamestatus@@V?$allocator@PAUstruct_gamestatus@@@std@@@std@@QBEIXZ ENDP ; std::vector<struct_gamestatus *,std::allocator<struct_gamestatus *> >::max_size
; Function compile flags: /Odtp
_TEXT	ENDS
;	COMDAT ?size@?$vector@PAUstruct_gamestatus@@V?$allocator@PAUstruct_gamestatus@@@std@@@std@@QBEIXZ
_TEXT	SEGMENT
_this$ = -4						; size = 4
?size@?$vector@PAUstruct_gamestatus@@V?$allocator@PAUstruct_gamestatus@@@std@@@std@@QBEIXZ PROC ; std::vector<struct_gamestatus *,std::allocator<struct_gamestatus *> >::size, COMDAT
; _this$ = ecx
; Line 878
	push	ebp
	mov	ebp, esp
	push	ecx
	mov	DWORD PTR _this$[ebp], ecx
; Line 879
	mov	eax, DWORD PTR _this$[ebp]
	mov	ecx, DWORD PTR _this$[ebp]
	mov	eax, DWORD PTR [eax+4]
	sub	eax, DWORD PTR [ecx]
	sar	eax, 2
; Line 880
	mov	esp, ebp
	pop	ebp
	ret	0
?size@?$vector@PAUstruct_gamestatus@@V?$allocator@PAUstruct_gamestatus@@@std@@@std@@QBEIXZ ENDP ; std::vector<struct_gamestatus *,std::allocator<struct_gamestatus *> >::size
; Function compile flags: /Odtp
_TEXT	ENDS
;	COMDAT ?capacity@?$vector@PAUstruct_gamestatus@@V?$allocator@PAUstruct_gamestatus@@@std@@@std@@QBEIXZ
_TEXT	SEGMENT
_this$ = -4						; size = 4
?capacity@?$vector@PAUstruct_gamestatus@@V?$allocator@PAUstruct_gamestatus@@@std@@@std@@QBEIXZ PROC ; std::vector<struct_gamestatus *,std::allocator<struct_gamestatus *> >::capacity, COMDAT
; _this$ = ecx
; Line 776
	push	ebp
	mov	ebp, esp
	push	ecx
	mov	DWORD PTR _this$[ebp], ecx
; Line 777
	mov	eax, DWORD PTR _this$[ebp]
	mov	ecx, DWORD PTR _this$[ebp]
	mov	eax, DWORD PTR [eax+8]
	sub	eax, DWORD PTR [ecx]
	sar	eax, 2
; Line 778
	mov	esp, ebp
	pop	ebp
	ret	0
?capacity@?$vector@PAUstruct_gamestatus@@V?$allocator@PAUstruct_gamestatus@@@std@@@std@@QBEIXZ ENDP ; std::vector<struct_gamestatus *,std::allocator<struct_gamestatus *> >::capacity
; Function compile flags: /Odtp
_TEXT	ENDS
;	COMDAT ??0?$allocator@Vfile@dlib@@@std@@QAE@ABV01@@Z
_TEXT	SEGMENT
_this$ = -4						; size = 4
___formal$ = 8						; size = 4
??0?$allocator@Vfile@dlib@@@std@@QAE@ABV01@@Z PROC	; std::allocator<dlib::file>::allocator<dlib::file>, COMDAT
; _this$ = ecx
; File e:\program files (x86)\microsoft visual studio 10.0\vc\include\xmemory
; Line 165
	push	ebp
	mov	ebp, esp
	push	ecx
	mov	DWORD PTR _this$[ebp], ecx
; Line 167
	mov	eax, DWORD PTR _this$[ebp]
	mov	esp, ebp
	pop	ebp
	ret	4
??0?$allocator@Vfile@dlib@@@std@@QAE@ABV01@@Z ENDP	; std::allocator<dlib::file>::allocator<dlib::file>
; Function compile flags: /Odtp
_TEXT	ENDS
;	COMDAT ??0?$allocator@Vfile@dlib@@@std@@QAE@XZ
_TEXT	SEGMENT
_this$ = -4						; size = 4
??0?$allocator@Vfile@dlib@@@std@@QAE@XZ PROC		; std::allocator<dlib::file>::allocator<dlib::file>, COMDAT
; _this$ = ecx
; Line 161
	push	ebp
	mov	ebp, esp
	push	ecx
	mov	DWORD PTR _this$[ebp], ecx
; Line 163
	mov	eax, DWORD PTR _this$[ebp]
	mov	esp, ebp
	pop	ebp
	ret	0
??0?$allocator@Vfile@dlib@@@std@@QAE@XZ ENDP		; std::allocator<dlib::file>::allocator<dlib::file>
; Function compile flags: /Odtp
_TEXT	ENDS
;	COMDAT ??1?$_Vector_val@Vfile@dlib@@V?$allocator@Vfile@dlib@@@std@@@std@@QAE@XZ
_TEXT	SEGMENT
_this$ = -4						; size = 4
??1?$_Vector_val@Vfile@dlib@@V?$allocator@Vfile@dlib@@@std@@@std@@QAE@XZ PROC ; std::_Vector_val<dlib::file,std::allocator<dlib::file> >::~_Vector_val<dlib::file,std::allocator<dlib::file> >, COMDAT
; _this$ = ecx
; File e:\program files (x86)\microsoft visual studio 10.0\vc\include\vector
; Line 433
	push	ebp
	mov	ebp, esp
	push	ecx
	mov	DWORD PTR _this$[ebp], ecx
; Line 434
	mov	esp, ebp
	pop	ebp
	ret	0
??1?$_Vector_val@Vfile@dlib@@V?$allocator@Vfile@dlib@@@std@@@std@@QAE@XZ ENDP ; std::_Vector_val<dlib::file,std::allocator<dlib::file> >::~_Vector_val<dlib::file,std::allocator<dlib::file> >
; Function compile flags: /Odtp
_TEXT	ENDS
;	COMDAT ??0?$_Vector_val@Vfile@dlib@@V?$allocator@Vfile@dlib@@@std@@@std@@QAE@V?$allocator@Vfile@dlib@@@1@@Z
_TEXT	SEGMENT
_this$ = -4						; size = 4
__Al$ = 8						; size = 1
??0?$_Vector_val@Vfile@dlib@@V?$allocator@Vfile@dlib@@@std@@@std@@QAE@V?$allocator@Vfile@dlib@@@1@@Z PROC ; std::_Vector_val<dlib::file,std::allocator<dlib::file> >::_Vector_val<dlib::file,std::allocator<dlib::file> >, COMDAT
; _this$ = ecx
; Line 426
	push	ebp
	mov	ebp, esp
	push	ecx
	mov	DWORD PTR _this$[ebp], ecx
	lea	eax, DWORD PTR __Al$[ebp]
	push	eax
	mov	ecx, DWORD PTR _this$[ebp]
	add	ecx, 12					; 0000000cH
	call	??0?$allocator@Vfile@dlib@@@std@@QAE@ABV01@@Z ; std::allocator<dlib::file>::allocator<dlib::file>
; Line 427
	mov	ecx, DWORD PTR _this$[ebp]
	mov	DWORD PTR [ecx], 0
; Line 428
	mov	edx, DWORD PTR _this$[ebp]
	mov	DWORD PTR [edx+4], 0
; Line 429
	mov	eax, DWORD PTR _this$[ebp]
	mov	DWORD PTR [eax+8], 0
; Line 430
	mov	eax, DWORD PTR _this$[ebp]
	mov	esp, ebp
	pop	ebp
	ret	4
??0?$_Vector_val@Vfile@dlib@@V?$allocator@Vfile@dlib@@@std@@@std@@QAE@V?$allocator@Vfile@dlib@@@1@@Z ENDP ; std::_Vector_val<dlib::file,std::allocator<dlib::file> >::_Vector_val<dlib::file,std::allocator<dlib::file> >
; Function compile flags: /Odtp
_TEXT	ENDS
;	COMDAT ??0?$allocator@PAUstruct_gamestatus@@@std@@QAE@XZ
_TEXT	SEGMENT
_this$ = -4						; size = 4
??0?$allocator@PAUstruct_gamestatus@@@std@@QAE@XZ PROC	; std::allocator<struct_gamestatus *>::allocator<struct_gamestatus *>, COMDAT
; _this$ = ecx
; File e:\program files (x86)\microsoft visual studio 10.0\vc\include\xmemory
; Line 161
	push	ebp
	mov	ebp, esp
	push	ecx
	mov	DWORD PTR _this$[ebp], ecx
; Line 163
	mov	eax, DWORD PTR _this$[ebp]
	mov	esp, ebp
	pop	ebp
	ret	0
??0?$allocator@PAUstruct_gamestatus@@@std@@QAE@XZ ENDP	; std::allocator<struct_gamestatus *>::allocator<struct_gamestatus *>
; Function compile flags: /Odtp
_TEXT	ENDS
;	COMDAT ??1?$_Vector_val@PAUstruct_gamestatus@@V?$allocator@PAUstruct_gamestatus@@@std@@@std@@QAE@XZ
_TEXT	SEGMENT
_this$ = -4						; size = 4
??1?$_Vector_val@PAUstruct_gamestatus@@V?$allocator@PAUstruct_gamestatus@@@std@@@std@@QAE@XZ PROC ; std::_Vector_val<struct_gamestatus *,std::allocator<struct_gamestatus *> >::~_Vector_val<struct_gamestatus *,std::allocator<struct_gamestatus *> >, COMDAT
; _this$ = ecx
; File e:\program files (x86)\microsoft visual studio 10.0\vc\include\vector
; Line 433
	push	ebp
	mov	ebp, esp
	push	ecx
	mov	DWORD PTR _this$[ebp], ecx
; Line 434
	mov	esp, ebp
	pop	ebp
	ret	0
??1?$_Vector_val@PAUstruct_gamestatus@@V?$allocator@PAUstruct_gamestatus@@@std@@@std@@QAE@XZ ENDP ; std::_Vector_val<struct_gamestatus *,std::allocator<struct_gamestatus *> >::~_Vector_val<struct_gamestatus *,std::allocator<struct_gamestatus *> >
; Function compile flags: /Odtp
_TEXT	ENDS
;	COMDAT ??0?$_Vector_val@PAUstruct_gamestatus@@V?$allocator@PAUstruct_gamestatus@@@std@@@std@@QAE@V?$allocator@PAUstruct_gamestatus@@@1@@Z
_TEXT	SEGMENT
_this$ = -4						; size = 4
__Al$ = 8						; size = 1
??0?$_Vector_val@PAUstruct_gamestatus@@V?$allocator@PAUstruct_gamestatus@@@std@@@std@@QAE@V?$allocator@PAUstruct_gamestatus@@@1@@Z PROC ; std::_Vector_val<struct_gamestatus *,std::allocator<struct_gamestatus *> >::_Vector_val<struct_gamestatus *,std::allocator<struct_gamestatus *> >, COMDAT
; _this$ = ecx
; Line 426
	push	ebp
	mov	ebp, esp
	push	ecx
	mov	DWORD PTR _this$[ebp], ecx
	lea	eax, DWORD PTR __Al$[ebp]
	push	eax
	mov	ecx, DWORD PTR _this$[ebp]
	add	ecx, 12					; 0000000cH
	call	??0?$allocator@PAUstruct_gamestatus@@@std@@QAE@ABV01@@Z ; std::allocator<struct_gamestatus *>::allocator<struct_gamestatus *>
; Line 427
	mov	ecx, DWORD PTR _this$[ebp]
	mov	DWORD PTR [ecx], 0
; Line 428
	mov	edx, DWORD PTR _this$[ebp]
	mov	DWORD PTR [edx+4], 0
; Line 429
	mov	eax, DWORD PTR _this$[ebp]
	mov	DWORD PTR [eax+8], 0
; Line 430
	mov	eax, DWORD PTR _this$[ebp]
	mov	esp, ebp
	pop	ebp
	ret	4
??0?$_Vector_val@PAUstruct_gamestatus@@V?$allocator@PAUstruct_gamestatus@@@std@@@std@@QAE@V?$allocator@PAUstruct_gamestatus@@@1@@Z ENDP ; std::_Vector_val<struct_gamestatus *,std::allocator<struct_gamestatus *> >::_Vector_val<struct_gamestatus *,std::allocator<struct_gamestatus *> >
; Function compile flags: /Odtp
_TEXT	ENDS
;	COMDAT ?_Orphan_range@?$vector@PAUstruct_gamestatus@@V?$allocator@PAUstruct_gamestatus@@@std@@@std@@IBEXPAPAUstruct_gamestatus@@0@Z
_TEXT	SEGMENT
_this$ = -4						; size = 4
___formal$ = 8						; size = 4
___formal$ = 12						; size = 4
?_Orphan_range@?$vector@PAUstruct_gamestatus@@V?$allocator@PAUstruct_gamestatus@@@std@@@std@@IBEXPAPAUstruct_gamestatus@@0@Z PROC ; std::vector<struct_gamestatus *,std::allocator<struct_gamestatus *> >::_Orphan_range, COMDAT
; _this$ = ecx
; Line 1453
	push	ebp
	mov	ebp, esp
	push	ecx
	mov	DWORD PTR _this$[ebp], ecx
; Line 1454
	mov	esp, ebp
	pop	ebp
	ret	8
?_Orphan_range@?$vector@PAUstruct_gamestatus@@V?$allocator@PAUstruct_gamestatus@@@std@@@std@@IBEXPAPAUstruct_gamestatus@@0@Z ENDP ; std::vector<struct_gamestatus *,std::allocator<struct_gamestatus *> >::_Orphan_range
; Function compile flags: /Odtp
_TEXT	ENDS
;	COMDAT ?_Tidy@?$vector@PAUstruct_gamestatus@@V?$allocator@PAUstruct_gamestatus@@@std@@@std@@IAEXXZ
_TEXT	SEGMENT
_this$ = -4						; size = 4
?_Tidy@?$vector@PAUstruct_gamestatus@@V?$allocator@PAUstruct_gamestatus@@@std@@@std@@IAEXXZ PROC ; std::vector<struct_gamestatus *,std::allocator<struct_gamestatus *> >::_Tidy, COMDAT
; _this$ = ecx
; Line 1301
	push	ebp
	mov	ebp, esp
	push	ecx
	mov	DWORD PTR _this$[ebp], ecx
; Line 1302
	mov	eax, DWORD PTR _this$[ebp]
	cmp	DWORD PTR [eax], 0
	je	SHORT $LN1@Tidy
; Line 1304
	mov	ecx, DWORD PTR _this$[ebp]
	call	DWORD PTR __imp_?_Orphan_all@_Container_base0@std@@QAEXXZ
; Line 1305
	mov	ecx, DWORD PTR _this$[ebp]
	mov	edx, DWORD PTR [ecx+4]
	push	edx
	mov	eax, DWORD PTR _this$[ebp]
	mov	ecx, DWORD PTR [eax]
	push	ecx
	mov	ecx, DWORD PTR _this$[ebp]
	call	?_Destroy@?$vector@PAUstruct_gamestatus@@V?$allocator@PAUstruct_gamestatus@@@std@@@std@@IAEXPAPAUstruct_gamestatus@@0@Z ; std::vector<struct_gamestatus *,std::allocator<struct_gamestatus *> >::_Destroy
; Line 1307
	mov	edx, DWORD PTR _this$[ebp]
	mov	eax, DWORD PTR _this$[ebp]
	mov	ecx, DWORD PTR [edx+8]
	sub	ecx, DWORD PTR [eax]
	sar	ecx, 2
	push	ecx
	mov	edx, DWORD PTR _this$[ebp]
	mov	eax, DWORD PTR [edx]
	push	eax
	mov	ecx, DWORD PTR _this$[ebp]
	add	ecx, 12					; 0000000cH
	call	?deallocate@?$allocator@PAUstruct_gamestatus@@@std@@QAEXPAPAUstruct_gamestatus@@I@Z ; std::allocator<struct_gamestatus *>::deallocate
$LN1@Tidy:
; Line 1309
	mov	ecx, DWORD PTR _this$[ebp]
	mov	DWORD PTR [ecx], 0
; Line 1310
	mov	edx, DWORD PTR _this$[ebp]
	mov	DWORD PTR [edx+4], 0
; Line 1311
	mov	eax, DWORD PTR _this$[ebp]
	mov	DWORD PTR [eax+8], 0
; Line 1312
	mov	esp, ebp
	pop	ebp
	ret	0
?_Tidy@?$vector@PAUstruct_gamestatus@@V?$allocator@PAUstruct_gamestatus@@@std@@@std@@IAEXXZ ENDP ; std::vector<struct_gamestatus *,std::allocator<struct_gamestatus *> >::_Tidy
; Function compile flags: /Odtp
_TEXT	ENDS
;	COMDAT ?_Inside@?$vector@PAUstruct_gamestatus@@V?$allocator@PAUstruct_gamestatus@@@std@@@std@@IBE_NPBQAUstruct_gamestatus@@@Z
_TEXT	SEGMENT
tv76 = -8						; size = 4
_this$ = -4						; size = 4
__Ptr$ = 8						; size = 4
?_Inside@?$vector@PAUstruct_gamestatus@@V?$allocator@PAUstruct_gamestatus@@@std@@@std@@IBE_NPBQAUstruct_gamestatus@@@Z PROC ; std::vector<struct_gamestatus *,std::allocator<struct_gamestatus *> >::_Inside, COMDAT
; _this$ = ecx
; Line 1285
	push	ebp
	mov	ebp, esp
	sub	esp, 8
	mov	DWORD PTR _this$[ebp], ecx
; Line 1286
	mov	eax, DWORD PTR _this$[ebp]
	mov	ecx, DWORD PTR __Ptr$[ebp]
	cmp	ecx, DWORD PTR [eax+4]
	jae	SHORT $LN3@Inside@9
	mov	edx, DWORD PTR _this$[ebp]
	mov	eax, DWORD PTR [edx]
	cmp	eax, DWORD PTR __Ptr$[ebp]
	ja	SHORT $LN3@Inside@9
	mov	DWORD PTR tv76[ebp], 1
	jmp	SHORT $LN4@Inside@9
$LN3@Inside@9:
	mov	DWORD PTR tv76[ebp], 0
$LN4@Inside@9:
	mov	al, BYTE PTR tv76[ebp]
; Line 1287
	mov	esp, ebp
	pop	ebp
	ret	4
?_Inside@?$vector@PAUstruct_gamestatus@@V?$allocator@PAUstruct_gamestatus@@@std@@@std@@IBE_NPBQAUstruct_gamestatus@@@Z ENDP ; std::vector<struct_gamestatus *,std::allocator<struct_gamestatus *> >::_Inside
; Function compile flags: /Odtp
_TEXT	ENDS
;	COMDAT ??A?$vector@Vfile@dlib@@V?$allocator@Vfile@dlib@@@std@@@std@@QAEAAVfile@dlib@@I@Z
_TEXT	SEGMENT
_this$ = -4						; size = 4
__Pos$ = 8						; size = 4
??A?$vector@Vfile@dlib@@V?$allocator@Vfile@dlib@@@std@@@std@@QAEAAVfile@dlib@@I@Z PROC ; std::vector<dlib::file,std::allocator<dlib::file> >::operator[], COMDAT
; _this$ = ecx
; Line 928
	push	ebp
	mov	ebp, esp
	push	ecx
	mov	DWORD PTR _this$[ebp], ecx
; Line 940
	mov	eax, DWORD PTR __Pos$[ebp]
	shl	eax, 6
	mov	ecx, DWORD PTR _this$[ebp]
	add	eax, DWORD PTR [ecx]
; Line 941
	mov	esp, ebp
	pop	ebp
	ret	4
??A?$vector@Vfile@dlib@@V?$allocator@Vfile@dlib@@@std@@@std@@QAEAAVfile@dlib@@I@Z ENDP ; std::vector<dlib::file,std::allocator<dlib::file> >::operator[]
; Function compile flags: /Odtp
_TEXT	ENDS
;	COMDAT ?size@?$vector@Vfile@dlib@@V?$allocator@Vfile@dlib@@@std@@@std@@QBEIXZ
_TEXT	SEGMENT
_this$ = -4						; size = 4
?size@?$vector@Vfile@dlib@@V?$allocator@Vfile@dlib@@@std@@@std@@QBEIXZ PROC ; std::vector<dlib::file,std::allocator<dlib::file> >::size, COMDAT
; _this$ = ecx
; Line 878
	push	ebp
	mov	ebp, esp
	push	ecx
	mov	DWORD PTR _this$[ebp], ecx
; Line 879
	mov	eax, DWORD PTR _this$[ebp]
	mov	ecx, DWORD PTR _this$[ebp]
	mov	eax, DWORD PTR [eax+4]
	sub	eax, DWORD PTR [ecx]
	sar	eax, 6
; Line 880
	mov	esp, ebp
	pop	ebp
	ret	0
?size@?$vector@Vfile@dlib@@V?$allocator@Vfile@dlib@@@std@@@std@@QBEIXZ ENDP ; std::vector<dlib::file,std::allocator<dlib::file> >::size
; Function compile flags: /Odtp
_TEXT	ENDS
;	COMDAT ??0?$vector@Vfile@dlib@@V?$allocator@Vfile@dlib@@@std@@@std@@QAE@XZ
_TEXT	SEGMENT
_this$ = -8						; size = 4
$T351584 = -4						; size = 4
??0?$vector@Vfile@dlib@@V?$allocator@Vfile@dlib@@@std@@@std@@QAE@XZ PROC ; std::vector<dlib::file,std::allocator<dlib::file> >::vector<dlib::file,std::allocator<dlib::file> >, COMDAT
; _this$ = ecx
; Line 507
	push	ebp
	mov	ebp, esp
	sub	esp, 8
	mov	DWORD PTR _this$[ebp], ecx
	push	ecx
	mov	ecx, esp
	mov	DWORD PTR $T351584[ebp], esp
	call	??0?$allocator@Vfile@dlib@@@std@@QAE@XZ	; std::allocator<dlib::file>::allocator<dlib::file>
	mov	ecx, DWORD PTR _this$[ebp]
	call	??0?$_Vector_val@Vfile@dlib@@V?$allocator@Vfile@dlib@@@std@@@std@@QAE@V?$allocator@Vfile@dlib@@@1@@Z ; std::_Vector_val<dlib::file,std::allocator<dlib::file> >::_Vector_val<dlib::file,std::allocator<dlib::file> >
; Line 508
	mov	eax, DWORD PTR _this$[ebp]
	mov	esp, ebp
	pop	ebp
	ret	0
??0?$vector@Vfile@dlib@@V?$allocator@Vfile@dlib@@@std@@@std@@QAE@XZ ENDP ; std::vector<dlib::file,std::allocator<dlib::file> >::vector<dlib::file,std::allocator<dlib::file> >
_TEXT	ENDS
EXTRN	___security_cookie:DWORD
EXTRN	___CxxFrameHandler3:PROC
;	COMDAT xdata$x
xdata$x	SEGMENT
__unwindtable$??1?$vector@PAUstruct_gamestatus@@V?$allocator@PAUstruct_gamestatus@@@std@@@std@@QAE@XZ DD 0ffffffffH
	DD	FLAT:__unwindfunclet$??1?$vector@PAUstruct_gamestatus@@V?$allocator@PAUstruct_gamestatus@@@std@@@std@@QAE@XZ$0
__ehfuncinfo$??1?$vector@PAUstruct_gamestatus@@V?$allocator@PAUstruct_gamestatus@@@std@@@std@@QAE@XZ DD 019930522H
	DD	01H
	DD	FLAT:__unwindtable$??1?$vector@PAUstruct_gamestatus@@V?$allocator@PAUstruct_gamestatus@@@std@@@std@@QAE@XZ
	DD	2 DUP(00H)
	DD	2 DUP(00H)
	DD	00H
	DD	01H
; Function compile flags: /Odtp
xdata$x	ENDS
;	COMDAT ??1?$vector@PAUstruct_gamestatus@@V?$allocator@PAUstruct_gamestatus@@@std@@@std@@QAE@XZ
_TEXT	SEGMENT
_this$ = -16						; size = 4
__$EHRec$ = -12						; size = 12
??1?$vector@PAUstruct_gamestatus@@V?$allocator@PAUstruct_gamestatus@@@std@@@std@@QAE@XZ PROC ; std::vector<struct_gamestatus *,std::allocator<struct_gamestatus *> >::~vector<struct_gamestatus *,std::allocator<struct_gamestatus *> >, COMDAT
; _this$ = ecx
; Line 704
	push	ebp
	mov	ebp, esp
	push	-1
	push	__ehhandler$??1?$vector@PAUstruct_gamestatus@@V?$allocator@PAUstruct_gamestatus@@@std@@@std@@QAE@XZ
	mov	eax, DWORD PTR fs:0
	push	eax
	push	ecx
	mov	eax, DWORD PTR ___security_cookie
	xor	eax, ebp
	push	eax
	lea	eax, DWORD PTR __$EHRec$[ebp]
	mov	DWORD PTR fs:0, eax
	mov	DWORD PTR _this$[ebp], ecx
	mov	DWORD PTR __$EHRec$[ebp+8], 0
; Line 705
	mov	ecx, DWORD PTR _this$[ebp]
	call	?_Tidy@?$vector@PAUstruct_gamestatus@@V?$allocator@PAUstruct_gamestatus@@@std@@@std@@IAEXXZ ; std::vector<struct_gamestatus *,std::allocator<struct_gamestatus *> >::_Tidy
; Line 706
	mov	DWORD PTR __$EHRec$[ebp+8], -1
	mov	ecx, DWORD PTR _this$[ebp]
	call	??1?$_Vector_val@PAUstruct_gamestatus@@V?$allocator@PAUstruct_gamestatus@@@std@@@std@@QAE@XZ ; std::_Vector_val<struct_gamestatus *,std::allocator<struct_gamestatus *> >::~_Vector_val<struct_gamestatus *,std::allocator<struct_gamestatus *> >
	mov	ecx, DWORD PTR __$EHRec$[ebp]
	mov	DWORD PTR fs:0, ecx
	pop	ecx
	mov	esp, ebp
	pop	ebp
	ret	0
_TEXT	ENDS
;	COMDAT text$x
text$x	SEGMENT
__unwindfunclet$??1?$vector@PAUstruct_gamestatus@@V?$allocator@PAUstruct_gamestatus@@@std@@@std@@QAE@XZ$0:
	mov	ecx, DWORD PTR _this$[ebp]
	jmp	??1?$_Vector_val@PAUstruct_gamestatus@@V?$allocator@PAUstruct_gamestatus@@@std@@@std@@QAE@XZ ; std::_Vector_val<struct_gamestatus *,std::allocator<struct_gamestatus *> >::~_Vector_val<struct_gamestatus *,std::allocator<struct_gamestatus *> >
__ehhandler$??1?$vector@PAUstruct_gamestatus@@V?$allocator@PAUstruct_gamestatus@@@std@@@std@@QAE@XZ:
	mov	edx, DWORD PTR [esp+8]
	lea	eax, DWORD PTR [edx+12]
	mov	ecx, DWORD PTR [edx-8]
	xor	ecx, eax
	call	@__security_check_cookie@4
	mov	eax, OFFSET __ehfuncinfo$??1?$vector@PAUstruct_gamestatus@@V?$allocator@PAUstruct_gamestatus@@@std@@@std@@QAE@XZ
	jmp	___CxxFrameHandler3
text$x	ENDS
??1?$vector@PAUstruct_gamestatus@@V?$allocator@PAUstruct_gamestatus@@@std@@@std@@QAE@XZ ENDP ; std::vector<struct_gamestatus *,std::allocator<struct_gamestatus *> >::~vector<struct_gamestatus *,std::allocator<struct_gamestatus *> >
; Function compile flags: /Odtp
;	COMDAT ??0?$vector@PAUstruct_gamestatus@@V?$allocator@PAUstruct_gamestatus@@@std@@@std@@QAE@XZ
_TEXT	SEGMENT
_this$ = -8						; size = 4
$T351598 = -4						; size = 4
??0?$vector@PAUstruct_gamestatus@@V?$allocator@PAUstruct_gamestatus@@@std@@@std@@QAE@XZ PROC ; std::vector<struct_gamestatus *,std::allocator<struct_gamestatus *> >::vector<struct_gamestatus *,std::allocator<struct_gamestatus *> >, COMDAT
; _this$ = ecx
; Line 507
	push	ebp
	mov	ebp, esp
	sub	esp, 8
	mov	DWORD PTR _this$[ebp], ecx
	push	ecx
	mov	ecx, esp
	mov	DWORD PTR $T351598[ebp], esp
	call	??0?$allocator@PAUstruct_gamestatus@@@std@@QAE@XZ ; std::allocator<struct_gamestatus *>::allocator<struct_gamestatus *>
	mov	ecx, DWORD PTR _this$[ebp]
	call	??0?$_Vector_val@PAUstruct_gamestatus@@V?$allocator@PAUstruct_gamestatus@@@std@@@std@@QAE@V?$allocator@PAUstruct_gamestatus@@@1@@Z ; std::_Vector_val<struct_gamestatus *,std::allocator<struct_gamestatus *> >::_Vector_val<struct_gamestatus *,std::allocator<struct_gamestatus *> >
; Line 508
	mov	eax, DWORD PTR _this$[ebp]
	mov	esp, ebp
	pop	ebp
	ret	0
??0?$vector@PAUstruct_gamestatus@@V?$allocator@PAUstruct_gamestatus@@@std@@@std@@QAE@XZ ENDP ; std::vector<struct_gamestatus *,std::allocator<struct_gamestatus *> >::vector<struct_gamestatus *,std::allocator<struct_gamestatus *> >
; Function compile flags: /Odtp
_TEXT	ENDS
;	COMDAT ?name@file@dlib@@QBEABV?$basic_string@DU?$char_traits@D@std@@V?$allocator@D@2@@std@@XZ
_TEXT	SEGMENT
_this$ = -4						; size = 4
?name@file@dlib@@QBEABV?$basic_string@DU?$char_traits@D@std@@V?$allocator@D@2@@std@@XZ PROC ; dlib::file::name, COMDAT
; _this$ = ecx
; File e:\library\dlib\dlib\dir_nav\dir_nav_kernel_1.h
; Line 99
	push	ebp
	mov	ebp, esp
	push	ecx
	mov	DWORD PTR _this$[ebp], ecx
	mov	eax, DWORD PTR _this$[ebp]
	add	eax, 8
	mov	esp, ebp
	pop	ebp
	ret	0
?name@file@dlib@@QBEABV?$basic_string@DU?$char_traits@D@std@@V?$allocator@D@2@@std@@XZ ENDP ; dlib::file::name
; Function compile flags: /Odtp
;	COMDAT ?size@?$queue_kernel_2@Vfile@dlib@@$0BE@V?$memory_manager_stateless_kernel_1@D@2@@dlib@@W3BEKXZ
_TEXT	SEGMENT
?size@?$queue_kernel_2@Vfile@dlib@@$0BE@V?$memory_manager_stateless_kernel_1@D@2@@dlib@@W3BEKXZ PROC ; [thunk]:dlib::queue_kernel_2<dlib::file,20,dlib::memory_manager_stateless_kernel_1<char> >::size`adjustor{4}', COMDAT
	sub	ecx, 4
	jmp	?size@?$queue_kernel_2@Vfile@dlib@@$0BE@V?$memory_manager_stateless_kernel_1@D@2@@dlib@@UBEKXZ ; dlib::queue_kernel_2<dlib::file,20,dlib::memory_manager_stateless_kernel_1<char> >::size
?size@?$queue_kernel_2@Vfile@dlib@@$0BE@V?$memory_manager_stateless_kernel_1@D@2@@dlib@@W3BEKXZ ENDP ; [thunk]:dlib::queue_kernel_2<dlib::file,20,dlib::memory_manager_stateless_kernel_1<char> >::size`adjustor{4}'
; Function compile flags: /Odtp
_TEXT	ENDS
;	COMDAT ??_G?$memory_manager_stateless_kernel_1@Unode@?$queue_kernel_2@Vfile@dlib@@$0BE@V?$memory_manager_stateless_kernel_1@D@2@@dlib@@@dlib@@UAEPAXI@Z
_TEXT	SEGMENT
_this$ = -4						; size = 4
___flags$ = 8						; size = 4
??_G?$memory_manager_stateless_kernel_1@Unode@?$queue_kernel_2@Vfile@dlib@@$0BE@V?$memory_manager_stateless_kernel_1@D@2@@dlib@@@dlib@@UAEPAXI@Z PROC ; dlib::memory_manager_stateless_kernel_1<dlib::queue_kernel_2<dlib::file,20,dlib::memory_manager_stateless_kernel_1<char> >::node>::`scalar deleting destructor', COMDAT
; _this$ = ecx
	push	ebp
	mov	ebp, esp
	push	ecx
	mov	DWORD PTR _this$[ebp], ecx
	mov	ecx, DWORD PTR _this$[ebp]
	call	??1?$memory_manager_stateless_kernel_1@Unode@?$queue_kernel_2@Vfile@dlib@@$0BE@V?$memory_manager_stateless_kernel_1@D@2@@dlib@@@dlib@@UAE@XZ ; dlib::memory_manager_stateless_kernel_1<dlib::queue_kernel_2<dlib::file,20,dlib::memory_manager_stateless_kernel_1<char> >::node>::~memory_manager_stateless_kernel_1<dlib::queue_kernel_2<dlib::file,20,dlib::memory_manager_stateless_kernel_1<char> >::node>
	mov	eax, DWORD PTR ___flags$[ebp]
	and	eax, 1
	je	SHORT $LN1@scalar@30
	mov	ecx, DWORD PTR _this$[ebp]
	push	ecx
	call	DWORD PTR __imp_??3@YAXPAX@Z
	add	esp, 4
$LN1@scalar@30:
	mov	eax, DWORD PTR _this$[ebp]
	mov	esp, ebp
	pop	ebp
	ret	4
??_G?$memory_manager_stateless_kernel_1@Unode@?$queue_kernel_2@Vfile@dlib@@$0BE@V?$memory_manager_stateless_kernel_1@D@2@@dlib@@@dlib@@UAEPAXI@Z ENDP ; dlib::memory_manager_stateless_kernel_1<dlib::queue_kernel_2<dlib::file,20,dlib::memory_manager_stateless_kernel_1<char> >::node>::`scalar deleting destructor'
; Function compile flags: /Odtp
_TEXT	ENDS
;	COMDAT ??$_Construct@PAUstruct_gamestatus@@ABQAU1@@std@@YAXPAPAUstruct_gamestatus@@ABQAU1@@Z
_TEXT	SEGMENT
tv73 = -16						; size = 4
$T355895 = -12						; size = 4
$T355894 = -8						; size = 4
__Vptr$ = -4						; size = 4
__Ptr$ = 8						; size = 4
__Val$ = 12						; size = 4
??$_Construct@PAUstruct_gamestatus@@ABQAU1@@std@@YAXPAPAUstruct_gamestatus@@ABQAU1@@Z PROC ; std::_Construct<struct_gamestatus *,struct_gamestatus * const &>, COMDAT
; File e:\program files (x86)\microsoft visual studio 10.0\vc\include\xmemory
; Line 46
	push	ebp
	mov	ebp, esp
	sub	esp, 16					; 00000010H
; Line 47
	mov	eax, DWORD PTR __Ptr$[ebp]
	mov	DWORD PTR __Vptr$[ebp], eax
; Line 48
	mov	ecx, DWORD PTR __Vptr$[ebp]
	push	ecx
	push	4
	call	??2@YAPAXIPAX@Z				; operator new
	add	esp, 8
	mov	DWORD PTR $T355895[ebp], eax
	cmp	DWORD PTR $T355895[ebp], 0
	je	SHORT $LN3@Construct
	mov	edx, DWORD PTR __Val$[ebp]
	push	edx
	call	??$forward@ABQAUstruct_gamestatus@@@std@@YAABQAUstruct_gamestatus@@ABQAU1@@Z ; std::forward<struct_gamestatus * const &>
	add	esp, 4
	mov	ecx, DWORD PTR $T355895[ebp]
	mov	edx, DWORD PTR [eax]
	mov	DWORD PTR [ecx], edx
	mov	eax, DWORD PTR $T355895[ebp]
	mov	DWORD PTR tv73[ebp], eax
	jmp	SHORT $LN4@Construct
$LN3@Construct:
	mov	DWORD PTR tv73[ebp], 0
$LN4@Construct:
	mov	ecx, DWORD PTR tv73[ebp]
	mov	DWORD PTR $T355894[ebp], ecx
; Line 49
	mov	esp, ebp
	pop	ebp
	ret	0
??$_Construct@PAUstruct_gamestatus@@ABQAU1@@std@@YAXPAPAUstruct_gamestatus@@ABQAU1@@Z ENDP ; std::_Construct<struct_gamestatus *,struct_gamestatus * const &>
; Function compile flags: /Odtp
_TEXT	ENDS
;	COMDAT ??$construct@AAPAUstruct_gamestatus@@@?$allocator@PAUstruct_gamestatus@@@std@@QAEXPAPAUstruct_gamestatus@@AAPAU2@@Z
_TEXT	SEGMENT
tv73 = -16						; size = 4
_this$ = -12						; size = 4
$T355901 = -8						; size = 4
$T355900 = -4						; size = 4
__Ptr$ = 8						; size = 4
__Val$ = 12						; size = 4
??$construct@AAPAUstruct_gamestatus@@@?$allocator@PAUstruct_gamestatus@@@std@@QAEXPAPAUstruct_gamestatus@@AAPAU2@@Z PROC ; std::allocator<struct_gamestatus *>::construct<struct_gamestatus * &>, COMDAT
; _this$ = ecx
; Line 206
	push	ebp
	mov	ebp, esp
	sub	esp, 16					; 00000010H
	mov	DWORD PTR _this$[ebp], ecx
; Line 208
	mov	eax, DWORD PTR __Ptr$[ebp]
	push	eax
	push	4
	call	??2@YAPAXIPAX@Z				; operator new
	add	esp, 8
	mov	DWORD PTR $T355901[ebp], eax
	cmp	DWORD PTR $T355901[ebp], 0
	je	SHORT $LN3@construct
	mov	ecx, DWORD PTR __Val$[ebp]
	push	ecx
	call	??$forward@AAPAUstruct_gamestatus@@@std@@YAAAPAUstruct_gamestatus@@AAPAU1@@Z ; std::forward<struct_gamestatus * &>
	add	esp, 4
	mov	edx, DWORD PTR $T355901[ebp]
	mov	eax, DWORD PTR [eax]
	mov	DWORD PTR [edx], eax
	mov	ecx, DWORD PTR $T355901[ebp]
	mov	DWORD PTR tv73[ebp], ecx
	jmp	SHORT $LN4@construct
$LN3@construct:
	mov	DWORD PTR tv73[ebp], 0
$LN4@construct:
	mov	edx, DWORD PTR tv73[ebp]
	mov	DWORD PTR $T355900[ebp], edx
; Line 209
	mov	esp, ebp
	pop	ebp
	ret	8
??$construct@AAPAUstruct_gamestatus@@@?$allocator@PAUstruct_gamestatus@@@std@@QAEXPAPAUstruct_gamestatus@@AAPAU2@@Z ENDP ; std::allocator<struct_gamestatus *>::construct<struct_gamestatus * &>
; Function compile flags: /Odtp
_TEXT	ENDS
;	COMDAT ?construct@?$allocator@PAUstruct_gamestatus@@@std@@QAEXPAPAUstruct_gamestatus@@ABQAU3@@Z
_TEXT	SEGMENT
_this$ = -4						; size = 4
__Ptr$ = 8						; size = 4
__Val$ = 12						; size = 4
?construct@?$allocator@PAUstruct_gamestatus@@@std@@QAEXPAPAUstruct_gamestatus@@ABQAU3@@Z PROC ; std::allocator<struct_gamestatus *>::construct, COMDAT
; _this$ = ecx
; Line 196
	push	ebp
	mov	ebp, esp
	push	ecx
	mov	DWORD PTR _this$[ebp], ecx
; Line 197
	mov	eax, DWORD PTR __Val$[ebp]
	push	eax
	mov	ecx, DWORD PTR __Ptr$[ebp]
	push	ecx
	call	??$_Construct@PAUstruct_gamestatus@@ABQAU1@@std@@YAXPAPAUstruct_gamestatus@@ABQAU1@@Z ; std::_Construct<struct_gamestatus *,struct_gamestatus * const &>
	add	esp, 8
; Line 198
	mov	esp, ebp
	pop	ebp
	ret	8
?construct@?$allocator@PAUstruct_gamestatus@@@std@@QAEXPAPAUstruct_gamestatus@@ABQAU3@@Z ENDP ; std::allocator<struct_gamestatus *>::construct
; Function compile flags: /Odtp
_TEXT	ENDS
;	COMDAT ??$_Allocate@Vfile@dlib@@@std@@YAPAVfile@dlib@@IPAV12@@Z
_TEXT	SEGMENT
$T355908 = -16						; size = 12
__Ptr$ = -4						; size = 4
__Count$ = 8						; size = 4
___formal$ = 12						; size = 4
??$_Allocate@Vfile@dlib@@@std@@YAPAVfile@dlib@@IPAV12@@Z PROC ; std::_Allocate<dlib::file>, COMDAT
; Line 30
	push	ebp
	mov	ebp, esp
	sub	esp, 16					; 00000010H
; Line 31
	mov	DWORD PTR __Ptr$[ebp], 0
; Line 33
	cmp	DWORD PTR __Count$[ebp], 0
	ja	SHORT $LN4@Allocate@8
; Line 34
	mov	DWORD PTR __Count$[ebp], 0
; Line 35
	jmp	SHORT $LN3@Allocate@8
$LN4@Allocate@8:
; Line 36
	cmp	DWORD PTR __Count$[ebp], 67108863	; 03ffffffH
	ja	SHORT $LN1@Allocate@8
	mov	eax, DWORD PTR __Count$[ebp]
	shl	eax, 6
	push	eax
	call	DWORD PTR __imp_??2@YAPAXI@Z
	add	esp, 4
	mov	DWORD PTR __Ptr$[ebp], eax
	cmp	DWORD PTR __Ptr$[ebp], 0
	jne	SHORT $LN3@Allocate@8
$LN1@Allocate@8:
; Line 37
	push	0
	lea	ecx, DWORD PTR $T355908[ebp]
	call	??0bad_alloc@std@@QAE@PBD@Z		; std::bad_alloc::bad_alloc
	push	OFFSET __TI2?AVbad_alloc@std@@
	lea	ecx, DWORD PTR $T355908[ebp]
	push	ecx
	call	__CxxThrowException@8
$LN3@Allocate@8:
; Line 39
	mov	eax, DWORD PTR __Ptr$[ebp]
$LN6@Allocate@8:
; Line 40
	mov	esp, ebp
	pop	ebp
	ret	0
??$_Allocate@Vfile@dlib@@@std@@YAPAVfile@dlib@@IPAV12@@Z ENDP ; std::_Allocate<dlib::file>
; Function compile flags: /Odtp
_TEXT	ENDS
;	COMDAT ??$_Allocate@PAUstruct_gamestatus@@@std@@YAPAPAUstruct_gamestatus@@IPAPAU1@@Z
_TEXT	SEGMENT
$T355911 = -16						; size = 12
__Ptr$ = -4						; size = 4
__Count$ = 8						; size = 4
___formal$ = 12						; size = 4
??$_Allocate@PAUstruct_gamestatus@@@std@@YAPAPAUstruct_gamestatus@@IPAPAU1@@Z PROC ; std::_Allocate<struct_gamestatus *>, COMDAT
; Line 30
	push	ebp
	mov	ebp, esp
	sub	esp, 16					; 00000010H
; Line 31
	mov	DWORD PTR __Ptr$[ebp], 0
; Line 33
	cmp	DWORD PTR __Count$[ebp], 0
	ja	SHORT $LN4@Allocate@9
; Line 34
	mov	DWORD PTR __Count$[ebp], 0
; Line 35
	jmp	SHORT $LN3@Allocate@9
$LN4@Allocate@9:
; Line 36
	cmp	DWORD PTR __Count$[ebp], 1073741823	; 3fffffffH
	ja	SHORT $LN1@Allocate@9
	mov	eax, DWORD PTR __Count$[ebp]
	shl	eax, 2
	push	eax
	call	DWORD PTR __imp_??2@YAPAXI@Z
	add	esp, 4
	mov	DWORD PTR __Ptr$[ebp], eax
	cmp	DWORD PTR __Ptr$[ebp], 0
	jne	SHORT $LN3@Allocate@9
$LN1@Allocate@9:
; Line 37
	push	0
	lea	ecx, DWORD PTR $T355911[ebp]
	call	??0bad_alloc@std@@QAE@PBD@Z		; std::bad_alloc::bad_alloc
	push	OFFSET __TI2?AVbad_alloc@std@@
	lea	ecx, DWORD PTR $T355911[ebp]
	push	ecx
	call	__CxxThrowException@8
$LN3@Allocate@9:
; Line 39
	mov	eax, DWORD PTR __Ptr$[ebp]
$LN6@Allocate@9:
; Line 40
	mov	esp, ebp
	pop	ebp
	ret	0
??$_Allocate@PAUstruct_gamestatus@@@std@@YAPAPAUstruct_gamestatus@@IPAPAU1@@Z ENDP ; std::_Allocate<struct_gamestatus *>
; Function compile flags: /Odtp
_TEXT	ENDS
;	COMDAT ??$_Cons_val@V?$allocator@PAUstruct_gamestatus@@@std@@PAUstruct_gamestatus@@ABQAU3@@std@@YAXAAV?$allocator@PAUstruct_gamestatus@@@0@PAPAUstruct_gamestatus@@ABQAU2@@Z
_TEXT	SEGMENT
__Alval$ = 8						; size = 4
__Pdest$ = 12						; size = 4
__Src$ = 16						; size = 4
??$_Cons_val@V?$allocator@PAUstruct_gamestatus@@@std@@PAUstruct_gamestatus@@ABQAU3@@std@@YAXAAV?$allocator@PAUstruct_gamestatus@@@0@PAPAUstruct_gamestatus@@ABQAU2@@Z PROC ; std::_Cons_val<std::allocator<struct_gamestatus *>,struct_gamestatus *,struct_gamestatus * const &>, COMDAT
; Line 279
	push	ebp
	mov	ebp, esp
; Line 280
	mov	eax, DWORD PTR __Src$[ebp]
	push	eax
	call	??$forward@ABQAUstruct_gamestatus@@@std@@YAABQAUstruct_gamestatus@@ABQAU1@@Z ; std::forward<struct_gamestatus * const &>
	add	esp, 4
	push	eax
	mov	ecx, DWORD PTR __Pdest$[ebp]
	push	ecx
	mov	ecx, DWORD PTR __Alval$[ebp]
	call	?construct@?$allocator@PAUstruct_gamestatus@@@std@@QAEXPAPAUstruct_gamestatus@@ABQAU3@@Z ; std::allocator<struct_gamestatus *>::construct
; Line 281
	pop	ebp
	ret	0
??$_Cons_val@V?$allocator@PAUstruct_gamestatus@@@std@@PAUstruct_gamestatus@@ABQAU3@@std@@YAXAAV?$allocator@PAUstruct_gamestatus@@@0@PAPAUstruct_gamestatus@@ABQAU2@@Z ENDP ; std::_Cons_val<std::allocator<struct_gamestatus *>,struct_gamestatus *,struct_gamestatus * const &>
; Function compile flags: /Odtp
_TEXT	ENDS
;	COMDAT ??$_Cons_val@V?$allocator@PAUstruct_gamestatus@@@std@@PAUstruct_gamestatus@@AAPAU3@@std@@YAXAAV?$allocator@PAUstruct_gamestatus@@@0@PAPAUstruct_gamestatus@@AAPAU2@@Z
_TEXT	SEGMENT
__Alval$ = 8						; size = 4
__Pdest$ = 12						; size = 4
__Src$ = 16						; size = 4
??$_Cons_val@V?$allocator@PAUstruct_gamestatus@@@std@@PAUstruct_gamestatus@@AAPAU3@@std@@YAXAAV?$allocator@PAUstruct_gamestatus@@@0@PAPAUstruct_gamestatus@@AAPAU2@@Z PROC ; std::_Cons_val<std::allocator<struct_gamestatus *>,struct_gamestatus *,struct_gamestatus * &>, COMDAT
; Line 279
	push	ebp
	mov	ebp, esp
; Line 280
	mov	eax, DWORD PTR __Src$[ebp]
	push	eax
	call	??$forward@AAPAUstruct_gamestatus@@@std@@YAAAPAUstruct_gamestatus@@AAPAU1@@Z ; std::forward<struct_gamestatus * &>
	add	esp, 4
	push	eax
	mov	ecx, DWORD PTR __Pdest$[ebp]
	push	ecx
	mov	ecx, DWORD PTR __Alval$[ebp]
	call	??$construct@AAPAUstruct_gamestatus@@@?$allocator@PAUstruct_gamestatus@@@std@@QAEXPAPAUstruct_gamestatus@@AAPAU2@@Z ; std::allocator<struct_gamestatus *>::construct<struct_gamestatus * &>
; Line 281
	pop	ebp
	ret	0
??$_Cons_val@V?$allocator@PAUstruct_gamestatus@@@std@@PAUstruct_gamestatus@@AAPAU3@@std@@YAXAAV?$allocator@PAUstruct_gamestatus@@@0@PAPAUstruct_gamestatus@@AAPAU2@@Z ENDP ; std::_Cons_val<std::allocator<struct_gamestatus *>,struct_gamestatus *,struct_gamestatus * &>
; Function compile flags: /Odtp
_TEXT	ENDS
;	COMDAT ?allocate@?$allocator@Vfile@dlib@@@std@@QAEPAVfile@dlib@@I@Z
_TEXT	SEGMENT
_this$ = -4						; size = 4
__Count$ = 8						; size = 4
?allocate@?$allocator@Vfile@dlib@@@std@@QAEPAVfile@dlib@@I@Z PROC ; std::allocator<dlib::file>::allocate, COMDAT
; _this$ = ecx
; Line 186
	push	ebp
	mov	ebp, esp
	push	ecx
	mov	DWORD PTR _this$[ebp], ecx
; Line 187
	push	0
	mov	eax, DWORD PTR __Count$[ebp]
	push	eax
	call	??$_Allocate@Vfile@dlib@@@std@@YAPAVfile@dlib@@IPAV12@@Z ; std::_Allocate<dlib::file>
	add	esp, 8
; Line 188
	mov	esp, ebp
	pop	ebp
	ret	4
?allocate@?$allocator@Vfile@dlib@@@std@@QAEPAVfile@dlib@@I@Z ENDP ; std::allocator<dlib::file>::allocate
; Function compile flags: /Odtp
_TEXT	ENDS
;	COMDAT ??0?$_Vector_const_iterator@V?$_Vector_val@Vfile@dlib@@V?$allocator@Vfile@dlib@@@std@@@std@@@std@@QAE@PAVfile@dlib@@PBU_Container_base0@1@@Z
_TEXT	SEGMENT
_this$ = -4						; size = 4
__Parg$ = 8						; size = 4
__Pvector$ = 12						; size = 4
??0?$_Vector_const_iterator@V?$_Vector_val@Vfile@dlib@@V?$allocator@Vfile@dlib@@@std@@@std@@@std@@QAE@PAVfile@dlib@@PBU_Container_base0@1@@Z PROC ; std::_Vector_const_iterator<std::_Vector_val<dlib::file,std::allocator<dlib::file> > >::_Vector_const_iterator<std::_Vector_val<dlib::file,std::allocator<dlib::file> > >, COMDAT
; _this$ = ecx
; File e:\program files (x86)\microsoft visual studio 10.0\vc\include\vector
; Line 45
	push	ebp
	mov	ebp, esp
	push	ecx
	mov	DWORD PTR _this$[ebp], ecx
	mov	eax, DWORD PTR _this$[ebp]
	mov	ecx, DWORD PTR __Parg$[ebp]
	mov	DWORD PTR [eax], ecx
; Line 46
	mov	edx, DWORD PTR __Pvector$[ebp]
	push	edx
	mov	ecx, DWORD PTR _this$[ebp]
	call	?_Adopt@_Iterator_base0@std@@QAEXPBX@Z	; std::_Iterator_base0::_Adopt
; Line 47
	mov	eax, DWORD PTR _this$[ebp]
	mov	esp, ebp
	pop	ebp
	ret	8
??0?$_Vector_const_iterator@V?$_Vector_val@Vfile@dlib@@V?$allocator@Vfile@dlib@@@std@@@std@@@std@@QAE@PAVfile@dlib@@PBU_Container_base0@1@@Z ENDP ; std::_Vector_const_iterator<std::_Vector_val<dlib::file,std::allocator<dlib::file> > >::_Vector_const_iterator<std::_Vector_val<dlib::file,std::allocator<dlib::file> > >
; Function compile flags: /Odtp
_TEXT	ENDS
;	COMDAT ?_Grow_to@?$vector@Vfile@dlib@@V?$allocator@Vfile@dlib@@@std@@@std@@IBEII@Z
_TEXT	SEGMENT
tv73 = -12						; size = 4
_this$ = -8						; size = 4
__Capacity$ = -4					; size = 4
__Count$ = 8						; size = 4
?_Grow_to@?$vector@Vfile@dlib@@V?$allocator@Vfile@dlib@@@std@@@std@@IBEII@Z PROC ; std::vector<dlib::file,std::allocator<dlib::file> >::_Grow_to, COMDAT
; _this$ = ecx
; Line 1274
	push	ebp
	mov	ebp, esp
	sub	esp, 12					; 0000000cH
	mov	DWORD PTR _this$[ebp], ecx
; Line 1275
	mov	ecx, DWORD PTR _this$[ebp]
	call	?capacity@?$vector@Vfile@dlib@@V?$allocator@Vfile@dlib@@@std@@@std@@QBEIXZ ; std::vector<dlib::file,std::allocator<dlib::file> >::capacity
	mov	DWORD PTR __Capacity$[ebp], eax
; Line 1278
	mov	ecx, DWORD PTR _this$[ebp]
	call	?max_size@?$vector@Vfile@dlib@@V?$allocator@Vfile@dlib@@@std@@@std@@QBEIXZ ; std::vector<dlib::file,std::allocator<dlib::file> >::max_size
	mov	ecx, DWORD PTR __Capacity$[ebp]
	shr	ecx, 1
	sub	eax, ecx
	cmp	eax, DWORD PTR __Capacity$[ebp]
	jae	SHORT $LN4@Grow_to@8
	mov	DWORD PTR tv73[ebp], 0
	jmp	SHORT $LN5@Grow_to@8
$LN4@Grow_to@8:
	mov	edx, DWORD PTR __Capacity$[ebp]
	shr	edx, 1
	add	edx, DWORD PTR __Capacity$[ebp]
	mov	DWORD PTR tv73[ebp], edx
$LN5@Grow_to@8:
	mov	eax, DWORD PTR tv73[ebp]
	mov	DWORD PTR __Capacity$[ebp], eax
; Line 1279
	mov	ecx, DWORD PTR __Capacity$[ebp]
	cmp	ecx, DWORD PTR __Count$[ebp]
	jae	SHORT $LN1@Grow_to@8
; Line 1280
	mov	edx, DWORD PTR __Count$[ebp]
	mov	DWORD PTR __Capacity$[ebp], edx
$LN1@Grow_to@8:
; Line 1281
	mov	eax, DWORD PTR __Capacity$[ebp]
; Line 1282
	mov	esp, ebp
	pop	ebp
	ret	4
?_Grow_to@?$vector@Vfile@dlib@@V?$allocator@Vfile@dlib@@@std@@@std@@IBEII@Z ENDP ; std::vector<dlib::file,std::allocator<dlib::file> >::_Grow_to
; Function compile flags: /Odtp
_TEXT	ENDS
;	COMDAT ??0?$_Vector_iterator@V?$_Vector_val@Vfile@dlib@@V?$allocator@Vfile@dlib@@@std@@@std@@@std@@QAE@PAVfile@dlib@@PBU_Container_base0@1@@Z
_TEXT	SEGMENT
_this$ = -4						; size = 4
__Parg$ = 8						; size = 4
__Pvector$ = 12						; size = 4
??0?$_Vector_iterator@V?$_Vector_val@Vfile@dlib@@V?$allocator@Vfile@dlib@@@std@@@std@@@std@@QAE@PAVfile@dlib@@PBU_Container_base0@1@@Z PROC ; std::_Vector_iterator<std::_Vector_val<dlib::file,std::allocator<dlib::file> > >::_Vector_iterator<std::_Vector_val<dlib::file,std::allocator<dlib::file> > >, COMDAT
; _this$ = ecx
; Line 304
	push	ebp
	mov	ebp, esp
	push	ecx
	mov	DWORD PTR _this$[ebp], ecx
	mov	eax, DWORD PTR __Pvector$[ebp]
	push	eax
	mov	ecx, DWORD PTR __Parg$[ebp]
	push	ecx
	mov	ecx, DWORD PTR _this$[ebp]
	call	??0?$_Vector_const_iterator@V?$_Vector_val@Vfile@dlib@@V?$allocator@Vfile@dlib@@@std@@@std@@@std@@QAE@PAVfile@dlib@@PBU_Container_base0@1@@Z ; std::_Vector_const_iterator<std::_Vector_val<dlib::file,std::allocator<dlib::file> > >::_Vector_const_iterator<std::_Vector_val<dlib::file,std::allocator<dlib::file> > >
; Line 305
	mov	eax, DWORD PTR _this$[ebp]
	mov	esp, ebp
	pop	ebp
	ret	8
??0?$_Vector_iterator@V?$_Vector_val@Vfile@dlib@@V?$allocator@Vfile@dlib@@@std@@@std@@@std@@QAE@PAVfile@dlib@@PBU_Container_base0@1@@Z ENDP ; std::_Vector_iterator<std::_Vector_val<dlib::file,std::allocator<dlib::file> > >::_Vector_iterator<std::_Vector_val<dlib::file,std::allocator<dlib::file> > >
; Function compile flags: /Odtp
_TEXT	ENDS
;	COMDAT ?allocate@?$allocator@PAUstruct_gamestatus@@@std@@QAEPAPAUstruct_gamestatus@@I@Z
_TEXT	SEGMENT
_this$ = -4						; size = 4
__Count$ = 8						; size = 4
?allocate@?$allocator@PAUstruct_gamestatus@@@std@@QAEPAPAUstruct_gamestatus@@I@Z PROC ; std::allocator<struct_gamestatus *>::allocate, COMDAT
; _this$ = ecx
; File e:\program files (x86)\microsoft visual studio 10.0\vc\include\xmemory
; Line 186
	push	ebp
	mov	ebp, esp
	push	ecx
	mov	DWORD PTR _this$[ebp], ecx
; Line 187
	push	0
	mov	eax, DWORD PTR __Count$[ebp]
	push	eax
	call	??$_Allocate@PAUstruct_gamestatus@@@std@@YAPAPAUstruct_gamestatus@@IPAPAU1@@Z ; std::_Allocate<struct_gamestatus *>
	add	esp, 8
; Line 188
	mov	esp, ebp
	pop	ebp
	ret	4
?allocate@?$allocator@PAUstruct_gamestatus@@@std@@QAEPAPAUstruct_gamestatus@@I@Z ENDP ; std::allocator<struct_gamestatus *>::allocate
; Function compile flags: /Odtp
_TEXT	ENDS
;	COMDAT ?end@?$vector@Vfile@dlib@@V?$allocator@Vfile@dlib@@@std@@@std@@QAE?AV?$_Vector_iterator@V?$_Vector_val@Vfile@dlib@@V?$allocator@Vfile@dlib@@@std@@@std@@@2@XZ
_TEXT	SEGMENT
_this$ = -4						; size = 4
___$ReturnUdt$ = 8					; size = 4
?end@?$vector@Vfile@dlib@@V?$allocator@Vfile@dlib@@@std@@@std@@QAE?AV?$_Vector_iterator@V?$_Vector_val@Vfile@dlib@@V?$allocator@Vfile@dlib@@@std@@@std@@@2@XZ PROC ; std::vector<dlib::file,std::allocator<dlib::file> >::end, COMDAT
; _this$ = ecx
; File e:\program files (x86)\microsoft visual studio 10.0\vc\include\vector
; Line 791
	push	ebp
	mov	ebp, esp
	push	ecx
	mov	DWORD PTR _this$[ebp], ecx
; Line 792
	mov	eax, DWORD PTR _this$[ebp]
	push	eax
	mov	ecx, DWORD PTR _this$[ebp]
	mov	edx, DWORD PTR [ecx+4]
	push	edx
	mov	ecx, DWORD PTR ___$ReturnUdt$[ebp]
	call	??0?$_Vector_iterator@V?$_Vector_val@Vfile@dlib@@V?$allocator@Vfile@dlib@@@std@@@std@@@std@@QAE@PAVfile@dlib@@PBU_Container_base0@1@@Z ; std::_Vector_iterator<std::_Vector_val<dlib::file,std::allocator<dlib::file> > >::_Vector_iterator<std::_Vector_val<dlib::file,std::allocator<dlib::file> > >
	mov	eax, DWORD PTR ___$ReturnUdt$[ebp]
; Line 793
	mov	esp, ebp
	pop	ebp
	ret	4
?end@?$vector@Vfile@dlib@@V?$allocator@Vfile@dlib@@@std@@@std@@QAE?AV?$_Vector_iterator@V?$_Vector_val@Vfile@dlib@@V?$allocator@Vfile@dlib@@@std@@@std@@@2@XZ ENDP ; std::vector<dlib::file,std::allocator<dlib::file> >::end
; Function compile flags: /Odtp
_TEXT	ENDS
;	COMDAT ?begin@?$vector@Vfile@dlib@@V?$allocator@Vfile@dlib@@@std@@@std@@QAE?AV?$_Vector_iterator@V?$_Vector_val@Vfile@dlib@@V?$allocator@Vfile@dlib@@@std@@@std@@@2@XZ
_TEXT	SEGMENT
_this$ = -4						; size = 4
___$ReturnUdt$ = 8					; size = 4
?begin@?$vector@Vfile@dlib@@V?$allocator@Vfile@dlib@@@std@@@std@@QAE?AV?$_Vector_iterator@V?$_Vector_val@Vfile@dlib@@V?$allocator@Vfile@dlib@@@std@@@std@@@2@XZ PROC ; std::vector<dlib::file,std::allocator<dlib::file> >::begin, COMDAT
; _this$ = ecx
; Line 781
	push	ebp
	mov	ebp, esp
	push	ecx
	mov	DWORD PTR _this$[ebp], ecx
; Line 782
	mov	eax, DWORD PTR _this$[ebp]
	push	eax
	mov	ecx, DWORD PTR _this$[ebp]
	mov	edx, DWORD PTR [ecx]
	push	edx
	mov	ecx, DWORD PTR ___$ReturnUdt$[ebp]
	call	??0?$_Vector_iterator@V?$_Vector_val@Vfile@dlib@@V?$allocator@Vfile@dlib@@@std@@@std@@@std@@QAE@PAVfile@dlib@@PBU_Container_base0@1@@Z ; std::_Vector_iterator<std::_Vector_val<dlib::file,std::allocator<dlib::file> > >::_Vector_iterator<std::_Vector_val<dlib::file,std::allocator<dlib::file> > >
	mov	eax, DWORD PTR ___$ReturnUdt$[ebp]
; Line 783
	mov	esp, ebp
	pop	ebp
	ret	4
?begin@?$vector@Vfile@dlib@@V?$allocator@Vfile@dlib@@@std@@@std@@QAE?AV?$_Vector_iterator@V?$_Vector_val@Vfile@dlib@@V?$allocator@Vfile@dlib@@@std@@@std@@@2@XZ ENDP ; std::vector<dlib::file,std::allocator<dlib::file> >::begin
; Function compile flags: /Odtp
_TEXT	ENDS
;	COMDAT ?_Grow_to@?$vector@PAUstruct_gamestatus@@V?$allocator@PAUstruct_gamestatus@@@std@@@std@@IBEII@Z
_TEXT	SEGMENT
tv73 = -12						; size = 4
_this$ = -8						; size = 4
__Capacity$ = -4					; size = 4
__Count$ = 8						; size = 4
?_Grow_to@?$vector@PAUstruct_gamestatus@@V?$allocator@PAUstruct_gamestatus@@@std@@@std@@IBEII@Z PROC ; std::vector<struct_gamestatus *,std::allocator<struct_gamestatus *> >::_Grow_to, COMDAT
; _this$ = ecx
; Line 1274
	push	ebp
	mov	ebp, esp
	sub	esp, 12					; 0000000cH
	mov	DWORD PTR _this$[ebp], ecx
; Line 1275
	mov	ecx, DWORD PTR _this$[ebp]
	call	?capacity@?$vector@PAUstruct_gamestatus@@V?$allocator@PAUstruct_gamestatus@@@std@@@std@@QBEIXZ ; std::vector<struct_gamestatus *,std::allocator<struct_gamestatus *> >::capacity
	mov	DWORD PTR __Capacity$[ebp], eax
; Line 1278
	mov	ecx, DWORD PTR _this$[ebp]
	call	?max_size@?$vector@PAUstruct_gamestatus@@V?$allocator@PAUstruct_gamestatus@@@std@@@std@@QBEIXZ ; std::vector<struct_gamestatus *,std::allocator<struct_gamestatus *> >::max_size
	mov	ecx, DWORD PTR __Capacity$[ebp]
	shr	ecx, 1
	sub	eax, ecx
	cmp	eax, DWORD PTR __Capacity$[ebp]
	jae	SHORT $LN4@Grow_to@9
	mov	DWORD PTR tv73[ebp], 0
	jmp	SHORT $LN5@Grow_to@9
$LN4@Grow_to@9:
	mov	edx, DWORD PTR __Capacity$[ebp]
	shr	edx, 1
	add	edx, DWORD PTR __Capacity$[ebp]
	mov	DWORD PTR tv73[ebp], edx
$LN5@Grow_to@9:
	mov	eax, DWORD PTR tv73[ebp]
	mov	DWORD PTR __Capacity$[ebp], eax
; Line 1279
	mov	ecx, DWORD PTR __Capacity$[ebp]
	cmp	ecx, DWORD PTR __Count$[ebp]
	jae	SHORT $LN1@Grow_to@9
; Line 1280
	mov	edx, DWORD PTR __Count$[ebp]
	mov	DWORD PTR __Capacity$[ebp], edx
$LN1@Grow_to@9:
; Line 1281
	mov	eax, DWORD PTR __Capacity$[ebp]
; Line 1282
	mov	esp, ebp
	pop	ebp
	ret	4
?_Grow_to@?$vector@PAUstruct_gamestatus@@V?$allocator@PAUstruct_gamestatus@@@std@@@std@@IBEII@Z ENDP ; std::vector<struct_gamestatus *,std::allocator<struct_gamestatus *> >::_Grow_to
_TEXT	ENDS
;	COMDAT xdata$x
xdata$x	SEGMENT
__unwindtable$?reserve@?$vector@PAUstruct_gamestatus@@V?$allocator@PAUstruct_gamestatus@@@std@@@std@@QAEXI@Z DD 0ffffffffH
	DD	00H
	DD	0ffffffffH
	DD	00H
__catchsym$?reserve@?$vector@PAUstruct_gamestatus@@V?$allocator@PAUstruct_gamestatus@@@std@@@std@@QAEXI@Z$2 DD 040H
	DD	00H
	DD	00H
	DD	FLAT:__catch$?reserve@?$vector@PAUstruct_gamestatus@@V?$allocator@PAUstruct_gamestatus@@@std@@@std@@QAEXI@Z$0
__tryblocktable$?reserve@?$vector@PAUstruct_gamestatus@@V?$allocator@PAUstruct_gamestatus@@@std@@@std@@QAEXI@Z DD 00H
	DD	00H
	DD	01H
	DD	01H
	DD	FLAT:__catchsym$?reserve@?$vector@PAUstruct_gamestatus@@V?$allocator@PAUstruct_gamestatus@@@std@@@std@@QAEXI@Z$2
__ehfuncinfo$?reserve@?$vector@PAUstruct_gamestatus@@V?$allocator@PAUstruct_gamestatus@@@std@@@std@@QAEXI@Z DD 019930522H
	DD	02H
	DD	FLAT:__unwindtable$?reserve@?$vector@PAUstruct_gamestatus@@V?$allocator@PAUstruct_gamestatus@@@std@@@std@@QAEXI@Z
	DD	01H
	DD	FLAT:__tryblocktable$?reserve@?$vector@PAUstruct_gamestatus@@V?$allocator@PAUstruct_gamestatus@@@std@@@std@@QAEXI@Z
	DD	2 DUP(00H)
	DD	00H
	DD	01H
; Function compile flags: /Odtp
xdata$x	ENDS
;	COMDAT ?reserve@?$vector@PAUstruct_gamestatus@@V?$allocator@PAUstruct_gamestatus@@@std@@@std@@QAEXI@Z
_TEXT	SEGMENT
_this$ = -28						; size = 4
__Size$165259 = -24					; size = 4
__Ptr$165252 = -20					; size = 4
__$EHRec$ = -16						; size = 16
__Count$ = 8						; size = 4
?reserve@?$vector@PAUstruct_gamestatus@@V?$allocator@PAUstruct_gamestatus@@@std@@@std@@QAEXI@Z PROC ; std::vector<struct_gamestatus *,std::allocator<struct_gamestatus *> >::reserve, COMDAT
; _this$ = ecx
; Line 746
	push	ebp
	mov	ebp, esp
	push	-1
	push	__ehhandler$?reserve@?$vector@PAUstruct_gamestatus@@V?$allocator@PAUstruct_gamestatus@@@std@@@std@@QAEXI@Z
	mov	eax, DWORD PTR fs:0
	push	eax
	push	ecx
	sub	esp, 12					; 0000000cH
	push	ebx
	push	esi
	push	edi
	mov	eax, DWORD PTR ___security_cookie
	xor	eax, ebp
	push	eax
	lea	eax, DWORD PTR __$EHRec$[ebp+4]
	mov	DWORD PTR fs:0, eax
	mov	DWORD PTR __$EHRec$[ebp], esp
	mov	DWORD PTR _this$[ebp], ecx
; Line 747
	mov	ecx, DWORD PTR _this$[ebp]
	call	?max_size@?$vector@PAUstruct_gamestatus@@V?$allocator@PAUstruct_gamestatus@@@std@@@std@@QBEIXZ ; std::vector<struct_gamestatus *,std::allocator<struct_gamestatus *> >::max_size
	cmp	eax, DWORD PTR __Count$[ebp]
	jae	SHORT $LN5@reserve
; Line 748
	mov	ecx, DWORD PTR _this$[ebp]
	call	?_Xlen@?$vector@PAUstruct_gamestatus@@V?$allocator@PAUstruct_gamestatus@@@std@@@std@@IBEXXZ ; std::vector<struct_gamestatus *,std::allocator<struct_gamestatus *> >::_Xlen
	jmp	$LN7@reserve
$LN5@reserve:
; Line 749
	mov	ecx, DWORD PTR _this$[ebp]
	call	?capacity@?$vector@PAUstruct_gamestatus@@V?$allocator@PAUstruct_gamestatus@@@std@@@std@@QBEIXZ ; std::vector<struct_gamestatus *,std::allocator<struct_gamestatus *> >::capacity
	cmp	eax, DWORD PTR __Count$[ebp]
	jae	$LN7@reserve
; Line 751
	mov	eax, DWORD PTR __Count$[ebp]
	push	eax
	mov	ecx, DWORD PTR _this$[ebp]
	add	ecx, 12					; 0000000cH
	call	?allocate@?$allocator@PAUstruct_gamestatus@@@std@@QAEPAPAUstruct_gamestatus@@I@Z ; std::allocator<struct_gamestatus *>::allocate
	mov	DWORD PTR __Ptr$165252[ebp], eax
; Line 753
	mov	DWORD PTR __$EHRec$[ebp+12], 0
; Line 754
	mov	ecx, DWORD PTR __Ptr$165252[ebp]
	push	ecx
	mov	edx, DWORD PTR _this$[ebp]
	mov	eax, DWORD PTR [edx+4]
	push	eax
	mov	ecx, DWORD PTR _this$[ebp]
	mov	edx, DWORD PTR [ecx]
	push	edx
	mov	ecx, DWORD PTR _this$[ebp]
	call	??$_Umove@PAPAUstruct_gamestatus@@@?$vector@PAUstruct_gamestatus@@V?$allocator@PAUstruct_gamestatus@@@std@@@std@@IAEPAPAUstruct_gamestatus@@PAPAU2@00@Z ; std::vector<struct_gamestatus *,std::allocator<struct_gamestatus *> >::_Umove<struct_gamestatus * *>
	jmp	SHORT $LN8@reserve
__catch$?reserve@?$vector@PAUstruct_gamestatus@@V?$allocator@PAUstruct_gamestatus@@@std@@@std@@QAEXI@Z$0:
; Line 756
	mov	eax, DWORD PTR __Count$[ebp]
	push	eax
	mov	ecx, DWORD PTR __Ptr$165252[ebp]
	push	ecx
	mov	ecx, DWORD PTR _this$[ebp]
	add	ecx, 12					; 0000000cH
	call	?deallocate@?$allocator@PAUstruct_gamestatus@@@std@@QAEXPAPAUstruct_gamestatus@@I@Z ; std::allocator<struct_gamestatus *>::deallocate
; Line 757
	push	0
	push	0
	call	__CxxThrowException@8
; Line 758
	mov	DWORD PTR __$EHRec$[ebp+12], -1
	mov	eax, __tryend$?reserve@?$vector@PAUstruct_gamestatus@@V?$allocator@PAUstruct_gamestatus@@@std@@@std@@QAEXI@Z$1
	ret	0
$LN8@reserve:
	mov	DWORD PTR __$EHRec$[ebp+12], -1
__tryend$?reserve@?$vector@PAUstruct_gamestatus@@V?$allocator@PAUstruct_gamestatus@@@std@@@std@@QAEXI@Z$1:
; Line 760
	mov	ecx, DWORD PTR _this$[ebp]
	call	?size@?$vector@PAUstruct_gamestatus@@V?$allocator@PAUstruct_gamestatus@@@std@@@std@@QBEIXZ ; std::vector<struct_gamestatus *,std::allocator<struct_gamestatus *> >::size
	mov	DWORD PTR __Size$165259[ebp], eax
; Line 761
	mov	edx, DWORD PTR _this$[ebp]
	cmp	DWORD PTR [edx], 0
	je	SHORT $LN1@reserve
; Line 763
	mov	eax, DWORD PTR _this$[ebp]
	mov	ecx, DWORD PTR [eax+4]
	push	ecx
	mov	edx, DWORD PTR _this$[ebp]
	mov	eax, DWORD PTR [edx]
	push	eax
	mov	ecx, DWORD PTR _this$[ebp]
	call	?_Destroy@?$vector@PAUstruct_gamestatus@@V?$allocator@PAUstruct_gamestatus@@@std@@@std@@IAEXPAPAUstruct_gamestatus@@0@Z ; std::vector<struct_gamestatus *,std::allocator<struct_gamestatus *> >::_Destroy
; Line 765
	mov	ecx, DWORD PTR _this$[ebp]
	mov	edx, DWORD PTR _this$[ebp]
	mov	eax, DWORD PTR [ecx+8]
	sub	eax, DWORD PTR [edx]
	sar	eax, 2
	push	eax
	mov	ecx, DWORD PTR _this$[ebp]
	mov	edx, DWORD PTR [ecx]
	push	edx
	mov	ecx, DWORD PTR _this$[ebp]
	add	ecx, 12					; 0000000cH
	call	?deallocate@?$allocator@PAUstruct_gamestatus@@@std@@QAEXPAPAUstruct_gamestatus@@I@Z ; std::allocator<struct_gamestatus *>::deallocate
$LN1@reserve:
; Line 768
	mov	ecx, DWORD PTR _this$[ebp]
	call	DWORD PTR __imp_?_Orphan_all@_Container_base0@std@@QAEXXZ
; Line 769
	mov	eax, DWORD PTR __Count$[ebp]
	mov	ecx, DWORD PTR __Ptr$165252[ebp]
	lea	edx, DWORD PTR [ecx+eax*4]
	mov	eax, DWORD PTR _this$[ebp]
	mov	DWORD PTR [eax+8], edx
; Line 770
	mov	ecx, DWORD PTR __Size$165259[ebp]
	mov	edx, DWORD PTR __Ptr$165252[ebp]
	lea	eax, DWORD PTR [edx+ecx*4]
	mov	ecx, DWORD PTR _this$[ebp]
	mov	DWORD PTR [ecx+4], eax
; Line 771
	mov	edx, DWORD PTR _this$[ebp]
	mov	eax, DWORD PTR __Ptr$165252[ebp]
	mov	DWORD PTR [edx], eax
$LN7@reserve:
; Line 773
	mov	ecx, DWORD PTR __$EHRec$[ebp+4]
	mov	DWORD PTR fs:0, ecx
	pop	ecx
	pop	edi
	pop	esi
	pop	ebx
	mov	esp, ebp
	pop	ebp
	ret	4
_TEXT	ENDS
;	COMDAT text$x
text$x	SEGMENT
__ehhandler$?reserve@?$vector@PAUstruct_gamestatus@@V?$allocator@PAUstruct_gamestatus@@@std@@@std@@QAEXI@Z:
	mov	edx, DWORD PTR [esp+8]
	lea	eax, DWORD PTR [edx+12]
	mov	ecx, DWORD PTR [edx-32]
	xor	ecx, eax
	call	@__security_check_cookie@4
	mov	eax, OFFSET __ehfuncinfo$?reserve@?$vector@PAUstruct_gamestatus@@V?$allocator@PAUstruct_gamestatus@@@std@@@std@@QAEXI@Z
	jmp	___CxxFrameHandler3
text$x	ENDS
?reserve@?$vector@PAUstruct_gamestatus@@V?$allocator@PAUstruct_gamestatus@@@std@@@std@@QAEXI@Z ENDP ; std::vector<struct_gamestatus *,std::allocator<struct_gamestatus *> >::reserve
; Function compile flags: /Odtp
;	COMDAT ?_Reserve@?$vector@PAUstruct_gamestatus@@V?$allocator@PAUstruct_gamestatus@@@std@@@std@@IAEXI@Z
_TEXT	SEGMENT
_this$ = -8						; size = 4
__Size$ = -4						; size = 4
__Count$ = 8						; size = 4
?_Reserve@?$vector@PAUstruct_gamestatus@@V?$allocator@PAUstruct_gamestatus@@@std@@@std@@IAEXI@Z PROC ; std::vector<struct_gamestatus *,std::allocator<struct_gamestatus *> >::_Reserve, COMDAT
; _this$ = ecx
; Line 1290
	push	ebp
	mov	ebp, esp
	sub	esp, 8
	mov	DWORD PTR _this$[ebp], ecx
; Line 1291
	mov	ecx, DWORD PTR _this$[ebp]
	call	?size@?$vector@PAUstruct_gamestatus@@V?$allocator@PAUstruct_gamestatus@@@std@@@std@@QBEIXZ ; std::vector<struct_gamestatus *,std::allocator<struct_gamestatus *> >::size
	mov	DWORD PTR __Size$[ebp], eax
; Line 1292
	mov	ecx, DWORD PTR _this$[ebp]
	call	?max_size@?$vector@PAUstruct_gamestatus@@V?$allocator@PAUstruct_gamestatus@@@std@@@std@@QBEIXZ ; std::vector<struct_gamestatus *,std::allocator<struct_gamestatus *> >::max_size
	sub	eax, DWORD PTR __Count$[ebp]
	cmp	eax, DWORD PTR __Size$[ebp]
	jae	SHORT $LN4@Reserve
; Line 1293
	mov	ecx, DWORD PTR _this$[ebp]
	call	?_Xlen@?$vector@PAUstruct_gamestatus@@V?$allocator@PAUstruct_gamestatus@@@std@@@std@@IBEXXZ ; std::vector<struct_gamestatus *,std::allocator<struct_gamestatus *> >::_Xlen
	jmp	SHORT $LN6@Reserve
$LN4@Reserve:
; Line 1294
	mov	eax, DWORD PTR __Size$[ebp]
	add	eax, DWORD PTR __Count$[ebp]
	mov	DWORD PTR __Size$[ebp], eax
	mov	ecx, DWORD PTR _this$[ebp]
	call	?capacity@?$vector@PAUstruct_gamestatus@@V?$allocator@PAUstruct_gamestatus@@@std@@@std@@QBEIXZ ; std::vector<struct_gamestatus *,std::allocator<struct_gamestatus *> >::capacity
	cmp	DWORD PTR __Size$[ebp], eax
	ja	SHORT $LN2@Reserve
; Line 1296
	jmp	SHORT $LN6@Reserve
$LN2@Reserve:
; Line 1297
	mov	ecx, DWORD PTR __Size$[ebp]
	push	ecx
	mov	ecx, DWORD PTR _this$[ebp]
	call	?_Grow_to@?$vector@PAUstruct_gamestatus@@V?$allocator@PAUstruct_gamestatus@@@std@@@std@@IBEII@Z ; std::vector<struct_gamestatus *,std::allocator<struct_gamestatus *> >::_Grow_to
	push	eax
	mov	ecx, DWORD PTR _this$[ebp]
	call	?reserve@?$vector@PAUstruct_gamestatus@@V?$allocator@PAUstruct_gamestatus@@@std@@@std@@QAEXI@Z ; std::vector<struct_gamestatus *,std::allocator<struct_gamestatus *> >::reserve
$LN6@Reserve:
; Line 1298
	mov	esp, ebp
	pop	ebp
	ret	4
?_Reserve@?$vector@PAUstruct_gamestatus@@V?$allocator@PAUstruct_gamestatus@@@std@@@std@@IAEXI@Z ENDP ; std::vector<struct_gamestatus *,std::allocator<struct_gamestatus *> >::_Reserve
; Function compile flags: /Odtp
_TEXT	ENDS
;	COMDAT ?push_back@?$vector@PAUstruct_gamestatus@@V?$allocator@PAUstruct_gamestatus@@@std@@@std@@QAEXABQAUstruct_gamestatus@@@Z
_TEXT	SEGMENT
_this$ = -8						; size = 4
__Idx$161006 = -4					; size = 4
__Val$ = 8						; size = 4
?push_back@?$vector@PAUstruct_gamestatus@@V?$allocator@PAUstruct_gamestatus@@@std@@@std@@QAEXABQAUstruct_gamestatus@@@Z PROC ; std::vector<struct_gamestatus *,std::allocator<struct_gamestatus *> >::push_back, COMDAT
; _this$ = ecx
; Line 976
	push	ebp
	mov	ebp, esp
	sub	esp, 8
	mov	DWORD PTR _this$[ebp], ecx
; Line 977
	mov	eax, DWORD PTR __Val$[ebp]
	push	eax
	call	??$addressof@QAUstruct_gamestatus@@@std@@YAPBQAUstruct_gamestatus@@ABQAU1@@Z ; std::addressof<struct_gamestatus * const>
	add	esp, 4
	push	eax
	mov	ecx, DWORD PTR _this$[ebp]
	call	?_Inside@?$vector@PAUstruct_gamestatus@@V?$allocator@PAUstruct_gamestatus@@@std@@@std@@IBE_NPBQAUstruct_gamestatus@@@Z ; std::vector<struct_gamestatus *,std::allocator<struct_gamestatus *> >::_Inside
	movzx	ecx, al
	test	ecx, ecx
	je	SHORT $LN4@push_back
; Line 979
	mov	edx, DWORD PTR __Val$[ebp]
	push	edx
	call	??$addressof@QAUstruct_gamestatus@@@std@@YAPBQAUstruct_gamestatus@@ABQAU1@@Z ; std::addressof<struct_gamestatus * const>
	add	esp, 4
	mov	ecx, DWORD PTR _this$[ebp]
	sub	eax, DWORD PTR [ecx]
	sar	eax, 2
	mov	DWORD PTR __Idx$161006[ebp], eax
; Line 980
	mov	edx, DWORD PTR _this$[ebp]
	mov	eax, DWORD PTR _this$[ebp]
	mov	ecx, DWORD PTR [edx+4]
	cmp	ecx, DWORD PTR [eax+8]
	jne	SHORT $LN3@push_back
; Line 981
	push	1
	mov	ecx, DWORD PTR _this$[ebp]
	call	?_Reserve@?$vector@PAUstruct_gamestatus@@V?$allocator@PAUstruct_gamestatus@@@std@@@std@@IAEXI@Z ; std::vector<struct_gamestatus *,std::allocator<struct_gamestatus *> >::_Reserve
$LN3@push_back:
; Line 982
	mov	edx, DWORD PTR _this$[ebp]
	mov	eax, DWORD PTR [edx+4]
	push	eax
	mov	ecx, DWORD PTR _this$[ebp]
	mov	edx, DWORD PTR [ecx+4]
	push	edx
	mov	ecx, DWORD PTR _this$[ebp]
	call	?_Orphan_range@?$vector@PAUstruct_gamestatus@@V?$allocator@PAUstruct_gamestatus@@@std@@@std@@IBEXPAPAUstruct_gamestatus@@0@Z ; std::vector<struct_gamestatus *,std::allocator<struct_gamestatus *> >::_Orphan_range
; Line 985
	mov	eax, DWORD PTR _this$[ebp]
	mov	ecx, DWORD PTR [eax]
	mov	edx, DWORD PTR __Idx$161006[ebp]
	lea	eax, DWORD PTR [ecx+edx*4]
	push	eax
	mov	ecx, DWORD PTR _this$[ebp]
	mov	edx, DWORD PTR [ecx+4]
	push	edx
	mov	eax, DWORD PTR _this$[ebp]
	add	eax, 12					; 0000000cH
	push	eax
	call	??$_Cons_val@V?$allocator@PAUstruct_gamestatus@@@std@@PAUstruct_gamestatus@@AAPAU3@@std@@YAXAAV?$allocator@PAUstruct_gamestatus@@@0@PAPAUstruct_gamestatus@@AAPAU2@@Z ; std::_Cons_val<std::allocator<struct_gamestatus *>,struct_gamestatus *,struct_gamestatus * &>
	add	esp, 12					; 0000000cH
; Line 986
	mov	ecx, DWORD PTR _this$[ebp]
	mov	edx, DWORD PTR [ecx+4]
	add	edx, 4
	mov	eax, DWORD PTR _this$[ebp]
	mov	DWORD PTR [eax+4], edx
; Line 988
	jmp	SHORT $LN5@push_back
$LN4@push_back:
; Line 990
	mov	ecx, DWORD PTR _this$[ebp]
	mov	edx, DWORD PTR _this$[ebp]
	mov	eax, DWORD PTR [ecx+4]
	cmp	eax, DWORD PTR [edx+8]
	jne	SHORT $LN1@push_back
; Line 991
	push	1
	mov	ecx, DWORD PTR _this$[ebp]
	call	?_Reserve@?$vector@PAUstruct_gamestatus@@V?$allocator@PAUstruct_gamestatus@@@std@@@std@@IAEXI@Z ; std::vector<struct_gamestatus *,std::allocator<struct_gamestatus *> >::_Reserve
$LN1@push_back:
; Line 992
	mov	ecx, DWORD PTR _this$[ebp]
	mov	edx, DWORD PTR [ecx+4]
	push	edx
	mov	eax, DWORD PTR _this$[ebp]
	mov	ecx, DWORD PTR [eax+4]
	push	ecx
	mov	ecx, DWORD PTR _this$[ebp]
	call	?_Orphan_range@?$vector@PAUstruct_gamestatus@@V?$allocator@PAUstruct_gamestatus@@@std@@@std@@IBEXPAPAUstruct_gamestatus@@0@Z ; std::vector<struct_gamestatus *,std::allocator<struct_gamestatus *> >::_Orphan_range
; Line 995
	mov	edx, DWORD PTR __Val$[ebp]
	push	edx
	mov	eax, DWORD PTR _this$[ebp]
	mov	ecx, DWORD PTR [eax+4]
	push	ecx
	mov	edx, DWORD PTR _this$[ebp]
	add	edx, 12					; 0000000cH
	push	edx
	call	??$_Cons_val@V?$allocator@PAUstruct_gamestatus@@@std@@PAUstruct_gamestatus@@ABQAU3@@std@@YAXAAV?$allocator@PAUstruct_gamestatus@@@0@PAPAUstruct_gamestatus@@ABQAU2@@Z ; std::_Cons_val<std::allocator<struct_gamestatus *>,struct_gamestatus *,struct_gamestatus * const &>
	add	esp, 12					; 0000000cH
; Line 996
	mov	eax, DWORD PTR _this$[ebp]
	mov	ecx, DWORD PTR [eax+4]
	add	ecx, 4
	mov	edx, DWORD PTR _this$[ebp]
	mov	DWORD PTR [edx+4], ecx
$LN5@push_back:
; Line 998
	mov	esp, ebp
	pop	ebp
	ret	4
?push_back@?$vector@PAUstruct_gamestatus@@V?$allocator@PAUstruct_gamestatus@@@std@@@std@@QAEXABQAUstruct_gamestatus@@@Z ENDP ; std::vector<struct_gamestatus *,std::allocator<struct_gamestatus *> >::push_back
; Function compile flags: /Odtp
;	COMDAT ?_Make_iter@?$vector@Vfile@dlib@@V?$allocator@Vfile@dlib@@@std@@@std@@QBE?AV?$_Vector_iterator@V?$_Vector_val@Vfile@dlib@@V?$allocator@Vfile@dlib@@@std@@@std@@@2@V?$_Vector_const_iterator@V?$_Vector_val@Vfile@dlib@@V?$allocator@Vfile@dlib@@@std@@@std@@@2@@Z
_TEXT	SEGMENT
_this$ = -4						; size = 4
___$ReturnUdt$ = 8					; size = 4
__Where$ = 12						; size = 4
?_Make_iter@?$vector@Vfile@dlib@@V?$allocator@Vfile@dlib@@@std@@@std@@QBE?AV?$_Vector_iterator@V?$_Vector_val@Vfile@dlib@@V?$allocator@Vfile@dlib@@@std@@@std@@@2@V?$_Vector_const_iterator@V?$_Vector_val@Vfile@dlib@@V?$allocator@Vfile@dlib@@@std@@@std@@@2@@Z PROC ; std::vector<dlib::file,std::allocator<dlib::file> >::_Make_iter, COMDAT
; _this$ = ecx
; Line 801
	push	ebp
	mov	ebp, esp
	push	ecx
	mov	DWORD PTR _this$[ebp], ecx
; Line 802
	mov	eax, DWORD PTR _this$[ebp]
	push	eax
	mov	ecx, DWORD PTR __Where$[ebp]
	push	ecx
	mov	ecx, DWORD PTR ___$ReturnUdt$[ebp]
	call	??0?$_Vector_iterator@V?$_Vector_val@Vfile@dlib@@V?$allocator@Vfile@dlib@@@std@@@std@@@std@@QAE@PAVfile@dlib@@PBU_Container_base0@1@@Z ; std::_Vector_iterator<std::_Vector_val<dlib::file,std::allocator<dlib::file> > >::_Vector_iterator<std::_Vector_val<dlib::file,std::allocator<dlib::file> > >
	mov	eax, DWORD PTR ___$ReturnUdt$[ebp]
; Line 803
	mov	esp, ebp
	pop	ebp
	ret	8
?_Make_iter@?$vector@Vfile@dlib@@V?$allocator@Vfile@dlib@@@std@@@std@@QBE?AV?$_Vector_iterator@V?$_Vector_val@Vfile@dlib@@V?$allocator@Vfile@dlib@@@std@@@std@@@2@V?$_Vector_const_iterator@V?$_Vector_val@Vfile@dlib@@V?$allocator@Vfile@dlib@@@std@@@std@@@2@@Z ENDP ; std::vector<dlib::file,std::allocator<dlib::file> >::_Make_iter
; Function compile flags: /Odtp
;	COMDAT ??0struct_gamestatus@@QAE@XZ
_TEXT	SEGMENT
_this$ = -4						; size = 4
??0struct_gamestatus@@QAE@XZ PROC			; struct_gamestatus::struct_gamestatus, COMDAT
; _this$ = ecx
	push	ebp
	mov	ebp, esp
	push	ecx
	mov	DWORD PTR _this$[ebp], ecx
	mov	ecx, DWORD PTR _this$[ebp]
	add	ecx, 8
	call	??0?$basic_string@DU?$char_traits@D@std@@V?$allocator@D@2@@std@@QAE@XZ ; std::basic_string<char,std::char_traits<char>,std::allocator<char> >::basic_string<char,std::char_traits<char>,std::allocator<char> >
	mov	ecx, DWORD PTR _this$[ebp]
	add	ecx, 36					; 00000024H
	call	??0?$basic_string@DU?$char_traits@D@std@@V?$allocator@D@2@@std@@QAE@XZ ; std::basic_string<char,std::char_traits<char>,std::allocator<char> >::basic_string<char,std::char_traits<char>,std::allocator<char> >
	mov	eax, DWORD PTR _this$[ebp]
	mov	esp, ebp
	pop	ebp
	ret	0
??0struct_gamestatus@@QAE@XZ ENDP			; struct_gamestatus::struct_gamestatus
; Function compile flags: /Odtp
;	COMDAT ??4data@file@dlib@@QAEAAU012@ABU012@@Z
_TEXT	SEGMENT
_this$ = -4						; size = 4
___that$ = 8						; size = 4
??4data@file@dlib@@QAEAAU012@ABU012@@Z PROC		; dlib::file::data::operator=, COMDAT
; _this$ = ecx
	push	ebp
	mov	ebp, esp
	push	ecx
	mov	DWORD PTR _this$[ebp], ecx
	mov	eax, DWORD PTR _this$[ebp]
	mov	ecx, DWORD PTR ___that$[ebp]
	mov	edx, DWORD PTR [ecx]
	mov	DWORD PTR [eax], edx
	mov	ecx, DWORD PTR [ecx+4]
	mov	DWORD PTR [eax+4], ecx
	mov	edx, DWORD PTR ___that$[ebp]
	add	edx, 8
	push	edx
	mov	ecx, DWORD PTR _this$[ebp]
	add	ecx, 8
	call	??4?$basic_string@DU?$char_traits@D@std@@V?$allocator@D@2@@std@@QAEAAV01@ABV01@@Z ; std::basic_string<char,std::char_traits<char>,std::allocator<char> >::operator=
	mov	eax, DWORD PTR ___that$[ebp]
	add	eax, 36					; 00000024H
	push	eax
	mov	ecx, DWORD PTR _this$[ebp]
	add	ecx, 36					; 00000024H
	call	??4?$basic_string@DU?$char_traits@D@std@@V?$allocator@D@2@@std@@QAEAAV01@ABV01@@Z ; std::basic_string<char,std::char_traits<char>,std::allocator<char> >::operator=
	mov	eax, DWORD PTR _this$[ebp]
	mov	esp, ebp
	pop	ebp
	ret	4
??4data@file@dlib@@QAEAAU012@ABU012@@Z ENDP		; dlib::file::data::operator=
_TEXT	ENDS
;	COMDAT xdata$x
xdata$x	SEGMENT
__unwindtable$??0data@file@dlib@@QAE@ABU012@@Z DD 0ffffffffH
	DD	FLAT:__unwindfunclet$??0data@file@dlib@@QAE@ABU012@@Z$0
__ehfuncinfo$??0data@file@dlib@@QAE@ABU012@@Z DD 019930522H
	DD	01H
	DD	FLAT:__unwindtable$??0data@file@dlib@@QAE@ABU012@@Z
	DD	2 DUP(00H)
	DD	2 DUP(00H)
	DD	00H
	DD	01H
; Function compile flags: /Odtp
xdata$x	ENDS
;	COMDAT ??0data@file@dlib@@QAE@ABU012@@Z
_TEXT	SEGMENT
_this$ = -16						; size = 4
__$EHRec$ = -12						; size = 12
___that$ = 8						; size = 4
??0data@file@dlib@@QAE@ABU012@@Z PROC			; dlib::file::data::data, COMDAT
; _this$ = ecx
	push	ebp
	mov	ebp, esp
	push	-1
	push	__ehhandler$??0data@file@dlib@@QAE@ABU012@@Z
	mov	eax, DWORD PTR fs:0
	push	eax
	push	ecx
	mov	eax, DWORD PTR ___security_cookie
	xor	eax, ebp
	push	eax
	lea	eax, DWORD PTR __$EHRec$[ebp]
	mov	DWORD PTR fs:0, eax
	mov	DWORD PTR _this$[ebp], ecx
	mov	eax, DWORD PTR _this$[ebp]
	mov	ecx, DWORD PTR ___that$[ebp]
	mov	edx, DWORD PTR [ecx]
	mov	DWORD PTR [eax], edx
	mov	ecx, DWORD PTR [ecx+4]
	mov	DWORD PTR [eax+4], ecx
	mov	edx, DWORD PTR ___that$[ebp]
	add	edx, 8
	push	edx
	mov	ecx, DWORD PTR _this$[ebp]
	add	ecx, 8
	call	??0?$basic_string@DU?$char_traits@D@std@@V?$allocator@D@2@@std@@QAE@ABV01@@Z ; std::basic_string<char,std::char_traits<char>,std::allocator<char> >::basic_string<char,std::char_traits<char>,std::allocator<char> >
	mov	DWORD PTR __$EHRec$[ebp+8], 0
	mov	eax, DWORD PTR ___that$[ebp]
	add	eax, 36					; 00000024H
	push	eax
	mov	ecx, DWORD PTR _this$[ebp]
	add	ecx, 36					; 00000024H
	call	??0?$basic_string@DU?$char_traits@D@std@@V?$allocator@D@2@@std@@QAE@ABV01@@Z ; std::basic_string<char,std::char_traits<char>,std::allocator<char> >::basic_string<char,std::char_traits<char>,std::allocator<char> >
	mov	DWORD PTR __$EHRec$[ebp+8], -1
	mov	eax, DWORD PTR _this$[ebp]
	mov	ecx, DWORD PTR __$EHRec$[ebp]
	mov	DWORD PTR fs:0, ecx
	pop	ecx
	mov	esp, ebp
	pop	ebp
	ret	4
_TEXT	ENDS
;	COMDAT text$x
text$x	SEGMENT
__unwindfunclet$??0data@file@dlib@@QAE@ABU012@@Z$0:
	mov	ecx, DWORD PTR _this$[ebp]
	add	ecx, 8
	jmp	??1?$basic_string@DU?$char_traits@D@std@@V?$allocator@D@2@@std@@QAE@XZ ; std::basic_string<char,std::char_traits<char>,std::allocator<char> >::~basic_string<char,std::char_traits<char>,std::allocator<char> >
__ehhandler$??0data@file@dlib@@QAE@ABU012@@Z:
	mov	edx, DWORD PTR [esp+8]
	lea	eax, DWORD PTR [edx+12]
	mov	ecx, DWORD PTR [edx-8]
	xor	ecx, eax
	call	@__security_check_cookie@4
	mov	eax, OFFSET __ehfuncinfo$??0data@file@dlib@@QAE@ABU012@@Z
	jmp	___CxxFrameHandler3
text$x	ENDS
??0data@file@dlib@@QAE@ABU012@@Z ENDP			; dlib::file::data::data
; Function compile flags: /Odtp
;	COMDAT ??0file@dlib@@QAE@ABV01@@Z
_TEXT	SEGMENT
_this$ = -4						; size = 4
___that$ = 8						; size = 4
??0file@dlib@@QAE@ABV01@@Z PROC				; dlib::file::file, COMDAT
; _this$ = ecx
	push	ebp
	mov	ebp, esp
	push	ecx
	mov	DWORD PTR _this$[ebp], ecx
	mov	eax, DWORD PTR ___that$[ebp]
	push	eax
	mov	ecx, DWORD PTR _this$[ebp]
	call	??0data@file@dlib@@QAE@ABU012@@Z
	mov	eax, DWORD PTR _this$[ebp]
	mov	esp, ebp
	pop	ebp
	ret	4
??0file@dlib@@QAE@ABV01@@Z ENDP				; dlib::file::file
_TEXT	ENDS
;	COMDAT xdata$x
; File e:\program files (x86)\microsoft visual studio 10.0\vc\include\xmemory
xdata$x	SEGMENT
__unwindtable$?construct@?$allocator@Vfile@dlib@@@std@@QAEXPAVfile@dlib@@$$QAV34@@Z DD 0ffffffffH
	DD	FLAT:__unwindfunclet$?construct@?$allocator@Vfile@dlib@@@std@@QAEXPAVfile@dlib@@$$QAV34@@Z$0
__ehfuncinfo$?construct@?$allocator@Vfile@dlib@@@std@@QAEXPAVfile@dlib@@$$QAV34@@Z DD 019930522H
	DD	01H
	DD	FLAT:__unwindtable$?construct@?$allocator@Vfile@dlib@@@std@@QAEXPAVfile@dlib@@$$QAV34@@Z
	DD	2 DUP(00H)
	DD	2 DUP(00H)
	DD	00H
	DD	01H
; Function compile flags: /Odtp
xdata$x	ENDS
;	COMDAT ?construct@?$allocator@Vfile@dlib@@@std@@QAEXPAVfile@dlib@@$$QAV34@@Z
_TEXT	SEGMENT
tv76 = -28						; size = 4
_this$ = -24						; size = 4
$T361110 = -20						; size = 4
$T361109 = -16						; size = 4
__$EHRec$ = -12						; size = 12
__Ptr$ = 8						; size = 4
__Val$ = 12						; size = 4
?construct@?$allocator@Vfile@dlib@@@std@@QAEXPAVfile@dlib@@$$QAV34@@Z PROC ; std::allocator<dlib::file>::construct, COMDAT
; _this$ = ecx
; Line 201
	push	ebp
	mov	ebp, esp
	push	-1
	push	__ehhandler$?construct@?$allocator@Vfile@dlib@@@std@@QAEXPAVfile@dlib@@$$QAV34@@Z
	mov	eax, DWORD PTR fs:0
	push	eax
	sub	esp, 16					; 00000010H
	mov	eax, DWORD PTR ___security_cookie
	xor	eax, ebp
	push	eax
	lea	eax, DWORD PTR __$EHRec$[ebp]
	mov	DWORD PTR fs:0, eax
	mov	DWORD PTR _this$[ebp], ecx
; Line 202
	mov	eax, DWORD PTR __Ptr$[ebp]
	push	eax
	push	64					; 00000040H
	call	??2@YAPAXIPAX@Z				; operator new
	add	esp, 8
	mov	DWORD PTR $T361110[ebp], eax
	mov	DWORD PTR __$EHRec$[ebp+8], 0
	cmp	DWORD PTR $T361110[ebp], 0
	je	SHORT $LN3@construct@10
	mov	ecx, DWORD PTR __Val$[ebp]
	push	ecx
	call	??$forward@Vfile@dlib@@@std@@YA$$QAVfile@dlib@@AAV12@@Z ; std::forward<dlib::file>
	add	esp, 4
	push	eax
	mov	ecx, DWORD PTR $T361110[ebp]
	call	??0file@dlib@@QAE@ABV01@@Z
	mov	DWORD PTR tv76[ebp], eax
	jmp	SHORT $LN4@construct@10
$LN3@construct@10:
	mov	DWORD PTR tv76[ebp], 0
$LN4@construct@10:
	mov	edx, DWORD PTR tv76[ebp]
	mov	DWORD PTR $T361109[ebp], edx
	mov	DWORD PTR __$EHRec$[ebp+8], -1
; Line 203
	mov	ecx, DWORD PTR __$EHRec$[ebp]
	mov	DWORD PTR fs:0, ecx
	pop	ecx
	mov	esp, ebp
	pop	ebp
	ret	8
_TEXT	ENDS
;	COMDAT text$x
text$x	SEGMENT
__unwindfunclet$?construct@?$allocator@Vfile@dlib@@@std@@QAEXPAVfile@dlib@@$$QAV34@@Z$0:
	mov	eax, DWORD PTR __Ptr$[ebp]
	push	eax
	mov	ecx, DWORD PTR $T361110[ebp]
	push	ecx
	call	??3@YAXPAX0@Z				; operator delete
	add	esp, 8
	ret	0
__ehhandler$?construct@?$allocator@Vfile@dlib@@@std@@QAEXPAVfile@dlib@@$$QAV34@@Z:
	mov	edx, DWORD PTR [esp+8]
	lea	eax, DWORD PTR [edx+12]
	mov	ecx, DWORD PTR [edx-20]
	xor	ecx, eax
	call	@__security_check_cookie@4
	mov	eax, OFFSET __ehfuncinfo$?construct@?$allocator@Vfile@dlib@@@std@@QAEXPAVfile@dlib@@$$QAV34@@Z
	jmp	___CxxFrameHandler3
text$x	ENDS
?construct@?$allocator@Vfile@dlib@@@std@@QAEXPAVfile@dlib@@$$QAV34@@Z ENDP ; std::allocator<dlib::file>::construct
; Function compile flags: /Odtp
;	COMDAT ??$_Cons_val@V?$allocator@Vfile@dlib@@@std@@Vfile@dlib@@V34@@std@@YAXAAV?$allocator@Vfile@dlib@@@0@PAVfile@dlib@@$$QAV23@@Z
_TEXT	SEGMENT
__Alval$ = 8						; size = 4
__Pdest$ = 12						; size = 4
__Src$ = 16						; size = 4
??$_Cons_val@V?$allocator@Vfile@dlib@@@std@@Vfile@dlib@@V34@@std@@YAXAAV?$allocator@Vfile@dlib@@@0@PAVfile@dlib@@$$QAV23@@Z PROC ; std::_Cons_val<std::allocator<dlib::file>,dlib::file,dlib::file>, COMDAT
; Line 279
	push	ebp
	mov	ebp, esp
; Line 280
	mov	eax, DWORD PTR __Src$[ebp]
	push	eax
	call	??$forward@Vfile@dlib@@@std@@YA$$QAVfile@dlib@@AAV12@@Z ; std::forward<dlib::file>
	add	esp, 4
	push	eax
	mov	ecx, DWORD PTR __Pdest$[ebp]
	push	ecx
	mov	ecx, DWORD PTR __Alval$[ebp]
	call	?construct@?$allocator@Vfile@dlib@@@std@@QAEXPAVfile@dlib@@$$QAV34@@Z ; std::allocator<dlib::file>::construct
; Line 281
	pop	ebp
	ret	0
??$_Cons_val@V?$allocator@Vfile@dlib@@@std@@Vfile@dlib@@V34@@std@@YAXAAV?$allocator@Vfile@dlib@@@0@PAVfile@dlib@@$$QAV23@@Z ENDP ; std::_Cons_val<std::allocator<dlib::file>,dlib::file,dlib::file>
; Function compile flags: /Odtp
_TEXT	ENDS
;	COMDAT ??0file@dlib@@QAE@XZ
_TEXT	SEGMENT
_this$ = -4						; size = 4
??0file@dlib@@QAE@XZ PROC				; dlib::file::file, COMDAT
; _this$ = ecx
; File e:\library\dlib\dlib\dir_nav\dir_nav_kernel_1.h
; Line 84
	push	ebp
	mov	ebp, esp
	push	ecx
	mov	DWORD PTR _this$[ebp], ecx
	mov	ecx, DWORD PTR _this$[ebp]
	call	??0data@file@dlib@@QAE@XZ
; Line 87
	mov	eax, DWORD PTR _this$[ebp]
	mov	DWORD PTR [eax], 0
	mov	DWORD PTR [eax+4], 0
; Line 88
	mov	eax, DWORD PTR _this$[ebp]
	mov	esp, ebp
	pop	ebp
	ret	0
??0file@dlib@@QAE@XZ ENDP				; dlib::file::file
_TEXT	ENDS
;	COMDAT xdata$x
xdata$x	SEGMENT
__unwindtable$??0file@dlib@@QAE@ABV?$basic_string@DU?$char_traits@D@std@@V?$allocator@D@2@@std@@0_KUprivate_constructor@01@@Z DD 0ffffffffH
	DD	FLAT:__unwindfunclet$??0file@dlib@@QAE@ABV?$basic_string@DU?$char_traits@D@std@@V?$allocator@D@2@@std@@0_KUprivate_constructor@01@@Z$0
__ehfuncinfo$??0file@dlib@@QAE@ABV?$basic_string@DU?$char_traits@D@std@@V?$allocator@D@2@@std@@0_KUprivate_constructor@01@@Z DD 019930522H
	DD	01H
	DD	FLAT:__unwindtable$??0file@dlib@@QAE@ABV?$basic_string@DU?$char_traits@D@std@@V?$allocator@D@2@@std@@0_KUprivate_constructor@01@@Z
	DD	2 DUP(00H)
	DD	2 DUP(00H)
	DD	00H
	DD	01H
; Function compile flags: /Odtp
xdata$x	ENDS
;	COMDAT ??0file@dlib@@QAE@ABV?$basic_string@DU?$char_traits@D@std@@V?$allocator@D@2@@std@@0_KUprivate_constructor@01@@Z
_TEXT	SEGMENT
_this$ = -16						; size = 4
__$EHRec$ = -12						; size = 12
_name$ = 8						; size = 4
_full_name$ = 12					; size = 4
_file_size$ = 16					; size = 8
___formal$ = 24						; size = 1
??0file@dlib@@QAE@ABV?$basic_string@DU?$char_traits@D@std@@V?$allocator@D@2@@std@@0_KUprivate_constructor@01@@Z PROC ; dlib::file::file, COMDAT
; _this$ = ecx
; Line 65
	push	ebp
	mov	ebp, esp
	push	-1
	push	__ehhandler$??0file@dlib@@QAE@ABV?$basic_string@DU?$char_traits@D@std@@V?$allocator@D@2@@std@@0_KUprivate_constructor@01@@Z
	mov	eax, DWORD PTR fs:0
	push	eax
	push	ecx
	mov	eax, DWORD PTR ___security_cookie
	xor	eax, ebp
	push	eax
	lea	eax, DWORD PTR __$EHRec$[ebp]
	mov	DWORD PTR fs:0, eax
	mov	DWORD PTR _this$[ebp], ecx
	mov	ecx, DWORD PTR _this$[ebp]
	call	??0data@file@dlib@@QAE@XZ
	mov	DWORD PTR __$EHRec$[ebp+8], 0
; Line 72
	mov	eax, DWORD PTR _this$[ebp]
	mov	ecx, DWORD PTR _file_size$[ebp]
	mov	DWORD PTR [eax], ecx
	mov	edx, DWORD PTR _file_size$[ebp+4]
	mov	DWORD PTR [eax+4], edx
; Line 73
	mov	eax, DWORD PTR _name$[ebp]
	push	eax
	mov	ecx, DWORD PTR _this$[ebp]
	add	ecx, 8
	call	??4?$basic_string@DU?$char_traits@D@std@@V?$allocator@D@2@@std@@QAEAAV01@ABV01@@Z ; std::basic_string<char,std::char_traits<char>,std::allocator<char> >::operator=
; Line 74
	mov	ecx, DWORD PTR _full_name$[ebp]
	push	ecx
	mov	ecx, DWORD PTR _this$[ebp]
	add	ecx, 36					; 00000024H
	call	??4?$basic_string@DU?$char_traits@D@std@@V?$allocator@D@2@@std@@QAEAAV01@ABV01@@Z ; std::basic_string<char,std::char_traits<char>,std::allocator<char> >::operator=
; Line 75
	mov	DWORD PTR __$EHRec$[ebp+8], -1
	mov	eax, DWORD PTR _this$[ebp]
	mov	ecx, DWORD PTR __$EHRec$[ebp]
	mov	DWORD PTR fs:0, ecx
	pop	ecx
	mov	esp, ebp
	pop	ebp
	ret	20					; 00000014H
_TEXT	ENDS
;	COMDAT text$x
text$x	SEGMENT
__unwindfunclet$??0file@dlib@@QAE@ABV?$basic_string@DU?$char_traits@D@std@@V?$allocator@D@2@@std@@0_KUprivate_constructor@01@@Z$0:
	mov	ecx, DWORD PTR _this$[ebp]
	jmp	??1data@file@dlib@@QAE@XZ
__ehhandler$??0file@dlib@@QAE@ABV?$basic_string@DU?$char_traits@D@std@@V?$allocator@D@2@@std@@0_KUprivate_constructor@01@@Z:
	mov	edx, DWORD PTR [esp+8]
	lea	eax, DWORD PTR [edx+12]
	mov	ecx, DWORD PTR [edx-8]
	xor	ecx, eax
	call	@__security_check_cookie@4
	mov	eax, OFFSET __ehfuncinfo$??0file@dlib@@QAE@ABV?$basic_string@DU?$char_traits@D@std@@V?$allocator@D@2@@std@@0_KUprivate_constructor@01@@Z
	jmp	___CxxFrameHandler3
text$x	ENDS
??0file@dlib@@QAE@ABV?$basic_string@DU?$char_traits@D@std@@V?$allocator@D@2@@std@@0_KUprivate_constructor@01@@Z ENDP ; dlib::file::file
; Function compile flags: /Odtp
;	COMDAT ??1node@?$queue_kernel_2@Vfile@dlib@@$0BE@V?$memory_manager_stateless_kernel_1@D@2@@dlib@@QAE@XZ
_TEXT	SEGMENT
_this$ = -4						; size = 4
??1node@?$queue_kernel_2@Vfile@dlib@@$0BE@V?$memory_manager_stateless_kernel_1@D@2@@dlib@@QAE@XZ PROC ; dlib::queue_kernel_2<dlib::file,20,dlib::memory_manager_stateless_kernel_1<char> >::node::~node, COMDAT
; _this$ = ecx
	push	ebp
	mov	ebp, esp
	push	ecx
	mov	DWORD PTR _this$[ebp], ecx
	push	OFFSET ??1file@dlib@@QAE@XZ
	push	20					; 00000014H
	push	64					; 00000040H
	mov	eax, DWORD PTR _this$[ebp]
	add	eax, 8
	push	eax
	call	??_M@YGXPAXIHP6EX0@Z@Z
	mov	esp, ebp
	pop	ebp
	ret	0
??1node@?$queue_kernel_2@Vfile@dlib@@$0BE@V?$memory_manager_stateless_kernel_1@D@2@@dlib@@QAE@XZ ENDP ; dlib::queue_kernel_2<dlib::file,20,dlib::memory_manager_stateless_kernel_1<char> >::node::~node
; Function compile flags: /Odtp
_TEXT	ENDS
;	COMDAT ??_Gnode@?$queue_kernel_2@Vfile@dlib@@$0BE@V?$memory_manager_stateless_kernel_1@D@2@@dlib@@QAEPAXI@Z
_TEXT	SEGMENT
_this$ = -4						; size = 4
___flags$ = 8						; size = 4
??_Gnode@?$queue_kernel_2@Vfile@dlib@@$0BE@V?$memory_manager_stateless_kernel_1@D@2@@dlib@@QAEPAXI@Z PROC ; dlib::queue_kernel_2<dlib::file,20,dlib::memory_manager_stateless_kernel_1<char> >::node::`scalar deleting destructor', COMDAT
; _this$ = ecx
	push	ebp
	mov	ebp, esp
	push	ecx
	mov	DWORD PTR _this$[ebp], ecx
	mov	ecx, DWORD PTR _this$[ebp]
	call	??1node@?$queue_kernel_2@Vfile@dlib@@$0BE@V?$memory_manager_stateless_kernel_1@D@2@@dlib@@QAE@XZ
	mov	eax, DWORD PTR ___flags$[ebp]
	and	eax, 1
	je	SHORT $LN1@scalar@227
	mov	ecx, DWORD PTR _this$[ebp]
	push	ecx
	call	DWORD PTR __imp_??3@YAXPAX@Z
	add	esp, 4
$LN1@scalar@227:
	mov	eax, DWORD PTR _this$[ebp]
	mov	esp, ebp
	pop	ebp
	ret	4
??_Gnode@?$queue_kernel_2@Vfile@dlib@@$0BE@V?$memory_manager_stateless_kernel_1@D@2@@dlib@@QAEPAXI@Z ENDP ; dlib::queue_kernel_2<dlib::file,20,dlib::memory_manager_stateless_kernel_1<char> >::node::`scalar deleting destructor'
; Function compile flags: /Odtp
_TEXT	ENDS
;	COMDAT ??0node@?$queue_kernel_2@Vfile@dlib@@$0BE@V?$memory_manager_stateless_kernel_1@D@2@@dlib@@QAE@XZ
_TEXT	SEGMENT
_this$ = -4						; size = 4
??0node@?$queue_kernel_2@Vfile@dlib@@$0BE@V?$memory_manager_stateless_kernel_1@D@2@@dlib@@QAE@XZ PROC ; dlib::queue_kernel_2<dlib::file,20,dlib::memory_manager_stateless_kernel_1<char> >::node::node, COMDAT
; _this$ = ecx
	push	ebp
	mov	ebp, esp
	push	ecx
	mov	DWORD PTR _this$[ebp], ecx
	push	OFFSET ??1file@dlib@@QAE@XZ
	push	OFFSET ??0file@dlib@@QAE@XZ		; dlib::file::file
	push	20					; 00000014H
	push	64					; 00000040H
	mov	eax, DWORD PTR _this$[ebp]
	add	eax, 8
	push	eax
	call	??_L@YGXPAXIHP6EX0@Z1@Z
	mov	eax, DWORD PTR _this$[ebp]
	mov	esp, ebp
	pop	ebp
	ret	0
??0node@?$queue_kernel_2@Vfile@dlib@@$0BE@V?$memory_manager_stateless_kernel_1@D@2@@dlib@@QAE@XZ ENDP ; dlib::queue_kernel_2<dlib::file,20,dlib::memory_manager_stateless_kernel_1<char> >::node::node
; Function compile flags: /Odtp
_TEXT	ENDS
;	COMDAT ?deallocate@?$memory_manager_stateless_kernel_1@Unode@?$queue_kernel_2@Vfile@dlib@@$0BE@V?$memory_manager_stateless_kernel_1@D@2@@dlib@@@dlib@@QAEXPAUnode@?$queue_kernel_2@Vfile@dlib@@$0BE@V?$memory_manager_stateless_kernel_1@D@2@@2@@Z
_TEXT	SEGMENT
tv68 = -16						; size = 4
_this$ = -12						; size = 4
$T363065 = -8						; size = 4
$T363064 = -4						; size = 4
_item$ = 8						; size = 4
?deallocate@?$memory_manager_stateless_kernel_1@Unode@?$queue_kernel_2@Vfile@dlib@@$0BE@V?$memory_manager_stateless_kernel_1@D@2@@dlib@@@dlib@@QAEXPAUnode@?$queue_kernel_2@Vfile@dlib@@$0BE@V?$memory_manager_stateless_kernel_1@D@2@@2@@Z PROC ; dlib::memory_manager_stateless_kernel_1<dlib::queue_kernel_2<dlib::file,20,dlib::memory_manager_stateless_kernel_1<char> >::node>::deallocate, COMDAT
; _this$ = ecx
; File e:\library\dlib\dlib\memory_manager_stateless\memory_manager_stateless_kernel_1.h
; Line 45
	push	ebp
	mov	ebp, esp
	sub	esp, 16					; 00000010H
	mov	DWORD PTR _this$[ebp], ecx
; Line 46
	mov	eax, DWORD PTR _item$[ebp]
	mov	DWORD PTR $T363065[ebp], eax
	mov	ecx, DWORD PTR $T363065[ebp]
	mov	DWORD PTR $T363064[ebp], ecx
	cmp	DWORD PTR $T363064[ebp], 0
	je	SHORT $LN3@deallocate@11
	push	1
	mov	ecx, DWORD PTR $T363064[ebp]
	call	??_Gnode@?$queue_kernel_2@Vfile@dlib@@$0BE@V?$memory_manager_stateless_kernel_1@D@2@@dlib@@QAEPAXI@Z
	mov	DWORD PTR tv68[ebp], eax
	jmp	SHORT $LN1@deallocate@11
$LN3@deallocate@11:
	mov	DWORD PTR tv68[ebp], 0
$LN1@deallocate@11:
; Line 47
	mov	esp, ebp
	pop	ebp
	ret	4
?deallocate@?$memory_manager_stateless_kernel_1@Unode@?$queue_kernel_2@Vfile@dlib@@$0BE@V?$memory_manager_stateless_kernel_1@D@2@@dlib@@@dlib@@QAEXPAUnode@?$queue_kernel_2@Vfile@dlib@@$0BE@V?$memory_manager_stateless_kernel_1@D@2@@2@@Z ENDP ; dlib::memory_manager_stateless_kernel_1<dlib::queue_kernel_2<dlib::file,20,dlib::memory_manager_stateless_kernel_1<char> >::node>::deallocate
_TEXT	ENDS
;	COMDAT xdata$x
xdata$x	SEGMENT
__unwindtable$?allocate@?$memory_manager_stateless_kernel_1@Unode@?$queue_kernel_2@Vfile@dlib@@$0BE@V?$memory_manager_stateless_kernel_1@D@2@@dlib@@@dlib@@QAEPAUnode@?$queue_kernel_2@Vfile@dlib@@$0BE@V?$memory_manager_stateless_kernel_1@D@2@@2@XZ DD 0ffffffffH
	DD	FLAT:__unwindfunclet$?allocate@?$memory_manager_stateless_kernel_1@Unode@?$queue_kernel_2@Vfile@dlib@@$0BE@V?$memory_manager_stateless_kernel_1@D@2@@dlib@@@dlib@@QAEPAUnode@?$queue_kernel_2@Vfile@dlib@@$0BE@V?$memory_manager_stateless_kernel_1@D@2@@2@XZ$0
__ehfuncinfo$?allocate@?$memory_manager_stateless_kernel_1@Unode@?$queue_kernel_2@Vfile@dlib@@$0BE@V?$memory_manager_stateless_kernel_1@D@2@@dlib@@@dlib@@QAEPAUnode@?$queue_kernel_2@Vfile@dlib@@$0BE@V?$memory_manager_stateless_kernel_1@D@2@@2@XZ DD 019930522H
	DD	01H
	DD	FLAT:__unwindtable$?allocate@?$memory_manager_stateless_kernel_1@Unode@?$queue_kernel_2@Vfile@dlib@@$0BE@V?$memory_manager_stateless_kernel_1@D@2@@dlib@@@dlib@@QAEPAUnode@?$queue_kernel_2@Vfile@dlib@@$0BE@V?$memory_manager_stateless_kernel_1@D@2@@2@XZ
	DD	2 DUP(00H)
	DD	2 DUP(00H)
	DD	00H
	DD	01H
; Function compile flags: /Odtp
xdata$x	ENDS
;	COMDAT ?allocate@?$memory_manager_stateless_kernel_1@Unode@?$queue_kernel_2@Vfile@dlib@@$0BE@V?$memory_manager_stateless_kernel_1@D@2@@dlib@@@dlib@@QAEPAUnode@?$queue_kernel_2@Vfile@dlib@@$0BE@V?$memory_manager_stateless_kernel_1@D@2@@2@XZ
_TEXT	SEGMENT
tv71 = -28						; size = 4
_this$ = -24						; size = 4
$T363071 = -20						; size = 4
$T363070 = -16						; size = 4
__$EHRec$ = -12						; size = 12
?allocate@?$memory_manager_stateless_kernel_1@Unode@?$queue_kernel_2@Vfile@dlib@@$0BE@V?$memory_manager_stateless_kernel_1@D@2@@dlib@@@dlib@@QAEPAUnode@?$queue_kernel_2@Vfile@dlib@@$0BE@V?$memory_manager_stateless_kernel_1@D@2@@2@XZ PROC ; dlib::memory_manager_stateless_kernel_1<dlib::queue_kernel_2<dlib::file,20,dlib::memory_manager_stateless_kernel_1<char> >::node>::allocate, COMDAT
; _this$ = ecx
; Line 38
	push	ebp
	mov	ebp, esp
	push	-1
	push	__ehhandler$?allocate@?$memory_manager_stateless_kernel_1@Unode@?$queue_kernel_2@Vfile@dlib@@$0BE@V?$memory_manager_stateless_kernel_1@D@2@@dlib@@@dlib@@QAEPAUnode@?$queue_kernel_2@Vfile@dlib@@$0BE@V?$memory_manager_stateless_kernel_1@D@2@@2@XZ
	mov	eax, DWORD PTR fs:0
	push	eax
	sub	esp, 16					; 00000010H
	mov	eax, DWORD PTR ___security_cookie
	xor	eax, ebp
	push	eax
	lea	eax, DWORD PTR __$EHRec$[ebp]
	mov	DWORD PTR fs:0, eax
	mov	DWORD PTR _this$[ebp], ecx
; Line 39
	push	1288					; 00000508H
	call	DWORD PTR __imp_??2@YAPAXI@Z
	add	esp, 4
	mov	DWORD PTR $T363071[ebp], eax
	mov	DWORD PTR __$EHRec$[ebp+8], 0
	cmp	DWORD PTR $T363071[ebp], 0
	je	SHORT $LN3@allocate@8
	mov	ecx, DWORD PTR $T363071[ebp]
	call	??0node@?$queue_kernel_2@Vfile@dlib@@$0BE@V?$memory_manager_stateless_kernel_1@D@2@@dlib@@QAE@XZ
	mov	DWORD PTR tv71[ebp], eax
	jmp	SHORT $LN4@allocate@8
$LN3@allocate@8:
	mov	DWORD PTR tv71[ebp], 0
$LN4@allocate@8:
	mov	eax, DWORD PTR tv71[ebp]
	mov	DWORD PTR $T363070[ebp], eax
	mov	DWORD PTR __$EHRec$[ebp+8], -1
	mov	eax, DWORD PTR $T363070[ebp]
; Line 40
	mov	ecx, DWORD PTR __$EHRec$[ebp]
	mov	DWORD PTR fs:0, ecx
	pop	ecx
	mov	esp, ebp
	pop	ebp
	ret	0
_TEXT	ENDS
;	COMDAT text$x
text$x	SEGMENT
__unwindfunclet$?allocate@?$memory_manager_stateless_kernel_1@Unode@?$queue_kernel_2@Vfile@dlib@@$0BE@V?$memory_manager_stateless_kernel_1@D@2@@dlib@@@dlib@@QAEPAUnode@?$queue_kernel_2@Vfile@dlib@@$0BE@V?$memory_manager_stateless_kernel_1@D@2@@2@XZ$0:
	mov	eax, DWORD PTR $T363071[ebp]
	push	eax
	call	DWORD PTR __imp_??3@YAXPAX@Z
	pop	ecx
	ret	0
__ehhandler$?allocate@?$memory_manager_stateless_kernel_1@Unode@?$queue_kernel_2@Vfile@dlib@@$0BE@V?$memory_manager_stateless_kernel_1@D@2@@dlib@@@dlib@@QAEPAUnode@?$queue_kernel_2@Vfile@dlib@@$0BE@V?$memory_manager_stateless_kernel_1@D@2@@2@XZ:
	mov	edx, DWORD PTR [esp+8]
	lea	eax, DWORD PTR [edx+12]
	mov	ecx, DWORD PTR [edx-20]
	xor	ecx, eax
	call	@__security_check_cookie@4
	mov	eax, OFFSET __ehfuncinfo$?allocate@?$memory_manager_stateless_kernel_1@Unode@?$queue_kernel_2@Vfile@dlib@@$0BE@V?$memory_manager_stateless_kernel_1@D@2@@dlib@@@dlib@@QAEPAUnode@?$queue_kernel_2@Vfile@dlib@@$0BE@V?$memory_manager_stateless_kernel_1@D@2@@2@XZ
	jmp	___CxxFrameHandler3
text$x	ENDS
?allocate@?$memory_manager_stateless_kernel_1@Unode@?$queue_kernel_2@Vfile@dlib@@$0BE@V?$memory_manager_stateless_kernel_1@D@2@@dlib@@@dlib@@QAEPAUnode@?$queue_kernel_2@Vfile@dlib@@$0BE@V?$memory_manager_stateless_kernel_1@D@2@@2@XZ ENDP ; dlib::memory_manager_stateless_kernel_1<dlib::queue_kernel_2<dlib::file,20,dlib::memory_manager_stateless_kernel_1<char> >::node>::allocate
; Function compile flags: /Odtp
;	COMDAT ??_Gfile@dlib@@QAEPAXI@Z
_TEXT	SEGMENT
_this$ = -4						; size = 4
___flags$ = 8						; size = 4
??_Gfile@dlib@@QAEPAXI@Z PROC				; dlib::file::`scalar deleting destructor', COMDAT
; _this$ = ecx
	push	ebp
	mov	ebp, esp
	push	ecx
	mov	DWORD PTR _this$[ebp], ecx
	mov	ecx, DWORD PTR _this$[ebp]
	call	??1file@dlib@@QAE@XZ
	mov	eax, DWORD PTR ___flags$[ebp]
	and	eax, 1
	je	SHORT $LN1@scalar@228
	mov	ecx, DWORD PTR _this$[ebp]
	push	ecx
	call	DWORD PTR __imp_??3@YAXPAX@Z
	add	esp, 4
$LN1@scalar@228:
	mov	eax, DWORD PTR _this$[ebp]
	mov	esp, ebp
	pop	ebp
	ret	4
??_Gfile@dlib@@QAEPAXI@Z ENDP				; dlib::file::`scalar deleting destructor'
; Function compile flags: /Odtp
_TEXT	ENDS
;	COMDAT ??$_Destroy@Vfile@dlib@@@std@@YAXPAVfile@dlib@@@Z
_TEXT	SEGMENT
__Ptr$ = 8						; size = 4
??$_Destroy@Vfile@dlib@@@std@@YAXPAVfile@dlib@@@Z PROC	; std::_Destroy<dlib::file>, COMDAT
; File e:\program files (x86)\microsoft visual studio 10.0\vc\include\xmemory
; Line 62
	push	ebp
	mov	ebp, esp
; Line 63
	push	0
	mov	ecx, DWORD PTR __Ptr$[ebp]
	call	??_Gfile@dlib@@QAEPAXI@Z
; Line 64
	pop	ebp
	ret	0
??$_Destroy@Vfile@dlib@@@std@@YAXPAVfile@dlib@@@Z ENDP	; std::_Destroy<dlib::file>
_TEXT	ENDS
;	COMDAT xdata$x
xdata$x	SEGMENT
__unwindtable$??$_Construct@Vfile@dlib@@ABV12@@std@@YAXPAVfile@dlib@@ABV12@@Z DD 0ffffffffH
	DD	FLAT:__unwindfunclet$??$_Construct@Vfile@dlib@@ABV12@@std@@YAXPAVfile@dlib@@ABV12@@Z$0
__ehfuncinfo$??$_Construct@Vfile@dlib@@ABV12@@std@@YAXPAVfile@dlib@@ABV12@@Z DD 019930522H
	DD	01H
	DD	FLAT:__unwindtable$??$_Construct@Vfile@dlib@@ABV12@@std@@YAXPAVfile@dlib@@ABV12@@Z
	DD	2 DUP(00H)
	DD	2 DUP(00H)
	DD	00H
	DD	01H
; Function compile flags: /Odtp
xdata$x	ENDS
;	COMDAT ??$_Construct@Vfile@dlib@@ABV12@@std@@YAXPAVfile@dlib@@ABV12@@Z
_TEXT	SEGMENT
tv76 = -28						; size = 4
$T363088 = -24						; size = 4
$T363087 = -20						; size = 4
__Vptr$ = -16						; size = 4
__$EHRec$ = -12						; size = 12
__Ptr$ = 8						; size = 4
__Val$ = 12						; size = 4
??$_Construct@Vfile@dlib@@ABV12@@std@@YAXPAVfile@dlib@@ABV12@@Z PROC ; std::_Construct<dlib::file,dlib::file const &>, COMDAT
; Line 46
	push	ebp
	mov	ebp, esp
	push	-1
	push	__ehhandler$??$_Construct@Vfile@dlib@@ABV12@@std@@YAXPAVfile@dlib@@ABV12@@Z
	mov	eax, DWORD PTR fs:0
	push	eax
	sub	esp, 16					; 00000010H
	mov	eax, DWORD PTR ___security_cookie
	xor	eax, ebp
	push	eax
	lea	eax, DWORD PTR __$EHRec$[ebp]
	mov	DWORD PTR fs:0, eax
; Line 47
	mov	eax, DWORD PTR __Ptr$[ebp]
	mov	DWORD PTR __Vptr$[ebp], eax
; Line 48
	mov	ecx, DWORD PTR __Vptr$[ebp]
	push	ecx
	push	64					; 00000040H
	call	??2@YAPAXIPAX@Z				; operator new
	add	esp, 8
	mov	DWORD PTR $T363088[ebp], eax
	mov	DWORD PTR __$EHRec$[ebp+8], 0
	cmp	DWORD PTR $T363088[ebp], 0
	je	SHORT $LN3@Construct@10
	mov	edx, DWORD PTR __Val$[ebp]
	push	edx
	call	??$forward@ABVfile@dlib@@@std@@YAABVfile@dlib@@ABV12@@Z ; std::forward<dlib::file const &>
	add	esp, 4
	push	eax
	mov	ecx, DWORD PTR $T363088[ebp]
	call	??0file@dlib@@QAE@ABV01@@Z
	mov	DWORD PTR tv76[ebp], eax
	jmp	SHORT $LN4@Construct@10
$LN3@Construct@10:
	mov	DWORD PTR tv76[ebp], 0
$LN4@Construct@10:
	mov	eax, DWORD PTR tv76[ebp]
	mov	DWORD PTR $T363087[ebp], eax
	mov	DWORD PTR __$EHRec$[ebp+8], -1
; Line 49
	mov	ecx, DWORD PTR __$EHRec$[ebp]
	mov	DWORD PTR fs:0, ecx
	pop	ecx
	mov	esp, ebp
	pop	ebp
	ret	0
_TEXT	ENDS
;	COMDAT text$x
text$x	SEGMENT
__unwindfunclet$??$_Construct@Vfile@dlib@@ABV12@@std@@YAXPAVfile@dlib@@ABV12@@Z$0:
	mov	eax, DWORD PTR __Vptr$[ebp]
	push	eax
	mov	ecx, DWORD PTR $T363088[ebp]
	push	ecx
	call	??3@YAXPAX0@Z				; operator delete
	add	esp, 8
	ret	0
__ehhandler$??$_Construct@Vfile@dlib@@ABV12@@std@@YAXPAVfile@dlib@@ABV12@@Z:
	mov	edx, DWORD PTR [esp+8]
	lea	eax, DWORD PTR [edx+12]
	mov	ecx, DWORD PTR [edx-20]
	xor	ecx, eax
	call	@__security_check_cookie@4
	mov	eax, OFFSET __ehfuncinfo$??$_Construct@Vfile@dlib@@ABV12@@std@@YAXPAVfile@dlib@@ABV12@@Z
	jmp	___CxxFrameHandler3
text$x	ENDS
??$_Construct@Vfile@dlib@@ABV12@@std@@YAXPAVfile@dlib@@ABV12@@Z ENDP ; std::_Construct<dlib::file,dlib::file const &>
;	COMDAT xdata$x
xdata$x	SEGMENT
__unwindtable$??$construct@AAVfile@dlib@@@?$allocator@Vfile@dlib@@@std@@QAEXPAVfile@dlib@@AAV23@@Z DD 0ffffffffH
	DD	FLAT:__unwindfunclet$??$construct@AAVfile@dlib@@@?$allocator@Vfile@dlib@@@std@@QAEXPAVfile@dlib@@AAV23@@Z$0
__ehfuncinfo$??$construct@AAVfile@dlib@@@?$allocator@Vfile@dlib@@@std@@QAEXPAVfile@dlib@@AAV23@@Z DD 019930522H
	DD	01H
	DD	FLAT:__unwindtable$??$construct@AAVfile@dlib@@@?$allocator@Vfile@dlib@@@std@@QAEXPAVfile@dlib@@AAV23@@Z
	DD	2 DUP(00H)
	DD	2 DUP(00H)
	DD	00H
	DD	01H
; Function compile flags: /Odtp
xdata$x	ENDS
;	COMDAT ??$construct@AAVfile@dlib@@@?$allocator@Vfile@dlib@@@std@@QAEXPAVfile@dlib@@AAV23@@Z
_TEXT	SEGMENT
tv76 = -28						; size = 4
_this$ = -24						; size = 4
$T363101 = -20						; size = 4
$T363100 = -16						; size = 4
__$EHRec$ = -12						; size = 12
__Ptr$ = 8						; size = 4
__Val$ = 12						; size = 4
??$construct@AAVfile@dlib@@@?$allocator@Vfile@dlib@@@std@@QAEXPAVfile@dlib@@AAV23@@Z PROC ; std::allocator<dlib::file>::construct<dlib::file &>, COMDAT
; _this$ = ecx
; Line 206
	push	ebp
	mov	ebp, esp
	push	-1
	push	__ehhandler$??$construct@AAVfile@dlib@@@?$allocator@Vfile@dlib@@@std@@QAEXPAVfile@dlib@@AAV23@@Z
	mov	eax, DWORD PTR fs:0
	push	eax
	sub	esp, 16					; 00000010H
	mov	eax, DWORD PTR ___security_cookie
	xor	eax, ebp
	push	eax
	lea	eax, DWORD PTR __$EHRec$[ebp]
	mov	DWORD PTR fs:0, eax
	mov	DWORD PTR _this$[ebp], ecx
; Line 208
	mov	eax, DWORD PTR __Ptr$[ebp]
	push	eax
	push	64					; 00000040H
	call	??2@YAPAXIPAX@Z				; operator new
	add	esp, 8
	mov	DWORD PTR $T363101[ebp], eax
	mov	DWORD PTR __$EHRec$[ebp+8], 0
	cmp	DWORD PTR $T363101[ebp], 0
	je	SHORT $LN3@construct@22
	mov	ecx, DWORD PTR __Val$[ebp]
	push	ecx
	call	??$forward@AAVfile@dlib@@@std@@YAAAVfile@dlib@@AAV12@@Z ; std::forward<dlib::file &>
	add	esp, 4
	push	eax
	mov	ecx, DWORD PTR $T363101[ebp]
	call	??0file@dlib@@QAE@ABV01@@Z
	mov	DWORD PTR tv76[ebp], eax
	jmp	SHORT $LN4@construct@22
$LN3@construct@22:
	mov	DWORD PTR tv76[ebp], 0
$LN4@construct@22:
	mov	edx, DWORD PTR tv76[ebp]
	mov	DWORD PTR $T363100[ebp], edx
	mov	DWORD PTR __$EHRec$[ebp+8], -1
; Line 209
	mov	ecx, DWORD PTR __$EHRec$[ebp]
	mov	DWORD PTR fs:0, ecx
	pop	ecx
	mov	esp, ebp
	pop	ebp
	ret	8
_TEXT	ENDS
;	COMDAT text$x
text$x	SEGMENT
__unwindfunclet$??$construct@AAVfile@dlib@@@?$allocator@Vfile@dlib@@@std@@QAEXPAVfile@dlib@@AAV23@@Z$0:
	mov	eax, DWORD PTR __Ptr$[ebp]
	push	eax
	mov	ecx, DWORD PTR $T363101[ebp]
	push	ecx
	call	??3@YAXPAX0@Z				; operator delete
	add	esp, 8
	ret	0
__ehhandler$??$construct@AAVfile@dlib@@@?$allocator@Vfile@dlib@@@std@@QAEXPAVfile@dlib@@AAV23@@Z:
	mov	edx, DWORD PTR [esp+8]
	lea	eax, DWORD PTR [edx+12]
	mov	ecx, DWORD PTR [edx-20]
	xor	ecx, eax
	call	@__security_check_cookie@4
	mov	eax, OFFSET __ehfuncinfo$??$construct@AAVfile@dlib@@@?$allocator@Vfile@dlib@@@std@@QAEXPAVfile@dlib@@AAV23@@Z
	jmp	___CxxFrameHandler3
text$x	ENDS
??$construct@AAVfile@dlib@@@?$allocator@Vfile@dlib@@@std@@QAEXPAVfile@dlib@@AAV23@@Z ENDP ; std::allocator<dlib::file>::construct<dlib::file &>
; Function compile flags: /Odtp
;	COMDAT ?delete_nodes@?$queue_kernel_2@Vfile@dlib@@$0BE@V?$memory_manager_stateless_kernel_1@D@2@@dlib@@AAEXPAUnode@12@0@Z
_TEXT	SEGMENT
_this$ = -8						; size = 4
_temp$ = -4						; size = 4
_start$ = 8						; size = 4
_end$ = 12						; size = 4
?delete_nodes@?$queue_kernel_2@Vfile@dlib@@$0BE@V?$memory_manager_stateless_kernel_1@D@2@@dlib@@AAEXPAUnode@12@0@Z PROC ; dlib::queue_kernel_2<dlib::file,20,dlib::memory_manager_stateless_kernel_1<char> >::delete_nodes, COMDAT
; _this$ = ecx
; File e:\library\dlib\dlib\queue\queue_kernel_2.h
; Line 584
	push	ebp
	mov	ebp, esp
	sub	esp, 8
	mov	DWORD PTR _this$[ebp], ecx
$LN2@delete_nod@4:
; Line 586
	mov	eax, DWORD PTR _start$[ebp]
	cmp	eax, DWORD PTR _end$[ebp]
	je	SHORT $LN1@delete_nod@4
; Line 588
	mov	ecx, DWORD PTR _start$[ebp]
	mov	DWORD PTR _temp$[ebp], ecx
; Line 589
	mov	edx, DWORD PTR _start$[ebp]
	mov	eax, DWORD PTR [edx]
	mov	DWORD PTR _start$[ebp], eax
; Line 590
	mov	ecx, DWORD PTR _temp$[ebp]
	push	ecx
	mov	ecx, DWORD PTR _this$[ebp]
	add	ecx, 8
	call	?deallocate@?$memory_manager_stateless_kernel_1@Unode@?$queue_kernel_2@Vfile@dlib@@$0BE@V?$memory_manager_stateless_kernel_1@D@2@@dlib@@@dlib@@QAEXPAUnode@?$queue_kernel_2@Vfile@dlib@@$0BE@V?$memory_manager_stateless_kernel_1@D@2@@2@@Z ; dlib::memory_manager_stateless_kernel_1<dlib::queue_kernel_2<dlib::file,20,dlib::memory_manager_stateless_kernel_1<char> >::node>::deallocate
; Line 591
	jmp	SHORT $LN2@delete_nod@4
$LN1@delete_nod@4:
; Line 592
	mov	edx, DWORD PTR _start$[ebp]
	push	edx
	mov	ecx, DWORD PTR _this$[ebp]
	add	ecx, 8
	call	?deallocate@?$memory_manager_stateless_kernel_1@Unode@?$queue_kernel_2@Vfile@dlib@@$0BE@V?$memory_manager_stateless_kernel_1@D@2@@dlib@@@dlib@@QAEXPAUnode@?$queue_kernel_2@Vfile@dlib@@$0BE@V?$memory_manager_stateless_kernel_1@D@2@@2@@Z ; dlib::memory_manager_stateless_kernel_1<dlib::queue_kernel_2<dlib::file,20,dlib::memory_manager_stateless_kernel_1<char> >::node>::deallocate
; Line 593
	mov	esp, ebp
	pop	ebp
	ret	8
?delete_nodes@?$queue_kernel_2@Vfile@dlib@@$0BE@V?$memory_manager_stateless_kernel_1@D@2@@dlib@@AAEXPAUnode@12@0@Z ENDP ; dlib::queue_kernel_2<dlib::file,20,dlib::memory_manager_stateless_kernel_1<char> >::delete_nodes
; Function compile flags: /Odtp
_TEXT	ENDS
;	COMDAT ?clear@?$queue_kernel_2@Vfile@dlib@@$0BE@V?$memory_manager_stateless_kernel_1@D@2@@dlib@@QAEXXZ
_TEXT	SEGMENT
_this$ = -4						; size = 4
?clear@?$queue_kernel_2@Vfile@dlib@@$0BE@V?$memory_manager_stateless_kernel_1@D@2@@dlib@@QAEXXZ PROC ; dlib::queue_kernel_2<dlib::file,20,dlib::memory_manager_stateless_kernel_1<char> >::clear, COMDAT
; _this$ = ecx
; Line 243
	push	ebp
	mov	ebp, esp
	push	ecx
	mov	DWORD PTR _this$[ebp], ecx
; Line 244
	mov	eax, DWORD PTR _this$[ebp]
	cmp	DWORD PTR [eax+20], 0
	jbe	SHORT $LN1@clear@3
; Line 246
	mov	ecx, DWORD PTR _this$[ebp]
	mov	edx, DWORD PTR [ecx+12]
	push	edx
	mov	eax, DWORD PTR _this$[ebp]
	mov	ecx, DWORD PTR [eax+16]
	push	ecx
	mov	ecx, DWORD PTR _this$[ebp]
	call	?delete_nodes@?$queue_kernel_2@Vfile@dlib@@$0BE@V?$memory_manager_stateless_kernel_1@D@2@@dlib@@AAEXPAUnode@12@0@Z ; dlib::queue_kernel_2<dlib::file,20,dlib::memory_manager_stateless_kernel_1<char> >::delete_nodes
; Line 247
	mov	edx, DWORD PTR _this$[ebp]
	mov	DWORD PTR [edx+20], 0
$LN1@clear@3:
; Line 251
	mov	eax, DWORD PTR _this$[ebp]
	mov	edx, DWORD PTR [eax]
	mov	ecx, DWORD PTR _this$[ebp]
	mov	eax, DWORD PTR [edx+8]
	call	eax
; Line 252
	mov	esp, ebp
	pop	ebp
	ret	0
?clear@?$queue_kernel_2@Vfile@dlib@@$0BE@V?$memory_manager_stateless_kernel_1@D@2@@dlib@@QAEXXZ ENDP ; dlib::queue_kernel_2<dlib::file,20,dlib::memory_manager_stateless_kernel_1<char> >::clear
; Function compile flags: /Odtp
_TEXT	ENDS
;	COMDAT ?destroy@?$allocator@Vfile@dlib@@@std@@QAEXPAVfile@dlib@@@Z
_TEXT	SEGMENT
_this$ = -4						; size = 4
__Ptr$ = 8						; size = 4
?destroy@?$allocator@Vfile@dlib@@@std@@QAEXPAVfile@dlib@@@Z PROC ; std::allocator<dlib::file>::destroy, COMDAT
; _this$ = ecx
; File e:\program files (x86)\microsoft visual studio 10.0\vc\include\xmemory
; Line 212
	push	ebp
	mov	ebp, esp
	push	ecx
	mov	DWORD PTR _this$[ebp], ecx
; Line 213
	mov	eax, DWORD PTR __Ptr$[ebp]
	push	eax
	call	??$_Destroy@Vfile@dlib@@@std@@YAXPAVfile@dlib@@@Z ; std::_Destroy<dlib::file>
	add	esp, 4
; Line 214
	mov	esp, ebp
	pop	ebp
	ret	4
?destroy@?$allocator@Vfile@dlib@@@std@@QAEXPAVfile@dlib@@@Z ENDP ; std::allocator<dlib::file>::destroy
; Function compile flags: /Odtp
_TEXT	ENDS
;	COMDAT ?construct@?$allocator@Vfile@dlib@@@std@@QAEXPAVfile@dlib@@ABV34@@Z
_TEXT	SEGMENT
_this$ = -4						; size = 4
__Ptr$ = 8						; size = 4
__Val$ = 12						; size = 4
?construct@?$allocator@Vfile@dlib@@@std@@QAEXPAVfile@dlib@@ABV34@@Z PROC ; std::allocator<dlib::file>::construct, COMDAT
; _this$ = ecx
; Line 196
	push	ebp
	mov	ebp, esp
	push	ecx
	mov	DWORD PTR _this$[ebp], ecx
; Line 197
	mov	eax, DWORD PTR __Val$[ebp]
	push	eax
	mov	ecx, DWORD PTR __Ptr$[ebp]
	push	ecx
	call	??$_Construct@Vfile@dlib@@ABV12@@std@@YAXPAVfile@dlib@@ABV12@@Z ; std::_Construct<dlib::file,dlib::file const &>
	add	esp, 8
; Line 198
	mov	esp, ebp
	pop	ebp
	ret	8
?construct@?$allocator@Vfile@dlib@@@std@@QAEXPAVfile@dlib@@ABV34@@Z ENDP ; std::allocator<dlib::file>::construct
; Function compile flags: /Odtp
_TEXT	ENDS
;	COMDAT ??$_Cons_val@V?$allocator@Vfile@dlib@@@std@@Vfile@dlib@@ABV34@@std@@YAXAAV?$allocator@Vfile@dlib@@@0@PAVfile@dlib@@ABV23@@Z
_TEXT	SEGMENT
__Alval$ = 8						; size = 4
__Pdest$ = 12						; size = 4
__Src$ = 16						; size = 4
??$_Cons_val@V?$allocator@Vfile@dlib@@@std@@Vfile@dlib@@ABV34@@std@@YAXAAV?$allocator@Vfile@dlib@@@0@PAVfile@dlib@@ABV23@@Z PROC ; std::_Cons_val<std::allocator<dlib::file>,dlib::file,dlib::file const &>, COMDAT
; Line 279
	push	ebp
	mov	ebp, esp
; Line 280
	mov	eax, DWORD PTR __Src$[ebp]
	push	eax
	call	??$forward@ABVfile@dlib@@@std@@YAABVfile@dlib@@ABV12@@Z ; std::forward<dlib::file const &>
	add	esp, 4
	push	eax
	mov	ecx, DWORD PTR __Pdest$[ebp]
	push	ecx
	mov	ecx, DWORD PTR __Alval$[ebp]
	call	?construct@?$allocator@Vfile@dlib@@@std@@QAEXPAVfile@dlib@@ABV34@@Z ; std::allocator<dlib::file>::construct
; Line 281
	pop	ebp
	ret	0
??$_Cons_val@V?$allocator@Vfile@dlib@@@std@@Vfile@dlib@@ABV34@@std@@YAXAAV?$allocator@Vfile@dlib@@@0@PAVfile@dlib@@ABV23@@Z ENDP ; std::_Cons_val<std::allocator<dlib::file>,dlib::file,dlib::file const &>
; Function compile flags: /Odtp
_TEXT	ENDS
;	COMDAT ??$_Cons_val@V?$allocator@Vfile@dlib@@@std@@Vfile@dlib@@AAV34@@std@@YAXAAV?$allocator@Vfile@dlib@@@0@PAVfile@dlib@@AAV23@@Z
_TEXT	SEGMENT
__Alval$ = 8						; size = 4
__Pdest$ = 12						; size = 4
__Src$ = 16						; size = 4
??$_Cons_val@V?$allocator@Vfile@dlib@@@std@@Vfile@dlib@@AAV34@@std@@YAXAAV?$allocator@Vfile@dlib@@@0@PAVfile@dlib@@AAV23@@Z PROC ; std::_Cons_val<std::allocator<dlib::file>,dlib::file,dlib::file &>, COMDAT
; Line 279
	push	ebp
	mov	ebp, esp
; Line 280
	mov	eax, DWORD PTR __Src$[ebp]
	push	eax
	call	??$forward@AAVfile@dlib@@@std@@YAAAVfile@dlib@@AAV12@@Z ; std::forward<dlib::file &>
	add	esp, 4
	push	eax
	mov	ecx, DWORD PTR __Pdest$[ebp]
	push	ecx
	mov	ecx, DWORD PTR __Alval$[ebp]
	call	??$construct@AAVfile@dlib@@@?$allocator@Vfile@dlib@@@std@@QAEXPAVfile@dlib@@AAV23@@Z ; std::allocator<dlib::file>::construct<dlib::file &>
; Line 281
	pop	ebp
	ret	0
??$_Cons_val@V?$allocator@Vfile@dlib@@@std@@Vfile@dlib@@AAV34@@std@@YAXAAV?$allocator@Vfile@dlib@@@0@PAVfile@dlib@@AAV23@@Z ENDP ; std::_Cons_val<std::allocator<dlib::file>,dlib::file,dlib::file &>
; Function compile flags: /Odtp
_TEXT	ENDS
;	COMDAT ??$_Dest_val@V?$allocator@Vfile@dlib@@@std@@Vfile@dlib@@@std@@YAXAAV?$allocator@Vfile@dlib@@@0@PAVfile@dlib@@@Z
_TEXT	SEGMENT
__Alval$ = 8						; size = 4
__Pdest$ = 12						; size = 4
??$_Dest_val@V?$allocator@Vfile@dlib@@@std@@Vfile@dlib@@@std@@YAXAAV?$allocator@Vfile@dlib@@@0@PAVfile@dlib@@@Z PROC ; std::_Dest_val<std::allocator<dlib::file>,dlib::file>, COMDAT
; Line 286
	push	ebp
	mov	ebp, esp
; Line 287
	mov	eax, DWORD PTR __Pdest$[ebp]
	push	eax
	mov	ecx, DWORD PTR __Alval$[ebp]
	call	?destroy@?$allocator@Vfile@dlib@@@std@@QAEXPAVfile@dlib@@@Z ; std::allocator<dlib::file>::destroy
; Line 288
	pop	ebp
	ret	0
??$_Dest_val@V?$allocator@Vfile@dlib@@@std@@Vfile@dlib@@@std@@YAXAAV?$allocator@Vfile@dlib@@@0@PAVfile@dlib@@@Z ENDP ; std::_Dest_val<std::allocator<dlib::file>,dlib::file>
_TEXT	ENDS
;	COMDAT xdata$x
; File e:\library\dlib\dlib\queue\queue_kernel_2.h
xdata$x	SEGMENT
__unwindtable$??1?$queue_kernel_2@Vfile@dlib@@$0BE@V?$memory_manager_stateless_kernel_1@D@2@@dlib@@UAE@XZ DD 0ffffffffH
	DD	FLAT:__unwindfunclet$??1?$queue_kernel_2@Vfile@dlib@@$0BE@V?$memory_manager_stateless_kernel_1@D@2@@dlib@@UAE@XZ$0
	DD	00H
	DD	FLAT:__unwindfunclet$??1?$queue_kernel_2@Vfile@dlib@@$0BE@V?$memory_manager_stateless_kernel_1@D@2@@dlib@@UAE@XZ$1
	DD	01H
	DD	FLAT:__unwindfunclet$??1?$queue_kernel_2@Vfile@dlib@@$0BE@V?$memory_manager_stateless_kernel_1@D@2@@dlib@@UAE@XZ$2
__ehfuncinfo$??1?$queue_kernel_2@Vfile@dlib@@$0BE@V?$memory_manager_stateless_kernel_1@D@2@@dlib@@UAE@XZ DD 019930522H
	DD	03H
	DD	FLAT:__unwindtable$??1?$queue_kernel_2@Vfile@dlib@@$0BE@V?$memory_manager_stateless_kernel_1@D@2@@dlib@@UAE@XZ
	DD	2 DUP(00H)
	DD	2 DUP(00H)
	DD	00H
	DD	01H
; Function compile flags: /Odtp
xdata$x	ENDS
;	COMDAT ??1?$queue_kernel_2@Vfile@dlib@@$0BE@V?$memory_manager_stateless_kernel_1@D@2@@dlib@@UAE@XZ
_TEXT	SEGMENT
_this$ = -16						; size = 4
__$EHRec$ = -12						; size = 12
??1?$queue_kernel_2@Vfile@dlib@@$0BE@V?$memory_manager_stateless_kernel_1@D@2@@dlib@@UAE@XZ PROC ; dlib::queue_kernel_2<dlib::file,20,dlib::memory_manager_stateless_kernel_1<char> >::~queue_kernel_2<dlib::file,20,dlib::memory_manager_stateless_kernel_1<char> >, COMDAT
; _this$ = ecx
; Line 226
	push	ebp
	mov	ebp, esp
	push	-1
	push	__ehhandler$??1?$queue_kernel_2@Vfile@dlib@@$0BE@V?$memory_manager_stateless_kernel_1@D@2@@dlib@@UAE@XZ
	mov	eax, DWORD PTR fs:0
	push	eax
	push	ecx
	mov	eax, DWORD PTR ___security_cookie
	xor	eax, ebp
	push	eax
	lea	eax, DWORD PTR __$EHRec$[ebp]
	mov	DWORD PTR fs:0, eax
	mov	DWORD PTR _this$[ebp], ecx
	mov	eax, DWORD PTR _this$[ebp]
	mov	DWORD PTR [eax], OFFSET ??_7?$queue_kernel_2@Vfile@dlib@@$0BE@V?$memory_manager_stateless_kernel_1@D@2@@dlib@@6B?$enumerable@Vfile@dlib@@@1@@
	mov	ecx, DWORD PTR _this$[ebp]
	mov	DWORD PTR [ecx+4], OFFSET ??_7?$queue_kernel_2@Vfile@dlib@@$0BE@V?$memory_manager_stateless_kernel_1@D@2@@dlib@@6B?$remover@Vfile@dlib@@@1@@
	mov	DWORD PTR __$EHRec$[ebp+8], 2
; Line 229
	mov	edx, DWORD PTR _this$[ebp]
	cmp	DWORD PTR [edx+20], 0
	jbe	SHORT $LN2@queue_kern
; Line 230
	mov	eax, DWORD PTR _this$[ebp]
	mov	ecx, DWORD PTR [eax+12]
	push	ecx
	mov	edx, DWORD PTR _this$[ebp]
	mov	eax, DWORD PTR [edx+16]
	push	eax
	mov	ecx, DWORD PTR _this$[ebp]
	call	?delete_nodes@?$queue_kernel_2@Vfile@dlib@@$0BE@V?$memory_manager_stateless_kernel_1@D@2@@dlib@@AAEXPAUnode@12@0@Z ; dlib::queue_kernel_2<dlib::file,20,dlib::memory_manager_stateless_kernel_1<char> >::delete_nodes
$LN2@queue_kern:
; Line 231
	mov	BYTE PTR __$EHRec$[ebp+8], 1
	mov	ecx, DWORD PTR _this$[ebp]
	add	ecx, 8
	call	??1?$memory_manager_stateless_kernel_1@Unode@?$queue_kernel_2@Vfile@dlib@@$0BE@V?$memory_manager_stateless_kernel_1@D@2@@dlib@@@dlib@@UAE@XZ ; dlib::memory_manager_stateless_kernel_1<dlib::queue_kernel_2<dlib::file,20,dlib::memory_manager_stateless_kernel_1<char> >::node>::~memory_manager_stateless_kernel_1<dlib::queue_kernel_2<dlib::file,20,dlib::memory_manager_stateless_kernel_1<char> >::node>
	mov	BYTE PTR __$EHRec$[ebp+8], 0
	mov	ecx, DWORD PTR _this$[ebp]
	add	ecx, 4
	call	??1?$remover@Vfile@dlib@@@dlib@@UAE@XZ	; dlib::remover<dlib::file>::~remover<dlib::file>
	mov	DWORD PTR __$EHRec$[ebp+8], -1
	mov	ecx, DWORD PTR _this$[ebp]
	call	??1?$enumerable@Vfile@dlib@@@dlib@@UAE@XZ ; dlib::enumerable<dlib::file>::~enumerable<dlib::file>
	mov	ecx, DWORD PTR __$EHRec$[ebp]
	mov	DWORD PTR fs:0, ecx
	pop	ecx
	mov	esp, ebp
	pop	ebp
	ret	0
_TEXT	ENDS
;	COMDAT text$x
text$x	SEGMENT
__unwindfunclet$??1?$queue_kernel_2@Vfile@dlib@@$0BE@V?$memory_manager_stateless_kernel_1@D@2@@dlib@@UAE@XZ$0:
	mov	ecx, DWORD PTR _this$[ebp]
	jmp	??1?$enumerable@Vfile@dlib@@@dlib@@UAE@XZ ; dlib::enumerable<dlib::file>::~enumerable<dlib::file>
__unwindfunclet$??1?$queue_kernel_2@Vfile@dlib@@$0BE@V?$memory_manager_stateless_kernel_1@D@2@@dlib@@UAE@XZ$1:
	mov	ecx, DWORD PTR _this$[ebp]
	add	ecx, 4
	jmp	??1?$remover@Vfile@dlib@@@dlib@@UAE@XZ	; dlib::remover<dlib::file>::~remover<dlib::file>
__unwindfunclet$??1?$queue_kernel_2@Vfile@dlib@@$0BE@V?$memory_manager_stateless_kernel_1@D@2@@dlib@@UAE@XZ$2:
	mov	ecx, DWORD PTR _this$[ebp]
	add	ecx, 8
	jmp	??1?$memory_manager_stateless_kernel_1@Unode@?$queue_kernel_2@Vfile@dlib@@$0BE@V?$memory_manager_stateless_kernel_1@D@2@@dlib@@@dlib@@UAE@XZ ; dlib::memory_manager_stateless_kernel_1<dlib::queue_kernel_2<dlib::file,20,dlib::memory_manager_stateless_kernel_1<char> >::node>::~memory_manager_stateless_kernel_1<dlib::queue_kernel_2<dlib::file,20,dlib::memory_manager_stateless_kernel_1<char> >::node>
__ehhandler$??1?$queue_kernel_2@Vfile@dlib@@$0BE@V?$memory_manager_stateless_kernel_1@D@2@@dlib@@UAE@XZ:
	mov	edx, DWORD PTR [esp+8]
	lea	eax, DWORD PTR [edx+12]
	mov	ecx, DWORD PTR [edx-8]
	xor	ecx, eax
	call	@__security_check_cookie@4
	mov	eax, OFFSET __ehfuncinfo$??1?$queue_kernel_2@Vfile@dlib@@$0BE@V?$memory_manager_stateless_kernel_1@D@2@@dlib@@UAE@XZ
	jmp	___CxxFrameHandler3
text$x	ENDS
??1?$queue_kernel_2@Vfile@dlib@@$0BE@V?$memory_manager_stateless_kernel_1@D@2@@dlib@@UAE@XZ ENDP ; dlib::queue_kernel_2<dlib::file,20,dlib::memory_manager_stateless_kernel_1<char> >::~queue_kernel_2<dlib::file,20,dlib::memory_manager_stateless_kernel_1<char> >
; Function compile flags: /Odtp
;	COMDAT ??_G?$queue_kernel_2@Vfile@dlib@@$0BE@V?$memory_manager_stateless_kernel_1@D@2@@dlib@@UAEPAXI@Z
_TEXT	SEGMENT
_this$ = -4						; size = 4
___flags$ = 8						; size = 4
??_G?$queue_kernel_2@Vfile@dlib@@$0BE@V?$memory_manager_stateless_kernel_1@D@2@@dlib@@UAEPAXI@Z PROC ; dlib::queue_kernel_2<dlib::file,20,dlib::memory_manager_stateless_kernel_1<char> >::`scalar deleting destructor', COMDAT
; _this$ = ecx
	push	ebp
	mov	ebp, esp
	push	ecx
	mov	DWORD PTR _this$[ebp], ecx
	mov	ecx, DWORD PTR _this$[ebp]
	call	??1?$queue_kernel_2@Vfile@dlib@@$0BE@V?$memory_manager_stateless_kernel_1@D@2@@dlib@@UAE@XZ ; dlib::queue_kernel_2<dlib::file,20,dlib::memory_manager_stateless_kernel_1<char> >::~queue_kernel_2<dlib::file,20,dlib::memory_manager_stateless_kernel_1<char> >
	mov	eax, DWORD PTR ___flags$[ebp]
	and	eax, 1
	je	SHORT $LN1@scalar@229
	mov	ecx, DWORD PTR _this$[ebp]
	push	ecx
	call	DWORD PTR __imp_??3@YAXPAX@Z
	add	esp, 4
$LN1@scalar@229:
	mov	eax, DWORD PTR _this$[ebp]
	mov	esp, ebp
	pop	ebp
	ret	4
??_G?$queue_kernel_2@Vfile@dlib@@$0BE@V?$memory_manager_stateless_kernel_1@D@2@@dlib@@UAEPAXI@Z ENDP ; dlib::queue_kernel_2<dlib::file,20,dlib::memory_manager_stateless_kernel_1<char> >::`scalar deleting destructor'
; Function compile flags: /Odtp
_TEXT	ENDS
;	COMDAT ??4file@dlib@@QAEAAV01@ABV01@@Z
_TEXT	SEGMENT
_this$ = -4						; size = 4
___that$ = 8						; size = 4
??4file@dlib@@QAEAAV01@ABV01@@Z PROC			; dlib::file::operator=, COMDAT
; _this$ = ecx
	push	ebp
	mov	ebp, esp
	push	ecx
	mov	DWORD PTR _this$[ebp], ecx
	mov	eax, DWORD PTR ___that$[ebp]
	push	eax
	mov	ecx, DWORD PTR _this$[ebp]
	call	??4data@file@dlib@@QAEAAU012@ABU012@@Z
	mov	eax, DWORD PTR _this$[ebp]
	mov	esp, ebp
	pop	ebp
	ret	4
??4file@dlib@@QAEAAV01@ABV01@@Z ENDP			; dlib::file::operator=
; Function compile flags: /Odtp
_TEXT	ENDS
;	COMDAT ??$_Move@PAVfile@dlib@@PAV12@@std@@YAPAVfile@dlib@@PAV12@00U_Nonscalar_ptr_iterator_tag@0@@Z
_TEXT	SEGMENT
__First$ = 8						; size = 4
__Last$ = 12						; size = 4
__Dest$ = 16						; size = 4
___formal$ = 20						; size = 1
??$_Move@PAVfile@dlib@@PAV12@@std@@YAPAVfile@dlib@@PAV12@00U_Nonscalar_ptr_iterator_tag@0@@Z PROC ; std::_Move<dlib::file *,dlib::file *>, COMDAT
; File e:\program files (x86)\microsoft visual studio 10.0\vc\include\xutility
; Line 2524
	push	ebp
	mov	ebp, esp
; Line 2525
	jmp	SHORT $LN3@Move@7
$LN2@Move@7:
	mov	eax, DWORD PTR __Dest$[ebp]
	add	eax, 64					; 00000040H
	mov	DWORD PTR __Dest$[ebp], eax
	mov	ecx, DWORD PTR __First$[ebp]
	add	ecx, 64					; 00000040H
	mov	DWORD PTR __First$[ebp], ecx
$LN3@Move@7:
	mov	edx, DWORD PTR __First$[ebp]
	cmp	edx, DWORD PTR __Last$[ebp]
	je	SHORT $LN1@Move@7
; Line 2526
	mov	eax, DWORD PTR __First$[ebp]
	push	eax
	call	??$move@AAVfile@dlib@@@std@@YA$$QAVfile@dlib@@AAV12@@Z ; std::move<dlib::file &>
	add	esp, 4
	push	eax
	mov	ecx, DWORD PTR __Dest$[ebp]
	call	??4file@dlib@@QAEAAV01@ABV01@@Z
	jmp	SHORT $LN2@Move@7
$LN1@Move@7:
; Line 2527
	mov	eax, DWORD PTR __Dest$[ebp]
; Line 2528
	pop	ebp
	ret	0
??$_Move@PAVfile@dlib@@PAV12@@std@@YAPAVfile@dlib@@PAV12@00U_Nonscalar_ptr_iterator_tag@0@@Z ENDP ; std::_Move<dlib::file *,dlib::file *>
; Function compile flags: /Odtp
_TEXT	ENDS
;	COMDAT ??$_Destroy_range@V?$allocator@Vfile@dlib@@@std@@@std@@YAXPAVfile@dlib@@0AAV?$allocator@Vfile@dlib@@@0@U_Nonscalar_ptr_iterator_tag@0@@Z
_TEXT	SEGMENT
__First$ = 8						; size = 4
__Last$ = 12						; size = 4
__Al$ = 16						; size = 4
___formal$ = 20						; size = 1
??$_Destroy_range@V?$allocator@Vfile@dlib@@@std@@@std@@YAXPAVfile@dlib@@0AAV?$allocator@Vfile@dlib@@@0@U_Nonscalar_ptr_iterator_tag@0@@Z PROC ; std::_Destroy_range<std::allocator<dlib::file> >, COMDAT
; File e:\program files (x86)\microsoft visual studio 10.0\vc\include\xmemory
; Line 95
	push	ebp
	mov	ebp, esp
; Line 96
	jmp	SHORT $LN3@Destroy_ra@10
$LN2@Destroy_ra@10:
	mov	eax, DWORD PTR __First$[ebp]
	add	eax, 64					; 00000040H
	mov	DWORD PTR __First$[ebp], eax
$LN3@Destroy_ra@10:
	mov	ecx, DWORD PTR __First$[ebp]
	cmp	ecx, DWORD PTR __Last$[ebp]
	je	SHORT $LN4@Destroy_ra@10
; Line 97
	mov	edx, DWORD PTR __First$[ebp]
	push	edx
	mov	eax, DWORD PTR __Al$[ebp]
	push	eax
	call	??$_Dest_val@V?$allocator@Vfile@dlib@@@std@@Vfile@dlib@@@std@@YAXAAV?$allocator@Vfile@dlib@@@0@PAVfile@dlib@@@Z ; std::_Dest_val<std::allocator<dlib::file>,dlib::file>
	add	esp, 8
	jmp	SHORT $LN2@Destroy_ra@10
$LN4@Destroy_ra@10:
; Line 98
	pop	ebp
	ret	0
??$_Destroy_range@V?$allocator@Vfile@dlib@@@std@@@std@@YAXPAVfile@dlib@@0AAV?$allocator@Vfile@dlib@@@0@U_Nonscalar_ptr_iterator_tag@0@@Z ENDP ; std::_Destroy_range<std::allocator<dlib::file> >
_TEXT	ENDS
PUBLIC	__$ArrayPad$
;	COMDAT xdata$x
; File e:\program files (x86)\microsoft visual studio 10.0\vc\include\utility
xdata$x	SEGMENT
__unwindtable$??$swap@Udata@file@dlib@@@std@@YAXAAUdata@file@dlib@@0@Z DD 0ffffffffH
	DD	FLAT:__unwindfunclet$??$swap@Udata@file@dlib@@@std@@YAXAAUdata@file@dlib@@0@Z$0
__ehfuncinfo$??$swap@Udata@file@dlib@@@std@@YAXAAUdata@file@dlib@@0@Z DD 019930522H
	DD	01H
	DD	FLAT:__unwindtable$??$swap@Udata@file@dlib@@@std@@YAXAAUdata@file@dlib@@0@Z
	DD	2 DUP(00H)
	DD	2 DUP(00H)
	DD	00H
	DD	01H
; Function compile flags: /Odtp
xdata$x	ENDS
;	COMDAT ??$swap@Udata@file@dlib@@@std@@YAXAAUdata@file@dlib@@0@Z
_TEXT	SEGMENT
__Tmp$ = -84						; size = 64
__$ArrayPad$ = -16					; size = 4
__$EHRec$ = -12						; size = 12
__Left$ = 8						; size = 4
__Right$ = 12						; size = 4
??$swap@Udata@file@dlib@@@std@@YAXAAUdata@file@dlib@@0@Z PROC ; std::swap<dlib::file::data>, COMDAT
; Line 101
	push	ebp
	mov	ebp, esp
	push	-1
	push	__ehhandler$??$swap@Udata@file@dlib@@@std@@YAXAAUdata@file@dlib@@0@Z
	mov	eax, DWORD PTR fs:0
	push	eax
	sub	esp, 72					; 00000048H
	mov	eax, DWORD PTR ___security_cookie
	xor	eax, ebp
	mov	DWORD PTR __$ArrayPad$[ebp], eax
	push	eax
	lea	eax, DWORD PTR __$EHRec$[ebp]
	mov	DWORD PTR fs:0, eax
; Line 102
	mov	eax, DWORD PTR __Left$[ebp]
	push	eax
	call	??$_Move@AAUdata@file@dlib@@@std@@YA$$QAUdata@file@dlib@@AAU123@@Z ; std::_Move<dlib::file::data &>
	add	esp, 4
	push	eax
	lea	ecx, DWORD PTR __Tmp$[ebp]
	call	??0data@file@dlib@@QAE@ABU012@@Z
	mov	DWORD PTR __$EHRec$[ebp+8], 0
; Line 103
	mov	ecx, DWORD PTR __Right$[ebp]
	push	ecx
	call	??$_Move@AAUdata@file@dlib@@@std@@YA$$QAUdata@file@dlib@@AAU123@@Z ; std::_Move<dlib::file::data &>
	add	esp, 4
	push	eax
	mov	ecx, DWORD PTR __Left$[ebp]
	call	??4data@file@dlib@@QAEAAU012@ABU012@@Z
; Line 104
	lea	edx, DWORD PTR __Tmp$[ebp]
	push	edx
	call	??$_Move@AAUdata@file@dlib@@@std@@YA$$QAUdata@file@dlib@@AAU123@@Z ; std::_Move<dlib::file::data &>
	add	esp, 4
	push	eax
	mov	ecx, DWORD PTR __Right$[ebp]
	call	??4data@file@dlib@@QAEAAU012@ABU012@@Z
; Line 105
	mov	DWORD PTR __$EHRec$[ebp+8], -1
	lea	ecx, DWORD PTR __Tmp$[ebp]
	call	??1data@file@dlib@@QAE@XZ
	mov	ecx, DWORD PTR __$EHRec$[ebp]
	mov	DWORD PTR fs:0, ecx
	pop	ecx
	mov	ecx, DWORD PTR __$ArrayPad$[ebp]
	xor	ecx, ebp
	call	@__security_check_cookie@4
	mov	esp, ebp
	pop	ebp
	ret	0
_TEXT	ENDS
;	COMDAT text$x
text$x	SEGMENT
__unwindfunclet$??$swap@Udata@file@dlib@@@std@@YAXAAUdata@file@dlib@@0@Z$0:
	lea	ecx, DWORD PTR __Tmp$[ebp]
	jmp	??1data@file@dlib@@QAE@XZ
__ehhandler$??$swap@Udata@file@dlib@@@std@@YAXAAUdata@file@dlib@@0@Z:
	mov	edx, DWORD PTR [esp+8]
	lea	eax, DWORD PTR [edx+12]
	mov	ecx, DWORD PTR [edx-76]
	xor	ecx, eax
	call	@__security_check_cookie@4
	mov	ecx, DWORD PTR [edx-4]
	xor	ecx, eax
	call	@__security_check_cookie@4
	mov	eax, OFFSET __ehfuncinfo$??$swap@Udata@file@dlib@@@std@@YAXAAUdata@file@dlib@@0@Z
	jmp	___CxxFrameHandler3
text$x	ENDS
??$swap@Udata@file@dlib@@@std@@YAXAAUdata@file@dlib@@0@Z ENDP ; std::swap<dlib::file::data>
; Function compile flags: /Odtp
;	COMDAT ??$_Move@PAVfile@dlib@@PAV12@@std@@YAPAVfile@dlib@@PAV12@00@Z
_TEXT	SEGMENT
$T363156 = -1						; size = 1
__First$ = 8						; size = 4
__Last$ = 12						; size = 4
__Dest$ = 16						; size = 4
??$_Move@PAVfile@dlib@@PAV12@@std@@YAPAVfile@dlib@@PAV12@00@Z PROC ; std::_Move<dlib::file *,dlib::file *>, COMDAT
; File e:\program files (x86)\microsoft visual studio 10.0\vc\include\xutility
; Line 2545
	push	ebp
	mov	ebp, esp
	push	ecx
; Line 2547
	mov	eax, DWORD PTR __Dest$[ebp]
	push	eax
	mov	ecx, DWORD PTR __First$[ebp]
	push	ecx
	call	??$_Ptr_cat@Vfile@dlib@@V12@@std@@YA?AU_Nonscalar_ptr_iterator_tag@0@PAVfile@dlib@@0@Z ; std::_Ptr_cat<dlib::file,dlib::file>
	add	esp, 8
	mov	BYTE PTR $T363156[ebp], al
	movzx	edx, BYTE PTR $T363156[ebp]
	push	edx
	mov	eax, DWORD PTR __Dest$[ebp]
	push	eax
	mov	ecx, DWORD PTR __Last$[ebp]
	push	ecx
	mov	edx, DWORD PTR __First$[ebp]
	push	edx
	call	??$_Move@PAVfile@dlib@@PAV12@@std@@YAPAVfile@dlib@@PAV12@00U_Nonscalar_ptr_iterator_tag@0@@Z ; std::_Move<dlib::file *,dlib::file *>
	add	esp, 16					; 00000010H
; Line 2548
	mov	esp, ebp
	pop	ebp
	ret	0
??$_Move@PAVfile@dlib@@PAV12@@std@@YAPAVfile@dlib@@PAV12@00@Z ENDP ; std::_Move<dlib::file *,dlib::file *>
; Function compile flags: /Odtp
_TEXT	ENDS
;	COMDAT ??$_Destroy_range@V?$allocator@Vfile@dlib@@@std@@@std@@YAXPAVfile@dlib@@0AAV?$allocator@Vfile@dlib@@@0@@Z
_TEXT	SEGMENT
$T363159 = -1						; size = 1
__First$ = 8						; size = 4
__Last$ = 12						; size = 4
__Al$ = 16						; size = 4
??$_Destroy_range@V?$allocator@Vfile@dlib@@@std@@@std@@YAXPAVfile@dlib@@0AAV?$allocator@Vfile@dlib@@@0@@Z PROC ; std::_Destroy_range<std::allocator<dlib::file> >, COMDAT
; File e:\program files (x86)\microsoft visual studio 10.0\vc\include\xmemory
; Line 87
	push	ebp
	mov	ebp, esp
	push	ecx
; Line 88
	mov	eax, DWORD PTR __Last$[ebp]
	push	eax
	mov	ecx, DWORD PTR __First$[ebp]
	push	ecx
	call	??$_Ptr_cat@Vfile@dlib@@V12@@std@@YA?AU_Nonscalar_ptr_iterator_tag@0@PAVfile@dlib@@0@Z ; std::_Ptr_cat<dlib::file,dlib::file>
	add	esp, 8
	mov	BYTE PTR $T363159[ebp], al
	movzx	edx, BYTE PTR $T363159[ebp]
	push	edx
	mov	eax, DWORD PTR __Al$[ebp]
	push	eax
	mov	ecx, DWORD PTR __Last$[ebp]
	push	ecx
	mov	edx, DWORD PTR __First$[ebp]
	push	edx
	call	??$_Destroy_range@V?$allocator@Vfile@dlib@@@std@@@std@@YAXPAVfile@dlib@@0AAV?$allocator@Vfile@dlib@@@0@U_Nonscalar_ptr_iterator_tag@0@@Z ; std::_Destroy_range<std::allocator<dlib::file> >
	add	esp, 16					; 00000010H
; Line 89
	mov	esp, ebp
	pop	ebp
	ret	0
??$_Destroy_range@V?$allocator@Vfile@dlib@@@std@@@std@@YAXPAVfile@dlib@@0AAV?$allocator@Vfile@dlib@@@0@@Z ENDP ; std::_Destroy_range<std::allocator<dlib::file> >
_TEXT	ENDS
PUBLIC	__$ArrayPad$
;	COMDAT xdata$x
; File e:\program files (x86)\microsoft visual studio 10.0\vc\include\string
xdata$x	SEGMENT
__unwindtable$??$?HDU?$char_traits@D@std@@V?$allocator@D@1@@std@@YA?AV?$basic_string@DU?$char_traits@D@std@@V?$allocator@D@2@@0@ABV10@D@Z DD 0ffffffffH
	DD	FLAT:__unwindfunclet$??$?HDU?$char_traits@D@std@@V?$allocator@D@1@@std@@YA?AV?$basic_string@DU?$char_traits@D@std@@V?$allocator@D@2@@0@ABV10@D@Z$0
__ehfuncinfo$??$?HDU?$char_traits@D@std@@V?$allocator@D@1@@std@@YA?AV?$basic_string@DU?$char_traits@D@std@@V?$allocator@D@2@@0@ABV10@D@Z DD 019930522H
	DD	01H
	DD	FLAT:__unwindtable$??$?HDU?$char_traits@D@std@@V?$allocator@D@1@@std@@YA?AV?$basic_string@DU?$char_traits@D@std@@V?$allocator@D@2@@0@ABV10@D@Z
	DD	2 DUP(00H)
	DD	2 DUP(00H)
	DD	00H
	DD	01H
; Function compile flags: /Odtp
xdata$x	ENDS
;	COMDAT ??$?HDU?$char_traits@D@std@@V?$allocator@D@1@@std@@YA?AV?$basic_string@DU?$char_traits@D@std@@V?$allocator@D@2@@0@ABV10@D@Z
_TEXT	SEGMENT
$T363165 = -48						; size = 4
__Ans$ = -44						; size = 28
__$ArrayPad$ = -16					; size = 4
__$EHRec$ = -12						; size = 12
___$ReturnUdt$ = 8					; size = 4
__Left$ = 12						; size = 4
__Right$ = 16						; size = 1
??$?HDU?$char_traits@D@std@@V?$allocator@D@1@@std@@YA?AV?$basic_string@DU?$char_traits@D@std@@V?$allocator@D@2@@0@ABV10@D@Z PROC ; std::operator+<char,std::char_traits<char>,std::allocator<char> >, COMDAT
; Line 78
	push	ebp
	mov	ebp, esp
	push	-1
	push	__ehhandler$??$?HDU?$char_traits@D@std@@V?$allocator@D@1@@std@@YA?AV?$basic_string@DU?$char_traits@D@std@@V?$allocator@D@2@@0@ABV10@D@Z
	mov	eax, DWORD PTR fs:0
	push	eax
	sub	esp, 36					; 00000024H
	mov	eax, DWORD PTR ___security_cookie
	xor	eax, ebp
	mov	DWORD PTR __$ArrayPad$[ebp], eax
	push	eax
	lea	eax, DWORD PTR __$EHRec$[ebp]
	mov	DWORD PTR fs:0, eax
	mov	DWORD PTR $T363165[ebp], 0
; Line 79
	lea	ecx, DWORD PTR __Ans$[ebp]
	call	??0?$basic_string@DU?$char_traits@D@std@@V?$allocator@D@2@@std@@QAE@XZ ; std::basic_string<char,std::char_traits<char>,std::allocator<char> >::basic_string<char,std::char_traits<char>,std::allocator<char> >
	mov	DWORD PTR __$EHRec$[ebp+8], 0
; Line 80
	mov	ecx, DWORD PTR __Left$[ebp]
	call	?size@?$basic_string@DU?$char_traits@D@std@@V?$allocator@D@2@@std@@QBEIXZ ; std::basic_string<char,std::char_traits<char>,std::allocator<char> >::size
	add	eax, 1
	push	eax
	lea	ecx, DWORD PTR __Ans$[ebp]
	call	?reserve@?$basic_string@DU?$char_traits@D@std@@V?$allocator@D@2@@std@@QAEXI@Z ; std::basic_string<char,std::char_traits<char>,std::allocator<char> >::reserve
; Line 81
	mov	eax, DWORD PTR __Left$[ebp]
	push	eax
	lea	ecx, DWORD PTR __Ans$[ebp]
	call	??Y?$basic_string@DU?$char_traits@D@std@@V?$allocator@D@2@@std@@QAEAAV01@ABV01@@Z ; std::basic_string<char,std::char_traits<char>,std::allocator<char> >::operator+=
; Line 82
	movzx	ecx, BYTE PTR __Right$[ebp]
	push	ecx
	lea	ecx, DWORD PTR __Ans$[ebp]
	call	??Y?$basic_string@DU?$char_traits@D@std@@V?$allocator@D@2@@std@@QAEAAV01@D@Z ; std::basic_string<char,std::char_traits<char>,std::allocator<char> >::operator+=
; Line 83
	lea	edx, DWORD PTR __Ans$[ebp]
	push	edx
	mov	ecx, DWORD PTR ___$ReturnUdt$[ebp]
	call	??0?$basic_string@DU?$char_traits@D@std@@V?$allocator@D@2@@std@@QAE@$$QAV01@@Z ; std::basic_string<char,std::char_traits<char>,std::allocator<char> >::basic_string<char,std::char_traits<char>,std::allocator<char> >
	mov	eax, DWORD PTR $T363165[ebp]
	or	eax, 1
	mov	DWORD PTR $T363165[ebp], eax
	mov	DWORD PTR __$EHRec$[ebp+8], -1
	lea	ecx, DWORD PTR __Ans$[ebp]
	call	??1?$basic_string@DU?$char_traits@D@std@@V?$allocator@D@2@@std@@QAE@XZ ; std::basic_string<char,std::char_traits<char>,std::allocator<char> >::~basic_string<char,std::char_traits<char>,std::allocator<char> >
	mov	eax, DWORD PTR ___$ReturnUdt$[ebp]
; Line 84
	mov	ecx, DWORD PTR __$EHRec$[ebp]
	mov	DWORD PTR fs:0, ecx
	pop	ecx
	mov	ecx, DWORD PTR __$ArrayPad$[ebp]
	xor	ecx, ebp
	call	@__security_check_cookie@4
	mov	esp, ebp
	pop	ebp
	ret	0
_TEXT	ENDS
;	COMDAT text$x
text$x	SEGMENT
__unwindfunclet$??$?HDU?$char_traits@D@std@@V?$allocator@D@1@@std@@YA?AV?$basic_string@DU?$char_traits@D@std@@V?$allocator@D@2@@0@ABV10@D@Z$0:
	lea	ecx, DWORD PTR __Ans$[ebp]
	jmp	??1?$basic_string@DU?$char_traits@D@std@@V?$allocator@D@2@@std@@QAE@XZ ; std::basic_string<char,std::char_traits<char>,std::allocator<char> >::~basic_string<char,std::char_traits<char>,std::allocator<char> >
__ehhandler$??$?HDU?$char_traits@D@std@@V?$allocator@D@1@@std@@YA?AV?$basic_string@DU?$char_traits@D@std@@V?$allocator@D@2@@0@ABV10@D@Z:
	mov	edx, DWORD PTR [esp+8]
	lea	eax, DWORD PTR [edx+12]
	mov	ecx, DWORD PTR [edx-40]
	xor	ecx, eax
	call	@__security_check_cookie@4
	mov	ecx, DWORD PTR [edx-4]
	xor	ecx, eax
	call	@__security_check_cookie@4
	mov	eax, OFFSET __ehfuncinfo$??$?HDU?$char_traits@D@std@@V?$allocator@D@1@@std@@YA?AV?$basic_string@DU?$char_traits@D@std@@V?$allocator@D@2@@0@ABV10@D@Z
	jmp	___CxxFrameHandler3
text$x	ENDS
??$?HDU?$char_traits@D@std@@V?$allocator@D@1@@std@@YA?AV?$basic_string@DU?$char_traits@D@std@@V?$allocator@D@2@@0@ABV10@D@Z ENDP ; std::operator+<char,std::char_traits<char>,std::allocator<char> >
PUBLIC	__$ArrayPad$
;	COMDAT xdata$x
xdata$x	SEGMENT
__unwindtable$??$?HDU?$char_traits@D@std@@V?$allocator@D@1@@std@@YA?AV?$basic_string@DU?$char_traits@D@std@@V?$allocator@D@2@@0@DABV10@@Z DD 0ffffffffH
	DD	FLAT:__unwindfunclet$??$?HDU?$char_traits@D@std@@V?$allocator@D@1@@std@@YA?AV?$basic_string@DU?$char_traits@D@std@@V?$allocator@D@2@@0@DABV10@@Z$0
__ehfuncinfo$??$?HDU?$char_traits@D@std@@V?$allocator@D@1@@std@@YA?AV?$basic_string@DU?$char_traits@D@std@@V?$allocator@D@2@@0@DABV10@@Z DD 019930522H
	DD	01H
	DD	FLAT:__unwindtable$??$?HDU?$char_traits@D@std@@V?$allocator@D@1@@std@@YA?AV?$basic_string@DU?$char_traits@D@std@@V?$allocator@D@2@@0@DABV10@@Z
	DD	2 DUP(00H)
	DD	2 DUP(00H)
	DD	00H
	DD	01H
; Function compile flags: /Odtp
xdata$x	ENDS
;	COMDAT ??$?HDU?$char_traits@D@std@@V?$allocator@D@1@@std@@YA?AV?$basic_string@DU?$char_traits@D@std@@V?$allocator@D@2@@0@DABV10@@Z
_TEXT	SEGMENT
$T363178 = -48						; size = 4
__Ans$ = -44						; size = 28
__$ArrayPad$ = -16					; size = 4
__$EHRec$ = -12						; size = 12
___$ReturnUdt$ = 8					; size = 4
__Left$ = 12						; size = 1
__Right$ = 16						; size = 4
??$?HDU?$char_traits@D@std@@V?$allocator@D@1@@std@@YA?AV?$basic_string@DU?$char_traits@D@std@@V?$allocator@D@2@@0@DABV10@@Z PROC ; std::operator+<char,std::char_traits<char>,std::allocator<char> >, COMDAT
; Line 50
	push	ebp
	mov	ebp, esp
	push	-1
	push	__ehhandler$??$?HDU?$char_traits@D@std@@V?$allocator@D@1@@std@@YA?AV?$basic_string@DU?$char_traits@D@std@@V?$allocator@D@2@@0@DABV10@@Z
	mov	eax, DWORD PTR fs:0
	push	eax
	sub	esp, 36					; 00000024H
	mov	eax, DWORD PTR ___security_cookie
	xor	eax, ebp
	mov	DWORD PTR __$ArrayPad$[ebp], eax
	push	eax
	lea	eax, DWORD PTR __$EHRec$[ebp]
	mov	DWORD PTR fs:0, eax
	mov	DWORD PTR $T363178[ebp], 0
; Line 51
	lea	ecx, DWORD PTR __Ans$[ebp]
	call	??0?$basic_string@DU?$char_traits@D@std@@V?$allocator@D@2@@std@@QAE@XZ ; std::basic_string<char,std::char_traits<char>,std::allocator<char> >::basic_string<char,std::char_traits<char>,std::allocator<char> >
	mov	DWORD PTR __$EHRec$[ebp+8], 0
; Line 52
	mov	ecx, DWORD PTR __Right$[ebp]
	call	?size@?$basic_string@DU?$char_traits@D@std@@V?$allocator@D@2@@std@@QBEIXZ ; std::basic_string<char,std::char_traits<char>,std::allocator<char> >::size
	add	eax, 1
	push	eax
	lea	ecx, DWORD PTR __Ans$[ebp]
	call	?reserve@?$basic_string@DU?$char_traits@D@std@@V?$allocator@D@2@@std@@QAEXI@Z ; std::basic_string<char,std::char_traits<char>,std::allocator<char> >::reserve
; Line 53
	movzx	eax, BYTE PTR __Left$[ebp]
	push	eax
	lea	ecx, DWORD PTR __Ans$[ebp]
	call	??Y?$basic_string@DU?$char_traits@D@std@@V?$allocator@D@2@@std@@QAEAAV01@D@Z ; std::basic_string<char,std::char_traits<char>,std::allocator<char> >::operator+=
; Line 54
	mov	ecx, DWORD PTR __Right$[ebp]
	push	ecx
	lea	ecx, DWORD PTR __Ans$[ebp]
	call	??Y?$basic_string@DU?$char_traits@D@std@@V?$allocator@D@2@@std@@QAEAAV01@ABV01@@Z ; std::basic_string<char,std::char_traits<char>,std::allocator<char> >::operator+=
; Line 55
	lea	edx, DWORD PTR __Ans$[ebp]
	push	edx
	mov	ecx, DWORD PTR ___$ReturnUdt$[ebp]
	call	??0?$basic_string@DU?$char_traits@D@std@@V?$allocator@D@2@@std@@QAE@$$QAV01@@Z ; std::basic_string<char,std::char_traits<char>,std::allocator<char> >::basic_string<char,std::char_traits<char>,std::allocator<char> >
	mov	eax, DWORD PTR $T363178[ebp]
	or	eax, 1
	mov	DWORD PTR $T363178[ebp], eax
	mov	DWORD PTR __$EHRec$[ebp+8], -1
	lea	ecx, DWORD PTR __Ans$[ebp]
	call	??1?$basic_string@DU?$char_traits@D@std@@V?$allocator@D@2@@std@@QAE@XZ ; std::basic_string<char,std::char_traits<char>,std::allocator<char> >::~basic_string<char,std::char_traits<char>,std::allocator<char> >
	mov	eax, DWORD PTR ___$ReturnUdt$[ebp]
; Line 56
	mov	ecx, DWORD PTR __$EHRec$[ebp]
	mov	DWORD PTR fs:0, ecx
	pop	ecx
	mov	ecx, DWORD PTR __$ArrayPad$[ebp]
	xor	ecx, ebp
	call	@__security_check_cookie@4
	mov	esp, ebp
	pop	ebp
	ret	0
_TEXT	ENDS
;	COMDAT text$x
text$x	SEGMENT
__unwindfunclet$??$?HDU?$char_traits@D@std@@V?$allocator@D@1@@std@@YA?AV?$basic_string@DU?$char_traits@D@std@@V?$allocator@D@2@@0@DABV10@@Z$0:
	lea	ecx, DWORD PTR __Ans$[ebp]
	jmp	??1?$basic_string@DU?$char_traits@D@std@@V?$allocator@D@2@@std@@QAE@XZ ; std::basic_string<char,std::char_traits<char>,std::allocator<char> >::~basic_string<char,std::char_traits<char>,std::allocator<char> >
__ehhandler$??$?HDU?$char_traits@D@std@@V?$allocator@D@1@@std@@YA?AV?$basic_string@DU?$char_traits@D@std@@V?$allocator@D@2@@0@DABV10@@Z:
	mov	edx, DWORD PTR [esp+8]
	lea	eax, DWORD PTR [edx+12]
	mov	ecx, DWORD PTR [edx-40]
	xor	ecx, eax
	call	@__security_check_cookie@4
	mov	ecx, DWORD PTR [edx-4]
	xor	ecx, eax
	call	@__security_check_cookie@4
	mov	eax, OFFSET __ehfuncinfo$??$?HDU?$char_traits@D@std@@V?$allocator@D@1@@std@@YA?AV?$basic_string@DU?$char_traits@D@std@@V?$allocator@D@2@@0@DABV10@@Z
	jmp	___CxxFrameHandler3
text$x	ENDS
??$?HDU?$char_traits@D@std@@V?$allocator@D@1@@std@@YA?AV?$basic_string@DU?$char_traits@D@std@@V?$allocator@D@2@@0@DABV10@@Z ENDP ; std::operator+<char,std::char_traits<char>,std::allocator<char> >
; Function compile flags: /Odtp
;	COMDAT ??$exchange@Udata@file@dlib@@@dlib@@YAXAAUdata@file@0@0@Z
_TEXT	SEGMENT
_a$ = 8							; size = 4
_b$ = 12						; size = 4
??$exchange@Udata@file@dlib@@@dlib@@YAXAAUdata@file@0@0@Z PROC ; dlib::exchange<dlib::file::data>, COMDAT
; File e:\library\dlib\dlib\algs.h
; Line 339
	push	ebp
	mov	ebp, esp
; Line 342
	mov	eax, DWORD PTR _b$[ebp]
	push	eax
	mov	ecx, DWORD PTR _a$[ebp]
	push	ecx
	call	??$swap@Udata@file@dlib@@@std@@YAXAAUdata@file@dlib@@0@Z ; std::swap<dlib::file::data>
	add	esp, 8
; Line 343
	pop	ebp
	ret	0
??$exchange@Udata@file@dlib@@@dlib@@YAXAAUdata@file@0@0@Z ENDP ; dlib::exchange<dlib::file::data>
; Function compile flags: /Odtp
_TEXT	ENDS
;	COMDAT ?_Destroy@?$vector@Vfile@dlib@@V?$allocator@Vfile@dlib@@@std@@@std@@IAEXPAVfile@dlib@@0@Z
_TEXT	SEGMENT
_this$ = -4						; size = 4
__First$ = 8						; size = 4
__Last$ = 12						; size = 4
?_Destroy@?$vector@Vfile@dlib@@V?$allocator@Vfile@dlib@@@std@@@std@@IAEXPAVfile@dlib@@0@Z PROC ; std::vector<dlib::file,std::allocator<dlib::file> >::_Destroy, COMDAT
; _this$ = ecx
; File e:\program files (x86)\microsoft visual studio 10.0\vc\include\vector
; Line 1269
	push	ebp
	mov	ebp, esp
	push	ecx
	mov	DWORD PTR _this$[ebp], ecx
; Line 1270
	mov	eax, DWORD PTR _this$[ebp]
	add	eax, 12					; 0000000cH
	push	eax
	mov	ecx, DWORD PTR __Last$[ebp]
	push	ecx
	mov	edx, DWORD PTR __First$[ebp]
	push	edx
	call	??$_Destroy_range@V?$allocator@Vfile@dlib@@@std@@@std@@YAXPAVfile@dlib@@0AAV?$allocator@Vfile@dlib@@@0@@Z ; std::_Destroy_range<std::allocator<dlib::file> >
	add	esp, 12					; 0000000cH
; Line 1271
	mov	esp, ebp
	pop	ebp
	ret	8
?_Destroy@?$vector@Vfile@dlib@@V?$allocator@Vfile@dlib@@@std@@@std@@IAEXPAVfile@dlib@@0@Z ENDP ; std::vector<dlib::file,std::allocator<dlib::file> >::_Destroy
; Function compile flags: /Odtp
_TEXT	ENDS
;	COMDAT ?_Tidy@?$vector@Vfile@dlib@@V?$allocator@Vfile@dlib@@@std@@@std@@IAEXXZ
_TEXT	SEGMENT
_this$ = -4						; size = 4
?_Tidy@?$vector@Vfile@dlib@@V?$allocator@Vfile@dlib@@@std@@@std@@IAEXXZ PROC ; std::vector<dlib::file,std::allocator<dlib::file> >::_Tidy, COMDAT
; _this$ = ecx
; Line 1301
	push	ebp
	mov	ebp, esp
	push	ecx
	mov	DWORD PTR _this$[ebp], ecx
; Line 1302
	mov	eax, DWORD PTR _this$[ebp]
	cmp	DWORD PTR [eax], 0
	je	SHORT $LN1@Tidy@14
; Line 1304
	mov	ecx, DWORD PTR _this$[ebp]
	call	DWORD PTR __imp_?_Orphan_all@_Container_base0@std@@QAEXXZ
; Line 1305
	mov	ecx, DWORD PTR _this$[ebp]
	mov	edx, DWORD PTR [ecx+4]
	push	edx
	mov	eax, DWORD PTR _this$[ebp]
	mov	ecx, DWORD PTR [eax]
	push	ecx
	mov	ecx, DWORD PTR _this$[ebp]
	call	?_Destroy@?$vector@Vfile@dlib@@V?$allocator@Vfile@dlib@@@std@@@std@@IAEXPAVfile@dlib@@0@Z ; std::vector<dlib::file,std::allocator<dlib::file> >::_Destroy
; Line 1307
	mov	edx, DWORD PTR _this$[ebp]
	mov	eax, DWORD PTR _this$[ebp]
	mov	ecx, DWORD PTR [edx+8]
	sub	ecx, DWORD PTR [eax]
	sar	ecx, 6
	push	ecx
	mov	edx, DWORD PTR _this$[ebp]
	mov	eax, DWORD PTR [edx]
	push	eax
	mov	ecx, DWORD PTR _this$[ebp]
	add	ecx, 12					; 0000000cH
	call	?deallocate@?$allocator@Vfile@dlib@@@std@@QAEXPAVfile@dlib@@I@Z ; std::allocator<dlib::file>::deallocate
$LN1@Tidy@14:
; Line 1309
	mov	ecx, DWORD PTR _this$[ebp]
	mov	DWORD PTR [ecx], 0
; Line 1310
	mov	edx, DWORD PTR _this$[ebp]
	mov	DWORD PTR [edx+4], 0
; Line 1311
	mov	eax, DWORD PTR _this$[ebp]
	mov	DWORD PTR [eax+8], 0
; Line 1312
	mov	esp, ebp
	pop	ebp
	ret	0
?_Tidy@?$vector@Vfile@dlib@@V?$allocator@Vfile@dlib@@@std@@@std@@IAEXXZ ENDP ; std::vector<dlib::file,std::allocator<dlib::file> >::_Tidy
_TEXT	ENDS
;	COMDAT xdata$x
xdata$x	SEGMENT
__unwindtable$??1?$vector@Vfile@dlib@@V?$allocator@Vfile@dlib@@@std@@@std@@QAE@XZ DD 0ffffffffH
	DD	FLAT:__unwindfunclet$??1?$vector@Vfile@dlib@@V?$allocator@Vfile@dlib@@@std@@@std@@QAE@XZ$0
__ehfuncinfo$??1?$vector@Vfile@dlib@@V?$allocator@Vfile@dlib@@@std@@@std@@QAE@XZ DD 019930522H
	DD	01H
	DD	FLAT:__unwindtable$??1?$vector@Vfile@dlib@@V?$allocator@Vfile@dlib@@@std@@@std@@QAE@XZ
	DD	2 DUP(00H)
	DD	2 DUP(00H)
	DD	00H
	DD	01H
; Function compile flags: /Odtp
xdata$x	ENDS
;	COMDAT ??1?$vector@Vfile@dlib@@V?$allocator@Vfile@dlib@@@std@@@std@@QAE@XZ
_TEXT	SEGMENT
_this$ = -16						; size = 4
__$EHRec$ = -12						; size = 12
??1?$vector@Vfile@dlib@@V?$allocator@Vfile@dlib@@@std@@@std@@QAE@XZ PROC ; std::vector<dlib::file,std::allocator<dlib::file> >::~vector<dlib::file,std::allocator<dlib::file> >, COMDAT
; _this$ = ecx
; Line 704
	push	ebp
	mov	ebp, esp
	push	-1
	push	__ehhandler$??1?$vector@Vfile@dlib@@V?$allocator@Vfile@dlib@@@std@@@std@@QAE@XZ
	mov	eax, DWORD PTR fs:0
	push	eax
	push	ecx
	mov	eax, DWORD PTR ___security_cookie
	xor	eax, ebp
	push	eax
	lea	eax, DWORD PTR __$EHRec$[ebp]
	mov	DWORD PTR fs:0, eax
	mov	DWORD PTR _this$[ebp], ecx
	mov	DWORD PTR __$EHRec$[ebp+8], 0
; Line 705
	mov	ecx, DWORD PTR _this$[ebp]
	call	?_Tidy@?$vector@Vfile@dlib@@V?$allocator@Vfile@dlib@@@std@@@std@@IAEXXZ ; std::vector<dlib::file,std::allocator<dlib::file> >::_Tidy
; Line 706
	mov	DWORD PTR __$EHRec$[ebp+8], -1
	mov	ecx, DWORD PTR _this$[ebp]
	call	??1?$_Vector_val@Vfile@dlib@@V?$allocator@Vfile@dlib@@@std@@@std@@QAE@XZ ; std::_Vector_val<dlib::file,std::allocator<dlib::file> >::~_Vector_val<dlib::file,std::allocator<dlib::file> >
	mov	ecx, DWORD PTR __$EHRec$[ebp]
	mov	DWORD PTR fs:0, ecx
	pop	ecx
	mov	esp, ebp
	pop	ebp
	ret	0
_TEXT	ENDS
;	COMDAT text$x
text$x	SEGMENT
__unwindfunclet$??1?$vector@Vfile@dlib@@V?$allocator@Vfile@dlib@@@std@@@std@@QAE@XZ$0:
	mov	ecx, DWORD PTR _this$[ebp]
	jmp	??1?$_Vector_val@Vfile@dlib@@V?$allocator@Vfile@dlib@@@std@@@std@@QAE@XZ ; std::_Vector_val<dlib::file,std::allocator<dlib::file> >::~_Vector_val<dlib::file,std::allocator<dlib::file> >
__ehhandler$??1?$vector@Vfile@dlib@@V?$allocator@Vfile@dlib@@@std@@@std@@QAE@XZ:
	mov	edx, DWORD PTR [esp+8]
	lea	eax, DWORD PTR [edx+12]
	mov	ecx, DWORD PTR [edx-8]
	xor	ecx, eax
	call	@__security_check_cookie@4
	mov	eax, OFFSET __ehfuncinfo$??1?$vector@Vfile@dlib@@V?$allocator@Vfile@dlib@@@std@@@std@@QAE@XZ
	jmp	___CxxFrameHandler3
text$x	ENDS
??1?$vector@Vfile@dlib@@V?$allocator@Vfile@dlib@@@std@@@std@@QAE@XZ ENDP ; std::vector<dlib::file,std::allocator<dlib::file> >::~vector<dlib::file,std::allocator<dlib::file> >
; Function compile flags: /Odtp
;	COMDAT ?swap@file@dlib@@QAEXAAV12@@Z
_TEXT	SEGMENT
_this$ = -4						; size = 4
_item$ = 8						; size = 4
?swap@file@dlib@@QAEXAAV12@@Z PROC			; dlib::file::swap, COMDAT
; _this$ = ecx
; File e:\library\dlib\dlib\dir_nav\dir_nav_kernel_1.h
; Line 122
	push	ebp
	mov	ebp, esp
	push	ecx
	mov	DWORD PTR _this$[ebp], ecx
; Line 123
	mov	eax, DWORD PTR _item$[ebp]
	push	eax
	mov	ecx, DWORD PTR _this$[ebp]
	push	ecx
	call	??$exchange@Udata@file@dlib@@@dlib@@YAXAAUdata@file@0@0@Z ; dlib::exchange<dlib::file::data>
	add	esp, 8
; Line 124
	mov	esp, ebp
	pop	ebp
	ret	4
?swap@file@dlib@@QAEXAAV12@@Z ENDP			; dlib::file::swap
;	COMDAT xdata$x
; File e:\program files (x86)\microsoft visual studio 10.0\vc\include\memory
xdata$x	SEGMENT
__unwindtable$??$_Uninit_move@PAVfile@dlib@@PAV12@V?$allocator@Vfile@dlib@@@std@@V12@@std@@YAPAVfile@dlib@@PAV12@00AAV?$allocator@Vfile@dlib@@@0@0U_Nonscalar_ptr_iterator_tag@0@@Z DD 0ffffffffH
	DD	00H
	DD	0ffffffffH
	DD	00H
__catchsym$??$_Uninit_move@PAVfile@dlib@@PAV12@V?$allocator@Vfile@dlib@@@std@@V12@@std@@YAPAVfile@dlib@@PAV12@00AAV?$allocator@Vfile@dlib@@@0@0U_Nonscalar_ptr_iterator_tag@0@@Z$2 DD 040H
	DD	00H
	DD	00H
	DD	FLAT:__catch$??$_Uninit_move@PAVfile@dlib@@PAV12@V?$allocator@Vfile@dlib@@@std@@V12@@std@@YAPAVfile@dlib@@PAV12@00AAV?$allocator@Vfile@dlib@@@0@0U_Nonscalar_ptr_iterator_tag@0@@Z$0
__tryblocktable$??$_Uninit_move@PAVfile@dlib@@PAV12@V?$allocator@Vfile@dlib@@@std@@V12@@std@@YAPAVfile@dlib@@PAV12@00AAV?$allocator@Vfile@dlib@@@0@0U_Nonscalar_ptr_iterator_tag@0@@Z DD 00H
	DD	00H
	DD	01H
	DD	01H
	DD	FLAT:__catchsym$??$_Uninit_move@PAVfile@dlib@@PAV12@V?$allocator@Vfile@dlib@@@std@@V12@@std@@YAPAVfile@dlib@@PAV12@00AAV?$allocator@Vfile@dlib@@@0@0U_Nonscalar_ptr_iterator_tag@0@@Z$2
__ehfuncinfo$??$_Uninit_move@PAVfile@dlib@@PAV12@V?$allocator@Vfile@dlib@@@std@@V12@@std@@YAPAVfile@dlib@@PAV12@00AAV?$allocator@Vfile@dlib@@@0@0U_Nonscalar_ptr_iterator_tag@0@@Z DD 019930522H
	DD	02H
	DD	FLAT:__unwindtable$??$_Uninit_move@PAVfile@dlib@@PAV12@V?$allocator@Vfile@dlib@@@std@@V12@@std@@YAPAVfile@dlib@@PAV12@00AAV?$allocator@Vfile@dlib@@@0@0U_Nonscalar_ptr_iterator_tag@0@@Z
	DD	01H
	DD	FLAT:__tryblocktable$??$_Uninit_move@PAVfile@dlib@@PAV12@V?$allocator@Vfile@dlib@@@std@@V12@@std@@YAPAVfile@dlib@@PAV12@00AAV?$allocator@Vfile@dlib@@@0@0U_Nonscalar_ptr_iterator_tag@0@@Z
	DD	2 DUP(00H)
	DD	00H
	DD	01H
; Function compile flags: /Odtp
xdata$x	ENDS
;	COMDAT ??$_Uninit_move@PAVfile@dlib@@PAV12@V?$allocator@Vfile@dlib@@@std@@V12@@std@@YAPAVfile@dlib@@PAV12@00AAV?$allocator@Vfile@dlib@@@0@0U_Nonscalar_ptr_iterator_tag@0@@Z
_TEXT	SEGMENT
__Next$ = -20						; size = 4
__$EHRec$ = -16						; size = 16
__First$ = 8						; size = 4
__Last$ = 12						; size = 4
__Dest$ = 16						; size = 4
__Al$ = 20						; size = 4
___formal$ = 24						; size = 4
___formal$ = 28						; size = 1
??$_Uninit_move@PAVfile@dlib@@PAV12@V?$allocator@Vfile@dlib@@@std@@V12@@std@@YAPAVfile@dlib@@PAV12@00AAV?$allocator@Vfile@dlib@@@0@0U_Nonscalar_ptr_iterator_tag@0@@Z PROC ; std::_Uninit_move<dlib::file *,dlib::file *,std::allocator<dlib::file>,dlib::file>, COMDAT
; Line 424
	push	ebp
	mov	ebp, esp
	push	-1
	push	__ehhandler$??$_Uninit_move@PAVfile@dlib@@PAV12@V?$allocator@Vfile@dlib@@@std@@V12@@std@@YAPAVfile@dlib@@PAV12@00AAV?$allocator@Vfile@dlib@@@0@0U_Nonscalar_ptr_iterator_tag@0@@Z
	mov	eax, DWORD PTR fs:0
	push	eax
	push	ecx
	push	ecx
	push	ebx
	push	esi
	push	edi
	mov	eax, DWORD PTR ___security_cookie
	xor	eax, ebp
	push	eax
	lea	eax, DWORD PTR __$EHRec$[ebp+4]
	mov	DWORD PTR fs:0, eax
	mov	DWORD PTR __$EHRec$[ebp], esp
; Line 427
	mov	eax, DWORD PTR __Dest$[ebp]
	mov	DWORD PTR __Next$[ebp], eax
; Line 429
	mov	DWORD PTR __$EHRec$[ebp+12], 0
; Line 430
	jmp	SHORT $LN6@Uninit_mov@8
$LN5@Uninit_mov@8:
	mov	ecx, DWORD PTR __Dest$[ebp]
	add	ecx, 64					; 00000040H
	mov	DWORD PTR __Dest$[ebp], ecx
	mov	edx, DWORD PTR __First$[ebp]
	add	edx, 64					; 00000040H
	mov	DWORD PTR __First$[ebp], edx
$LN6@Uninit_mov@8:
	mov	eax, DWORD PTR __First$[ebp]
	cmp	eax, DWORD PTR __Last$[ebp]
	je	SHORT $LN4@Uninit_mov@8
; Line 431
	mov	ecx, DWORD PTR __First$[ebp]
	push	ecx
	mov	edx, DWORD PTR __Dest$[ebp]
	push	edx
	mov	eax, DWORD PTR __Al$[ebp]
	push	eax
	call	??$_Cons_val@V?$allocator@Vfile@dlib@@@std@@Vfile@dlib@@V34@@std@@YAXAAV?$allocator@Vfile@dlib@@@0@PAVfile@dlib@@$$QAV23@@Z ; std::_Cons_val<std::allocator<dlib::file>,dlib::file,dlib::file>
	add	esp, 12					; 0000000cH
	jmp	SHORT $LN5@Uninit_mov@8
$LN4@Uninit_mov@8:
	jmp	SHORT $LN10@Uninit_mov@8
__catch$??$_Uninit_move@PAVfile@dlib@@PAV12@V?$allocator@Vfile@dlib@@@std@@V12@@std@@YAPAVfile@dlib@@PAV12@00AAV?$allocator@Vfile@dlib@@@0@0U_Nonscalar_ptr_iterator_tag@0@@Z$0:
; Line 433
	jmp	SHORT $LN3@Uninit_mov@8
$LN2@Uninit_mov@8:
	mov	ecx, DWORD PTR __Next$[ebp]
	add	ecx, 64					; 00000040H
	mov	DWORD PTR __Next$[ebp], ecx
$LN3@Uninit_mov@8:
	mov	edx, DWORD PTR __Next$[ebp]
	cmp	edx, DWORD PTR __Dest$[ebp]
	je	SHORT $LN1@Uninit_mov@8
; Line 434
	mov	eax, DWORD PTR __Next$[ebp]
	push	eax
	mov	ecx, DWORD PTR __Al$[ebp]
	push	ecx
	call	??$_Dest_val@V?$allocator@Vfile@dlib@@@std@@Vfile@dlib@@@std@@YAXAAV?$allocator@Vfile@dlib@@@0@PAVfile@dlib@@@Z ; std::_Dest_val<std::allocator<dlib::file>,dlib::file>
	add	esp, 8
	jmp	SHORT $LN2@Uninit_mov@8
$LN1@Uninit_mov@8:
; Line 435
	push	0
	push	0
	call	__CxxThrowException@8
; Line 436
	mov	DWORD PTR __$EHRec$[ebp+12], -1
	mov	eax, __tryend$??$_Uninit_move@PAVfile@dlib@@PAV12@V?$allocator@Vfile@dlib@@@std@@V12@@std@@YAPAVfile@dlib@@PAV12@00AAV?$allocator@Vfile@dlib@@@0@0U_Nonscalar_ptr_iterator_tag@0@@Z$1
	ret	0
$LN10@Uninit_mov@8:
	mov	DWORD PTR __$EHRec$[ebp+12], -1
__tryend$??$_Uninit_move@PAVfile@dlib@@PAV12@V?$allocator@Vfile@dlib@@@std@@V12@@std@@YAPAVfile@dlib@@PAV12@00AAV?$allocator@Vfile@dlib@@@0@0U_Nonscalar_ptr_iterator_tag@0@@Z$1:
; Line 437
	mov	eax, DWORD PTR __Dest$[ebp]
$LN9@Uninit_mov@8:
; Line 438
	mov	ecx, DWORD PTR __$EHRec$[ebp+4]
	mov	DWORD PTR fs:0, ecx
	pop	ecx
	pop	edi
	pop	esi
	pop	ebx
	mov	esp, ebp
	pop	ebp
	ret	0
_TEXT	ENDS
;	COMDAT text$x
text$x	SEGMENT
__ehhandler$??$_Uninit_move@PAVfile@dlib@@PAV12@V?$allocator@Vfile@dlib@@@std@@V12@@std@@YAPAVfile@dlib@@PAV12@00AAV?$allocator@Vfile@dlib@@@0@0U_Nonscalar_ptr_iterator_tag@0@@Z:
	mov	edx, DWORD PTR [esp+8]
	lea	eax, DWORD PTR [edx+12]
	mov	ecx, DWORD PTR [edx-24]
	xor	ecx, eax
	call	@__security_check_cookie@4
	mov	eax, OFFSET __ehfuncinfo$??$_Uninit_move@PAVfile@dlib@@PAV12@V?$allocator@Vfile@dlib@@@std@@V12@@std@@YAPAVfile@dlib@@PAV12@00AAV?$allocator@Vfile@dlib@@@0@0U_Nonscalar_ptr_iterator_tag@0@@Z
	jmp	___CxxFrameHandler3
text$x	ENDS
??$_Uninit_move@PAVfile@dlib@@PAV12@V?$allocator@Vfile@dlib@@@std@@V12@@std@@YAPAVfile@dlib@@PAV12@00AAV?$allocator@Vfile@dlib@@@0@0U_Nonscalar_ptr_iterator_tag@0@@Z ENDP ; std::_Uninit_move<dlib::file *,dlib::file *,std::allocator<dlib::file>,dlib::file>
; Function compile flags: /Odtp
;	COMDAT ??$_Uninitialized_move@PAVfile@dlib@@PAV12@V?$allocator@Vfile@dlib@@@std@@@std@@YAPAVfile@dlib@@PAV12@00AAV?$allocator@Vfile@dlib@@@0@@Z
_TEXT	SEGMENT
$T364988 = -1						; size = 1
__First$ = 8						; size = 4
__Last$ = 12						; size = 4
__Dest$ = 16						; size = 4
__Al$ = 20						; size = 4
??$_Uninitialized_move@PAVfile@dlib@@PAV12@V?$allocator@Vfile@dlib@@@std@@@std@@YAPAVfile@dlib@@PAV12@00AAV?$allocator@Vfile@dlib@@@0@@Z PROC ; std::_Uninitialized_move<dlib::file *,dlib::file *,std::allocator<dlib::file> >, COMDAT
; Line 469
	push	ebp
	mov	ebp, esp
	push	ecx
; Line 471
	mov	eax, DWORD PTR __Dest$[ebp]
	push	eax
	mov	ecx, DWORD PTR __First$[ebp]
	push	ecx
	call	??$_Ptr_cat@Vfile@dlib@@V12@@std@@YA?AU_Nonscalar_ptr_iterator_tag@0@PAVfile@dlib@@0@Z ; std::_Ptr_cat<dlib::file,dlib::file>
	add	esp, 8
	mov	BYTE PTR $T364988[ebp], al
	movzx	edx, BYTE PTR $T364988[ebp]
	push	edx
	mov	eax, DWORD PTR __First$[ebp]
	push	eax
	call	??$_Val_type@PAVfile@dlib@@@std@@YAPAVfile@dlib@@PAV12@@Z ; std::_Val_type<dlib::file *>
	add	esp, 4
	push	eax
	mov	ecx, DWORD PTR __Al$[ebp]
	push	ecx
	mov	edx, DWORD PTR __Dest$[ebp]
	push	edx
	mov	eax, DWORD PTR __Last$[ebp]
	push	eax
	mov	ecx, DWORD PTR __First$[ebp]
	push	ecx
	call	??$_Uninit_move@PAVfile@dlib@@PAV12@V?$allocator@Vfile@dlib@@@std@@V12@@std@@YAPAVfile@dlib@@PAV12@00AAV?$allocator@Vfile@dlib@@@0@0U_Nonscalar_ptr_iterator_tag@0@@Z ; std::_Uninit_move<dlib::file *,dlib::file *,std::allocator<dlib::file>,dlib::file>
	add	esp, 24					; 00000018H
; Line 472
	mov	esp, ebp
	pop	ebp
	ret	0
??$_Uninitialized_move@PAVfile@dlib@@PAV12@V?$allocator@Vfile@dlib@@@std@@@std@@YAPAVfile@dlib@@PAV12@00AAV?$allocator@Vfile@dlib@@@0@@Z ENDP ; std::_Uninitialized_move<dlib::file *,dlib::file *,std::allocator<dlib::file> >
; Function compile flags: /Odtp
_TEXT	ENDS
;	COMDAT ??$_Umove@PAVfile@dlib@@@?$vector@Vfile@dlib@@V?$allocator@Vfile@dlib@@@std@@@std@@IAEPAVfile@dlib@@PAV23@00@Z
_TEXT	SEGMENT
_this$ = -4						; size = 4
__First$ = 8						; size = 4
__Last$ = 12						; size = 4
__Ptr$ = 16						; size = 4
??$_Umove@PAVfile@dlib@@@?$vector@Vfile@dlib@@V?$allocator@Vfile@dlib@@@std@@@std@@IAEPAVfile@dlib@@PAV23@00@Z PROC ; std::vector<dlib::file,std::allocator<dlib::file> >::_Umove<dlib::file *>, COMDAT
; _this$ = ecx
; File e:\program files (x86)\microsoft visual studio 10.0\vc\include\vector
; Line 1322
	push	ebp
	mov	ebp, esp
	push	ecx
	mov	DWORD PTR _this$[ebp], ecx
; Line 1325
	mov	eax, DWORD PTR _this$[ebp]
	add	eax, 12					; 0000000cH
	push	eax
	mov	ecx, DWORD PTR __Ptr$[ebp]
	push	ecx
	mov	edx, DWORD PTR __Last$[ebp]
	push	edx
	mov	eax, DWORD PTR __First$[ebp]
	push	eax
	call	??$_Uninitialized_move@PAVfile@dlib@@PAV12@V?$allocator@Vfile@dlib@@@std@@@std@@YAPAVfile@dlib@@PAV12@00AAV?$allocator@Vfile@dlib@@@0@@Z ; std::_Uninitialized_move<dlib::file *,dlib::file *,std::allocator<dlib::file> >
	add	esp, 16					; 00000010H
; Line 1326
	mov	esp, ebp
	pop	ebp
	ret	12					; 0000000cH
??$_Umove@PAVfile@dlib@@@?$vector@Vfile@dlib@@V?$allocator@Vfile@dlib@@@std@@@std@@IAEPAVfile@dlib@@PAV23@00@Z ENDP ; std::vector<dlib::file,std::allocator<dlib::file> >::_Umove<dlib::file *>
_TEXT	ENDS
PUBLIC	__$ArrayPad$
;	COMDAT xdata$x
; File e:\library\dlib\dlib\string\string.h
xdata$x	SEGMENT
__unwindtable$??$cast_to_string@F@dlib@@YA?BV?$basic_string@DU?$char_traits@D@std@@V?$allocator@D@2@@std@@ABF@Z DD 0ffffffffH
	DD	FLAT:__unwindfunclet$??$cast_to_string@F@dlib@@YA?BV?$basic_string@DU?$char_traits@D@std@@V?$allocator@D@2@@std@@ABF@Z$1
	DD	00H
	DD	FLAT:__unwindfunclet$??$cast_to_string@F@dlib@@YA?BV?$basic_string@DU?$char_traits@D@std@@V?$allocator@D@2@@std@@ABF@Z$0
__ehfuncinfo$??$cast_to_string@F@dlib@@YA?BV?$basic_string@DU?$char_traits@D@std@@V?$allocator@D@2@@std@@ABF@Z DD 019930522H
	DD	02H
	DD	FLAT:__unwindtable$??$cast_to_string@F@dlib@@YA?BV?$basic_string@DU?$char_traits@D@std@@V?$allocator@D@2@@std@@ABF@Z
	DD	2 DUP(00H)
	DD	2 DUP(00H)
	DD	00H
	DD	01H
; Function compile flags: /Odtp
xdata$x	ENDS
;	COMDAT ??$cast_to_string@F@dlib@@YA?BV?$basic_string@DU?$char_traits@D@std@@V?$allocator@D@2@@std@@ABF@Z
_TEXT	SEGMENT
$T364996 = -216						; size = 4
_sout$ = -212						; size = 152
$T169149 = -60						; size = 44
__$ArrayPad$ = -16					; size = 4
__$EHRec$ = -12						; size = 12
___$ReturnUdt$ = 8					; size = 4
_item$ = 12						; size = 4
??$cast_to_string@F@dlib@@YA?BV?$basic_string@DU?$char_traits@D@std@@V?$allocator@D@2@@std@@ABF@Z PROC ; dlib::cast_to_string<short>, COMDAT
; Line 236
	push	ebp
	mov	ebp, esp
	push	-1
	push	__ehhandler$??$cast_to_string@F@dlib@@YA?BV?$basic_string@DU?$char_traits@D@std@@V?$allocator@D@2@@std@@ABF@Z
	mov	eax, DWORD PTR fs:0
	push	eax
	sub	esp, 204				; 000000ccH
	mov	eax, DWORD PTR ___security_cookie
	xor	eax, ebp
	mov	DWORD PTR __$ArrayPad$[ebp], eax
	push	eax
	lea	eax, DWORD PTR __$EHRec$[ebp]
	mov	DWORD PTR fs:0, eax
	mov	DWORD PTR $T364996[ebp], 0
; Line 237
	push	1
	push	2
	lea	ecx, DWORD PTR _sout$[ebp]
	call	??0?$basic_ostringstream@DU?$char_traits@D@std@@V?$allocator@D@2@@std@@QAE@H@Z ; std::basic_ostringstream<char,std::char_traits<char>,std::allocator<char> >::basic_ostringstream<char,std::char_traits<char>,std::allocator<char> >
	mov	DWORD PTR __$EHRec$[ebp+8], 1
; Line 238
	mov	eax, DWORD PTR _item$[ebp]
	movzx	ecx, WORD PTR [eax]
	push	ecx
	lea	ecx, DWORD PTR _sout$[ebp]
	call	DWORD PTR __imp_??6?$basic_ostream@DU?$char_traits@D@std@@@std@@QAEAAV01@F@Z
; Line 239
	mov	edx, DWORD PTR _sout$[ebp]
	mov	eax, DWORD PTR [edx+4]
	lea	ecx, DWORD PTR _sout$[ebp+eax]
