; Listing generated by Microsoft (R) Optimizing Compiler Version 16.00.40219.01 

	TITLE	C:\Work\daspirum\Source\src\notifymyandroid.cpp
	.686P
	.XMM
	include listing.inc
	.model	flat

INCLUDELIB OLDNAMES

	ORG $+2
$SG-77049 DB	'www.notifymyandroid.com', 00H
$SG-77050 DB	'%20', 00H
$SG-77051 DB	0dH, 0aH, 0dH, 0aH, 00H
	ORG $+3
$SG-77052 DB	'&application=daspirum&event=Battlefield-3-Event&descript'
	DB	'ion=', 00H
	ORG $+3
$SG-77053 DB	'GET /publicapi/notify?apikey=', 00H
	ORG $+2
$SG-77054 DB	'rror', 00H
	ORG $+3
$SG-77055 DB	'notifymyandroid::notificate', 00H
$SG-77056 DB	'..\src\notifymyandroid.cpp', 00H
	ORG $+1
$SG-77101 DB	'.', 0aH, 00H
	ORG $+1
$SG-77102 DB	0aH, 0aH, 'Error detected at line ', 00H
	ORG $+2
$SG-77103 DB	'.', 0aH, 00H
	ORG $+1
$SG-77104 DB	'e:\library\dlib\dlib\set/set_kernel_c.h', 00H
$SG-77105 DB	'Error detected in file ', 00H
$SG-77106 DB	'.', 0aH, 0aH, 00H
$SG-77108 DB	'Error detected in function ', 00H
$SG-77107 DB	'void __thiscall dlib::set_kernel_c<class dlib::set_kerne'
	DB	'l_1<unsigned long,class dlib::binary_search_tree_kernel_2<uns'
	DB	'igned long,char,class dlib::memory_manager_kernel_2<char,100>'
	DB	',struct std::less<unsigned long> >,class dlib::memory_manager'
	DB	'_kernel_2<char,100> > >::remove_any(unsigned long &)', 00H
$SG-77109 DB	'.', 0aH, 00H
	ORG $+1
$SG-77110 DB	'this->size() != 0', 00H
	ORG $+2
$SG-77111 DB	'Failing expression was ', 00H
$SG-77112 DB	0aH, 00H
	ORG $+2
$SG-77113 DB	0aH, 09H, 'this: ', 00H
	ORG $+3
$SG-77114 DB	0aH, 09H, 'size must be greater than zero if an item is t'
	DB	'o be removed', 00H
	ORG $+3
$SG-77115 DB	09H, 'void set::remove_any', 00H
	ORG $+2
$SG-77116 DB	'.', 0aH, 00H
	ORG $+1
$SG-77117 DB	0aH, 0aH, 'Error detected at line ', 00H
	ORG $+2
$SG-77118 DB	'.', 0aH, 00H
	ORG $+1
$SG-77119 DB	'e:\library\dlib\dlib\set/set_kernel_c.h', 00H
$SG-77120 DB	'Error detected in file ', 00H
$SG-77121 DB	'.', 0aH, 0aH, 00H
$SG-77123 DB	'Error detected in function ', 00H
$SG-77122 DB	'const unsigned long &__thiscall dlib::set_kernel_c<class'
	DB	' dlib::set_kernel_1<unsigned long,class dlib::binary_search_t'
	DB	'ree_kernel_2<unsigned long,char,class dlib::memory_manager_ke'
	DB	'rnel_2<char,100>,struct std::less<unsigned long> >,class dlib'
	DB	'::memory_manager_kernel_2<char,100> > >::element(void) const', 00H
$SG-77124 DB	'.', 0aH, 00H
	ORG $+1
$SG-77125 DB	'this->current_element_valid() == true', 00H
	ORG $+2
$SG-77126 DB	'Failing expression was ', 00H
$SG-77127 DB	0aH, 00H
	ORG $+2
$SG-77128 DB	0aH, 09H, 'this: ', 00H
	ORG $+3
$SG-77129 DB	0aH, 09H, 'you can''t access the current element if it do'
	DB	'esn''t exist', 00H
	ORG $+1
$SG-77130 DB	09H, 'const T& set::element() const', 00H
	ORG $+1
$SG-77131 DB	'.', 0aH, 00H
	ORG $+1
$SG-77132 DB	0aH, 0aH, 'Error detected at line ', 00H
	ORG $+2
$SG-77133 DB	'.', 0aH, 00H
	ORG $+1
$SG-77134 DB	'e:\library\dlib\dlib\set/set_kernel_c.h', 00H
$SG-77135 DB	'Error detected in file ', 00H
$SG-77136 DB	'.', 0aH, 0aH, 00H
$SG-77138 DB	'Error detected in function ', 00H
$SG-77137 DB	'const unsigned long &__thiscall dlib::set_kernel_c<class'
	DB	' dlib::set_kernel_1<unsigned long,class dlib::binary_search_t'
	DB	'ree_kernel_2<unsigned long,char,class dlib::memory_manager_ke'
	DB	'rnel_2<char,100>,struct std::less<unsigned long> >,class dlib'
	DB	'::memory_manager_kernel_2<char,100> > >::element(void)', 00H
	ORG $+2
$SG-77139 DB	'.', 0aH, 00H
	ORG $+1
$SG-77140 DB	'this->current_element_valid() == true', 00H
	ORG $+2
$SG-77141 DB	'Failing expression was ', 00H
$SG-77142 DB	0aH, 00H
	ORG $+2
$SG-77143 DB	0aH, 09H, 'this: ', 00H
	ORG $+3
$SG-77144 DB	0aH, 09H, 'you can''t access the current element if it do'
	DB	'esn''t exist', 00H
	ORG $+1
$SG-77145 DB	09H, 'const T& set::element', 00H
	ORG $+1
$SG-77146 DB	'.', 0aH, 00H
	ORG $+1
$SG-77147 DB	0aH, 0aH, 'Error detected at line ', 00H
	ORG $+2
$SG-77148 DB	'.', 0aH, 00H
	ORG $+1
$SG-77150 DB	'Error detected in file ', 00H
$SG-77151 DB	'.', 0aH, 0aH, 00H
$SG-77149 DB	'e:\library\dlib\dlib\binary_search_tree/binary_search_tr'
	DB	'ee_kernel_c.h', 00H
	ORG $+2
$SG-77152 DB	'void __thiscall dlib::binary_search_tree_kernel_c<class '
	DB	'dlib::binary_search_tree_kernel_2<unsigned long,class dlib::m'
	DB	'ember_function_pointer<void,void,void,void>,class dlib::memor'
	DB	'y_manager_kernel_2<char,10>,struct std::less<unsigned long> >'
	DB	' >::remove_any(unsigned long &,class dlib::member_function_po'
	DB	'inter<void,void,void,void> &)', 00H
	ORG $+2
$SG-77153 DB	'Error detected in function ', 00H
$SG-77154 DB	'.', 0aH, 00H
	ORG $+1
$SG-77156 DB	'Failing expression was ', 00H
$SG-77157 DB	0aH, 00H
	ORG $+2
$SG-77155 DB	'this->size() != 0 && (static_cast<const void*>(&d) != st'
	DB	'atic_cast<void*>(&r))', 00H
	ORG $+2
$SG-77158 DB	0aH, 09H, '&r:   ', 00H
	ORG $+3
$SG-77159 DB	0aH, 09H, '&d:   ', 00H
	ORG $+3
$SG-77160 DB	0aH, 09H, 'this: ', 00H
	ORG $+3
$SG-77161 DB	0aH, 09H, 'tree must not be empty if something is going t'
	DB	'o be removed', 00H
	ORG $+3
$SG-77162 DB	09H, 'void binary_search_tree::remove_any', 00H
	ORG $+3
$SG-77163 DB	'.', 0aH, 00H
	ORG $+1
$SG-77164 DB	0aH, 0aH, 'Error detected at line ', 00H
	ORG $+2
$SG-77165 DB	'.', 0aH, 00H
	ORG $+1
$SG-77166 DB	'e:\library\dlib\dlib\binary_search_tree/binary_search_tr'
	DB	'ee_kernel_c.h', 00H
	ORG $+2
$SG-77167 DB	'Error detected in file ', 00H
$SG-77168 DB	'.', 0aH, 0aH, 00H
$SG-77170 DB	'Error detected in function ', 00H
$SG-77169 DB	'class dlib::map_pair<unsigned long,class dlib::member_fu'
	DB	'nction_pointer<void,void,void,void> > &__thiscall dlib::binar'
	DB	'y_search_tree_kernel_c<class dlib::binary_search_tree_kernel_'
	DB	'2<unsigned long,class dlib::member_function_pointer<void,void'
	DB	',void,void>,class dlib::memory_manager_kernel_2<char,10>,stru'
	DB	'ct std::less<unsigned long> > >::element(void)', 00H
	ORG $+1
$SG-77171 DB	'.', 0aH, 00H
	ORG $+1
$SG-77172 DB	'this->current_element_valid() == true', 00H
	ORG $+2
$SG-77173 DB	'Failing expression was ', 00H
$SG-77174 DB	0aH, 00H
	ORG $+2
$SG-77175 DB	0aH, 09H, 'this: ', 00H
	ORG $+3
$SG-77176 DB	0aH, 09H, 'you can''t access the current element if it do'
	DB	'esn''t exist', 00H
	ORG $+1
$SG-77177 DB	09H, 'map_pair<domain,range>& binary_search_tree::element'
	DB	'()', 00H
	ORG $+1
$SG-77178 DB	'.', 0aH, 00H
	ORG $+1
$SG-77179 DB	0aH, 0aH, 'Error detected at line ', 00H
	ORG $+2
$SG-77180 DB	'.', 0aH, 00H
	ORG $+1
$SG-77181 DB	'e:\library\dlib\dlib\binary_search_tree/binary_search_tr'
	DB	'ee_kernel_c.h', 00H
	ORG $+2
$SG-77182 DB	'Error detected in file ', 00H
$SG-77183 DB	'.', 0aH, 0aH, 00H
$SG-77185 DB	'Error detected in function ', 00H
$SG-77184 DB	'const class dlib::map_pair<unsigned long,class dlib::mem'
	DB	'ber_function_pointer<void,void,void,void> > &__thiscall dlib:'
	DB	':binary_search_tree_kernel_c<class dlib::binary_search_tree_k'
	DB	'ernel_2<unsigned long,class dlib::member_function_pointer<voi'
	DB	'd,void,void,void>,class dlib::memory_manager_kernel_2<char,10'
	DB	'>,struct std::less<unsigned long> > >::element(void) const', 00H
	ORG $+1
$SG-77186 DB	'.', 0aH, 00H
	ORG $+1
$SG-77187 DB	'this->current_element_valid() == true', 00H
	ORG $+2
$SG-77188 DB	'Failing expression was ', 00H
$SG-77189 DB	0aH, 00H
	ORG $+2
$SG-77190 DB	0aH, 09H, 'this: ', 00H
	ORG $+3
$SG-77191 DB	0aH, 09H, 'you can''t access the current element if it do'
	DB	'esn''t exist', 00H
	ORG $+1
$SG-77192 DB	09H, 'const map_pair<domain,range>& binary_search_tree::e'
	DB	'lement() const', 00H
PUBLIC	__$ArrayPad$
PUBLIC	?notificate@notifymyandroid@@YA_NV?$basic_string@DU?$char_traits@D@std@@V?$allocator@D@2@@std@@0@Z ; notifymyandroid::notificate
;	COMDAT xdata$x
; File c:\work\daspirum\source\src\notifymyandroid.cpp
xdata$x	SEGMENT
__unwindtable$?notificate@notifymyandroid@@YA_NV?$basic_string@DU?$char_traits@D@std@@V?$allocator@D@2@@std@@0@Z DD 0ffffffffH
	DD	FLAT:__unwindfunclet$?notificate@notifymyandroid@@YA_NV?$basic_string@DU?$char_traits@D@std@@V?$allocator@D@2@@std@@0@Z$2
	DD	00H
	DD	FLAT:__unwindfunclet$?notificate@notifymyandroid@@YA_NV?$basic_string@DU?$char_traits@D@std@@V?$allocator@D@2@@std@@0@Z$3
	DD	01H
	DD	00H
	DD	02H
	DD	FLAT:__unwindfunclet$?notificate@notifymyandroid@@YA_NV?$basic_string@DU?$char_traits@D@std@@V?$allocator@D@2@@std@@0@Z$4
	DD	03H
	DD	FLAT:__unwindfunclet$?notificate@notifymyandroid@@YA_NV?$basic_string@DU?$char_traits@D@std@@V?$allocator@D@2@@std@@0@Z$5
	DD	02H
	DD	FLAT:__unwindfunclet$?notificate@notifymyandroid@@YA_NV?$basic_string@DU?$char_traits@D@std@@V?$allocator@D@2@@std@@0@Z$5
	DD	05H
	DD	FLAT:__unwindfunclet$?notificate@notifymyandroid@@YA_NV?$basic_string@DU?$char_traits@D@std@@V?$allocator@D@2@@std@@0@Z$6
	DD	06H
	DD	FLAT:__unwindfunclet$?notificate@notifymyandroid@@YA_NV?$basic_string@DU?$char_traits@D@std@@V?$allocator@D@2@@std@@0@Z$7
	DD	07H
	DD	FLAT:__unwindfunclet$?notificate@notifymyandroid@@YA_NV?$basic_string@DU?$char_traits@D@std@@V?$allocator@D@2@@std@@0@Z$8
	DD	08H
	DD	FLAT:__unwindfunclet$?notificate@notifymyandroid@@YA_NV?$basic_string@DU?$char_traits@D@std@@V?$allocator@D@2@@std@@0@Z$9
	DD	01H
	DD	00H
__catchsym$?notificate@notifymyandroid@@YA_NV?$basic_string@DU?$char_traits@D@std@@V?$allocator@D@2@@std@@0@Z$12 DD 08H
	DD	FLAT:??_R0?AVexception@std@@@8
	DD	0fffffe30H
	DD	FLAT:__catch$?notificate@notifymyandroid@@YA_NV?$basic_string@DU?$char_traits@D@std@@V?$allocator@D@2@@std@@0@Z$0
__tryblocktable$?notificate@notifymyandroid@@YA_NV?$basic_string@DU?$char_traits@D@std@@V?$allocator@D@2@@std@@0@Z DD 02H
	DD	09H
	DD	0aH
	DD	01H
	DD	FLAT:__catchsym$?notificate@notifymyandroid@@YA_NV?$basic_string@DU?$char_traits@D@std@@V?$allocator@D@2@@std@@0@Z$12
__ehfuncinfo$?notificate@notifymyandroid@@YA_NV?$basic_string@DU?$char_traits@D@std@@V?$allocator@D@2@@std@@0@Z DD 019930522H
	DD	0bH
	DD	FLAT:__unwindtable$?notificate@notifymyandroid@@YA_NV?$basic_string@DU?$char_traits@D@std@@V?$allocator@D@2@@std@@0@Z
	DD	01H
	DD	FLAT:__tryblocktable$?notificate@notifymyandroid@@YA_NV?$basic_string@DU?$char_traits@D@std@@V?$allocator@D@2@@std@@0@Z
	DD	2 DUP(00H)
	DD	00H
	DD	01H
; Function compile flags: /Odtp
xdata$x	ENDS
;	COMDAT ?notificate@notifymyandroid@@YA_NV?$basic_string@DU?$char_traits@D@std@@V?$allocator@D@2@@std@@0@Z
_TEXT	SEGMENT
tv221 = -532						; size = 4
tv216 = -528						; size = 4
tv211 = -524						; size = 4
tv229 = -520						; size = 4
tv209 = -516						; size = 4
tv228 = -512						; size = 4
tv207 = -508						; size = 4
tv227 = -504						; size = 4
tv205 = -500						; size = 4
tv67 = -496						; size = 4
tv226 = -492						; size = 4
tv225 = -488						; size = 4
$T369476 = -481						; size = 1
$T369475 = -480						; size = 4
$T369474 = -473						; size = 1
$T369473 = -472						; size = 4
$T369472 = -465						; size = 1
_e$148889 = -464					; size = 4
_i$148804 = -460					; size = 4
_con$148801 = -456					; size = 4
_size$148803 = -452					; size = 4
_sBuffer$148795 = -448					; size = 256
$T148884 = -188						; size = 28
$T148877 = -160						; size = 28
$T148876 = -132						; size = 28
$T148811 = -104						; size = 28
$T148810 = -76						; size = 28
$T148800 = -48						; size = 28
__$ArrayPad$ = -20					; size = 4
__$EHRec$ = -16						; size = 16
_sAPIKey$ = 8						; size = 28
_sMessage$ = 36						; size = 28
?notificate@notifymyandroid@@YA_NV?$basic_string@DU?$char_traits@D@std@@V?$allocator@D@2@@std@@0@Z PROC ; notifymyandroid::notificate, COMDAT
; Line 10
	push	ebp
	mov	ebp, esp
	push	-1
	push	__ehhandler$?notificate@notifymyandroid@@YA_NV?$basic_string@DU?$char_traits@D@std@@V?$allocator@D@2@@std@@0@Z
	mov	eax, DWORD PTR fs:0
	push	eax
	push	ecx
	sub	esp, 516				; 00000204H
	mov	eax, DWORD PTR ___security_cookie
	xor	eax, ebp
	mov	DWORD PTR __$ArrayPad$[ebp], eax
	push	ebx
	push	esi
	push	edi
	push	eax
	lea	eax, DWORD PTR __$EHRec$[ebp+4]
	mov	DWORD PTR fs:0, eax
	mov	DWORD PTR __$EHRec$[ebp], esp
	mov	DWORD PTR __$EHRec$[ebp+12], 1
; Line 12
	mov	BYTE PTR __$EHRec$[ebp+12], 2
; Line 14
	push	OFFSET $SG-77049
	lea	ecx, DWORD PTR $T148800[ebp]
	call	??0?$basic_string@DU?$char_traits@D@std@@V?$allocator@D@2@@std@@QAE@PBD@Z ; std::basic_string<char,std::char_traits<char>,std::allocator<char> >::basic_string<char,std::char_traits<char>,std::allocator<char> >
	mov	DWORD PTR tv225[ebp], eax
	mov	BYTE PTR __$EHRec$[ebp+12], 3
	push	80					; 00000050H
	lea	eax, DWORD PTR $T148800[ebp]
	push	eax
	call	?connect@dlib@@YAPAVconnection@1@ABV?$basic_string@DU?$char_traits@D@std@@V?$allocator@D@2@@std@@G@Z ; dlib::connect
	add	esp, 8
	mov	DWORD PTR tv226[ebp], eax
	mov	ecx, DWORD PTR tv226[ebp]
	push	ecx
	lea	ecx, DWORD PTR _con$148801[ebp]
	call	??0?$scoped_ptr@Vconnection@dlib@@U?$default_deleter@Vconnection@dlib@@@2@@dlib@@QAE@PAVconnection@1@@Z ; dlib::scoped_ptr<dlib::connection,dlib::default_deleter<dlib::connection> >::scoped_ptr<dlib::connection,dlib::default_deleter<dlib::connection> >
	mov	BYTE PTR __$EHRec$[ebp+12], 5
	lea	ecx, DWORD PTR $T148800[ebp]
	call	??1?$basic_string@DU?$char_traits@D@std@@V?$allocator@D@2@@std@@QAE@XZ ; std::basic_string<char,std::char_traits<char>,std::allocator<char> >::~basic_string<char,std::char_traits<char>,std::allocator<char> >
; Line 17
	lea	ecx, DWORD PTR _sMessage$[ebp]
	call	?length@?$basic_string@DU?$char_traits@D@std@@V?$allocator@D@2@@std@@QBEIXZ ; std::basic_string<char,std::char_traits<char>,std::allocator<char> >::length
	mov	DWORD PTR _size$148803[ebp], eax
; Line 18
	mov	DWORD PTR _i$148804[ebp], 0
	jmp	SHORT $LN6@notificate
$LN5@notificate:
	mov	edx, DWORD PTR _i$148804[ebp]
	add	edx, 1
	mov	DWORD PTR _i$148804[ebp], edx
$LN6@notificate:
	mov	eax, DWORD PTR _i$148804[ebp]
	cmp	eax, DWORD PTR _size$148803[ebp]
	jae	SHORT $LN4@notificate
; Line 19
	mov	ecx, DWORD PTR _i$148804[ebp]
	push	ecx
	lea	ecx, DWORD PTR _sMessage$[ebp]
	call	??A?$basic_string@DU?$char_traits@D@std@@V?$allocator@D@2@@std@@QAEAADI@Z ; std::basic_string<char,std::char_traits<char>,std::allocator<char> >::operator[]
	movsx	edx, BYTE PTR [eax]
	cmp	edx, 32					; 00000020H
	jne	SHORT $LN3@notificate
; Line 20
	push	OFFSET $SG-77050
	push	1
	mov	eax, DWORD PTR _i$148804[ebp]
	push	eax
	lea	ecx, DWORD PTR _sMessage$[ebp]
	call	?replace@?$basic_string@DU?$char_traits@D@std@@V?$allocator@D@2@@std@@QAEAAV12@IIPBD@Z ; std::basic_string<char,std::char_traits<char>,std::allocator<char> >::replace
$LN3@notificate:
; Line 23
	jmp	SHORT $LN5@notificate
$LN4@notificate:
	lea	ecx, DWORD PTR _sAPIKey$[ebp]
	push	ecx
	push	OFFSET $SG-77053
	lea	edx, DWORD PTR $T148810[ebp]
	push	edx
	call	??$?HDU?$char_traits@D@std@@V?$allocator@D@1@@std@@YA?AV?$basic_string@DU?$char_traits@D@std@@V?$allocator@D@2@@0@PBDABV10@@Z ; std::operator+<char,std::char_traits<char>,std::allocator<char> >
	add	esp, 12					; 0000000cH
	mov	DWORD PTR tv67[ebp], eax
	mov	eax, DWORD PTR tv67[ebp]
	mov	DWORD PTR tv205[ebp], eax
	mov	BYTE PTR __$EHRec$[ebp+12], 6
	push	OFFSET $SG-77052
	mov	ecx, DWORD PTR tv205[ebp]
	push	ecx
	lea	edx, DWORD PTR $T148811[ebp]
	push	edx
	call	??$?HDU?$char_traits@D@std@@V?$allocator@D@1@@std@@YA?AV?$basic_string@DU?$char_traits@D@std@@V?$allocator@D@2@@0@$$QAV10@PBD@Z ; std::operator+<char,std::char_traits<char>,std::allocator<char> >
	add	esp, 12					; 0000000cH
	mov	DWORD PTR tv227[ebp], eax
	mov	eax, DWORD PTR tv227[ebp]
	mov	DWORD PTR tv207[ebp], eax
	mov	BYTE PTR __$EHRec$[ebp+12], 7
	lea	ecx, DWORD PTR _sMessage$[ebp]
	push	ecx
	mov	edx, DWORD PTR tv207[ebp]
	push	edx
	lea	eax, DWORD PTR $T148876[ebp]
	push	eax
	call	??$?HDU?$char_traits@D@std@@V?$allocator@D@1@@std@@YA?AV?$basic_string@DU?$char_traits@D@std@@V?$allocator@D@2@@0@$$QAV10@ABV10@@Z ; std::operator+<char,std::char_traits<char>,std::allocator<char> >
	add	esp, 12					; 0000000cH
	mov	DWORD PTR tv228[ebp], eax
	mov	ecx, DWORD PTR tv228[ebp]
	mov	DWORD PTR tv209[ebp], ecx
	mov	BYTE PTR __$EHRec$[ebp+12], 8
	push	OFFSET $SG-77051
	mov	edx, DWORD PTR tv209[ebp]
	push	edx
	lea	eax, DWORD PTR $T148877[ebp]
	push	eax
	call	??$?HDU?$char_traits@D@std@@V?$allocator@D@1@@std@@YA?AV?$basic_string@DU?$char_traits@D@std@@V?$allocator@D@2@@0@$$QAV10@PBD@Z ; std::operator+<char,std::char_traits<char>,std::allocator<char> >
	add	esp, 12					; 0000000cH
	mov	DWORD PTR tv229[ebp], eax
	mov	ecx, DWORD PTR tv229[ebp]
	mov	DWORD PTR tv211[ebp], ecx
	mov	BYTE PTR __$EHRec$[ebp+12], 9
	mov	edx, DWORD PTR tv211[ebp]
	push	edx
	lea	ecx, DWORD PTR _sMessage$[ebp]
	call	??4?$basic_string@DU?$char_traits@D@std@@V?$allocator@D@2@@std@@QAEAAV01@$$QAV01@@Z ; std::basic_string<char,std::char_traits<char>,std::allocator<char> >::operator=
	mov	BYTE PTR __$EHRec$[ebp+12], 8
	lea	ecx, DWORD PTR $T148877[ebp]
	call	??1?$basic_string@DU?$char_traits@D@std@@V?$allocator@D@2@@std@@QAE@XZ ; std::basic_string<char,std::char_traits<char>,std::allocator<char> >::~basic_string<char,std::char_traits<char>,std::allocator<char> >
	mov	BYTE PTR __$EHRec$[ebp+12], 7
	lea	ecx, DWORD PTR $T148876[ebp]
	call	??1?$basic_string@DU?$char_traits@D@std@@V?$allocator@D@2@@std@@QAE@XZ ; std::basic_string<char,std::char_traits<char>,std::allocator<char> >::~basic_string<char,std::char_traits<char>,std::allocator<char> >
	mov	BYTE PTR __$EHRec$[ebp+12], 6
	lea	ecx, DWORD PTR $T148811[ebp]
	call	??1?$basic_string@DU?$char_traits@D@std@@V?$allocator@D@2@@std@@QAE@XZ ; std::basic_string<char,std::char_traits<char>,std::allocator<char> >::~basic_string<char,std::char_traits<char>,std::allocator<char> >
	mov	BYTE PTR __$EHRec$[ebp+12], 5
	lea	ecx, DWORD PTR $T148810[ebp]
	call	??1?$basic_string@DU?$char_traits@D@std@@V?$allocator@D@2@@std@@QAE@XZ ; std::basic_string<char,std::char_traits<char>,std::allocator<char> >::~basic_string<char,std::char_traits<char>,std::allocator<char> >
; Line 24
	lea	ecx, DWORD PTR _sMessage$[ebp]
	call	?size@?$basic_string@DU?$char_traits@D@std@@V?$allocator@D@2@@std@@QBEIXZ ; std::basic_string<char,std::char_traits<char>,std::allocator<char> >::size
	mov	esi, eax
	lea	ecx, DWORD PTR _sMessage$[ebp]
	call	?size@?$basic_string@DU?$char_traits@D@std@@V?$allocator@D@2@@std@@QBEIXZ ; std::basic_string<char,std::char_traits<char>,std::allocator<char> >::size
	push	eax
	lea	ecx, DWORD PTR _sMessage$[ebp]
	call	?c_str@?$basic_string@DU?$char_traits@D@std@@V?$allocator@D@2@@std@@QBEPBDXZ ; std::basic_string<char,std::char_traits<char>,std::allocator<char> >::c_str
	push	eax
	lea	ecx, DWORD PTR _con$148801[ebp]
	call	??C?$scoped_ptr@Vconnection@dlib@@U?$default_deleter@Vconnection@dlib@@@2@@dlib@@QBEPAVconnection@1@XZ ; dlib::scoped_ptr<dlib::connection,dlib::default_deleter<dlib::connection> >::operator->
	mov	ecx, eax
	call	?write@connection@dlib@@QAEJPBDJ@Z	; dlib::connection::write
	cmp	eax, esi
	je	SHORT $LN2@notificate
; Line 25
	mov	BYTE PTR $T369472[ebp], 0
	mov	BYTE PTR __$EHRec$[ebp+12], 2
	lea	ecx, DWORD PTR _con$148801[ebp]
	call	??1?$scoped_ptr@Vconnection@dlib@@U?$default_deleter@Vconnection@dlib@@@2@@dlib@@QAE@XZ ; dlib::scoped_ptr<dlib::connection,dlib::default_deleter<dlib::connection> >::~scoped_ptr<dlib::connection,dlib::default_deleter<dlib::connection> >
	mov	BYTE PTR __$EHRec$[ebp+12], 0
	lea	ecx, DWORD PTR _sAPIKey$[ebp]
	call	??1?$basic_string@DU?$char_traits@D@std@@V?$allocator@D@2@@std@@QAE@XZ ; std::basic_string<char,std::char_traits<char>,std::allocator<char> >::~basic_string<char,std::char_traits<char>,std::allocator<char> >
	mov	DWORD PTR __$EHRec$[ebp+12], -1
	lea	ecx, DWORD PTR _sMessage$[ebp]
	call	??1?$basic_string@DU?$char_traits@D@std@@V?$allocator@D@2@@std@@QAE@XZ ; std::basic_string<char,std::char_traits<char>,std::allocator<char> >::~basic_string<char,std::char_traits<char>,std::allocator<char> >
	mov	al, BYTE PTR $T369472[ebp]
	jmp	$LN8@notificate
$LN2@notificate:
; Line 28
	push	200					; 000000c8H
	push	256					; 00000100H
	lea	eax, DWORD PTR _sBuffer$148795[ebp]
	push	eax
	lea	ecx, DWORD PTR _con$148801[ebp]
	call	??C?$scoped_ptr@Vconnection@dlib@@U?$default_deleter@Vconnection@dlib@@@2@@dlib@@QBEPAVconnection@1@XZ ; dlib::scoped_ptr<dlib::connection,dlib::default_deleter<dlib::connection> >::operator->
	mov	ecx, eax
	call	?read@connection@dlib@@QAEJPADJK@Z	; dlib::connection::read
; Line 30
	lea	ecx, DWORD PTR _sBuffer$148795[ebp]
	push	ecx
	lea	ecx, DWORD PTR $T148884[ebp]
	call	??0?$basic_string@DU?$char_traits@D@std@@V?$allocator@D@2@@std@@QAE@PBD@Z ; std::basic_string<char,std::char_traits<char>,std::allocator<char> >::basic_string<char,std::char_traits<char>,std::allocator<char> >
	mov	DWORD PTR tv216[ebp], eax
	push	0
	push	OFFSET $SG-77054
	mov	ecx, DWORD PTR tv216[ebp]
	call	?find@?$basic_string@DU?$char_traits@D@std@@V?$allocator@D@2@@std@@QBEIPBDI@Z ; std::basic_string<char,std::char_traits<char>,std::allocator<char> >::find
	mov	DWORD PTR $T369473[ebp], eax
	lea	ecx, DWORD PTR $T148884[ebp]
	call	??1?$basic_string@DU?$char_traits@D@std@@V?$allocator@D@2@@std@@QAE@XZ ; std::basic_string<char,std::char_traits<char>,std::allocator<char> >::~basic_string<char,std::char_traits<char>,std::allocator<char> >
	cmp	DWORD PTR $T369473[ebp], 0
	je	SHORT $LN1@notificate
; Line 31
	mov	BYTE PTR $T369474[ebp], 0
	mov	BYTE PTR __$EHRec$[ebp+12], 2
	lea	ecx, DWORD PTR _con$148801[ebp]
	call	??1?$scoped_ptr@Vconnection@dlib@@U?$default_deleter@Vconnection@dlib@@@2@@dlib@@QAE@XZ ; dlib::scoped_ptr<dlib::connection,dlib::default_deleter<dlib::connection> >::~scoped_ptr<dlib::connection,dlib::default_deleter<dlib::connection> >
	mov	BYTE PTR __$EHRec$[ebp+12], 0
	lea	ecx, DWORD PTR _sAPIKey$[ebp]
	call	??1?$basic_string@DU?$char_traits@D@std@@V?$allocator@D@2@@std@@QAE@XZ ; std::basic_string<char,std::char_traits<char>,std::allocator<char> >::~basic_string<char,std::char_traits<char>,std::allocator<char> >
	mov	DWORD PTR __$EHRec$[ebp+12], -1
	lea	ecx, DWORD PTR _sMessage$[ebp]
	call	??1?$basic_string@DU?$char_traits@D@std@@V?$allocator@D@2@@std@@QAE@XZ ; std::basic_string<char,std::char_traits<char>,std::allocator<char> >::~basic_string<char,std::char_traits<char>,std::allocator<char> >
	mov	al, BYTE PTR $T369474[ebp]
	jmp	$LN8@notificate
$LN1@notificate:
; Line 33
	push	500					; 000001f4H
	lea	edx, DWORD PTR _con$148801[ebp]
	push	edx
	call	?close_gracefully@dlib@@YAXAAV?$scoped_ptr@Vconnection@dlib@@U?$default_deleter@Vconnection@dlib@@@2@@1@K@Z ; dlib::close_gracefully
	add	esp, 8
; Line 34
	mov	BYTE PTR __$EHRec$[ebp+12], 2
	lea	ecx, DWORD PTR _con$148801[ebp]
	call	??1?$scoped_ptr@Vconnection@dlib@@U?$default_deleter@Vconnection@dlib@@@2@@dlib@@QAE@XZ ; dlib::scoped_ptr<dlib::connection,dlib::default_deleter<dlib::connection> >::~scoped_ptr<dlib::connection,dlib::default_deleter<dlib::connection> >
	jmp	SHORT $LN10@notificate
__catch$?notificate@notifymyandroid@@YA_NV?$basic_string@DU?$char_traits@D@std@@V?$allocator@D@2@@std@@0@Z$0:
; Line 37
	mov	eax, DWORD PTR _e$148889[ebp]
	mov	edx, DWORD PTR [eax]
	mov	ecx, DWORD PTR _e$148889[ebp]
	mov	eax, DWORD PTR [edx+4]
	call	eax
	sub	esp, 28					; 0000001cH
	mov	ecx, esp
	mov	DWORD PTR $T369475[ebp], esp
	push	eax
	call	??0?$basic_string@DU?$char_traits@D@std@@V?$allocator@D@2@@std@@QAE@PBD@Z ; std::basic_string<char,std::char_traits<char>,std::allocator<char> >::basic_string<char,std::char_traits<char>,std::allocator<char> >
	mov	DWORD PTR tv221[ebp], eax
	push	37					; 00000025H
	push	OFFSET $SG-77055
	push	OFFSET $SG-77056
	call	?error@log@helper@@YAXPBD0JV?$basic_string@DU?$char_traits@D@std@@V?$allocator@D@2@@std@@@Z ; helper::log::error
	add	esp, 40					; 00000028H
; Line 38
	mov	DWORD PTR __$EHRec$[ebp+12], 1
	mov	eax, __tryend$?notificate@notifymyandroid@@YA_NV?$basic_string@DU?$char_traits@D@std@@V?$allocator@D@2@@std@@0@Z$1
	ret	0
$LN10@notificate:
	mov	DWORD PTR __$EHRec$[ebp+12], 1
__tryend$?notificate@notifymyandroid@@YA_NV?$basic_string@DU?$char_traits@D@std@@V?$allocator@D@2@@std@@0@Z$1:
; Line 40
	mov	BYTE PTR $T369476[ebp], 1
	mov	BYTE PTR __$EHRec$[ebp+12], 0
	lea	ecx, DWORD PTR _sAPIKey$[ebp]
	call	??1?$basic_string@DU?$char_traits@D@std@@V?$allocator@D@2@@std@@QAE@XZ ; std::basic_string<char,std::char_traits<char>,std::allocator<char> >::~basic_string<char,std::char_traits<char>,std::allocator<char> >
	mov	DWORD PTR __$EHRec$[ebp+12], -1
	lea	ecx, DWORD PTR _sMessage$[ebp]
	call	??1?$basic_string@DU?$char_traits@D@std@@V?$allocator@D@2@@std@@QAE@XZ ; std::basic_string<char,std::char_traits<char>,std::allocator<char> >::~basic_string<char,std::char_traits<char>,std::allocator<char> >
	mov	al, BYTE PTR $T369476[ebp]
$LN8@notificate:
; Line 41
	mov	ecx, DWORD PTR __$EHRec$[ebp+4]
	mov	DWORD PTR fs:0, ecx
	pop	ecx
	pop	edi
	pop	esi
	pop	ebx
	mov	ecx, DWORD PTR __$ArrayPad$[ebp]
	xor	ecx, ebp
	call	@__security_check_cookie@4
	mov	esp, ebp
	pop	ebp
	ret	0
_TEXT	ENDS
;	COMDAT text$x
text$x	SEGMENT
__unwindfunclet$?notificate@notifymyandroid@@YA_NV?$basic_string@DU?$char_traits@D@std@@V?$allocator@D@2@@std@@0@Z$2:
	lea	ecx, DWORD PTR _sMessage$[ebp]
	jmp	??1?$basic_string@DU?$char_traits@D@std@@V?$allocator@D@2@@std@@QAE@XZ ; std::basic_string<char,std::char_traits<char>,std::allocator<char> >::~basic_string<char,std::char_traits<char>,std::allocator<char> >
__unwindfunclet$?notificate@notifymyandroid@@YA_NV?$basic_string@DU?$char_traits@D@std@@V?$allocator@D@2@@std@@0@Z$3:
	lea	ecx, DWORD PTR _sAPIKey$[ebp]
	jmp	??1?$basic_string@DU?$char_traits@D@std@@V?$allocator@D@2@@std@@QAE@XZ ; std::basic_string<char,std::char_traits<char>,std::allocator<char> >::~basic_string<char,std::char_traits<char>,std::allocator<char> >
__unwindfunclet$?notificate@notifymyandroid@@YA_NV?$basic_string@DU?$char_traits@D@std@@V?$allocator@D@2@@std@@0@Z$4:
	lea	ecx, DWORD PTR $T148800[ebp]
	jmp	??1?$basic_string@DU?$char_traits@D@std@@V?$allocator@D@2@@std@@QAE@XZ ; std::basic_string<char,std::char_traits<char>,std::allocator<char> >::~basic_string<char,std::char_traits<char>,std::allocator<char> >
__unwindfunclet$?notificate@notifymyandroid@@YA_NV?$basic_string@DU?$char_traits@D@std@@V?$allocator@D@2@@std@@0@Z$5:
	lea	ecx, DWORD PTR _con$148801[ebp]
	jmp	??1?$scoped_ptr@Vconnection@dlib@@U?$default_deleter@Vconnection@dlib@@@2@@dlib@@QAE@XZ ; dlib::scoped_ptr<dlib::connection,dlib::default_deleter<dlib::connection> >::~scoped_ptr<dlib::connection,dlib::default_deleter<dlib::connection> >
__unwindfunclet$?notificate@notifymyandroid@@YA_NV?$basic_string@DU?$char_traits@D@std@@V?$allocator@D@2@@std@@0@Z$6:
	lea	ecx, DWORD PTR $T148810[ebp]
	jmp	??1?$basic_string@DU?$char_traits@D@std@@V?$allocator@D@2@@std@@QAE@XZ ; std::basic_string<char,std::char_traits<char>,std::allocator<char> >::~basic_string<char,std::char_traits<char>,std::allocator<char> >
__unwindfunclet$?notificate@notifymyandroid@@YA_NV?$basic_string@DU?$char_traits@D@std@@V?$allocator@D@2@@std@@0@Z$7:
	lea	ecx, DWORD PTR $T148811[ebp]
	jmp	??1?$basic_string@DU?$char_traits@D@std@@V?$allocator@D@2@@std@@QAE@XZ ; std::basic_string<char,std::char_traits<char>,std::allocator<char> >::~basic_string<char,std::char_traits<char>,std::allocator<char> >
__unwindfunclet$?notificate@notifymyandroid@@YA_NV?$basic_string@DU?$char_traits@D@std@@V?$allocator@D@2@@std@@0@Z$8:
	lea	ecx, DWORD PTR $T148876[ebp]
	jmp	??1?$basic_string@DU?$char_traits@D@std@@V?$allocator@D@2@@std@@QAE@XZ ; std::basic_string<char,std::char_traits<char>,std::allocator<char> >::~basic_string<char,std::char_traits<char>,std::allocator<char> >
__unwindfunclet$?notificate@notifymyandroid@@YA_NV?$basic_string@DU?$char_traits@D@std@@V?$allocator@D@2@@std@@0@Z$9:
	lea	ecx, DWORD PTR $T148877[ebp]
	jmp	??1?$basic_string@DU?$char_traits@D@std@@V?$allocator@D@2@@std@@QAE@XZ ; std::basic_string<char,std::char_traits<char>,std::allocator<char> >::~basic_string<char,std::char_traits<char>,std::allocator<char> >
__ehhandler$?notificate@notifymyandroid@@YA_NV?$basic_string@DU?$char_traits@D@std@@V?$allocator@D@2@@std@@0@Z:
	mov	edx, DWORD PTR [esp+8]
	lea	eax, DWORD PTR [edx+12]
	mov	ecx, DWORD PTR [edx-536]
	xor	ecx, eax
	call	@__security_check_cookie@4
	mov	ecx, DWORD PTR [edx-8]
	xor	ecx, eax
	call	@__security_check_cookie@4
	mov	eax, OFFSET __ehfuncinfo$?notificate@notifymyandroid@@YA_NV?$basic_string@DU?$char_traits@D@std@@V?$allocator@D@2@@std@@0@Z
	jmp	___CxxFrameHandler3
text$x	ENDS
?notificate@notifymyandroid@@YA_NV?$basic_string@DU?$char_traits@D@std@@V?$allocator@D@2@@std@@0@Z ENDP ; notifymyandroid::notificate
END
