; Listing generated by Microsoft (R) Optimizing Compiler Version 16.00.40219.01 

	TITLE	C:\Work\daspirum\Source\src\SQLite.cpp
	.686P
	.XMM
	include listing.inc
	.model	flat

INCLUDELIB OLDNAMES

PUBLIC	??0?$allocator@V?$vector@V?$basic_string@DU?$char_traits@D@std@@V?$allocator@D@2@@std@@V?$allocator@V?$basic_string@DU?$char_traits@D@std@@V?$allocator@D@2@@std@@@2@@std@@@std@@QAE@XZ ; std::allocator<std::vector<std::basic_string<char,std::char_traits<char>,std::allocator<char> >,std::allocator<std::basic_string<char,std::char_traits<char>,std::allocator<char> > > > >::allocator<std::vector<std::basic_string<char,std::char_traits<char>,std::allocator<char> >,std::allocator<std::basic_string<char,std::char_traits<char>,std::allocator<char> > > > >
PUBLIC	??0?$vector@V?$vector@V?$basic_string@DU?$char_traits@D@std@@V?$allocator@D@2@@std@@V?$allocator@V?$basic_string@DU?$char_traits@D@std@@V?$allocator@D@2@@std@@@2@@std@@V?$allocator@V?$vector@V?$basic_string@DU?$char_traits@D@std@@V?$allocator@D@2@@std@@V?$allocator@V?$basic_string@DU?$char_traits@D@std@@V?$allocator@D@2@@std@@@2@@std@@@2@@std@@QAE@XZ ; std::vector<std::vector<std::basic_string<char,std::char_traits<char>,std::allocator<char> >,std::allocator<std::basic_string<char,std::char_traits<char>,std::allocator<char> > > >,std::allocator<std::vector<std::basic_string<char,std::char_traits<char>,std::allocator<char> >,std::allocator<std::basic_string<char,std::char_traits<char>,std::allocator<char> > > > > >::vector<std::vector<std::basic_string<char,std::char_traits<char>,std::allocator<char> >,std::allocator<std::basic_string<char,std::char_traits<char>,std::allocator<char> > > >,std::allocator<std::vector<std::basic_string<char,std::char_traits<char>,std::allocator<char> >,std::allocator<std::basic_string<char,std::char_traits<char>,std::allocator<char> > > > > >
PUBLIC	??0?$_Vector_val@V?$vector@V?$basic_string@DU?$char_traits@D@std@@V?$allocator@D@2@@std@@V?$allocator@V?$basic_string@DU?$char_traits@D@std@@V?$allocator@D@2@@std@@@2@@std@@V?$allocator@V?$vector@V?$basic_string@DU?$char_traits@D@std@@V?$allocator@D@2@@std@@V?$allocator@V?$basic_string@DU?$char_traits@D@std@@V?$allocator@D@2@@std@@@2@@std@@@2@@std@@QAE@V?$allocator@V?$vector@V?$basic_string@DU?$char_traits@D@std@@V?$allocator@D@2@@std@@V?$allocator@V?$basic_string@DU?$char_traits@D@std@@V?$allocator@D@2@@std@@@2@@std@@@1@@Z ; std::_Vector_val<std::vector<std::basic_string<char,std::char_traits<char>,std::allocator<char> >,std::allocator<std::basic_string<char,std::char_traits<char>,std::allocator<char> > > >,std::allocator<std::vector<std::basic_string<char,std::char_traits<char>,std::allocator<char> >,std::allocator<std::basic_string<char,std::char_traits<char>,std::allocator<char> > > > > >::_Vector_val<std::vector<std::basic_string<char,std::char_traits<char>,std::allocator<char> >,std::allocator<std::basic_string<char,std::char_traits<char>,std::allocator<char> > > >,std::allocator<std::vector<std::basic_string<char,std::char_traits<char>,std::allocator<char> >,std::allocator<std::basic_string<char,std::char_traits<char>,std::allocator<char> > > > > >
PUBLIC	??$addressof@V?$vector@V?$basic_string@DU?$char_traits@D@std@@V?$allocator@D@2@@std@@V?$allocator@V?$basic_string@DU?$char_traits@D@std@@V?$allocator@D@2@@std@@@2@@std@@@std@@YAPAV?$vector@V?$basic_string@DU?$char_traits@D@std@@V?$allocator@D@2@@std@@V?$allocator@V?$basic_string@DU?$char_traits@D@std@@V?$allocator@D@2@@std@@@2@@0@AAV10@@Z ; std::addressof<std::vector<std::basic_string<char,std::char_traits<char>,std::allocator<char> >,std::allocator<std::basic_string<char,std::char_traits<char>,std::allocator<char> > > > >
PUBLIC	?push_back@?$vector@V?$vector@V?$basic_string@DU?$char_traits@D@std@@V?$allocator@D@2@@std@@V?$allocator@V?$basic_string@DU?$char_traits@D@std@@V?$allocator@D@2@@std@@@2@@std@@V?$allocator@V?$vector@V?$basic_string@DU?$char_traits@D@std@@V?$allocator@D@2@@std@@V?$allocator@V?$basic_string@DU?$char_traits@D@std@@V?$allocator@D@2@@std@@@2@@std@@@2@@std@@QAEX$$QAV?$vector@V?$basic_string@DU?$char_traits@D@std@@V?$allocator@D@2@@std@@V?$allocator@V?$basic_string@DU?$char_traits@D@std@@V?$allocator@D@2@@std@@@2@@2@@Z ; std::vector<std::vector<std::basic_string<char,std::char_traits<char>,std::allocator<char> >,std::allocator<std::basic_string<char,std::char_traits<char>,std::allocator<char> > > >,std::allocator<std::vector<std::basic_string<char,std::char_traits<char>,std::allocator<char> >,std::allocator<std::basic_string<char,std::char_traits<char>,std::allocator<char> > > > > >::push_back
PUBLIC	??0?$allocator@V?$vector@V?$basic_string@DU?$char_traits@D@std@@V?$allocator@D@2@@std@@V?$allocator@V?$basic_string@DU?$char_traits@D@std@@V?$allocator@D@2@@std@@@2@@std@@@std@@QAE@ABV01@@Z ; std::allocator<std::vector<std::basic_string<char,std::char_traits<char>,std::allocator<char> >,std::allocator<std::basic_string<char,std::char_traits<char>,std::allocator<char> > > > >::allocator<std::vector<std::basic_string<char,std::char_traits<char>,std::allocator<char> >,std::allocator<std::basic_string<char,std::char_traits<char>,std::allocator<char> > > > >
PUBLIC	?get_allocator@?$vector@V?$vector@V?$basic_string@DU?$char_traits@D@std@@V?$allocator@D@2@@std@@V?$allocator@V?$basic_string@DU?$char_traits@D@std@@V?$allocator@D@2@@std@@@2@@std@@V?$allocator@V?$vector@V?$basic_string@DU?$char_traits@D@std@@V?$allocator@D@2@@std@@V?$allocator@V?$basic_string@DU?$char_traits@D@std@@V?$allocator@D@2@@std@@@2@@std@@@2@@std@@QBE?AV?$allocator@V?$vector@V?$basic_string@DU?$char_traits@D@std@@V?$allocator@D@2@@std@@V?$allocator@V?$basic_string@DU?$char_traits@D@std@@V?$allocator@D@2@@std@@@2@@std@@@2@XZ ; std::vector<std::vector<std::basic_string<char,std::char_traits<char>,std::allocator<char> >,std::allocator<std::basic_string<char,std::char_traits<char>,std::allocator<char> > > >,std::allocator<std::vector<std::basic_string<char,std::char_traits<char>,std::allocator<char> >,std::allocator<std::basic_string<char,std::char_traits<char>,std::allocator<char> > > > > >::get_allocator
PUBLIC	?_Make_iter@?$vector@V?$vector@V?$basic_string@DU?$char_traits@D@std@@V?$allocator@D@2@@std@@V?$allocator@V?$basic_string@DU?$char_traits@D@std@@V?$allocator@D@2@@std@@@2@@std@@V?$allocator@V?$vector@V?$basic_string@DU?$char_traits@D@std@@V?$allocator@D@2@@std@@V?$allocator@V?$basic_string@DU?$char_traits@D@std@@V?$allocator@D@2@@std@@@2@@std@@@2@@std@@QBE?AV?$_Vector_iterator@V?$_Vector_val@V?$vector@V?$basic_string@DU?$char_traits@D@std@@V?$allocator@D@2@@std@@V?$allocator@V?$basic_string@DU?$char_traits@D@std@@V?$allocator@D@2@@std@@@2@@std@@V?$allocator@V?$vector@V?$basic_string@DU?$char_traits@D@std@@V?$allocator@D@2@@std@@V?$allocator@V?$basic_string@DU?$char_traits@D@std@@V?$allocator@D@2@@std@@@2@@std@@@2@@std@@@2@V?$_Vector_const_iterator@V?$_Vector_val@V?$vector@V?$basic_string@DU?$char_traits@D@std@@V?$allocator@D@2@@std@@V?$allocator@V?$basic_string@DU?$char_traits@D@std@@V?$allocator@D@2@@std@@@2@@std@@V?$allocator@V?$vector@V?$basic_string@DU?$char_traits@D@std@@V?$allocator@D@2@@std@@V?$allocator@V?$basic_string@DU?$char_traits@D@std@@V?$allocator@D@2@@std@@@2@@std@@@2@@std@@@2@@Z ; std::vector<std::vector<std::basic_string<char,std::char_traits<char>,std::allocator<char> >,std::allocator<std::basic_string<char,std::char_traits<char>,std::allocator<char> > > >,std::allocator<std::vector<std::basic_string<char,std::char_traits<char>,std::allocator<char> >,std::allocator<std::basic_string<char,std::char_traits<char>,std::allocator<char> > > > > >::_Make_iter
PUBLIC	??$move@AAV?$vector@V?$basic_string@DU?$char_traits@D@std@@V?$allocator@D@2@@std@@V?$allocator@V?$basic_string@DU?$char_traits@D@std@@V?$allocator@D@2@@std@@@2@@std@@@std@@YA$$QAV?$vector@V?$basic_string@DU?$char_traits@D@std@@V?$allocator@D@2@@std@@V?$allocator@V?$basic_string@DU?$char_traits@D@std@@V?$allocator@D@2@@std@@@2@@0@AAV10@@Z ; std::move<std::vector<std::basic_string<char,std::char_traits<char>,std::allocator<char> >,std::allocator<std::basic_string<char,std::char_traits<char>,std::allocator<char> > > > &>
PUBLIC	??$_Move@PAV?$vector@V?$basic_string@DU?$char_traits@D@std@@V?$allocator@D@2@@std@@V?$allocator@V?$basic_string@DU?$char_traits@D@std@@V?$allocator@D@2@@std@@@2@@std@@PAV12@@std@@YAPAV?$vector@V?$basic_string@DU?$char_traits@D@std@@V?$allocator@D@2@@std@@V?$allocator@V?$basic_string@DU?$char_traits@D@std@@V?$allocator@D@2@@std@@@2@@0@PAV10@00U_Nonscalar_ptr_iterator_tag@0@@Z ; std::_Move<std::vector<std::basic_string<char,std::char_traits<char>,std::allocator<char> >,std::allocator<std::basic_string<char,std::char_traits<char>,std::allocator<char> > > > *,std::vector<std::basic_string<char,std::char_traits<char>,std::allocator<char> >,std::allocator<std::basic_string<char,std::char_traits<char>,std::allocator<char> > > > *>
PUBLIC	??$_Move@PAV?$vector@V?$basic_string@DU?$char_traits@D@std@@V?$allocator@D@2@@std@@V?$allocator@V?$basic_string@DU?$char_traits@D@std@@V?$allocator@D@2@@std@@@2@@std@@PAV12@@std@@YAPAV?$vector@V?$basic_string@DU?$char_traits@D@std@@V?$allocator@D@2@@std@@V?$allocator@V?$basic_string@DU?$char_traits@D@std@@V?$allocator@D@2@@std@@@2@@0@PAV10@00@Z ; std::_Move<std::vector<std::basic_string<char,std::char_traits<char>,std::allocator<char> >,std::allocator<std::basic_string<char,std::char_traits<char>,std::allocator<char> > > > *,std::vector<std::basic_string<char,std::char_traits<char>,std::allocator<char> >,std::allocator<std::basic_string<char,std::char_traits<char>,std::allocator<char> > > > *>
PUBLIC	?erase@?$vector@V?$vector@V?$basic_string@DU?$char_traits@D@std@@V?$allocator@D@2@@std@@V?$allocator@V?$basic_string@DU?$char_traits@D@std@@V?$allocator@D@2@@std@@@2@@std@@V?$allocator@V?$vector@V?$basic_string@DU?$char_traits@D@std@@V?$allocator@D@2@@std@@V?$allocator@V?$basic_string@DU?$char_traits@D@std@@V?$allocator@D@2@@std@@@2@@std@@@2@@std@@QAE?AV?$_Vector_iterator@V?$_Vector_val@V?$vector@V?$basic_string@DU?$char_traits@D@std@@V?$allocator@D@2@@std@@V?$allocator@V?$basic_string@DU?$char_traits@D@std@@V?$allocator@D@2@@std@@@2@@std@@V?$allocator@V?$vector@V?$basic_string@DU?$char_traits@D@std@@V?$allocator@D@2@@std@@V?$allocator@V?$basic_string@DU?$char_traits@D@std@@V?$allocator@D@2@@std@@@2@@std@@@2@@std@@@2@V?$_Vector_const_iterator@V?$_Vector_val@V?$vector@V?$basic_string@DU?$char_traits@D@std@@V?$allocator@D@2@@std@@V?$allocator@V?$basic_string@DU?$char_traits@D@std@@V?$allocator@D@2@@std@@@2@@std@@V?$allocator@V?$vector@V?$basic_string@DU?$char_traits@D@std@@V?$allocator@D@2@@std@@V?$allocator@V?$basic_string@DU?$char_traits@D@std@@V?$allocator@D@2@@std@@@2@@std@@@2@@std@@@2@0@Z ; std::vector<std::vector<std::basic_string<char,std::char_traits<char>,std::allocator<char> >,std::allocator<std::basic_string<char,std::char_traits<char>,std::allocator<char> > > >,std::allocator<std::vector<std::basic_string<char,std::char_traits<char>,std::allocator<char> >,std::allocator<std::basic_string<char,std::char_traits<char>,std::allocator<char> > > > > >::erase
PUBLIC	?clear@?$vector@V?$vector@V?$basic_string@DU?$char_traits@D@std@@V?$allocator@D@2@@std@@V?$allocator@V?$basic_string@DU?$char_traits@D@std@@V?$allocator@D@2@@std@@@2@@std@@V?$allocator@V?$vector@V?$basic_string@DU?$char_traits@D@std@@V?$allocator@D@2@@std@@V?$allocator@V?$basic_string@DU?$char_traits@D@std@@V?$allocator@D@2@@std@@@2@@std@@@2@@std@@QAEXXZ ; std::vector<std::vector<std::basic_string<char,std::char_traits<char>,std::allocator<char> >,std::allocator<std::basic_string<char,std::char_traits<char>,std::allocator<char> > > >,std::allocator<std::vector<std::basic_string<char,std::char_traits<char>,std::allocator<char> >,std::allocator<std::basic_string<char,std::char_traits<char>,std::allocator<char> > > > > >::clear
PUBLIC	??8?$_Vector_const_iterator@V?$_Vector_val@V?$vector@V?$basic_string@DU?$char_traits@D@std@@V?$allocator@D@2@@std@@V?$allocator@V?$basic_string@DU?$char_traits@D@std@@V?$allocator@D@2@@std@@@2@@std@@V?$allocator@V?$vector@V?$basic_string@DU?$char_traits@D@std@@V?$allocator@D@2@@std@@V?$allocator@V?$basic_string@DU?$char_traits@D@std@@V?$allocator@D@2@@std@@@2@@std@@@2@@std@@@std@@QBE_NABV01@@Z ; std::_Vector_const_iterator<std::_Vector_val<std::vector<std::basic_string<char,std::char_traits<char>,std::allocator<char> >,std::allocator<std::basic_string<char,std::char_traits<char>,std::allocator<char> > > >,std::allocator<std::vector<std::basic_string<char,std::char_traits<char>,std::allocator<char> >,std::allocator<std::basic_string<char,std::char_traits<char>,std::allocator<char> > > > > > >::operator==
PUBLIC	??9?$_Vector_const_iterator@V?$_Vector_val@V?$vector@V?$basic_string@DU?$char_traits@D@std@@V?$allocator@D@2@@std@@V?$allocator@V?$basic_string@DU?$char_traits@D@std@@V?$allocator@D@2@@std@@@2@@std@@V?$allocator@V?$vector@V?$basic_string@DU?$char_traits@D@std@@V?$allocator@D@2@@std@@V?$allocator@V?$basic_string@DU?$char_traits@D@std@@V?$allocator@D@2@@std@@@2@@std@@@2@@std@@@std@@QBE_NABV01@@Z ; std::_Vector_const_iterator<std::_Vector_val<std::vector<std::basic_string<char,std::char_traits<char>,std::allocator<char> >,std::allocator<std::basic_string<char,std::char_traits<char>,std::allocator<char> > > >,std::allocator<std::vector<std::basic_string<char,std::char_traits<char>,std::allocator<char> >,std::allocator<std::basic_string<char,std::char_traits<char>,std::allocator<char> > > > > > >::operator!=
PUBLIC	??$?8V?$vector@V?$basic_string@DU?$char_traits@D@std@@V?$allocator@D@2@@std@@V?$allocator@V?$basic_string@DU?$char_traits@D@std@@V?$allocator@D@2@@std@@@2@@std@@V01@@std@@YA_NABV?$allocator@V?$vector@V?$basic_string@DU?$char_traits@D@std@@V?$allocator@D@2@@std@@V?$allocator@V?$basic_string@DU?$char_traits@D@std@@V?$allocator@D@2@@std@@@2@@std@@@0@0@Z ; std::operator==<std::vector<std::basic_string<char,std::char_traits<char>,std::allocator<char> >,std::allocator<std::basic_string<char,std::char_traits<char>,std::allocator<char> > > >,std::vector<std::basic_string<char,std::char_traits<char>,std::allocator<char> >,std::allocator<std::basic_string<char,std::char_traits<char>,std::allocator<char> > > > >
PUBLIC	??$?9V?$vector@V?$basic_string@DU?$char_traits@D@std@@V?$allocator@D@2@@std@@V?$allocator@V?$basic_string@DU?$char_traits@D@std@@V?$allocator@D@2@@std@@@2@@std@@V01@@std@@YA_NABV?$allocator@V?$vector@V?$basic_string@DU?$char_traits@D@std@@V?$allocator@D@2@@std@@V?$allocator@V?$basic_string@DU?$char_traits@D@std@@V?$allocator@D@2@@std@@@2@@std@@@0@0@Z ; std::operator!=<std::vector<std::basic_string<char,std::char_traits<char>,std::allocator<char> >,std::allocator<std::basic_string<char,std::char_traits<char>,std::allocator<char> > > >,std::vector<std::basic_string<char,std::char_traits<char>,std::allocator<char> >,std::allocator<std::basic_string<char,std::char_traits<char>,std::allocator<char> > > > >
PUBLIC	?_Assign_rv@?$vector@V?$vector@V?$basic_string@DU?$char_traits@D@std@@V?$allocator@D@2@@std@@V?$allocator@V?$basic_string@DU?$char_traits@D@std@@V?$allocator@D@2@@std@@@2@@std@@V?$allocator@V?$vector@V?$basic_string@DU?$char_traits@D@std@@V?$allocator@D@2@@std@@V?$allocator@V?$basic_string@DU?$char_traits@D@std@@V?$allocator@D@2@@std@@@2@@std@@@2@@std@@QAEX$$QAV12@@Z ; std::vector<std::vector<std::basic_string<char,std::char_traits<char>,std::allocator<char> >,std::allocator<std::basic_string<char,std::char_traits<char>,std::allocator<char> > > >,std::allocator<std::vector<std::basic_string<char,std::char_traits<char>,std::allocator<char> >,std::allocator<std::basic_string<char,std::char_traits<char>,std::allocator<char> > > > > >::_Assign_rv
PUBLIC	??$forward@V?$vector@V?$vector@V?$basic_string@DU?$char_traits@D@std@@V?$allocator@D@2@@std@@V?$allocator@V?$basic_string@DU?$char_traits@D@std@@V?$allocator@D@2@@std@@@2@@std@@V?$allocator@V?$vector@V?$basic_string@DU?$char_traits@D@std@@V?$allocator@D@2@@std@@V?$allocator@V?$basic_string@DU?$char_traits@D@std@@V?$allocator@D@2@@std@@@2@@std@@@2@@std@@@std@@YA$$QAV?$vector@V?$vector@V?$basic_string@DU?$char_traits@D@std@@V?$allocator@D@2@@std@@V?$allocator@V?$basic_string@DU?$char_traits@D@std@@V?$allocator@D@2@@std@@@2@@std@@V?$allocator@V?$vector@V?$basic_string@DU?$char_traits@D@std@@V?$allocator@D@2@@std@@V?$allocator@V?$basic_string@DU?$char_traits@D@std@@V?$allocator@D@2@@std@@@2@@std@@@2@@0@AAV10@@Z ; std::forward<std::vector<std::vector<std::basic_string<char,std::char_traits<char>,std::allocator<char> >,std::allocator<std::basic_string<char,std::char_traits<char>,std::allocator<char> > > >,std::allocator<std::vector<std::basic_string<char,std::char_traits<char>,std::allocator<char> >,std::allocator<std::basic_string<char,std::char_traits<char>,std::allocator<char> > > > > > >
PUBLIC	??0?$vector@V?$vector@V?$basic_string@DU?$char_traits@D@std@@V?$allocator@D@2@@std@@V?$allocator@V?$basic_string@DU?$char_traits@D@std@@V?$allocator@D@2@@std@@@2@@std@@V?$allocator@V?$vector@V?$basic_string@DU?$char_traits@D@std@@V?$allocator@D@2@@std@@V?$allocator@V?$basic_string@DU?$char_traits@D@std@@V?$allocator@D@2@@std@@@2@@std@@@2@@std@@QAE@$$QAV01@@Z ; std::vector<std::vector<std::basic_string<char,std::char_traits<char>,std::allocator<char> >,std::allocator<std::basic_string<char,std::char_traits<char>,std::allocator<char> > > >,std::allocator<std::vector<std::basic_string<char,std::char_traits<char>,std::allocator<char> >,std::allocator<std::basic_string<char,std::char_traits<char>,std::allocator<char> > > > > >::vector<std::vector<std::basic_string<char,std::char_traits<char>,std::allocator<char> >,std::allocator<std::basic_string<char,std::char_traits<char>,std::allocator<char> > > >,std::allocator<std::vector<std::basic_string<char,std::char_traits<char>,std::allocator<char> >,std::allocator<std::basic_string<char,std::char_traits<char>,std::allocator<char> > > > > >
PUBLIC	?_Inside@?$vector@V?$vector@V?$basic_string@DU?$char_traits@D@std@@V?$allocator@D@2@@std@@V?$allocator@V?$basic_string@DU?$char_traits@D@std@@V?$allocator@D@2@@std@@@2@@std@@V?$allocator@V?$vector@V?$basic_string@DU?$char_traits@D@std@@V?$allocator@D@2@@std@@V?$allocator@V?$basic_string@DU?$char_traits@D@std@@V?$allocator@D@2@@std@@@2@@std@@@2@@std@@IBE_NPBV?$vector@V?$basic_string@DU?$char_traits@D@std@@V?$allocator@D@2@@std@@V?$allocator@V?$basic_string@DU?$char_traits@D@std@@V?$allocator@D@2@@std@@@2@@2@@Z ; std::vector<std::vector<std::basic_string<char,std::char_traits<char>,std::allocator<char> >,std::allocator<std::basic_string<char,std::char_traits<char>,std::allocator<char> > > >,std::allocator<std::vector<std::basic_string<char,std::char_traits<char>,std::allocator<char> >,std::allocator<std::basic_string<char,std::char_traits<char>,std::allocator<char> > > > > >::_Inside
PUBLIC	??$_Allocate@V?$vector@V?$basic_string@DU?$char_traits@D@std@@V?$allocator@D@2@@std@@V?$allocator@V?$basic_string@DU?$char_traits@D@std@@V?$allocator@D@2@@std@@@2@@std@@@std@@YAPAV?$vector@V?$basic_string@DU?$char_traits@D@std@@V?$allocator@D@2@@std@@V?$allocator@V?$basic_string@DU?$char_traits@D@std@@V?$allocator@D@2@@std@@@2@@0@IPAV10@@Z ; std::_Allocate<std::vector<std::basic_string<char,std::char_traits<char>,std::allocator<char> >,std::allocator<std::basic_string<char,std::char_traits<char>,std::allocator<char> > > > >
PUBLIC	?allocate@?$allocator@V?$vector@V?$basic_string@DU?$char_traits@D@std@@V?$allocator@D@2@@std@@V?$allocator@V?$basic_string@DU?$char_traits@D@std@@V?$allocator@D@2@@std@@@2@@std@@@std@@QAEPAV?$vector@V?$basic_string@DU?$char_traits@D@std@@V?$allocator@D@2@@std@@V?$allocator@V?$basic_string@DU?$char_traits@D@std@@V?$allocator@D@2@@std@@@2@@2@I@Z ; std::allocator<std::vector<std::basic_string<char,std::char_traits<char>,std::allocator<char> >,std::allocator<std::basic_string<char,std::char_traits<char>,std::allocator<char> > > > >::allocate
PUBLIC	??$_Val_type@PAV?$vector@V?$basic_string@DU?$char_traits@D@std@@V?$allocator@D@2@@std@@V?$allocator@V?$basic_string@DU?$char_traits@D@std@@V?$allocator@D@2@@std@@@2@@std@@@std@@YAPAV?$vector@V?$basic_string@DU?$char_traits@D@std@@V?$allocator@D@2@@std@@V?$allocator@V?$basic_string@DU?$char_traits@D@std@@V?$allocator@D@2@@std@@@2@@0@PAV10@@Z ; std::_Val_type<std::vector<std::basic_string<char,std::char_traits<char>,std::allocator<char> >,std::allocator<std::basic_string<char,std::char_traits<char>,std::allocator<char> > > > *>
PUBLIC	?construct@?$allocator@V?$vector@V?$basic_string@DU?$char_traits@D@std@@V?$allocator@D@2@@std@@V?$allocator@V?$basic_string@DU?$char_traits@D@std@@V?$allocator@D@2@@std@@@2@@std@@@std@@QAEXPAV?$vector@V?$basic_string@DU?$char_traits@D@std@@V?$allocator@D@2@@std@@V?$allocator@V?$basic_string@DU?$char_traits@D@std@@V?$allocator@D@2@@std@@@2@@2@$$QAV32@@Z ; std::allocator<std::vector<std::basic_string<char,std::char_traits<char>,std::allocator<char> >,std::allocator<std::basic_string<char,std::char_traits<char>,std::allocator<char> > > > >::construct
PUBLIC	??$_Cons_val@V?$allocator@V?$vector@V?$basic_string@DU?$char_traits@D@std@@V?$allocator@D@2@@std@@V?$allocator@V?$basic_string@DU?$char_traits@D@std@@V?$allocator@D@2@@std@@@2@@std@@@std@@V?$vector@V?$basic_string@DU?$char_traits@D@std@@V?$allocator@D@2@@std@@V?$allocator@V?$basic_string@DU?$char_traits@D@std@@V?$allocator@D@2@@std@@@2@@2@V32@@std@@YAXAAV?$allocator@V?$vector@V?$basic_string@DU?$char_traits@D@std@@V?$allocator@D@2@@std@@V?$allocator@V?$basic_string@DU?$char_traits@D@std@@V?$allocator@D@2@@std@@@2@@std@@@0@PAV?$vector@V?$basic_string@DU?$char_traits@D@std@@V?$allocator@D@2@@std@@V?$allocator@V?$basic_string@DU?$char_traits@D@std@@V?$allocator@D@2@@std@@@2@@0@$$QAV20@@Z ; std::_Cons_val<std::allocator<std::vector<std::basic_string<char,std::char_traits<char>,std::allocator<char> >,std::allocator<std::basic_string<char,std::char_traits<char>,std::allocator<char> > > > >,std::vector<std::basic_string<char,std::char_traits<char>,std::allocator<char> >,std::allocator<std::basic_string<char,std::char_traits<char>,std::allocator<char> > > >,std::vector<std::basic_string<char,std::char_traits<char>,std::allocator<char> >,std::allocator<std::basic_string<char,std::char_traits<char>,std::allocator<char> > > > >
PUBLIC	??$_Uninit_move@PAV?$vector@V?$basic_string@DU?$char_traits@D@std@@V?$allocator@D@2@@std@@V?$allocator@V?$basic_string@DU?$char_traits@D@std@@V?$allocator@D@2@@std@@@2@@std@@PAV12@V?$allocator@V?$vector@V?$basic_string@DU?$char_traits@D@std@@V?$allocator@D@2@@std@@V?$allocator@V?$basic_string@DU?$char_traits@D@std@@V?$allocator@D@2@@std@@@2@@std@@@2@V12@@std@@YAPAV?$vector@V?$basic_string@DU?$char_traits@D@std@@V?$allocator@D@2@@std@@V?$allocator@V?$basic_string@DU?$char_traits@D@std@@V?$allocator@D@2@@std@@@2@@0@PAV10@00AAV?$allocator@V?$vector@V?$basic_string@DU?$char_traits@D@std@@V?$allocator@D@2@@std@@V?$allocator@V?$basic_string@DU?$char_traits@D@std@@V?$allocator@D@2@@std@@@2@@std@@@0@0U_Nonscalar_ptr_iterator_tag@0@@Z ; std::_Uninit_move<std::vector<std::basic_string<char,std::char_traits<char>,std::allocator<char> >,std::allocator<std::basic_string<char,std::char_traits<char>,std::allocator<char> > > > *,std::vector<std::basic_string<char,std::char_traits<char>,std::allocator<char> >,std::allocator<std::basic_string<char,std::char_traits<char>,std::allocator<char> > > > *,std::allocator<std::vector<std::basic_string<char,std::char_traits<char>,std::allocator<char> >,std::allocator<std::basic_string<char,std::char_traits<char>,std::allocator<char> > > > >,std::vector<std::basic_string<char,std::char_traits<char>,std::allocator<char> >,std::allocator<std::basic_string<char,std::char_traits<char>,std::allocator<char> > > > >
PUBLIC	??$_Uninitialized_move@PAV?$vector@V?$basic_string@DU?$char_traits@D@std@@V?$allocator@D@2@@std@@V?$allocator@V?$basic_string@DU?$char_traits@D@std@@V?$allocator@D@2@@std@@@2@@std@@PAV12@V?$allocator@V?$vector@V?$basic_string@DU?$char_traits@D@std@@V?$allocator@D@2@@std@@V?$allocator@V?$basic_string@DU?$char_traits@D@std@@V?$allocator@D@2@@std@@@2@@std@@@2@@std@@YAPAV?$vector@V?$basic_string@DU?$char_traits@D@std@@V?$allocator@D@2@@std@@V?$allocator@V?$basic_string@DU?$char_traits@D@std@@V?$allocator@D@2@@std@@@2@@0@PAV10@00AAV?$allocator@V?$vector@V?$basic_string@DU?$char_traits@D@std@@V?$allocator@D@2@@std@@V?$allocator@V?$basic_string@DU?$char_traits@D@std@@V?$allocator@D@2@@std@@@2@@std@@@0@@Z ; std::_Uninitialized_move<std::vector<std::basic_string<char,std::char_traits<char>,std::allocator<char> >,std::allocator<std::basic_string<char,std::char_traits<char>,std::allocator<char> > > > *,std::vector<std::basic_string<char,std::char_traits<char>,std::allocator<char> >,std::allocator<std::basic_string<char,std::char_traits<char>,std::allocator<char> > > > *,std::allocator<std::vector<std::basic_string<char,std::char_traits<char>,std::allocator<char> >,std::allocator<std::basic_string<char,std::char_traits<char>,std::allocator<char> > > > > >
PUBLIC	??$_Umove@PAV?$vector@V?$basic_string@DU?$char_traits@D@std@@V?$allocator@D@2@@std@@V?$allocator@V?$basic_string@DU?$char_traits@D@std@@V?$allocator@D@2@@std@@@2@@std@@@?$vector@V?$vector@V?$basic_string@DU?$char_traits@D@std@@V?$allocator@D@2@@std@@V?$allocator@V?$basic_string@DU?$char_traits@D@std@@V?$allocator@D@2@@std@@@2@@std@@V?$allocator@V?$vector@V?$basic_string@DU?$char_traits@D@std@@V?$allocator@D@2@@std@@V?$allocator@V?$basic_string@DU?$char_traits@D@std@@V?$allocator@D@2@@std@@@2@@std@@@2@@std@@IAEPAV?$vector@V?$basic_string@DU?$char_traits@D@std@@V?$allocator@D@2@@std@@V?$allocator@V?$basic_string@DU?$char_traits@D@std@@V?$allocator@D@2@@std@@@2@@1@PAV21@00@Z ; std::vector<std::vector<std::basic_string<char,std::char_traits<char>,std::allocator<char> >,std::allocator<std::basic_string<char,std::char_traits<char>,std::allocator<char> > > >,std::allocator<std::vector<std::basic_string<char,std::char_traits<char>,std::allocator<char> >,std::allocator<std::basic_string<char,std::char_traits<char>,std::allocator<char> > > > > >::_Umove<std::vector<std::basic_string<char,std::char_traits<char>,std::allocator<char> >,std::allocator<std::basic_string<char,std::char_traits<char>,std::allocator<char> > > > *>
PUBLIC	?reserve@?$vector@V?$vector@V?$basic_string@DU?$char_traits@D@std@@V?$allocator@D@2@@std@@V?$allocator@V?$basic_string@DU?$char_traits@D@std@@V?$allocator@D@2@@std@@@2@@std@@V?$allocator@V?$vector@V?$basic_string@DU?$char_traits@D@std@@V?$allocator@D@2@@std@@V?$allocator@V?$basic_string@DU?$char_traits@D@std@@V?$allocator@D@2@@std@@@2@@std@@@2@@std@@QAEXI@Z ; std::vector<std::vector<std::basic_string<char,std::char_traits<char>,std::allocator<char> >,std::allocator<std::basic_string<char,std::char_traits<char>,std::allocator<char> > > >,std::allocator<std::vector<std::basic_string<char,std::char_traits<char>,std::allocator<char> >,std::allocator<std::basic_string<char,std::char_traits<char>,std::allocator<char> > > > > >::reserve
PUBLIC	?size@?$vector@V?$vector@V?$basic_string@DU?$char_traits@D@std@@V?$allocator@D@2@@std@@V?$allocator@V?$basic_string@DU?$char_traits@D@std@@V?$allocator@D@2@@std@@@2@@std@@V?$allocator@V?$vector@V?$basic_string@DU?$char_traits@D@std@@V?$allocator@D@2@@std@@V?$allocator@V?$basic_string@DU?$char_traits@D@std@@V?$allocator@D@2@@std@@@2@@std@@@2@@std@@QBEIXZ ; std::vector<std::vector<std::basic_string<char,std::char_traits<char>,std::allocator<char> >,std::allocator<std::basic_string<char,std::char_traits<char>,std::allocator<char> > > >,std::allocator<std::vector<std::basic_string<char,std::char_traits<char>,std::allocator<char> >,std::allocator<std::basic_string<char,std::char_traits<char>,std::allocator<char> > > > > >::size
PUBLIC	?capacity@?$vector@V?$vector@V?$basic_string@DU?$char_traits@D@std@@V?$allocator@D@2@@std@@V?$allocator@V?$basic_string@DU?$char_traits@D@std@@V?$allocator@D@2@@std@@@2@@std@@V?$allocator@V?$vector@V?$basic_string@DU?$char_traits@D@std@@V?$allocator@D@2@@std@@V?$allocator@V?$basic_string@DU?$char_traits@D@std@@V?$allocator@D@2@@std@@@2@@std@@@2@@std@@QBEIXZ ; std::vector<std::vector<std::basic_string<char,std::char_traits<char>,std::allocator<char> >,std::allocator<std::basic_string<char,std::char_traits<char>,std::allocator<char> > > >,std::allocator<std::vector<std::basic_string<char,std::char_traits<char>,std::allocator<char> >,std::allocator<std::basic_string<char,std::char_traits<char>,std::allocator<char> > > > > >::capacity
PUBLIC	?max_size@?$allocator@V?$vector@V?$basic_string@DU?$char_traits@D@std@@V?$allocator@D@2@@std@@V?$allocator@V?$basic_string@DU?$char_traits@D@std@@V?$allocator@D@2@@std@@@2@@std@@@std@@QBEIXZ ; std::allocator<std::vector<std::basic_string<char,std::char_traits<char>,std::allocator<char> >,std::allocator<std::basic_string<char,std::char_traits<char>,std::allocator<char> > > > >::max_size
PUBLIC	?max_size@?$vector@V?$vector@V?$basic_string@DU?$char_traits@D@std@@V?$allocator@D@2@@std@@V?$allocator@V?$basic_string@DU?$char_traits@D@std@@V?$allocator@D@2@@std@@@2@@std@@V?$allocator@V?$vector@V?$basic_string@DU?$char_traits@D@std@@V?$allocator@D@2@@std@@V?$allocator@V?$basic_string@DU?$char_traits@D@std@@V?$allocator@D@2@@std@@@2@@std@@@2@@std@@QBEIXZ ; std::vector<std::vector<std::basic_string<char,std::char_traits<char>,std::allocator<char> >,std::allocator<std::basic_string<char,std::char_traits<char>,std::allocator<char> > > >,std::allocator<std::vector<std::basic_string<char,std::char_traits<char>,std::allocator<char> >,std::allocator<std::basic_string<char,std::char_traits<char>,std::allocator<char> > > > > >::max_size
PUBLIC	?_Grow_to@?$vector@V?$vector@V?$basic_string@DU?$char_traits@D@std@@V?$allocator@D@2@@std@@V?$allocator@V?$basic_string@DU?$char_traits@D@std@@V?$allocator@D@2@@std@@@2@@std@@V?$allocator@V?$vector@V?$basic_string@DU?$char_traits@D@std@@V?$allocator@D@2@@std@@V?$allocator@V?$basic_string@DU?$char_traits@D@std@@V?$allocator@D@2@@std@@@2@@std@@@2@@std@@IBEII@Z ; std::vector<std::vector<std::basic_string<char,std::char_traits<char>,std::allocator<char> >,std::allocator<std::basic_string<char,std::char_traits<char>,std::allocator<char> > > >,std::allocator<std::vector<std::basic_string<char,std::char_traits<char>,std::allocator<char> >,std::allocator<std::basic_string<char,std::char_traits<char>,std::allocator<char> > > > > >::_Grow_to
PUBLIC	?_Xlen@?$vector@V?$vector@V?$basic_string@DU?$char_traits@D@std@@V?$allocator@D@2@@std@@V?$allocator@V?$basic_string@DU?$char_traits@D@std@@V?$allocator@D@2@@std@@@2@@std@@V?$allocator@V?$vector@V?$basic_string@DU?$char_traits@D@std@@V?$allocator@D@2@@std@@V?$allocator@V?$basic_string@DU?$char_traits@D@std@@V?$allocator@D@2@@std@@@2@@std@@@2@@std@@IBEXXZ ; std::vector<std::vector<std::basic_string<char,std::char_traits<char>,std::allocator<char> >,std::allocator<std::basic_string<char,std::char_traits<char>,std::allocator<char> > > >,std::allocator<std::vector<std::basic_string<char,std::char_traits<char>,std::allocator<char> >,std::allocator<std::basic_string<char,std::char_traits<char>,std::allocator<char> > > > > >::_Xlen
PUBLIC	?_Reserve@?$vector@V?$vector@V?$basic_string@DU?$char_traits@D@std@@V?$allocator@D@2@@std@@V?$allocator@V?$basic_string@DU?$char_traits@D@std@@V?$allocator@D@2@@std@@@2@@std@@V?$allocator@V?$vector@V?$basic_string@DU?$char_traits@D@std@@V?$allocator@D@2@@std@@V?$allocator@V?$basic_string@DU?$char_traits@D@std@@V?$allocator@D@2@@std@@@2@@std@@@2@@std@@IAEXI@Z ; std::vector<std::vector<std::basic_string<char,std::char_traits<char>,std::allocator<char> >,std::allocator<std::basic_string<char,std::char_traits<char>,std::allocator<char> > > >,std::allocator<std::vector<std::basic_string<char,std::char_traits<char>,std::allocator<char> >,std::allocator<std::basic_string<char,std::char_traits<char>,std::allocator<char> > > > > >::_Reserve
PUBLIC	?_Orphan_range@?$vector@V?$vector@V?$basic_string@DU?$char_traits@D@std@@V?$allocator@D@2@@std@@V?$allocator@V?$basic_string@DU?$char_traits@D@std@@V?$allocator@D@2@@std@@@2@@std@@V?$allocator@V?$vector@V?$basic_string@DU?$char_traits@D@std@@V?$allocator@D@2@@std@@V?$allocator@V?$basic_string@DU?$char_traits@D@std@@V?$allocator@D@2@@std@@@2@@std@@@2@@std@@IBEXPAV?$vector@V?$basic_string@DU?$char_traits@D@std@@V?$allocator@D@2@@std@@V?$allocator@V?$basic_string@DU?$char_traits@D@std@@V?$allocator@D@2@@std@@@2@@2@0@Z ; std::vector<std::vector<std::basic_string<char,std::char_traits<char>,std::allocator<char> >,std::allocator<std::basic_string<char,std::char_traits<char>,std::allocator<char> > > >,std::allocator<std::vector<std::basic_string<char,std::char_traits<char>,std::allocator<char> >,std::allocator<std::basic_string<char,std::char_traits<char>,std::allocator<char> > > > > >::_Orphan_range
PUBLIC	??$addressof@$$CBV?$vector@V?$basic_string@DU?$char_traits@D@std@@V?$allocator@D@2@@std@@V?$allocator@V?$basic_string@DU?$char_traits@D@std@@V?$allocator@D@2@@std@@@2@@std@@@std@@YAPBV?$vector@V?$basic_string@DU?$char_traits@D@std@@V?$allocator@D@2@@std@@V?$allocator@V?$basic_string@DU?$char_traits@D@std@@V?$allocator@D@2@@std@@@2@@0@ABV10@@Z ; std::addressof<std::vector<std::basic_string<char,std::char_traits<char>,std::allocator<char> >,std::allocator<std::basic_string<char,std::char_traits<char>,std::allocator<char> > > > const >
PUBLIC	??$forward@AAV?$vector@V?$basic_string@DU?$char_traits@D@std@@V?$allocator@D@2@@std@@V?$allocator@V?$basic_string@DU?$char_traits@D@std@@V?$allocator@D@2@@std@@@2@@std@@@std@@YAAAV?$vector@V?$basic_string@DU?$char_traits@D@std@@V?$allocator@D@2@@std@@V?$allocator@V?$basic_string@DU?$char_traits@D@std@@V?$allocator@D@2@@std@@@2@@0@AAV10@@Z ; std::forward<std::vector<std::basic_string<char,std::char_traits<char>,std::allocator<char> >,std::allocator<std::basic_string<char,std::char_traits<char>,std::allocator<char> > > > &>
PUBLIC	??$construct@AAV?$vector@V?$basic_string@DU?$char_traits@D@std@@V?$allocator@D@2@@std@@V?$allocator@V?$basic_string@DU?$char_traits@D@std@@V?$allocator@D@2@@std@@@2@@std@@@?$allocator@V?$vector@V?$basic_string@DU?$char_traits@D@std@@V?$allocator@D@2@@std@@V?$allocator@V?$basic_string@DU?$char_traits@D@std@@V?$allocator@D@2@@std@@@2@@std@@@std@@QAEXPAV?$vector@V?$basic_string@DU?$char_traits@D@std@@V?$allocator@D@2@@std@@V?$allocator@V?$basic_string@DU?$char_traits@D@std@@V?$allocator@D@2@@std@@@2@@1@AAV21@@Z ; std::allocator<std::vector<std::basic_string<char,std::char_traits<char>,std::allocator<char> >,std::allocator<std::basic_string<char,std::char_traits<char>,std::allocator<char> > > > >::construct<std::vector<std::basic_string<char,std::char_traits<char>,std::allocator<char> >,std::allocator<std::basic_string<char,std::char_traits<char>,std::allocator<char> > > > &>
PUBLIC	??$_Cons_val@V?$allocator@V?$vector@V?$basic_string@DU?$char_traits@D@std@@V?$allocator@D@2@@std@@V?$allocator@V?$basic_string@DU?$char_traits@D@std@@V?$allocator@D@2@@std@@@2@@std@@@std@@V?$vector@V?$basic_string@DU?$char_traits@D@std@@V?$allocator@D@2@@std@@V?$allocator@V?$basic_string@DU?$char_traits@D@std@@V?$allocator@D@2@@std@@@2@@2@AAV32@@std@@YAXAAV?$allocator@V?$vector@V?$basic_string@DU?$char_traits@D@std@@V?$allocator@D@2@@std@@V?$allocator@V?$basic_string@DU?$char_traits@D@std@@V?$allocator@D@2@@std@@@2@@std@@@0@PAV?$vector@V?$basic_string@DU?$char_traits@D@std@@V?$allocator@D@2@@std@@V?$allocator@V?$basic_string@DU?$char_traits@D@std@@V?$allocator@D@2@@std@@@2@@0@AAV20@@Z ; std::_Cons_val<std::allocator<std::vector<std::basic_string<char,std::char_traits<char>,std::allocator<char> >,std::allocator<std::basic_string<char,std::char_traits<char>,std::allocator<char> > > > >,std::vector<std::basic_string<char,std::char_traits<char>,std::allocator<char> >,std::allocator<std::basic_string<char,std::char_traits<char>,std::allocator<char> > > >,std::vector<std::basic_string<char,std::char_traits<char>,std::allocator<char> >,std::allocator<std::basic_string<char,std::char_traits<char>,std::allocator<char> > > > &>
PUBLIC	??$_Construct@V?$vector@V?$basic_string@DU?$char_traits@D@std@@V?$allocator@D@2@@std@@V?$allocator@V?$basic_string@DU?$char_traits@D@std@@V?$allocator@D@2@@std@@@2@@std@@ABV12@@std@@YAXPAV?$vector@V?$basic_string@DU?$char_traits@D@std@@V?$allocator@D@2@@std@@V?$allocator@V?$basic_string@DU?$char_traits@D@std@@V?$allocator@D@2@@std@@@2@@0@ABV10@@Z ; std::_Construct<std::vector<std::basic_string<char,std::char_traits<char>,std::allocator<char> >,std::allocator<std::basic_string<char,std::char_traits<char>,std::allocator<char> > > >,std::vector<std::basic_string<char,std::char_traits<char>,std::allocator<char> >,std::allocator<std::basic_string<char,std::char_traits<char>,std::allocator<char> > > > const &>
PUBLIC	?construct@?$allocator@V?$vector@V?$basic_string@DU?$char_traits@D@std@@V?$allocator@D@2@@std@@V?$allocator@V?$basic_string@DU?$char_traits@D@std@@V?$allocator@D@2@@std@@@2@@std@@@std@@QAEXPAV?$vector@V?$basic_string@DU?$char_traits@D@std@@V?$allocator@D@2@@std@@V?$allocator@V?$basic_string@DU?$char_traits@D@std@@V?$allocator@D@2@@std@@@2@@2@ABV32@@Z ; std::allocator<std::vector<std::basic_string<char,std::char_traits<char>,std::allocator<char> >,std::allocator<std::basic_string<char,std::char_traits<char>,std::allocator<char> > > > >::construct
PUBLIC	??$forward@ABV?$vector@V?$basic_string@DU?$char_traits@D@std@@V?$allocator@D@2@@std@@V?$allocator@V?$basic_string@DU?$char_traits@D@std@@V?$allocator@D@2@@std@@@2@@std@@@std@@YAABV?$vector@V?$basic_string@DU?$char_traits@D@std@@V?$allocator@D@2@@std@@V?$allocator@V?$basic_string@DU?$char_traits@D@std@@V?$allocator@D@2@@std@@@2@@0@ABV10@@Z ; std::forward<std::vector<std::basic_string<char,std::char_traits<char>,std::allocator<char> >,std::allocator<std::basic_string<char,std::char_traits<char>,std::allocator<char> > > > const &>
PUBLIC	??$_Cons_val@V?$allocator@V?$vector@V?$basic_string@DU?$char_traits@D@std@@V?$allocator@D@2@@std@@V?$allocator@V?$basic_string@DU?$char_traits@D@std@@V?$allocator@D@2@@std@@@2@@std@@@std@@V?$vector@V?$basic_string@DU?$char_traits@D@std@@V?$allocator@D@2@@std@@V?$allocator@V?$basic_string@DU?$char_traits@D@std@@V?$allocator@D@2@@std@@@2@@2@ABV32@@std@@YAXAAV?$allocator@V?$vector@V?$basic_string@DU?$char_traits@D@std@@V?$allocator@D@2@@std@@V?$allocator@V?$basic_string@DU?$char_traits@D@std@@V?$allocator@D@2@@std@@@2@@std@@@0@PAV?$vector@V?$basic_string@DU?$char_traits@D@std@@V?$allocator@D@2@@std@@V?$allocator@V?$basic_string@DU?$char_traits@D@std@@V?$allocator@D@2@@std@@@2@@0@ABV20@@Z ; std::_Cons_val<std::allocator<std::vector<std::basic_string<char,std::char_traits<char>,std::allocator<char> >,std::allocator<std::basic_string<char,std::char_traits<char>,std::allocator<char> > > > >,std::vector<std::basic_string<char,std::char_traits<char>,std::allocator<char> >,std::allocator<std::basic_string<char,std::char_traits<char>,std::allocator<char> > > >,std::vector<std::basic_string<char,std::char_traits<char>,std::allocator<char> >,std::allocator<std::basic_string<char,std::char_traits<char>,std::allocator<char> > > > const &>
PUBLIC	?push_back@?$vector@V?$vector@V?$basic_string@DU?$char_traits@D@std@@V?$allocator@D@2@@std@@V?$allocator@V?$basic_string@DU?$char_traits@D@std@@V?$allocator@D@2@@std@@@2@@std@@V?$allocator@V?$vector@V?$basic_string@DU?$char_traits@D@std@@V?$allocator@D@2@@std@@V?$allocator@V?$basic_string@DU?$char_traits@D@std@@V?$allocator@D@2@@std@@@2@@std@@@2@@std@@QAEXABV?$vector@V?$basic_string@DU?$char_traits@D@std@@V?$allocator@D@2@@std@@V?$allocator@V?$basic_string@DU?$char_traits@D@std@@V?$allocator@D@2@@std@@@2@@2@@Z ; std::vector<std::vector<std::basic_string<char,std::char_traits<char>,std::allocator<char> >,std::allocator<std::basic_string<char,std::char_traits<char>,std::allocator<char> > > >,std::allocator<std::vector<std::basic_string<char,std::char_traits<char>,std::allocator<char> >,std::allocator<std::basic_string<char,std::char_traits<char>,std::allocator<char> > > > > >::push_back
PUBLIC	??0admin@Database@@QAE@XZ			; Database::admin::admin
PUBLIC	??0?$allocator@Uadmin@Database@@@std@@QAE@XZ	; std::allocator<Database::admin>::allocator<Database::admin>
PUBLIC	??0?$vector@Uadmin@Database@@V?$allocator@Uadmin@Database@@@std@@@std@@QAE@XZ ; std::vector<Database::admin,std::allocator<Database::admin> >::vector<Database::admin,std::allocator<Database::admin> >
PUBLIC	??0?$_Vector_val@Uadmin@Database@@V?$allocator@Uadmin@Database@@@std@@@std@@QAE@V?$allocator@Uadmin@Database@@@1@@Z ; std::_Vector_val<Database::admin,std::allocator<Database::admin> >::_Vector_val<Database::admin,std::allocator<Database::admin> >
PUBLIC	??$addressof@Uadmin@Database@@@std@@YAPAUadmin@Database@@AAU12@@Z ; std::addressof<Database::admin>
PUBLIC	?push_back@?$vector@Uadmin@Database@@V?$allocator@Uadmin@Database@@@std@@@std@@QAEX$$QAUadmin@Database@@@Z ; std::vector<Database::admin,std::allocator<Database::admin> >::push_back
PUBLIC	??0?$allocator@Uadmin@Database@@@std@@QAE@ABV01@@Z ; std::allocator<Database::admin>::allocator<Database::admin>
PUBLIC	?get_allocator@?$vector@Uadmin@Database@@V?$allocator@Uadmin@Database@@@std@@@std@@QBE?AV?$allocator@Uadmin@Database@@@2@XZ ; std::vector<Database::admin,std::allocator<Database::admin> >::get_allocator
PUBLIC	??$?8Uadmin@Database@@U01@@std@@YA_NABV?$allocator@Uadmin@Database@@@0@0@Z ; std::operator==<Database::admin,Database::admin>
PUBLIC	??$?9Uadmin@Database@@U01@@std@@YA_NABV?$allocator@Uadmin@Database@@@0@0@Z ; std::operator!=<Database::admin,Database::admin>
PUBLIC	??D?$_Vector_iterator@V?$_Vector_val@Uadmin@Database@@V?$allocator@Uadmin@Database@@@std@@@std@@@std@@QBEAAUadmin@Database@@XZ ; std::_Vector_iterator<std::_Vector_val<Database::admin,std::allocator<Database::admin> > >::operator*
PUBLIC	??E?$_Vector_iterator@V?$_Vector_val@Uadmin@Database@@V?$allocator@Uadmin@Database@@@std@@@std@@@std@@QAEAAV01@XZ ; std::_Vector_iterator<std::_Vector_val<Database::admin,std::allocator<Database::admin> > >::operator++
PUBLIC	?_Assign_rv@?$vector@Uadmin@Database@@V?$allocator@Uadmin@Database@@@std@@@std@@QAEX$$QAV12@@Z ; std::vector<Database::admin,std::allocator<Database::admin> >::_Assign_rv
PUBLIC	??$forward@V?$vector@Uadmin@Database@@V?$allocator@Uadmin@Database@@@std@@@std@@@std@@YA$$QAV?$vector@Uadmin@Database@@V?$allocator@Uadmin@Database@@@std@@@0@AAV10@@Z ; std::forward<std::vector<Database::admin,std::allocator<Database::admin> > >
PUBLIC	??0?$vector@Uadmin@Database@@V?$allocator@Uadmin@Database@@@std@@@std@@QAE@$$QAV01@@Z ; std::vector<Database::admin,std::allocator<Database::admin> >::vector<Database::admin,std::allocator<Database::admin> >
PUBLIC	?_Inside@?$vector@Uadmin@Database@@V?$allocator@Uadmin@Database@@@std@@@std@@IBE_NPBUadmin@Database@@@Z ; std::vector<Database::admin,std::allocator<Database::admin> >::_Inside
PUBLIC	??$_Allocate@Uadmin@Database@@@std@@YAPAUadmin@Database@@IPAU12@@Z ; std::_Allocate<Database::admin>
PUBLIC	?allocate@?$allocator@Uadmin@Database@@@std@@QAEPAUadmin@Database@@I@Z ; std::allocator<Database::admin>::allocate
PUBLIC	??$_Val_type@PAUadmin@Database@@@std@@YAPAUadmin@Database@@PAU12@@Z ; std::_Val_type<Database::admin *>
PUBLIC	?construct@?$allocator@Uadmin@Database@@@std@@QAEXPAUadmin@Database@@$$QAU34@@Z ; std::allocator<Database::admin>::construct
PUBLIC	??$forward@Uadmin@Database@@@std@@YA$$QAUadmin@Database@@AAU12@@Z ; std::forward<Database::admin>
PUBLIC	??$_Cons_val@V?$allocator@Uadmin@Database@@@std@@Uadmin@Database@@U34@@std@@YAXAAV?$allocator@Uadmin@Database@@@0@PAUadmin@Database@@$$QAU23@@Z ; std::_Cons_val<std::allocator<Database::admin>,Database::admin,Database::admin>
PUBLIC	??$_Uninit_move@PAUadmin@Database@@PAU12@V?$allocator@Uadmin@Database@@@std@@U12@@std@@YAPAUadmin@Database@@PAU12@00AAV?$allocator@Uadmin@Database@@@0@0U_Nonscalar_ptr_iterator_tag@0@@Z ; std::_Uninit_move<Database::admin *,Database::admin *,std::allocator<Database::admin>,Database::admin>
PUBLIC	??$_Uninitialized_move@PAUadmin@Database@@PAU12@V?$allocator@Uadmin@Database@@@std@@@std@@YAPAUadmin@Database@@PAU12@00AAV?$allocator@Uadmin@Database@@@0@@Z ; std::_Uninitialized_move<Database::admin *,Database::admin *,std::allocator<Database::admin> >
PUBLIC	??$_Umove@PAUadmin@Database@@@?$vector@Uadmin@Database@@V?$allocator@Uadmin@Database@@@std@@@std@@IAEPAUadmin@Database@@PAU23@00@Z ; std::vector<Database::admin,std::allocator<Database::admin> >::_Umove<Database::admin *>
PUBLIC	?reserve@?$vector@Uadmin@Database@@V?$allocator@Uadmin@Database@@@std@@@std@@QAEXI@Z ; std::vector<Database::admin,std::allocator<Database::admin> >::reserve
PUBLIC	?size@?$vector@Uadmin@Database@@V?$allocator@Uadmin@Database@@@std@@@std@@QBEIXZ ; std::vector<Database::admin,std::allocator<Database::admin> >::size
PUBLIC	?capacity@?$vector@Uadmin@Database@@V?$allocator@Uadmin@Database@@@std@@@std@@QBEIXZ ; std::vector<Database::admin,std::allocator<Database::admin> >::capacity
PUBLIC	?max_size@?$allocator@Uadmin@Database@@@std@@QBEIXZ ; std::allocator<Database::admin>::max_size
PUBLIC	?max_size@?$vector@Uadmin@Database@@V?$allocator@Uadmin@Database@@@std@@@std@@QBEIXZ ; std::vector<Database::admin,std::allocator<Database::admin> >::max_size
PUBLIC	?_Grow_to@?$vector@Uadmin@Database@@V?$allocator@Uadmin@Database@@@std@@@std@@IBEII@Z ; std::vector<Database::admin,std::allocator<Database::admin> >::_Grow_to
PUBLIC	?_Xlen@?$vector@Uadmin@Database@@V?$allocator@Uadmin@Database@@@std@@@std@@IBEXXZ ; std::vector<Database::admin,std::allocator<Database::admin> >::_Xlen
PUBLIC	?_Reserve@?$vector@Uadmin@Database@@V?$allocator@Uadmin@Database@@@std@@@std@@IAEXI@Z ; std::vector<Database::admin,std::allocator<Database::admin> >::_Reserve
PUBLIC	?_Orphan_range@?$vector@Uadmin@Database@@V?$allocator@Uadmin@Database@@@std@@@std@@IBEXPAUadmin@Database@@0@Z ; std::vector<Database::admin,std::allocator<Database::admin> >::_Orphan_range
PUBLIC	??$addressof@$$CBUadmin@Database@@@std@@YAPBUadmin@Database@@ABU12@@Z ; std::addressof<Database::admin const >
PUBLIC	??$forward@AAUadmin@Database@@@std@@YAAAUadmin@Database@@AAU12@@Z ; std::forward<Database::admin &>
PUBLIC	??$construct@AAUadmin@Database@@@?$allocator@Uadmin@Database@@@std@@QAEXPAUadmin@Database@@AAU23@@Z ; std::allocator<Database::admin>::construct<Database::admin &>
PUBLIC	??$_Cons_val@V?$allocator@Uadmin@Database@@@std@@Uadmin@Database@@AAU34@@std@@YAXAAV?$allocator@Uadmin@Database@@@0@PAUadmin@Database@@AAU23@@Z ; std::_Cons_val<std::allocator<Database::admin>,Database::admin,Database::admin &>
PUBLIC	??0admin@Database@@QAE@ABU01@@Z			; Database::admin::admin
PUBLIC	??$_Construct@Uadmin@Database@@ABU12@@std@@YAXPAUadmin@Database@@ABU12@@Z ; std::_Construct<Database::admin,Database::admin const &>
PUBLIC	?construct@?$allocator@Uadmin@Database@@@std@@QAEXPAUadmin@Database@@ABU34@@Z ; std::allocator<Database::admin>::construct
PUBLIC	??$forward@ABUadmin@Database@@@std@@YAABUadmin@Database@@ABU12@@Z ; std::forward<Database::admin const &>
PUBLIC	??$_Cons_val@V?$allocator@Uadmin@Database@@@std@@Uadmin@Database@@ABU34@@std@@YAXAAV?$allocator@Uadmin@Database@@@0@PAUadmin@Database@@ABU23@@Z ; std::_Cons_val<std::allocator<Database::admin>,Database::admin,Database::admin const &>
PUBLIC	?push_back@?$vector@Uadmin@Database@@V?$allocator@Uadmin@Database@@@std@@@std@@QAEXABUadmin@Database@@@Z ; std::vector<Database::admin,std::allocator<Database::admin> >::push_back
PUBLIC	??0ban@Database@@QAE@XZ				; Database::ban::ban
PUBLIC	??0?$allocator@Uban@Database@@@std@@QAE@XZ	; std::allocator<Database::ban>::allocator<Database::ban>
PUBLIC	??0?$vector@Uban@Database@@V?$allocator@Uban@Database@@@std@@@std@@QAE@XZ ; std::vector<Database::ban,std::allocator<Database::ban> >::vector<Database::ban,std::allocator<Database::ban> >
PUBLIC	??0?$_Vector_val@Uban@Database@@V?$allocator@Uban@Database@@@std@@@std@@QAE@V?$allocator@Uban@Database@@@1@@Z ; std::_Vector_val<Database::ban,std::allocator<Database::ban> >::_Vector_val<Database::ban,std::allocator<Database::ban> >
PUBLIC	??$addressof@Uban@Database@@@std@@YAPAUban@Database@@AAU12@@Z ; std::addressof<Database::ban>
PUBLIC	?push_back@?$vector@Uban@Database@@V?$allocator@Uban@Database@@@std@@@std@@QAEX$$QAUban@Database@@@Z ; std::vector<Database::ban,std::allocator<Database::ban> >::push_back
PUBLIC	??0?$allocator@Uban@Database@@@std@@QAE@ABV01@@Z ; std::allocator<Database::ban>::allocator<Database::ban>
PUBLIC	?get_allocator@?$vector@Uban@Database@@V?$allocator@Uban@Database@@@std@@@std@@QBE?AV?$allocator@Uban@Database@@@2@XZ ; std::vector<Database::ban,std::allocator<Database::ban> >::get_allocator
PUBLIC	??$?8Uban@Database@@U01@@std@@YA_NABV?$allocator@Uban@Database@@@0@0@Z ; std::operator==<Database::ban,Database::ban>
PUBLIC	??$?9Uban@Database@@U01@@std@@YA_NABV?$allocator@Uban@Database@@@0@0@Z ; std::operator!=<Database::ban,Database::ban>
PUBLIC	??D?$_Vector_iterator@V?$_Vector_val@Uban@Database@@V?$allocator@Uban@Database@@@std@@@std@@@std@@QBEAAUban@Database@@XZ ; std::_Vector_iterator<std::_Vector_val<Database::ban,std::allocator<Database::ban> > >::operator*
PUBLIC	??E?$_Vector_iterator@V?$_Vector_val@Uban@Database@@V?$allocator@Uban@Database@@@std@@@std@@@std@@QAEAAV01@XZ ; std::_Vector_iterator<std::_Vector_val<Database::ban,std::allocator<Database::ban> > >::operator++
PUBLIC	?_Assign_rv@?$vector@Uban@Database@@V?$allocator@Uban@Database@@@std@@@std@@QAEX$$QAV12@@Z ; std::vector<Database::ban,std::allocator<Database::ban> >::_Assign_rv
PUBLIC	??$forward@V?$vector@Uban@Database@@V?$allocator@Uban@Database@@@std@@@std@@@std@@YA$$QAV?$vector@Uban@Database@@V?$allocator@Uban@Database@@@std@@@0@AAV10@@Z ; std::forward<std::vector<Database::ban,std::allocator<Database::ban> > >
PUBLIC	??0?$vector@Uban@Database@@V?$allocator@Uban@Database@@@std@@@std@@QAE@$$QAV01@@Z ; std::vector<Database::ban,std::allocator<Database::ban> >::vector<Database::ban,std::allocator<Database::ban> >
PUBLIC	?_Inside@?$vector@Uban@Database@@V?$allocator@Uban@Database@@@std@@@std@@IBE_NPBUban@Database@@@Z ; std::vector<Database::ban,std::allocator<Database::ban> >::_Inside
PUBLIC	??$_Allocate@Uban@Database@@@std@@YAPAUban@Database@@IPAU12@@Z ; std::_Allocate<Database::ban>
PUBLIC	?allocate@?$allocator@Uban@Database@@@std@@QAEPAUban@Database@@I@Z ; std::allocator<Database::ban>::allocate
PUBLIC	??$_Val_type@PAUban@Database@@@std@@YAPAUban@Database@@PAU12@@Z ; std::_Val_type<Database::ban *>
PUBLIC	?construct@?$allocator@Uban@Database@@@std@@QAEXPAUban@Database@@$$QAU34@@Z ; std::allocator<Database::ban>::construct
PUBLIC	??$forward@Uban@Database@@@std@@YA$$QAUban@Database@@AAU12@@Z ; std::forward<Database::ban>
PUBLIC	??$_Cons_val@V?$allocator@Uban@Database@@@std@@Uban@Database@@U34@@std@@YAXAAV?$allocator@Uban@Database@@@0@PAUban@Database@@$$QAU23@@Z ; std::_Cons_val<std::allocator<Database::ban>,Database::ban,Database::ban>
PUBLIC	??$_Uninit_move@PAUban@Database@@PAU12@V?$allocator@Uban@Database@@@std@@U12@@std@@YAPAUban@Database@@PAU12@00AAV?$allocator@Uban@Database@@@0@0U_Nonscalar_ptr_iterator_tag@0@@Z ; std::_Uninit_move<Database::ban *,Database::ban *,std::allocator<Database::ban>,Database::ban>
PUBLIC	??$_Uninitialized_move@PAUban@Database@@PAU12@V?$allocator@Uban@Database@@@std@@@std@@YAPAUban@Database@@PAU12@00AAV?$allocator@Uban@Database@@@0@@Z ; std::_Uninitialized_move<Database::ban *,Database::ban *,std::allocator<Database::ban> >
PUBLIC	??$_Umove@PAUban@Database@@@?$vector@Uban@Database@@V?$allocator@Uban@Database@@@std@@@std@@IAEPAUban@Database@@PAU23@00@Z ; std::vector<Database::ban,std::allocator<Database::ban> >::_Umove<Database::ban *>
PUBLIC	?reserve@?$vector@Uban@Database@@V?$allocator@Uban@Database@@@std@@@std@@QAEXI@Z ; std::vector<Database::ban,std::allocator<Database::ban> >::reserve
PUBLIC	?size@?$vector@Uban@Database@@V?$allocator@Uban@Database@@@std@@@std@@QBEIXZ ; std::vector<Database::ban,std::allocator<Database::ban> >::size
PUBLIC	?capacity@?$vector@Uban@Database@@V?$allocator@Uban@Database@@@std@@@std@@QBEIXZ ; std::vector<Database::ban,std::allocator<Database::ban> >::capacity
PUBLIC	?max_size@?$allocator@Uban@Database@@@std@@QBEIXZ ; std::allocator<Database::ban>::max_size
PUBLIC	?max_size@?$vector@Uban@Database@@V?$allocator@Uban@Database@@@std@@@std@@QBEIXZ ; std::vector<Database::ban,std::allocator<Database::ban> >::max_size
PUBLIC	?_Grow_to@?$vector@Uban@Database@@V?$allocator@Uban@Database@@@std@@@std@@IBEII@Z ; std::vector<Database::ban,std::allocator<Database::ban> >::_Grow_to
PUBLIC	?_Xlen@?$vector@Uban@Database@@V?$allocator@Uban@Database@@@std@@@std@@IBEXXZ ; std::vector<Database::ban,std::allocator<Database::ban> >::_Xlen
PUBLIC	?_Reserve@?$vector@Uban@Database@@V?$allocator@Uban@Database@@@std@@@std@@IAEXI@Z ; std::vector<Database::ban,std::allocator<Database::ban> >::_Reserve
PUBLIC	?_Orphan_range@?$vector@Uban@Database@@V?$allocator@Uban@Database@@@std@@@std@@IBEXPAUban@Database@@0@Z ; std::vector<Database::ban,std::allocator<Database::ban> >::_Orphan_range
PUBLIC	??$addressof@$$CBUban@Database@@@std@@YAPBUban@Database@@ABU12@@Z ; std::addressof<Database::ban const >
PUBLIC	??$forward@AAUban@Database@@@std@@YAAAUban@Database@@AAU12@@Z ; std::forward<Database::ban &>
PUBLIC	??$construct@AAUban@Database@@@?$allocator@Uban@Database@@@std@@QAEXPAUban@Database@@AAU23@@Z ; std::allocator<Database::ban>::construct<Database::ban &>
PUBLIC	??$_Cons_val@V?$allocator@Uban@Database@@@std@@Uban@Database@@AAU34@@std@@YAXAAV?$allocator@Uban@Database@@@0@PAUban@Database@@AAU23@@Z ; std::_Cons_val<std::allocator<Database::ban>,Database::ban,Database::ban &>
PUBLIC	??0ban@Database@@QAE@ABU01@@Z			; Database::ban::ban
PUBLIC	??$_Construct@Uban@Database@@ABU12@@std@@YAXPAUban@Database@@ABU12@@Z ; std::_Construct<Database::ban,Database::ban const &>
PUBLIC	?construct@?$allocator@Uban@Database@@@std@@QAEXPAUban@Database@@ABU34@@Z ; std::allocator<Database::ban>::construct
PUBLIC	??$forward@ABUban@Database@@@std@@YAABUban@Database@@ABU12@@Z ; std::forward<Database::ban const &>
PUBLIC	??$_Cons_val@V?$allocator@Uban@Database@@@std@@Uban@Database@@ABU34@@std@@YAXAAV?$allocator@Uban@Database@@@0@PAUban@Database@@ABU23@@Z ; std::_Cons_val<std::allocator<Database::ban>,Database::ban,Database::ban const &>
PUBLIC	?push_back@?$vector@Uban@Database@@V?$allocator@Uban@Database@@@std@@@std@@QAEXABUban@Database@@@Z ; std::vector<Database::ban,std::allocator<Database::ban> >::push_back
PUBLIC	??0struct_log@Database@@QAE@XZ			; Database::struct_log::struct_log
PUBLIC	??0?$allocator@Ustruct_log@Database@@@std@@QAE@XZ ; std::allocator<Database::struct_log>::allocator<Database::struct_log>
PUBLIC	??0?$vector@Ustruct_log@Database@@V?$allocator@Ustruct_log@Database@@@std@@@std@@QAE@XZ ; std::vector<Database::struct_log,std::allocator<Database::struct_log> >::vector<Database::struct_log,std::allocator<Database::struct_log> >
PUBLIC	??0?$_Vector_val@Ustruct_log@Database@@V?$allocator@Ustruct_log@Database@@@std@@@std@@QAE@V?$allocator@Ustruct_log@Database@@@1@@Z ; std::_Vector_val<Database::struct_log,std::allocator<Database::struct_log> >::_Vector_val<Database::struct_log,std::allocator<Database::struct_log> >
PUBLIC	??$addressof@Ustruct_log@Database@@@std@@YAPAUstruct_log@Database@@AAU12@@Z ; std::addressof<Database::struct_log>
PUBLIC	?push_back@?$vector@Ustruct_log@Database@@V?$allocator@Ustruct_log@Database@@@std@@@std@@QAEX$$QAUstruct_log@Database@@@Z ; std::vector<Database::struct_log,std::allocator<Database::struct_log> >::push_back
PUBLIC	??0?$allocator@Ustruct_log@Database@@@std@@QAE@ABV01@@Z ; std::allocator<Database::struct_log>::allocator<Database::struct_log>
PUBLIC	?get_allocator@?$vector@Ustruct_log@Database@@V?$allocator@Ustruct_log@Database@@@std@@@std@@QBE?AV?$allocator@Ustruct_log@Database@@@2@XZ ; std::vector<Database::struct_log,std::allocator<Database::struct_log> >::get_allocator
PUBLIC	??$?8Ustruct_log@Database@@U01@@std@@YA_NABV?$allocator@Ustruct_log@Database@@@0@0@Z ; std::operator==<Database::struct_log,Database::struct_log>
PUBLIC	??$?9Ustruct_log@Database@@U01@@std@@YA_NABV?$allocator@Ustruct_log@Database@@@0@0@Z ; std::operator!=<Database::struct_log,Database::struct_log>
PUBLIC	??D?$_Vector_iterator@V?$_Vector_val@Ustruct_log@Database@@V?$allocator@Ustruct_log@Database@@@std@@@std@@@std@@QBEAAUstruct_log@Database@@XZ ; std::_Vector_iterator<std::_Vector_val<Database::struct_log,std::allocator<Database::struct_log> > >::operator*
PUBLIC	??E?$_Vector_iterator@V?$_Vector_val@Ustruct_log@Database@@V?$allocator@Ustruct_log@Database@@@std@@@std@@@std@@QAEAAV01@XZ ; std::_Vector_iterator<std::_Vector_val<Database::struct_log,std::allocator<Database::struct_log> > >::operator++
PUBLIC	?_Assign_rv@?$vector@Ustruct_log@Database@@V?$allocator@Ustruct_log@Database@@@std@@@std@@QAEX$$QAV12@@Z ; std::vector<Database::struct_log,std::allocator<Database::struct_log> >::_Assign_rv
PUBLIC	??$forward@V?$vector@Ustruct_log@Database@@V?$allocator@Ustruct_log@Database@@@std@@@std@@@std@@YA$$QAV?$vector@Ustruct_log@Database@@V?$allocator@Ustruct_log@Database@@@std@@@0@AAV10@@Z ; std::forward<std::vector<Database::struct_log,std::allocator<Database::struct_log> > >
PUBLIC	??0?$vector@Ustruct_log@Database@@V?$allocator@Ustruct_log@Database@@@std@@@std@@QAE@$$QAV01@@Z ; std::vector<Database::struct_log,std::allocator<Database::struct_log> >::vector<Database::struct_log,std::allocator<Database::struct_log> >
PUBLIC	?_Inside@?$vector@Ustruct_log@Database@@V?$allocator@Ustruct_log@Database@@@std@@@std@@IBE_NPBUstruct_log@Database@@@Z ; std::vector<Database::struct_log,std::allocator<Database::struct_log> >::_Inside
PUBLIC	??$_Allocate@Ustruct_log@Database@@@std@@YAPAUstruct_log@Database@@IPAU12@@Z ; std::_Allocate<Database::struct_log>
PUBLIC	?allocate@?$allocator@Ustruct_log@Database@@@std@@QAEPAUstruct_log@Database@@I@Z ; std::allocator<Database::struct_log>::allocate
PUBLIC	??$_Val_type@PAUstruct_log@Database@@@std@@YAPAUstruct_log@Database@@PAU12@@Z ; std::_Val_type<Database::struct_log *>
PUBLIC	?construct@?$allocator@Ustruct_log@Database@@@std@@QAEXPAUstruct_log@Database@@$$QAU34@@Z ; std::allocator<Database::struct_log>::construct
PUBLIC	??$forward@Ustruct_log@Database@@@std@@YA$$QAUstruct_log@Database@@AAU12@@Z ; std::forward<Database::struct_log>
PUBLIC	??$_Cons_val@V?$allocator@Ustruct_log@Database@@@std@@Ustruct_log@Database@@U34@@std@@YAXAAV?$allocator@Ustruct_log@Database@@@0@PAUstruct_log@Database@@$$QAU23@@Z ; std::_Cons_val<std::allocator<Database::struct_log>,Database::struct_log,Database::struct_log>
PUBLIC	??$_Uninit_move@PAUstruct_log@Database@@PAU12@V?$allocator@Ustruct_log@Database@@@std@@U12@@std@@YAPAUstruct_log@Database@@PAU12@00AAV?$allocator@Ustruct_log@Database@@@0@0U_Nonscalar_ptr_iterator_tag@0@@Z ; std::_Uninit_move<Database::struct_log *,Database::struct_log *,std::allocator<Database::struct_log>,Database::struct_log>
PUBLIC	??$_Uninitialized_move@PAUstruct_log@Database@@PAU12@V?$allocator@Ustruct_log@Database@@@std@@@std@@YAPAUstruct_log@Database@@PAU12@00AAV?$allocator@Ustruct_log@Database@@@0@@Z ; std::_Uninitialized_move<Database::struct_log *,Database::struct_log *,std::allocator<Database::struct_log> >
PUBLIC	??$_Umove@PAUstruct_log@Database@@@?$vector@Ustruct_log@Database@@V?$allocator@Ustruct_log@Database@@@std@@@std@@IAEPAUstruct_log@Database@@PAU23@00@Z ; std::vector<Database::struct_log,std::allocator<Database::struct_log> >::_Umove<Database::struct_log *>
PUBLIC	?reserve@?$vector@Ustruct_log@Database@@V?$allocator@Ustruct_log@Database@@@std@@@std@@QAEXI@Z ; std::vector<Database::struct_log,std::allocator<Database::struct_log> >::reserve
PUBLIC	?size@?$vector@Ustruct_log@Database@@V?$allocator@Ustruct_log@Database@@@std@@@std@@QBEIXZ ; std::vector<Database::struct_log,std::allocator<Database::struct_log> >::size
PUBLIC	?capacity@?$vector@Ustruct_log@Database@@V?$allocator@Ustruct_log@Database@@@std@@@std@@QBEIXZ ; std::vector<Database::struct_log,std::allocator<Database::struct_log> >::capacity
PUBLIC	?max_size@?$allocator@Ustruct_log@Database@@@std@@QBEIXZ ; std::allocator<Database::struct_log>::max_size
PUBLIC	?max_size@?$vector@Ustruct_log@Database@@V?$allocator@Ustruct_log@Database@@@std@@@std@@QBEIXZ ; std::vector<Database::struct_log,std::allocator<Database::struct_log> >::max_size
PUBLIC	?_Grow_to@?$vector@Ustruct_log@Database@@V?$allocator@Ustruct_log@Database@@@std@@@std@@IBEII@Z ; std::vector<Database::struct_log,std::allocator<Database::struct_log> >::_Grow_to
PUBLIC	?_Xlen@?$vector@Ustruct_log@Database@@V?$allocator@Ustruct_log@Database@@@std@@@std@@IBEXXZ ; std::vector<Database::struct_log,std::allocator<Database::struct_log> >::_Xlen
PUBLIC	?_Reserve@?$vector@Ustruct_log@Database@@V?$allocator@Ustruct_log@Database@@@std@@@std@@IAEXI@Z ; std::vector<Database::struct_log,std::allocator<Database::struct_log> >::_Reserve
PUBLIC	?_Orphan_range@?$vector@Ustruct_log@Database@@V?$allocator@Ustruct_log@Database@@@std@@@std@@IBEXPAUstruct_log@Database@@0@Z ; std::vector<Database::struct_log,std::allocator<Database::struct_log> >::_Orphan_range
PUBLIC	??$addressof@$$CBUstruct_log@Database@@@std@@YAPBUstruct_log@Database@@ABU12@@Z ; std::addressof<Database::struct_log const >
PUBLIC	??$forward@AAUstruct_log@Database@@@std@@YAAAUstruct_log@Database@@AAU12@@Z ; std::forward<Database::struct_log &>
PUBLIC	??$construct@AAUstruct_log@Database@@@?$allocator@Ustruct_log@Database@@@std@@QAEXPAUstruct_log@Database@@AAU23@@Z ; std::allocator<Database::struct_log>::construct<Database::struct_log &>
PUBLIC	??$_Cons_val@V?$allocator@Ustruct_log@Database@@@std@@Ustruct_log@Database@@AAU34@@std@@YAXAAV?$allocator@Ustruct_log@Database@@@0@PAUstruct_log@Database@@AAU23@@Z ; std::_Cons_val<std::allocator<Database::struct_log>,Database::struct_log,Database::struct_log &>
PUBLIC	??0struct_log@Database@@QAE@ABU01@@Z		; Database::struct_log::struct_log
PUBLIC	??$_Construct@Ustruct_log@Database@@ABU12@@std@@YAXPAUstruct_log@Database@@ABU12@@Z ; std::_Construct<Database::struct_log,Database::struct_log const &>
PUBLIC	?construct@?$allocator@Ustruct_log@Database@@@std@@QAEXPAUstruct_log@Database@@ABU34@@Z ; std::allocator<Database::struct_log>::construct
PUBLIC	??$forward@ABUstruct_log@Database@@@std@@YAABUstruct_log@Database@@ABU12@@Z ; std::forward<Database::struct_log const &>
PUBLIC	??$_Cons_val@V?$allocator@Ustruct_log@Database@@@std@@Ustruct_log@Database@@ABU34@@std@@YAXAAV?$allocator@Ustruct_log@Database@@@0@PAUstruct_log@Database@@ABU23@@Z ; std::_Cons_val<std::allocator<Database::struct_log>,Database::struct_log,Database::struct_log const &>
PUBLIC	?push_back@?$vector@Ustruct_log@Database@@V?$allocator@Ustruct_log@Database@@@std@@@std@@QAEXABUstruct_log@Database@@@Z ; std::vector<Database::struct_log,std::allocator<Database::struct_log> >::push_back
PUBLIC	??0?$allocator@Umessage@Database@@@std@@QAE@XZ	; std::allocator<Database::message>::allocator<Database::message>
PUBLIC	??0?$vector@Umessage@Database@@V?$allocator@Umessage@Database@@@std@@@std@@QAE@XZ ; std::vector<Database::message,std::allocator<Database::message> >::vector<Database::message,std::allocator<Database::message> >
PUBLIC	??0?$_Vector_val@Umessage@Database@@V?$allocator@Umessage@Database@@@std@@@std@@QAE@V?$allocator@Umessage@Database@@@1@@Z ; std::_Vector_val<Database::message,std::allocator<Database::message> >::_Vector_val<Database::message,std::allocator<Database::message> >
PUBLIC	??$addressof@Umessage@Database@@@std@@YAPAUmessage@Database@@AAU12@@Z ; std::addressof<Database::message>
PUBLIC	?push_back@?$vector@Umessage@Database@@V?$allocator@Umessage@Database@@@std@@@std@@QAEX$$QAUmessage@Database@@@Z ; std::vector<Database::message,std::allocator<Database::message> >::push_back
PUBLIC	??0?$allocator@Umessage@Database@@@std@@QAE@ABV01@@Z ; std::allocator<Database::message>::allocator<Database::message>
PUBLIC	?get_allocator@?$vector@Umessage@Database@@V?$allocator@Umessage@Database@@@std@@@std@@QBE?AV?$allocator@Umessage@Database@@@2@XZ ; std::vector<Database::message,std::allocator<Database::message> >::get_allocator
PUBLIC	??D?$_Vector_iterator@V?$_Vector_val@Umessage@Database@@V?$allocator@Umessage@Database@@@std@@@std@@@std@@QBEAAUmessage@Database@@XZ ; std::_Vector_iterator<std::_Vector_val<Database::message,std::allocator<Database::message> > >::operator*
PUBLIC	??E?$_Vector_iterator@V?$_Vector_val@Umessage@Database@@V?$allocator@Umessage@Database@@@std@@@std@@@std@@QAEAAV01@XZ ; std::_Vector_iterator<std::_Vector_val<Database::message,std::allocator<Database::message> > >::operator++
PUBLIC	??$?8Umessage@Database@@U01@@std@@YA_NABV?$allocator@Umessage@Database@@@0@0@Z ; std::operator==<Database::message,Database::message>
PUBLIC	??$?9Umessage@Database@@U01@@std@@YA_NABV?$allocator@Umessage@Database@@@0@0@Z ; std::operator!=<Database::message,Database::message>
PUBLIC	?_Assign_rv@?$vector@Umessage@Database@@V?$allocator@Umessage@Database@@@std@@@std@@QAEX$$QAV12@@Z ; std::vector<Database::message,std::allocator<Database::message> >::_Assign_rv
PUBLIC	??$forward@V?$vector@Umessage@Database@@V?$allocator@Umessage@Database@@@std@@@std@@@std@@YA$$QAV?$vector@Umessage@Database@@V?$allocator@Umessage@Database@@@std@@@0@AAV10@@Z ; std::forward<std::vector<Database::message,std::allocator<Database::message> > >
PUBLIC	??0?$vector@Umessage@Database@@V?$allocator@Umessage@Database@@@std@@@std@@QAE@$$QAV01@@Z ; std::vector<Database::message,std::allocator<Database::message> >::vector<Database::message,std::allocator<Database::message> >
PUBLIC	?_Inside@?$vector@Umessage@Database@@V?$allocator@Umessage@Database@@@std@@@std@@IBE_NPBUmessage@Database@@@Z ; std::vector<Database::message,std::allocator<Database::message> >::_Inside
PUBLIC	??$_Allocate@Umessage@Database@@@std@@YAPAUmessage@Database@@IPAU12@@Z ; std::_Allocate<Database::message>
PUBLIC	?allocate@?$allocator@Umessage@Database@@@std@@QAEPAUmessage@Database@@I@Z ; std::allocator<Database::message>::allocate
PUBLIC	??$_Val_type@PAUmessage@Database@@@std@@YAPAUmessage@Database@@PAU12@@Z ; std::_Val_type<Database::message *>
PUBLIC	?construct@?$allocator@Umessage@Database@@@std@@QAEXPAUmessage@Database@@$$QAU34@@Z ; std::allocator<Database::message>::construct
PUBLIC	??$forward@Umessage@Database@@@std@@YA$$QAUmessage@Database@@AAU12@@Z ; std::forward<Database::message>
PUBLIC	??$_Cons_val@V?$allocator@Umessage@Database@@@std@@Umessage@Database@@U34@@std@@YAXAAV?$allocator@Umessage@Database@@@0@PAUmessage@Database@@$$QAU23@@Z ; std::_Cons_val<std::allocator<Database::message>,Database::message,Database::message>
PUBLIC	??$_Uninit_move@PAUmessage@Database@@PAU12@V?$allocator@Umessage@Database@@@std@@U12@@std@@YAPAUmessage@Database@@PAU12@00AAV?$allocator@Umessage@Database@@@0@0U_Nonscalar_ptr_iterator_tag@0@@Z ; std::_Uninit_move<Database::message *,Database::message *,std::allocator<Database::message>,Database::message>
PUBLIC	??$_Uninitialized_move@PAUmessage@Database@@PAU12@V?$allocator@Umessage@Database@@@std@@@std@@YAPAUmessage@Database@@PAU12@00AAV?$allocator@Umessage@Database@@@0@@Z ; std::_Uninitialized_move<Database::message *,Database::message *,std::allocator<Database::message> >
PUBLIC	??$_Umove@PAUmessage@Database@@@?$vector@Umessage@Database@@V?$allocator@Umessage@Database@@@std@@@std@@IAEPAUmessage@Database@@PAU23@00@Z ; std::vector<Database::message,std::allocator<Database::message> >::_Umove<Database::message *>
PUBLIC	?reserve@?$vector@Umessage@Database@@V?$allocator@Umessage@Database@@@std@@@std@@QAEXI@Z ; std::vector<Database::message,std::allocator<Database::message> >::reserve
PUBLIC	?capacity@?$vector@Umessage@Database@@V?$allocator@Umessage@Database@@@std@@@std@@QBEIXZ ; std::vector<Database::message,std::allocator<Database::message> >::capacity
PUBLIC	?max_size@?$allocator@Umessage@Database@@@std@@QBEIXZ ; std::allocator<Database::message>::max_size
PUBLIC	?max_size@?$vector@Umessage@Database@@V?$allocator@Umessage@Database@@@std@@@std@@QBEIXZ ; std::vector<Database::message,std::allocator<Database::message> >::max_size
PUBLIC	?_Grow_to@?$vector@Umessage@Database@@V?$allocator@Umessage@Database@@@std@@@std@@IBEII@Z ; std::vector<Database::message,std::allocator<Database::message> >::_Grow_to
PUBLIC	?_Xlen@?$vector@Umessage@Database@@V?$allocator@Umessage@Database@@@std@@@std@@IBEXXZ ; std::vector<Database::message,std::allocator<Database::message> >::_Xlen
PUBLIC	?_Reserve@?$vector@Umessage@Database@@V?$allocator@Umessage@Database@@@std@@@std@@IAEXI@Z ; std::vector<Database::message,std::allocator<Database::message> >::_Reserve
PUBLIC	?_Orphan_range@?$vector@Umessage@Database@@V?$allocator@Umessage@Database@@@std@@@std@@IBEXPAUmessage@Database@@0@Z ; std::vector<Database::message,std::allocator<Database::message> >::_Orphan_range
PUBLIC	??$addressof@$$CBUmessage@Database@@@std@@YAPBUmessage@Database@@ABU12@@Z ; std::addressof<Database::message const >
PUBLIC	??$forward@AAUmessage@Database@@@std@@YAAAUmessage@Database@@AAU12@@Z ; std::forward<Database::message &>
PUBLIC	??$construct@AAUmessage@Database@@@?$allocator@Umessage@Database@@@std@@QAEXPAUmessage@Database@@AAU23@@Z ; std::allocator<Database::message>::construct<Database::message &>
PUBLIC	??$_Cons_val@V?$allocator@Umessage@Database@@@std@@Umessage@Database@@AAU34@@std@@YAXAAV?$allocator@Umessage@Database@@@0@PAUmessage@Database@@AAU23@@Z ; std::_Cons_val<std::allocator<Database::message>,Database::message,Database::message &>
PUBLIC	??$_Construct@Umessage@Database@@ABU12@@std@@YAXPAUmessage@Database@@ABU12@@Z ; std::_Construct<Database::message,Database::message const &>
PUBLIC	?construct@?$allocator@Umessage@Database@@@std@@QAEXPAUmessage@Database@@ABU34@@Z ; std::allocator<Database::message>::construct
PUBLIC	??$forward@ABUmessage@Database@@@std@@YAABUmessage@Database@@ABU12@@Z ; std::forward<Database::message const &>
PUBLIC	??$_Cons_val@V?$allocator@Umessage@Database@@@std@@Umessage@Database@@ABU34@@std@@YAXAAV?$allocator@Umessage@Database@@@0@PAUmessage@Database@@ABU23@@Z ; std::_Cons_val<std::allocator<Database::message>,Database::message,Database::message const &>
PUBLIC	?push_back@?$vector@Umessage@Database@@V?$allocator@Umessage@Database@@@std@@@std@@QAEXABUmessage@Database@@@Z ; std::vector<Database::message,std::allocator<Database::message> >::push_back
PUBLIC	??0message@Database@@QAE@XZ			; Database::message::message
PUBLIC	??0message@Database@@QAE@ABU01@@Z		; Database::message::message
PUBLIC	?size@?$vector@Umessage@Database@@V?$allocator@Umessage@Database@@@std@@@std@@QBEIXZ ; std::vector<Database::message,std::allocator<Database::message> >::size
PUBLIC	??A?$vector@Umessage@Database@@V?$allocator@Umessage@Database@@@std@@@std@@QAEAAUmessage@Database@@I@Z ; std::vector<Database::message,std::allocator<Database::message> >::operator[]
PUBLIC	??0struct_chatresponse@Database@@QAE@XZ		; Database::struct_chatresponse::struct_chatresponse
PUBLIC	??0?$allocator@Ustruct_chatresponse@Database@@@std@@QAE@XZ ; std::allocator<Database::struct_chatresponse>::allocator<Database::struct_chatresponse>
PUBLIC	??0?$vector@Ustruct_chatresponse@Database@@V?$allocator@Ustruct_chatresponse@Database@@@std@@@std@@QAE@XZ ; std::vector<Database::struct_chatresponse,std::allocator<Database::struct_chatresponse> >::vector<Database::struct_chatresponse,std::allocator<Database::struct_chatresponse> >
PUBLIC	??0?$_Vector_val@Ustruct_chatresponse@Database@@V?$allocator@Ustruct_chatresponse@Database@@@std@@@std@@QAE@V?$allocator@Ustruct_chatresponse@Database@@@1@@Z ; std::_Vector_val<Database::struct_chatresponse,std::allocator<Database::struct_chatresponse> >::_Vector_val<Database::struct_chatresponse,std::allocator<Database::struct_chatresponse> >
PUBLIC	??$addressof@Ustruct_chatresponse@Database@@@std@@YAPAUstruct_chatresponse@Database@@AAU12@@Z ; std::addressof<Database::struct_chatresponse>
PUBLIC	?push_back@?$vector@Ustruct_chatresponse@Database@@V?$allocator@Ustruct_chatresponse@Database@@@std@@@std@@QAEX$$QAUstruct_chatresponse@Database@@@Z ; std::vector<Database::struct_chatresponse,std::allocator<Database::struct_chatresponse> >::push_back
PUBLIC	??0?$allocator@Ustruct_chatresponse@Database@@@std@@QAE@ABV01@@Z ; std::allocator<Database::struct_chatresponse>::allocator<Database::struct_chatresponse>
PUBLIC	?get_allocator@?$vector@Ustruct_chatresponse@Database@@V?$allocator@Ustruct_chatresponse@Database@@@std@@@std@@QBE?AV?$allocator@Ustruct_chatresponse@Database@@@2@XZ ; std::vector<Database::struct_chatresponse,std::allocator<Database::struct_chatresponse> >::get_allocator
PUBLIC	??$?8Ustruct_chatresponse@Database@@U01@@std@@YA_NABV?$allocator@Ustruct_chatresponse@Database@@@0@0@Z ; std::operator==<Database::struct_chatresponse,Database::struct_chatresponse>
PUBLIC	??$?9Ustruct_chatresponse@Database@@U01@@std@@YA_NABV?$allocator@Ustruct_chatresponse@Database@@@0@0@Z ; std::operator!=<Database::struct_chatresponse,Database::struct_chatresponse>
PUBLIC	??D?$_Vector_iterator@V?$_Vector_val@Ustruct_chatresponse@Database@@V?$allocator@Ustruct_chatresponse@Database@@@std@@@std@@@std@@QBEAAUstruct_chatresponse@Database@@XZ ; std::_Vector_iterator<std::_Vector_val<Database::struct_chatresponse,std::allocator<Database::struct_chatresponse> > >::operator*
PUBLIC	??E?$_Vector_iterator@V?$_Vector_val@Ustruct_chatresponse@Database@@V?$allocator@Ustruct_chatresponse@Database@@@std@@@std@@@std@@QAEAAV01@XZ ; std::_Vector_iterator<std::_Vector_val<Database::struct_chatresponse,std::allocator<Database::struct_chatresponse> > >::operator++
PUBLIC	?_Assign_rv@?$vector@Ustruct_chatresponse@Database@@V?$allocator@Ustruct_chatresponse@Database@@@std@@@std@@QAEX$$QAV12@@Z ; std::vector<Database::struct_chatresponse,std::allocator<Database::struct_chatresponse> >::_Assign_rv
PUBLIC	??$forward@V?$vector@Ustruct_chatresponse@Database@@V?$allocator@Ustruct_chatresponse@Database@@@std@@@std@@@std@@YA$$QAV?$vector@Ustruct_chatresponse@Database@@V?$allocator@Ustruct_chatresponse@Database@@@std@@@0@AAV10@@Z ; std::forward<std::vector<Database::struct_chatresponse,std::allocator<Database::struct_chatresponse> > >
PUBLIC	??0?$vector@Ustruct_chatresponse@Database@@V?$allocator@Ustruct_chatresponse@Database@@@std@@@std@@QAE@$$QAV01@@Z ; std::vector<Database::struct_chatresponse,std::allocator<Database::struct_chatresponse> >::vector<Database::struct_chatresponse,std::allocator<Database::struct_chatresponse> >
PUBLIC	?_Inside@?$vector@Ustruct_chatresponse@Database@@V?$allocator@Ustruct_chatresponse@Database@@@std@@@std@@IBE_NPBUstruct_chatresponse@Database@@@Z ; std::vector<Database::struct_chatresponse,std::allocator<Database::struct_chatresponse> >::_Inside
PUBLIC	??$_Allocate@Ustruct_chatresponse@Database@@@std@@YAPAUstruct_chatresponse@Database@@IPAU12@@Z ; std::_Allocate<Database::struct_chatresponse>
PUBLIC	?allocate@?$allocator@Ustruct_chatresponse@Database@@@std@@QAEPAUstruct_chatresponse@Database@@I@Z ; std::allocator<Database::struct_chatresponse>::allocate
PUBLIC	??$_Val_type@PAUstruct_chatresponse@Database@@@std@@YAPAUstruct_chatresponse@Database@@PAU12@@Z ; std::_Val_type<Database::struct_chatresponse *>
PUBLIC	?construct@?$allocator@Ustruct_chatresponse@Database@@@std@@QAEXPAUstruct_chatresponse@Database@@$$QAU34@@Z ; std::allocator<Database::struct_chatresponse>::construct
PUBLIC	??$forward@Ustruct_chatresponse@Database@@@std@@YA$$QAUstruct_chatresponse@Database@@AAU12@@Z ; std::forward<Database::struct_chatresponse>
PUBLIC	??$_Cons_val@V?$allocator@Ustruct_chatresponse@Database@@@std@@Ustruct_chatresponse@Database@@U34@@std@@YAXAAV?$allocator@Ustruct_chatresponse@Database@@@0@PAUstruct_chatresponse@Database@@$$QAU23@@Z ; std::_Cons_val<std::allocator<Database::struct_chatresponse>,Database::struct_chatresponse,Database::struct_chatresponse>
PUBLIC	??$_Uninit_move@PAUstruct_chatresponse@Database@@PAU12@V?$allocator@Ustruct_chatresponse@Database@@@std@@U12@@std@@YAPAUstruct_chatresponse@Database@@PAU12@00AAV?$allocator@Ustruct_chatresponse@Database@@@0@0U_Nonscalar_ptr_iterator_tag@0@@Z ; std::_Uninit_move<Database::struct_chatresponse *,Database::struct_chatresponse *,std::allocator<Database::struct_chatresponse>,Database::struct_chatresponse>
PUBLIC	??$_Uninitialized_move@PAUstruct_chatresponse@Database@@PAU12@V?$allocator@Ustruct_chatresponse@Database@@@std@@@std@@YAPAUstruct_chatresponse@Database@@PAU12@00AAV?$allocator@Ustruct_chatresponse@Database@@@0@@Z ; std::_Uninitialized_move<Database::struct_chatresponse *,Database::struct_chatresponse *,std::allocator<Database::struct_chatresponse> >
PUBLIC	??$_Umove@PAUstruct_chatresponse@Database@@@?$vector@Ustruct_chatresponse@Database@@V?$allocator@Ustruct_chatresponse@Database@@@std@@@std@@IAEPAUstruct_chatresponse@Database@@PAU23@00@Z ; std::vector<Database::struct_chatresponse,std::allocator<Database::struct_chatresponse> >::_Umove<Database::struct_chatresponse *>
PUBLIC	?reserve@?$vector@Ustruct_chatresponse@Database@@V?$allocator@Ustruct_chatresponse@Database@@@std@@@std@@QAEXI@Z ; std::vector<Database::struct_chatresponse,std::allocator<Database::struct_chatresponse> >::reserve
PUBLIC	?size@?$vector@Ustruct_chatresponse@Database@@V?$allocator@Ustruct_chatresponse@Database@@@std@@@std@@QBEIXZ ; std::vector<Database::struct_chatresponse,std::allocator<Database::struct_chatresponse> >::size
PUBLIC	?capacity@?$vector@Ustruct_chatresponse@Database@@V?$allocator@Ustruct_chatresponse@Database@@@std@@@std@@QBEIXZ ; std::vector<Database::struct_chatresponse,std::allocator<Database::struct_chatresponse> >::capacity
PUBLIC	?max_size@?$allocator@Ustruct_chatresponse@Database@@@std@@QBEIXZ ; std::allocator<Database::struct_chatresponse>::max_size
PUBLIC	?max_size@?$vector@Ustruct_chatresponse@Database@@V?$allocator@Ustruct_chatresponse@Database@@@std@@@std@@QBEIXZ ; std::vector<Database::struct_chatresponse,std::allocator<Database::struct_chatresponse> >::max_size
PUBLIC	?_Grow_to@?$vector@Ustruct_chatresponse@Database@@V?$allocator@Ustruct_chatresponse@Database@@@std@@@std@@IBEII@Z ; std::vector<Database::struct_chatresponse,std::allocator<Database::struct_chatresponse> >::_Grow_to
PUBLIC	?_Xlen@?$vector@Ustruct_chatresponse@Database@@V?$allocator@Ustruct_chatresponse@Database@@@std@@@std@@IBEXXZ ; std::vector<Database::struct_chatresponse,std::allocator<Database::struct_chatresponse> >::_Xlen
PUBLIC	?_Reserve@?$vector@Ustruct_chatresponse@Database@@V?$allocator@Ustruct_chatresponse@Database@@@std@@@std@@IAEXI@Z ; std::vector<Database::struct_chatresponse,std::allocator<Database::struct_chatresponse> >::_Reserve
PUBLIC	?_Orphan_range@?$vector@Ustruct_chatresponse@Database@@V?$allocator@Ustruct_chatresponse@Database@@@std@@@std@@IBEXPAUstruct_chatresponse@Database@@0@Z ; std::vector<Database::struct_chatresponse,std::allocator<Database::struct_chatresponse> >::_Orphan_range
PUBLIC	??$addressof@$$CBUstruct_chatresponse@Database@@@std@@YAPBUstruct_chatresponse@Database@@ABU12@@Z ; std::addressof<Database::struct_chatresponse const >
PUBLIC	??$forward@AAUstruct_chatresponse@Database@@@std@@YAAAUstruct_chatresponse@Database@@AAU12@@Z ; std::forward<Database::struct_chatresponse &>
PUBLIC	??$construct@AAUstruct_chatresponse@Database@@@?$allocator@Ustruct_chatresponse@Database@@@std@@QAEXPAUstruct_chatresponse@Database@@AAU23@@Z ; std::allocator<Database::struct_chatresponse>::construct<Database::struct_chatresponse &>
PUBLIC	??$_Cons_val@V?$allocator@Ustruct_chatresponse@Database@@@std@@Ustruct_chatresponse@Database@@AAU34@@std@@YAXAAV?$allocator@Ustruct_chatresponse@Database@@@0@PAUstruct_chatresponse@Database@@AAU23@@Z ; std::_Cons_val<std::allocator<Database::struct_chatresponse>,Database::struct_chatresponse,Database::struct_chatresponse &>
PUBLIC	??0struct_chatresponse@Database@@QAE@ABU01@@Z	; Database::struct_chatresponse::struct_chatresponse
PUBLIC	??$_Construct@Ustruct_chatresponse@Database@@ABU12@@std@@YAXPAUstruct_chatresponse@Database@@ABU12@@Z ; std::_Construct<Database::struct_chatresponse,Database::struct_chatresponse const &>
PUBLIC	?construct@?$allocator@Ustruct_chatresponse@Database@@@std@@QAEXPAUstruct_chatresponse@Database@@ABU34@@Z ; std::allocator<Database::struct_chatresponse>::construct
PUBLIC	??$forward@ABUstruct_chatresponse@Database@@@std@@YAABUstruct_chatresponse@Database@@ABU12@@Z ; std::forward<Database::struct_chatresponse const &>
PUBLIC	??$_Cons_val@V?$allocator@Ustruct_chatresponse@Database@@@std@@Ustruct_chatresponse@Database@@ABU34@@std@@YAXAAV?$allocator@Ustruct_chatresponse@Database@@@0@PAUstruct_chatresponse@Database@@ABU23@@Z ; std::_Cons_val<std::allocator<Database::struct_chatresponse>,Database::struct_chatresponse,Database::struct_chatresponse const &>
PUBLIC	?push_back@?$vector@Ustruct_chatresponse@Database@@V?$allocator@Ustruct_chatresponse@Database@@@std@@@std@@QAEXABUstruct_chatresponse@Database@@@Z ; std::vector<Database::struct_chatresponse,std::allocator<Database::struct_chatresponse> >::push_back
PUBLIC	?_Xran@?$vector@V?$basic_string@DU?$char_traits@D@std@@V?$allocator@D@2@@std@@V?$allocator@V?$basic_string@DU?$char_traits@D@std@@V?$allocator@D@2@@std@@@2@@std@@IBEXXZ ; std::vector<std::basic_string<char,std::char_traits<char>,std::allocator<char> >,std::allocator<std::basic_string<char,std::char_traits<char>,std::allocator<char> > > >::_Xran
PUBLIC	?at@?$vector@V?$basic_string@DU?$char_traits@D@std@@V?$allocator@D@2@@std@@V?$allocator@V?$basic_string@DU?$char_traits@D@std@@V?$allocator@D@2@@std@@@2@@std@@QAEAAV?$basic_string@DU?$char_traits@D@std@@V?$allocator@D@2@@2@I@Z ; std::vector<std::basic_string<char,std::char_traits<char>,std::allocator<char> >,std::allocator<std::basic_string<char,std::char_traits<char>,std::allocator<char> > > >::at
PUBLIC	??0struct_settings@Database@@QAE@XZ		; Database::struct_settings::struct_settings
PUBLIC	??1?$_Vector_val@V?$vector@V?$basic_string@DU?$char_traits@D@std@@V?$allocator@D@2@@std@@V?$allocator@V?$basic_string@DU?$char_traits@D@std@@V?$allocator@D@2@@std@@@2@@std@@V?$allocator@V?$vector@V?$basic_string@DU?$char_traits@D@std@@V?$allocator@D@2@@std@@V?$allocator@V?$basic_string@DU?$char_traits@D@std@@V?$allocator@D@2@@std@@@2@@std@@@2@@std@@QAE@XZ ; std::_Vector_val<std::vector<std::basic_string<char,std::char_traits<char>,std::allocator<char> >,std::allocator<std::basic_string<char,std::char_traits<char>,std::allocator<char> > > >,std::allocator<std::vector<std::basic_string<char,std::char_traits<char>,std::allocator<char> >,std::allocator<std::basic_string<char,std::char_traits<char>,std::allocator<char> > > > > >::~_Vector_val<std::vector<std::basic_string<char,std::char_traits<char>,std::allocator<char> >,std::allocator<std::basic_string<char,std::char_traits<char>,std::allocator<char> > > >,std::allocator<std::vector<std::basic_string<char,std::char_traits<char>,std::allocator<char> >,std::allocator<std::basic_string<char,std::char_traits<char>,std::allocator<char> > > > > >
PUBLIC	?deallocate@?$allocator@V?$vector@V?$basic_string@DU?$char_traits@D@std@@V?$allocator@D@2@@std@@V?$allocator@V?$basic_string@DU?$char_traits@D@std@@V?$allocator@D@2@@std@@@2@@std@@@std@@QAEXPAV?$vector@V?$basic_string@DU?$char_traits@D@std@@V?$allocator@D@2@@std@@V?$allocator@V?$basic_string@DU?$char_traits@D@std@@V?$allocator@D@2@@std@@@2@@2@I@Z ; std::allocator<std::vector<std::basic_string<char,std::char_traits<char>,std::allocator<char> >,std::allocator<std::basic_string<char,std::char_traits<char>,std::allocator<char> > > > >::deallocate
PUBLIC	??$_Ptr_cat@V?$vector@V?$basic_string@DU?$char_traits@D@std@@V?$allocator@D@2@@std@@V?$allocator@V?$basic_string@DU?$char_traits@D@std@@V?$allocator@D@2@@std@@@2@@std@@V12@@std@@YA?AU_Nonscalar_ptr_iterator_tag@0@PAV?$vector@V?$basic_string@DU?$char_traits@D@std@@V?$allocator@D@2@@std@@V?$allocator@V?$basic_string@DU?$char_traits@D@std@@V?$allocator@D@2@@std@@@2@@0@0@Z ; std::_Ptr_cat<std::vector<std::basic_string<char,std::char_traits<char>,std::allocator<char> >,std::allocator<std::basic_string<char,std::char_traits<char>,std::allocator<char> > > >,std::vector<std::basic_string<char,std::char_traits<char>,std::allocator<char> >,std::allocator<std::basic_string<char,std::char_traits<char>,std::allocator<char> > > > >
PUBLIC	??_G?$vector@V?$basic_string@DU?$char_traits@D@std@@V?$allocator@D@2@@std@@V?$allocator@V?$basic_string@DU?$char_traits@D@std@@V?$allocator@D@2@@std@@@2@@std@@QAEPAXI@Z ; std::vector<std::basic_string<char,std::char_traits<char>,std::allocator<char> >,std::allocator<std::basic_string<char,std::char_traits<char>,std::allocator<char> > > >::`scalar deleting destructor'
PUBLIC	??$_Destroy@V?$vector@V?$basic_string@DU?$char_traits@D@std@@V?$allocator@D@2@@std@@V?$allocator@V?$basic_string@DU?$char_traits@D@std@@V?$allocator@D@2@@std@@@2@@std@@@std@@YAXPAV?$vector@V?$basic_string@DU?$char_traits@D@std@@V?$allocator@D@2@@std@@V?$allocator@V?$basic_string@DU?$char_traits@D@std@@V?$allocator@D@2@@std@@@2@@0@@Z ; std::_Destroy<std::vector<std::basic_string<char,std::char_traits<char>,std::allocator<char> >,std::allocator<std::basic_string<char,std::char_traits<char>,std::allocator<char> > > > >
PUBLIC	?destroy@?$allocator@V?$vector@V?$basic_string@DU?$char_traits@D@std@@V?$allocator@D@2@@std@@V?$allocator@V?$basic_string@DU?$char_traits@D@std@@V?$allocator@D@2@@std@@@2@@std@@@std@@QAEXPAV?$vector@V?$basic_string@DU?$char_traits@D@std@@V?$allocator@D@2@@std@@V?$allocator@V?$basic_string@DU?$char_traits@D@std@@V?$allocator@D@2@@std@@@2@@2@@Z ; std::allocator<std::vector<std::basic_string<char,std::char_traits<char>,std::allocator<char> >,std::allocator<std::basic_string<char,std::char_traits<char>,std::allocator<char> > > > >::destroy
PUBLIC	??$_Dest_val@V?$allocator@V?$vector@V?$basic_string@DU?$char_traits@D@std@@V?$allocator@D@2@@std@@V?$allocator@V?$basic_string@DU?$char_traits@D@std@@V?$allocator@D@2@@std@@@2@@std@@@std@@V?$vector@V?$basic_string@DU?$char_traits@D@std@@V?$allocator@D@2@@std@@V?$allocator@V?$basic_string@DU?$char_traits@D@std@@V?$allocator@D@2@@std@@@2@@2@@std@@YAXAAV?$allocator@V?$vector@V?$basic_string@DU?$char_traits@D@std@@V?$allocator@D@2@@std@@V?$allocator@V?$basic_string@DU?$char_traits@D@std@@V?$allocator@D@2@@std@@@2@@std@@@0@PAV?$vector@V?$basic_string@DU?$char_traits@D@std@@V?$allocator@D@2@@std@@V?$allocator@V?$basic_string@DU?$char_traits@D@std@@V?$allocator@D@2@@std@@@2@@0@@Z ; std::_Dest_val<std::allocator<std::vector<std::basic_string<char,std::char_traits<char>,std::allocator<char> >,std::allocator<std::basic_string<char,std::char_traits<char>,std::allocator<char> > > > >,std::vector<std::basic_string<char,std::char_traits<char>,std::allocator<char> >,std::allocator<std::basic_string<char,std::char_traits<char>,std::allocator<char> > > > >
PUBLIC	??$_Destroy_range@V?$allocator@V?$vector@V?$basic_string@DU?$char_traits@D@std@@V?$allocator@D@2@@std@@V?$allocator@V?$basic_string@DU?$char_traits@D@std@@V?$allocator@D@2@@std@@@2@@std@@@std@@@std@@YAXPAV?$vector@V?$basic_string@DU?$char_traits@D@std@@V?$allocator@D@2@@std@@V?$allocator@V?$basic_string@DU?$char_traits@D@std@@V?$allocator@D@2@@std@@@2@@0@0AAV?$allocator@V?$vector@V?$basic_string@DU?$char_traits@D@std@@V?$allocator@D@2@@std@@V?$allocator@V?$basic_string@DU?$char_traits@D@std@@V?$allocator@D@2@@std@@@2@@std@@@0@U_Nonscalar_ptr_iterator_tag@0@@Z ; std::_Destroy_range<std::allocator<std::vector<std::basic_string<char,std::char_traits<char>,std::allocator<char> >,std::allocator<std::basic_string<char,std::char_traits<char>,std::allocator<char> > > > > >
PUBLIC	??$_Destroy_range@V?$allocator@V?$vector@V?$basic_string@DU?$char_traits@D@std@@V?$allocator@D@2@@std@@V?$allocator@V?$basic_string@DU?$char_traits@D@std@@V?$allocator@D@2@@std@@@2@@std@@@std@@@std@@YAXPAV?$vector@V?$basic_string@DU?$char_traits@D@std@@V?$allocator@D@2@@std@@V?$allocator@V?$basic_string@DU?$char_traits@D@std@@V?$allocator@D@2@@std@@@2@@0@0AAV?$allocator@V?$vector@V?$basic_string@DU?$char_traits@D@std@@V?$allocator@D@2@@std@@V?$allocator@V?$basic_string@DU?$char_traits@D@std@@V?$allocator@D@2@@std@@@2@@std@@@0@@Z ; std::_Destroy_range<std::allocator<std::vector<std::basic_string<char,std::char_traits<char>,std::allocator<char> >,std::allocator<std::basic_string<char,std::char_traits<char>,std::allocator<char> > > > > >
PUBLIC	?_Destroy@?$vector@V?$vector@V?$basic_string@DU?$char_traits@D@std@@V?$allocator@D@2@@std@@V?$allocator@V?$basic_string@DU?$char_traits@D@std@@V?$allocator@D@2@@std@@@2@@std@@V?$allocator@V?$vector@V?$basic_string@DU?$char_traits@D@std@@V?$allocator@D@2@@std@@V?$allocator@V?$basic_string@DU?$char_traits@D@std@@V?$allocator@D@2@@std@@@2@@std@@@2@@std@@IAEXPAV?$vector@V?$basic_string@DU?$char_traits@D@std@@V?$allocator@D@2@@std@@V?$allocator@V?$basic_string@DU?$char_traits@D@std@@V?$allocator@D@2@@std@@@2@@2@0@Z ; std::vector<std::vector<std::basic_string<char,std::char_traits<char>,std::allocator<char> >,std::allocator<std::basic_string<char,std::char_traits<char>,std::allocator<char> > > >,std::allocator<std::vector<std::basic_string<char,std::char_traits<char>,std::allocator<char> >,std::allocator<std::basic_string<char,std::char_traits<char>,std::allocator<char> > > > > >::_Destroy
PUBLIC	?_Tidy@?$vector@V?$vector@V?$basic_string@DU?$char_traits@D@std@@V?$allocator@D@2@@std@@V?$allocator@V?$basic_string@DU?$char_traits@D@std@@V?$allocator@D@2@@std@@@2@@std@@V?$allocator@V?$vector@V?$basic_string@DU?$char_traits@D@std@@V?$allocator@D@2@@std@@V?$allocator@V?$basic_string@DU?$char_traits@D@std@@V?$allocator@D@2@@std@@@2@@std@@@2@@std@@IAEXXZ ; std::vector<std::vector<std::basic_string<char,std::char_traits<char>,std::allocator<char> >,std::allocator<std::basic_string<char,std::char_traits<char>,std::allocator<char> > > >,std::allocator<std::vector<std::basic_string<char,std::char_traits<char>,std::allocator<char> >,std::allocator<std::basic_string<char,std::char_traits<char>,std::allocator<char> > > > > >::_Tidy
PUBLIC	??1?$vector@V?$vector@V?$basic_string@DU?$char_traits@D@std@@V?$allocator@D@2@@std@@V?$allocator@V?$basic_string@DU?$char_traits@D@std@@V?$allocator@D@2@@std@@@2@@std@@V?$allocator@V?$vector@V?$basic_string@DU?$char_traits@D@std@@V?$allocator@D@2@@std@@V?$allocator@V?$basic_string@DU?$char_traits@D@std@@V?$allocator@D@2@@std@@@2@@std@@@2@@std@@QAE@XZ ; std::vector<std::vector<std::basic_string<char,std::char_traits<char>,std::allocator<char> >,std::allocator<std::basic_string<char,std::char_traits<char>,std::allocator<char> > > >,std::allocator<std::vector<std::basic_string<char,std::char_traits<char>,std::allocator<char> >,std::allocator<std::basic_string<char,std::char_traits<char>,std::allocator<char> > > > > >::~vector<std::vector<std::basic_string<char,std::char_traits<char>,std::allocator<char> >,std::allocator<std::basic_string<char,std::char_traits<char>,std::allocator<char> > > >,std::allocator<std::vector<std::basic_string<char,std::char_traits<char>,std::allocator<char> >,std::allocator<std::basic_string<char,std::char_traits<char>,std::allocator<char> > > > > >
PUBLIC	?begin@?$vector@V?$vector@V?$basic_string@DU?$char_traits@D@std@@V?$allocator@D@2@@std@@V?$allocator@V?$basic_string@DU?$char_traits@D@std@@V?$allocator@D@2@@std@@@2@@std@@V?$allocator@V?$vector@V?$basic_string@DU?$char_traits@D@std@@V?$allocator@D@2@@std@@V?$allocator@V?$basic_string@DU?$char_traits@D@std@@V?$allocator@D@2@@std@@@2@@std@@@2@@std@@QAE?AV?$_Vector_iterator@V?$_Vector_val@V?$vector@V?$basic_string@DU?$char_traits@D@std@@V?$allocator@D@2@@std@@V?$allocator@V?$basic_string@DU?$char_traits@D@std@@V?$allocator@D@2@@std@@@2@@std@@V?$allocator@V?$vector@V?$basic_string@DU?$char_traits@D@std@@V?$allocator@D@2@@std@@V?$allocator@V?$basic_string@DU?$char_traits@D@std@@V?$allocator@D@2@@std@@@2@@std@@@2@@std@@@2@XZ ; std::vector<std::vector<std::basic_string<char,std::char_traits<char>,std::allocator<char> >,std::allocator<std::basic_string<char,std::char_traits<char>,std::allocator<char> > > >,std::allocator<std::vector<std::basic_string<char,std::char_traits<char>,std::allocator<char> >,std::allocator<std::basic_string<char,std::char_traits<char>,std::allocator<char> > > > > >::begin
PUBLIC	??0?$_Vector_const_iterator@V?$_Vector_val@V?$vector@V?$basic_string@DU?$char_traits@D@std@@V?$allocator@D@2@@std@@V?$allocator@V?$basic_string@DU?$char_traits@D@std@@V?$allocator@D@2@@std@@@2@@std@@V?$allocator@V?$vector@V?$basic_string@DU?$char_traits@D@std@@V?$allocator@D@2@@std@@V?$allocator@V?$basic_string@DU?$char_traits@D@std@@V?$allocator@D@2@@std@@@2@@std@@@2@@std@@@std@@QAE@PAV?$vector@V?$basic_string@DU?$char_traits@D@std@@V?$allocator@D@2@@std@@V?$allocator@V?$basic_string@DU?$char_traits@D@std@@V?$allocator@D@2@@std@@@2@@1@PBU_Container_base0@1@@Z ; std::_Vector_const_iterator<std::_Vector_val<std::vector<std::basic_string<char,std::char_traits<char>,std::allocator<char> >,std::allocator<std::basic_string<char,std::char_traits<char>,std::allocator<char> > > >,std::allocator<std::vector<std::basic_string<char,std::char_traits<char>,std::allocator<char> >,std::allocator<std::basic_string<char,std::char_traits<char>,std::allocator<char> > > > > > >::_Vector_const_iterator<std::_Vector_val<std::vector<std::basic_string<char,std::char_traits<char>,std::allocator<char> >,std::allocator<std::basic_string<char,std::char_traits<char>,std::allocator<char> > > >,std::allocator<std::vector<std::basic_string<char,std::char_traits<char>,std::allocator<char> >,std::allocator<std::basic_string<char,std::char_traits<char>,std::allocator<char> > > > > > >
PUBLIC	??0?$_Vector_iterator@V?$_Vector_val@V?$vector@V?$basic_string@DU?$char_traits@D@std@@V?$allocator@D@2@@std@@V?$allocator@V?$basic_string@DU?$char_traits@D@std@@V?$allocator@D@2@@std@@@2@@std@@V?$allocator@V?$vector@V?$basic_string@DU?$char_traits@D@std@@V?$allocator@D@2@@std@@V?$allocator@V?$basic_string@DU?$char_traits@D@std@@V?$allocator@D@2@@std@@@2@@std@@@2@@std@@@std@@QAE@PAV?$vector@V?$basic_string@DU?$char_traits@D@std@@V?$allocator@D@2@@std@@V?$allocator@V?$basic_string@DU?$char_traits@D@std@@V?$allocator@D@2@@std@@@2@@1@PBU_Container_base0@1@@Z ; std::_Vector_iterator<std::_Vector_val<std::vector<std::basic_string<char,std::char_traits<char>,std::allocator<char> >,std::allocator<std::basic_string<char,std::char_traits<char>,std::allocator<char> > > >,std::allocator<std::vector<std::basic_string<char,std::char_traits<char>,std::allocator<char> >,std::allocator<std::basic_string<char,std::char_traits<char>,std::allocator<char> > > > > > >::_Vector_iterator<std::_Vector_val<std::vector<std::basic_string<char,std::char_traits<char>,std::allocator<char> >,std::allocator<std::basic_string<char,std::char_traits<char>,std::allocator<char> > > >,std::allocator<std::vector<std::basic_string<char,std::char_traits<char>,std::allocator<char> >,std::allocator<std::basic_string<char,std::char_traits<char>,std::allocator<char> > > > > > >
PUBLIC	?end@?$vector@V?$vector@V?$basic_string@DU?$char_traits@D@std@@V?$allocator@D@2@@std@@V?$allocator@V?$basic_string@DU?$char_traits@D@std@@V?$allocator@D@2@@std@@@2@@std@@V?$allocator@V?$vector@V?$basic_string@DU?$char_traits@D@std@@V?$allocator@D@2@@std@@V?$allocator@V?$basic_string@DU?$char_traits@D@std@@V?$allocator@D@2@@std@@@2@@std@@@2@@std@@QAE?AV?$_Vector_iterator@V?$_Vector_val@V?$vector@V?$basic_string@DU?$char_traits@D@std@@V?$allocator@D@2@@std@@V?$allocator@V?$basic_string@DU?$char_traits@D@std@@V?$allocator@D@2@@std@@@2@@std@@V?$allocator@V?$vector@V?$basic_string@DU?$char_traits@D@std@@V?$allocator@D@2@@std@@V?$allocator@V?$basic_string@DU?$char_traits@D@std@@V?$allocator@D@2@@std@@@2@@std@@@2@@std@@@2@XZ ; std::vector<std::vector<std::basic_string<char,std::char_traits<char>,std::allocator<char> >,std::allocator<std::basic_string<char,std::char_traits<char>,std::allocator<char> > > >,std::allocator<std::vector<std::basic_string<char,std::char_traits<char>,std::allocator<char> >,std::allocator<std::basic_string<char,std::char_traits<char>,std::allocator<char> > > > > >::end
PUBLIC	?_Compat@?$_Vector_const_iterator@V?$_Vector_val@V?$vector@V?$basic_string@DU?$char_traits@D@std@@V?$allocator@D@2@@std@@V?$allocator@V?$basic_string@DU?$char_traits@D@std@@V?$allocator@D@2@@std@@@2@@std@@V?$allocator@V?$vector@V?$basic_string@DU?$char_traits@D@std@@V?$allocator@D@2@@std@@V?$allocator@V?$basic_string@DU?$char_traits@D@std@@V?$allocator@D@2@@std@@@2@@std@@@2@@std@@@std@@QBEXABV12@@Z ; std::_Vector_const_iterator<std::_Vector_val<std::vector<std::basic_string<char,std::char_traits<char>,std::allocator<char> >,std::allocator<std::basic_string<char,std::char_traits<char>,std::allocator<char> > > >,std::allocator<std::vector<std::basic_string<char,std::char_traits<char>,std::allocator<char> >,std::allocator<std::basic_string<char,std::char_traits<char>,std::allocator<char> > > > > > >::_Compat
PUBLIC	??M?$_Vector_const_iterator@V?$_Vector_val@V?$vector@V?$basic_string@DU?$char_traits@D@std@@V?$allocator@D@2@@std@@V?$allocator@V?$basic_string@DU?$char_traits@D@std@@V?$allocator@D@2@@std@@@2@@std@@V?$allocator@V?$vector@V?$basic_string@DU?$char_traits@D@std@@V?$allocator@D@2@@std@@V?$allocator@V?$basic_string@DU?$char_traits@D@std@@V?$allocator@D@2@@std@@@2@@std@@@2@@std@@@std@@QBE_NABV01@@Z ; std::_Vector_const_iterator<std::_Vector_val<std::vector<std::basic_string<char,std::char_traits<char>,std::allocator<char> >,std::allocator<std::basic_string<char,std::char_traits<char>,std::allocator<char> > > >,std::allocator<std::vector<std::basic_string<char,std::char_traits<char>,std::allocator<char> >,std::allocator<std::basic_string<char,std::char_traits<char>,std::allocator<char> > > > > > >::operator<
PUBLIC	??D?$_Vector_const_iterator@V?$_Vector_val@V?$vector@V?$basic_string@DU?$char_traits@D@std@@V?$allocator@D@2@@std@@V?$allocator@V?$basic_string@DU?$char_traits@D@std@@V?$allocator@D@2@@std@@@2@@std@@V?$allocator@V?$vector@V?$basic_string@DU?$char_traits@D@std@@V?$allocator@D@2@@std@@V?$allocator@V?$basic_string@DU?$char_traits@D@std@@V?$allocator@D@2@@std@@@2@@std@@@2@@std@@@std@@QBEABV?$vector@V?$basic_string@DU?$char_traits@D@std@@V?$allocator@D@2@@std@@V?$allocator@V?$basic_string@DU?$char_traits@D@std@@V?$allocator@D@2@@std@@@2@@1@XZ ; std::_Vector_const_iterator<std::_Vector_val<std::vector<std::basic_string<char,std::char_traits<char>,std::allocator<char> >,std::allocator<std::basic_string<char,std::char_traits<char>,std::allocator<char> > > >,std::allocator<std::vector<std::basic_string<char,std::char_traits<char>,std::allocator<char> >,std::allocator<std::basic_string<char,std::char_traits<char>,std::allocator<char> > > > > > >::operator*
PUBLIC	??D?$_Vector_iterator@V?$_Vector_val@V?$vector@V?$basic_string@DU?$char_traits@D@std@@V?$allocator@D@2@@std@@V?$allocator@V?$basic_string@DU?$char_traits@D@std@@V?$allocator@D@2@@std@@@2@@std@@V?$allocator@V?$vector@V?$basic_string@DU?$char_traits@D@std@@V?$allocator@D@2@@std@@V?$allocator@V?$basic_string@DU?$char_traits@D@std@@V?$allocator@D@2@@std@@@2@@std@@@2@@std@@@std@@QBEAAV?$vector@V?$basic_string@DU?$char_traits@D@std@@V?$allocator@D@2@@std@@V?$allocator@V?$basic_string@DU?$char_traits@D@std@@V?$allocator@D@2@@std@@@2@@1@XZ ; std::_Vector_iterator<std::_Vector_val<std::vector<std::basic_string<char,std::char_traits<char>,std::allocator<char> >,std::allocator<std::basic_string<char,std::char_traits<char>,std::allocator<char> > > >,std::allocator<std::vector<std::basic_string<char,std::char_traits<char>,std::allocator<char> >,std::allocator<std::basic_string<char,std::char_traits<char>,std::allocator<char> > > > > > >::operator*
PUBLIC	??E?$_Vector_const_iterator@V?$_Vector_val@V?$vector@V?$basic_string@DU?$char_traits@D@std@@V?$allocator@D@2@@std@@V?$allocator@V?$basic_string@DU?$char_traits@D@std@@V?$allocator@D@2@@std@@@2@@std@@V?$allocator@V?$vector@V?$basic_string@DU?$char_traits@D@std@@V?$allocator@D@2@@std@@V?$allocator@V?$basic_string@DU?$char_traits@D@std@@V?$allocator@D@2@@std@@@2@@std@@@2@@std@@@std@@QAEAAV01@XZ ; std::_Vector_const_iterator<std::_Vector_val<std::vector<std::basic_string<char,std::char_traits<char>,std::allocator<char> >,std::allocator<std::basic_string<char,std::char_traits<char>,std::allocator<char> > > >,std::allocator<std::vector<std::basic_string<char,std::char_traits<char>,std::allocator<char> >,std::allocator<std::basic_string<char,std::char_traits<char>,std::allocator<char> > > > > > >::operator++
PUBLIC	??E?$_Vector_iterator@V?$_Vector_val@V?$vector@V?$basic_string@DU?$char_traits@D@std@@V?$allocator@D@2@@std@@V?$allocator@V?$basic_string@DU?$char_traits@D@std@@V?$allocator@D@2@@std@@@2@@std@@V?$allocator@V?$vector@V?$basic_string@DU?$char_traits@D@std@@V?$allocator@D@2@@std@@V?$allocator@V?$basic_string@DU?$char_traits@D@std@@V?$allocator@D@2@@std@@@2@@std@@@2@@std@@@std@@QAEAAV01@XZ ; std::_Vector_iterator<std::_Vector_val<std::vector<std::basic_string<char,std::char_traits<char>,std::allocator<char> >,std::allocator<std::basic_string<char,std::char_traits<char>,std::allocator<char> > > >,std::allocator<std::vector<std::basic_string<char,std::char_traits<char>,std::allocator<char> >,std::allocator<std::basic_string<char,std::char_traits<char>,std::allocator<char> > > > > > >::operator++
PUBLIC	??_R0PAD@8					; char * `RTTI Type Descriptor'
PUBLIC	??_R0PAX@8					; void * `RTTI Type Descriptor'
PUBLIC	__CT??_R0PAD@84
PUBLIC	__CT??_R0PAX@84
PUBLIC	__CTA2PAD
PUBLIC	__TI2CPAD
PUBLIC	__TI2PAD
PUBLIC	??_C@_0BM@NMJKDPPO@invalid?5vector?$DMT?$DO?5subscript?$AA@ ; `string'
;	COMDAT ??_C@_0BM@NMJKDPPO@invalid?5vector?$DMT?$DO?5subscript?$AA@
CONST	SEGMENT
??_C@_0BM@NMJKDPPO@invalid?5vector?$DMT?$DO?5subscript?$AA@ DB 'invalid v'
	DB	'ector<T> subscript', 00H			; `string'
CONST	ENDS
;	COMDAT __TI2PAD
xdata$x	SEGMENT
__TI2PAD DD	00H
	DD	00H
	DD	00H
	DD	FLAT:__CTA2PAD
xdata$x	ENDS
;	COMDAT __TI2CPAD
xdata$x	SEGMENT
__TI2CPAD DD	01H
	DD	00H
	DD	00H
	DD	FLAT:__CTA2PAD
xdata$x	ENDS
;	COMDAT __CTA2PAD
xdata$x	SEGMENT
__CTA2PAD DD	02H
	DD	FLAT:__CT??_R0PAD@84
	DD	FLAT:__CT??_R0PAX@84
xdata$x	ENDS
;	COMDAT __CT??_R0PAX@84
xdata$x	SEGMENT
__CT??_R0PAX@84 DD 01H
	DD	FLAT:??_R0PAX@8
	DD	00H
	DD	0ffffffffH
	ORG $+4
	DD	04H
	DD	00H
xdata$x	ENDS
;	COMDAT __CT??_R0PAD@84
xdata$x	SEGMENT
__CT??_R0PAD@84 DD 01H
	DD	FLAT:??_R0PAD@8
	DD	00H
	DD	0ffffffffH
	ORG $+4
	DD	04H
	DD	00H
xdata$x	ENDS
;	COMDAT ??_R0PAX@8
_DATA	SEGMENT
??_R0PAX@8 DD	FLAT:??_7type_info@@6B@			; void * `RTTI Type Descriptor'
	DD	00H
	DB	'.PAX', 00H
_DATA	ENDS
;	COMDAT ??_R0PAD@8
_DATA	SEGMENT
??_R0PAD@8 DD	FLAT:??_7type_info@@6B@			; char * `RTTI Type Descriptor'
	DD	00H
	DB	'.PAD', 00H
$SG-81004 DB	00H
$SG-81041 DB	00H
$SG-81048 DB	00H
$SG-81051 DB	00H
$SG-81078 DB	00H
	ORG $+1
$SG-80963 DB	'not an error', 00H
	ORG $+3
$SG-80964 DB	' On Query ', 00H
	ORG $+1
$SG-80965 DB	'Database::SQLite::query', 00H
$SG-80966 DB	'..\src\SQLite.cpp', 00H
	ORG $+2
$SG-80967 DB	'''', 00H
	ORG $+2
$SG-80968 DB	''' WHERE eaID=''', 00H
	ORG $+1
$SG-80969 DB	'UPDATE admin SET n=''', 00H
	ORG $+3
$SG-80970 DB	'Database::SQLite::updateAdminName', 00H
	ORG $+2
$SG-80971 DB	'..\src\SQLite.cpp', 00H
	ORG $+2
$SG-80972 DB	'Unknown Error!', 00H
	ORG $+1
$SG-80973 DB	'Database::SQLite::updateAdminName', 00H
	ORG $+2
$SG-80974 DB	'..\src\SQLite.cpp', 00H
	ORG $+2
$SG-80975 DB	'''', 00H
	ORG $+2
$SG-80976 DB	''' WHERE eaID=''', 00H
	ORG $+1
$SG-80977 DB	'UPDATE admin SET pwd=''', 00H
	ORG $+1
$SG-80978 DB	'Database::SQLite::updateAdminPassword', 00H
	ORG $+2
$SG-80979 DB	'..\src\SQLite.cpp', 00H
	ORG $+2
$SG-80980 DB	'Unknown Error!', 00H
	ORG $+1
$SG-80981 DB	'Database::SQLite::updateAdminPassword', 00H
	ORG $+2
$SG-80982 DB	'..\src\SQLite.cpp', 00H
	ORG $+2
$SG-80983 DB	''' WHERE adminID=', 00H
	ORG $+3
$SG-80984 DB	'UPDATE admin SET payday=''', 00H
	ORG $+2
$SG-80985 DB	'Database::SQLite::updateAdminPayday', 00H
$SG-80986 DB	'..\src\SQLite.cpp', 00H
	ORG $+2
$SG-80987 DB	'Unknown Error!', 00H
	ORG $+1
$SG-80988 DB	'Database::SQLite::updateAdminPayday', 00H
$SG-80989 DB	'..\src\SQLite.cpp', 00H
	ORG $+2
$SG-80990 DB	' WHERE adminID=', 00H
$SG-80991 DB	'UPDATE admin SET l=', 00H
$SG-80992 DB	'Database::SQLite::updateAdminLevel', 00H
	ORG $+1
$SG-80993 DB	'..\src\SQLite.cpp', 00H
	ORG $+2
$SG-80994 DB	'Unknown Error!', 00H
	ORG $+1
$SG-80995 DB	'Database::SQLite::updateAdminLevel', 00H
	ORG $+1
$SG-80996 DB	'..\src\SQLite.cpp', 00H
	ORG $+2
$SG-80997 DB	'''', 00H
	ORG $+2
$SG-80998 DB	'SELECT pwd FROM admin WHERE n=''', 00H
$SG-80999 DB	'Database::SQLite::getAdminPassword', 00H
	ORG $+1
$SG-81000 DB	'..\src\SQLite.cpp', 00H
	ORG $+2
$SG-81001 DB	'Unknown Error!', 00H
	ORG $+1
$SG-81002 DB	'Database::SQLite::getAdminPassword', 00H
	ORG $+1
$SG-81003 DB	'..\src\SQLite.cpp', 00H
	ORG $+2
$SG-81005 DB	'''', 00H
	ORG $+2
$SG-81006 DB	'SELECT response FROM chatresponse WHERE command=''', 00H
	ORG $+2
$SG-81007 DB	'Database::SQLite::getChatResponse', 00H
	ORG $+2
$SG-81008 DB	'..\src\SQLite.cpp', 00H
	ORG $+2
$SG-81009 DB	'Unknown Error!', 00H
	ORG $+1
$SG-81010 DB	'Database::SQLite::getChatResponse', 00H
	ORG $+2
$SG-81011 DB	'..\src\SQLite.cpp', 00H
	ORG $+2
$SG-81012 DB	'Unknown Command', 00H
$SG-81013 DB	'SELECT l FROM admin WHERE eaID=''', 00H
	ORG $+3
$SG-81014 DB	'''', 00H
	ORG $+2
$SG-81015 DB	' OR n=''', 00H
$SG-81016 DB	'''', 00H
	ORG $+2
$SG-81017 DB	'Database::SQLite::getAdminLevel', 00H
$SG-81018 DB	'..\src\SQLite.cpp', 00H
	ORG $+2
$SG-81019 DB	'Unknown Error!', 00H
	ORG $+1
$SG-81020 DB	'Database::SQLite::getAdminLevel', 00H
$SG-81021 DB	'..\src\SQLite.cpp', 00H
	ORG $+2
$SG-81022 DB	'Unknown Error in getAdminLevel.', 00H
$SG-81023 DB	'SELECT adminID FROM admin WHERE eaID=''', 00H
	ORG $+1
$SG-81024 DB	' OR n=''', 00H
$SG-81025 DB	'Database::SQLite::getAdminID', 00H
	ORG $+3
$SG-81026 DB	'..\src\SQLite.cpp', 00H
	ORG $+2
$SG-81027 DB	'Unknown Error!', 00H
	ORG $+1
$SG-81028 DB	'Database::SQLite::getAdminID', 00H
	ORG $+3
$SG-81029 DB	'..\src\SQLite.cpp', 00H
	ORG $+2
$SG-81030 DB	'Unknown Error in getAdminID.', 00H
	ORG $+3
$SG-81031 DB	'SELECT n FROM admin WHERE adminID=', 00H
	ORG $+1
$SG-81032 DB	'Database::SQLite::getAdminName', 00H
	ORG $+1
$SG-81033 DB	'..\src\SQLite.cpp', 00H
	ORG $+2
$SG-81034 DB	'Unknown Error!', 00H
	ORG $+1
$SG-81035 DB	'Database::SQLite::getAdminName', 00H
	ORG $+1
$SG-81036 DB	'..\src\SQLite.cpp', 00H
	ORG $+2
$SG-81037 DB	'Unknown Error in getAdminName.', 00H
	ORG $+1
$SG-81038 DB	'Removed', 00H
$SG-81039 DB	'SELECT payday FROM admin WHERE adminID=', 00H
$SG-81040 DB	'NOW', 00H
$SG-81042 DB	'Database::SQLite::getAdminPayday', 00H
	ORG $+3
$SG-81043 DB	'..\src\SQLite.cpp', 00H
	ORG $+2
$SG-81044 DB	'Unknown Error!', 00H
	ORG $+1
$SG-81045 DB	'Database::SQLite::getAdminPayday', 00H
	ORG $+3
$SG-81046 DB	'..\src\SQLite.cpp', 00H
	ORG $+2
$SG-81047 DB	'Unknown Error in getAdminName.', 00H
	ORG $+1
$SG-81049 DB	'SELECT * FROM admin', 00H
$SG-81050 DB	'NOW', 00H
$SG-81052 DB	'Database::SQLite::adminlist', 00H
$SG-81053 DB	'..\src\SQLite.cpp', 00H
	ORG $+2
$SG-81054 DB	'Unknown Error!', 00H
	ORG $+1
$SG-81055 DB	'Database::SQLite::adminlist', 00H
$SG-81056 DB	'..\src\SQLite.cpp', 00H
	ORG $+2
$SG-81057 DB	'DELETE FROM admin WHERE adminID=', 00H
	ORG $+3
$SG-81058 DB	'Database::SQLite::deleteAdmin', 00H
	ORG $+2
$SG-81059 DB	'..\src\SQLite.cpp', 00H
	ORG $+2
$SG-81060 DB	'Unknown Error!', 00H
	ORG $+1
$SG-81061 DB	'Database::SQLite::deleteAdmin', 00H
	ORG $+2
$SG-81062 DB	'..\src\SQLite.cpp', 00H
	ORG $+2
$SG-81063 DB	')', 00H
	ORG $+2
$SG-81064 DB	''',', 00H
	ORG $+1
$SG-81065 DB	''',''', 00H
$SG-81066 DB	'INSERT INTO admin (eaID,n,l) VALUES (''', 00H
	ORG $+1
$SG-81067 DB	'Database::SQLite::addAdmin', 00H
	ORG $+1
$SG-81068 DB	'..\src\SQLite.cpp', 00H
	ORG $+2
$SG-81069 DB	'Unknown Error!', 00H
	ORG $+1
$SG-81070 DB	'Database::SQLite::addAdmin', 00H
	ORG $+1
$SG-81071 DB	'..\src\SQLite.cpp', 00H
	ORG $+2
$SG-81072 DB	'SELECT n FROM admin ORDER BY l DESC', 00H
$SG-81073 DB	'Database::SQLite::getMemberString', 00H
	ORG $+2
$SG-81074 DB	'..\src\SQLite.cpp', 00H
	ORG $+2
$SG-81075 DB	'Unknown Error!', 00H
	ORG $+1
$SG-81076 DB	'Database::SQLite::getMemberString', 00H
	ORG $+2
$SG-81077 DB	'..\src\SQLite.cpp', 00H
	ORG $+2
$SG-81079 DB	'''', 00H
	ORG $+2
$SG-81080 DB	'SELECT banID FROM ban WHERE eaID=''', 00H
	ORG $+1
$SG-81081 DB	'Database::SQLite::isBanned', 00H
	ORG $+1
$SG-81082 DB	'..\src\SQLite.cpp', 00H
	ORG $+2
$SG-81083 DB	'Unknown Error!', 00H
	ORG $+1
$SG-81084 DB	'Database::SQLite::isBanned', 00H
	ORG $+1
$SG-81085 DB	'..\src\SQLite.cpp', 00H
	ORG $+2
$SG-81086 DB	''')', 00H
	ORG $+1
$SG-81087 DB	'INSERT INTO ban (eaID) VALUES (''', 00H
	ORG $+3
$SG-81088 DB	'Database::SQLite::addBan', 00H
	ORG $+3
$SG-81089 DB	'..\src\SQLite.cpp', 00H
	ORG $+2
$SG-81090 DB	'Unknown Error!', 00H
	ORG $+1
$SG-81091 DB	'Database::SQLite::addBan', 00H
	ORG $+3
$SG-81092 DB	'..\src\SQLite.cpp', 00H
	ORG $+2
$SG-81093 DB	''')', 00H
	ORG $+1
$SG-81094 DB	',''', 00H
	ORG $+1
$SG-81095 DB	''',', 00H
	ORG $+1
$SG-81096 DB	''',CURRENT_TIMESTAMP,''', 00H
	ORG $+2
$SG-81097 DB	'INSERT INTO ban (eaID,date,n,adminID,reason) VALUES (''', 00H
	ORG $+1
$SG-81098 DB	'Database::SQLite::addBan', 00H
	ORG $+3
$SG-81099 DB	'..\src\SQLite.cpp', 00H
	ORG $+2
$SG-81100 DB	'Unknown Error!', 00H
	ORG $+1
$SG-81101 DB	'Database::SQLite::addBan', 00H
	ORG $+3
$SG-81102 DB	'..\src\SQLite.cpp', 00H
	ORG $+2
$SG-81103 DB	'DELETE FROM ban WHERE banID=', 00H
	ORG $+3
$SG-81104 DB	'Database::SQLite::unban', 00H
$SG-81105 DB	'..\src\SQLite.cpp', 00H
	ORG $+2
$SG-81106 DB	'Unknown Error!', 00H
	ORG $+1
$SG-81107 DB	'Database::SQLite::unban', 00H
$SG-81108 DB	'..\src\SQLite.cpp', 00H
	ORG $+2
$SG-81109 DB	'SELECT * FROM ban', 00H
	ORG $+2
$SG-81110 DB	'Database::SQLite::banlist', 00H
	ORG $+2
$SG-81111 DB	'..\src\SQLite.cpp', 00H
	ORG $+2
$SG-81112 DB	'Unknown Error!', 00H
	ORG $+1
$SG-81113 DB	'Database::SQLite::banlist', 00H
	ORG $+2
$SG-81114 DB	'..\src\SQLite.cpp', 00H
	ORG $+2
$SG-81115 DB	'SELECT name FROM whitelist UNION SELECT n FROM admin', 00H
	ORG $+3
$SG-81116 DB	'Database::SQLite::whitelist', 00H
$SG-81117 DB	'..\src\SQLite.cpp', 00H
	ORG $+2
$SG-81118 DB	'Unknown Error!', 00H
	ORG $+1
$SG-81119 DB	'Database::SQLite::whitelist', 00H
$SG-81120 DB	'..\src\SQLite.cpp', 00H
	ORG $+2
$SG-81121 DB	''')', 00H
	ORG $+1
$SG-81122 DB	'INSERT INTO whitelist (name) VALUES (''', 00H
	ORG $+1
$SG-81123 DB	'Database::SQLite::addwhite', 00H
	ORG $+1
$SG-81124 DB	'..\src\SQLite.cpp', 00H
	ORG $+2
$SG-81125 DB	'Unknown Error!', 00H
	ORG $+1
$SG-81126 DB	'Database::SQLite::addwhite', 00H
	ORG $+1
$SG-81127 DB	'..\src\SQLite.cpp', 00H
	ORG $+2
$SG-81128 DB	'''', 00H
	ORG $+2
$SG-81129 DB	'DELETE FROM whitelist WHERE name=''', 00H
	ORG $+1
$SG-81130 DB	'Database::SQLite::unwhite', 00H
	ORG $+2
$SG-81131 DB	'..\src\SQLite.cpp', 00H
	ORG $+2
$SG-81132 DB	'Unknown Error!', 00H
	ORG $+1
$SG-81133 DB	'Database::SQLite::unwhite', 00H
	ORG $+2
$SG-81134 DB	'..\src\SQLite.cpp', 00H
	ORG $+2
$SG-81135 DB	''')', 00H
	ORG $+1
$SG-81136 DB	''',''', 00H
$SG-81137 DB	'INSERT INTO request (n,t) VALUES (''', 00H
$SG-81138 DB	'Database::SQLite::sendRequest', 00H
	ORG $+2
$SG-81139 DB	'..\src\SQLite.cpp', 00H
	ORG $+2
$SG-81140 DB	'Unknown Error!', 00H
	ORG $+1
$SG-81141 DB	'Database::SQLite::sendRequest', 00H
	ORG $+2
$SG-81142 DB	'..\src\SQLite.cpp', 00H
	ORG $+2
$SG-81143 DB	''')', 00H
	ORG $+1
$SG-81144 DB	''',''', 00H
$SG-81145 DB	''',''', 00H
$SG-81146 DB	''',CURRENT_TIMESTAMP,''', 00H
	ORG $+2
$SG-81147 DB	'INSERT INTO log (n,date,txt,type,stype) VALUES (''', 00H
	ORG $+2
$SG-81148 DB	'Database::SQLite::log', 00H
	ORG $+2
$SG-81149 DB	'..\src\SQLite.cpp', 00H
	ORG $+2
$SG-81150 DB	'Unknown Error!', 00H
	ORG $+1
$SG-81151 DB	'Database::SQLite::log', 00H
	ORG $+2
$SG-81152 DB	'..\src\SQLite.cpp', 00H
	ORG $+2
$SG-81154 DB	'Database::SQLite::logList', 00H
	ORG $+2
$SG-81153 DB	'SELECT logID,date,n,txt,type,stype FROM log ORDER BY log'
	DB	'ID DESC LIMIT ', 00H
	ORG $+1
$SG-81155 DB	'..\src\SQLite.cpp', 00H
	ORG $+2
$SG-81156 DB	'Unknown Error!', 00H
	ORG $+1
$SG-81157 DB	'Database::SQLite::logList', 00H
	ORG $+2
$SG-81158 DB	'..\src\SQLite.cpp', 00H
	ORG $+2
$SG-81159 DB	'#000000', 00H
$SG-81160 DB	'Updating Adv. Messages', 00H
	ORG $+1
$SG-81161 DB	'SELECT m,y FROM messages', 00H
	ORG $+3
$SG-81162 DB	'Database::SQLite::updateAdvMessages', 00H
$SG-81163 DB	'..\src\SQLite.cpp', 00H
	ORG $+2
$SG-81164 DB	'Unknown Error!', 00H
	ORG $+1
$SG-81165 DB	'Database::SQLite::updateAdvMessages', 00H
$SG-81166 DB	'..\src\SQLite.cpp', 00H
	ORG $+2
$SG-81167 DB	'DELETE FROM messages WHERE advID=', 00H
	ORG $+2
$SG-81168 DB	'Database::SQLite::deleteAdvMessage', 00H
	ORG $+1
$SG-81169 DB	'..\src\SQLite.cpp', 00H
	ORG $+2
$SG-81170 DB	'Unknown Error!', 00H
	ORG $+1
$SG-81171 DB	'Database::SQLite::deleteAdvMessage', 00H
	ORG $+1
$SG-81172 DB	'..\src\SQLite.cpp', 00H
	ORG $+2
$SG-81173 DB	')', 00H
	ORG $+2
$SG-81174 DB	''',', 00H
	ORG $+1
$SG-81175 DB	'INSERT INTO messages (m,y) VALUES (''', 00H
	ORG $+3
$SG-81176 DB	'Database::SQLite::addAdvMessage', 00H
$SG-81177 DB	'..\src\SQLite.cpp', 00H
	ORG $+2
$SG-81178 DB	'Unknown Error!', 00H
	ORG $+1
$SG-81179 DB	'Database::SQLite::addAdvMessage', 00H
$SG-81180 DB	'..\src\SQLite.cpp', 00H
	ORG $+2
$SG-81181 DB	'SELECT * FROM messages', 00H
	ORG $+1
$SG-81182 DB	'Database::SQLite::advlist', 00H
	ORG $+2
$SG-81183 DB	'..\src\SQLite.cpp', 00H
	ORG $+2
$SG-81184 DB	'Unknown Error!', 00H
	ORG $+1
$SG-81185 DB	'Database::SQLite::advlist', 00H
	ORG $+2
$SG-81186 DB	'..\src\SQLite.cpp', 00H
	ORG $+2
$SG-81187 DB	'www.exp-clan.com', 00H
	ORG $+3
$SG-81188 DB	'SELECT apikey FROM nma', 00H
	ORG $+1
$SG-81189 DB	'Database::SQLite::nmalist', 00H
	ORG $+2
$SG-81190 DB	'..\src\SQLite.cpp', 00H
	ORG $+2
$SG-81191 DB	'Unknown Error!', 00H
	ORG $+1
$SG-81192 DB	'Database::SQLite::nmalist', 00H
	ORG $+2
$SG-81193 DB	'..\src\SQLite.cpp', 00H
	ORG $+2
$SG-81194 DB	'''', 00H
	ORG $+2
$SG-81195 DB	'DELETE FROM nma WHERE apikey=''', 00H
	ORG $+1
$SG-81196 DB	'Database::SQLite::deleteNmaKey', 00H
	ORG $+1
$SG-81197 DB	'..\src\SQLite.cpp', 00H
	ORG $+2
$SG-81198 DB	'Unknown Error!', 00H
	ORG $+1
$SG-81199 DB	'Database::SQLite::deleteNmaKey', 00H
	ORG $+1
$SG-81200 DB	'..\src\SQLite.cpp', 00H
	ORG $+2
$SG-81201 DB	''')', 00H
	ORG $+1
$SG-81202 DB	'INSERT INTO mail (apikey) VALUES (''', 00H
$SG-81203 DB	'Database::SQLite::addNmaKey', 00H
$SG-81204 DB	'..\src\SQLite.cpp', 00H
	ORG $+2
$SG-81205 DB	'Unknown Error!', 00H
	ORG $+1
$SG-81206 DB	'Database::SQLite::addNmaKey', 00H
$SG-81207 DB	'..\src\SQLite.cpp', 00H
	ORG $+2
$SG-81208 DB	'SELECT addy FROM mail', 00H
	ORG $+2
$SG-81209 DB	'Database::SQLite::mailReceiverList', 00H
	ORG $+1
$SG-81210 DB	'..\src\SQLite.cpp', 00H
	ORG $+2
$SG-81211 DB	'Unknown Error!', 00H
	ORG $+1
$SG-81212 DB	'Database::SQLite::mailReceiverList', 00H
	ORG $+1
$SG-81213 DB	'..\src\SQLite.cpp', 00H
	ORG $+2
$SG-81214 DB	'''', 00H
	ORG $+2
$SG-81215 DB	'DELETE FROM mail WHERE addy=''', 00H
	ORG $+2
$SG-81216 DB	'Database::SQLite::deleteMailReceiver', 00H
	ORG $+3
$SG-81217 DB	'..\src\SQLite.cpp', 00H
	ORG $+2
$SG-81218 DB	'Unknown Error!', 00H
	ORG $+1
$SG-81219 DB	'Database::SQLite::deleteMailReceiver', 00H
	ORG $+3
$SG-81220 DB	'..\src\SQLite.cpp', 00H
	ORG $+2
$SG-81221 DB	''')', 00H
	ORG $+1
$SG-81222 DB	'INSERT INTO mail (addy) VALUES (''', 00H
	ORG $+2
$SG-81223 DB	'Database::SQLite::addMailReceiver', 00H
	ORG $+2
$SG-81224 DB	'..\src\SQLite.cpp', 00H
	ORG $+2
$SG-81225 DB	'Unknown Error!', 00H
	ORG $+1
$SG-81226 DB	'Database::SQLite::addMailReceiver', 00H
	ORG $+2
$SG-81227 DB	'..\src\SQLite.cpp', 00H
	ORG $+2
$SG-81228 DB	'SELECT chatresponseID,command,response FROM chatresponse'
	DB	00H
	ORG $+3
$SG-81229 DB	'Database::SQLite::chatResponseList', 00H
	ORG $+1
$SG-81230 DB	'..\src\SQLite.cpp', 00H
	ORG $+2
$SG-81231 DB	'Unknown Error!', 00H
	ORG $+1
$SG-81232 DB	'Database::SQLite::chatResponseList', 00H
	ORG $+1
$SG-81233 DB	'..\src\SQLite.cpp', 00H
	ORG $+2
$SG-81234 DB	'SELECT command FROM chatresponse', 00H
	ORG $+3
$SG-81235 DB	'Database::SQLite::chatResponseListAsString', 00H
	ORG $+1
$SG-81236 DB	'..\src\SQLite.cpp', 00H
	ORG $+2
$SG-81237 DB	'Unknown Error!', 00H
	ORG $+1
$SG-81238 DB	'Database::SQLite::chatResponseListAsString', 00H
	ORG $+1
$SG-81239 DB	'..\src\SQLite.cpp', 00H
	ORG $+2
$SG-81240 DB	'DELETE FROM chatresponse WHERE chatresponseID=', 00H
	ORG $+1
$SG-81241 DB	'Database::SQLite::deleteChatResponse', 00H
	ORG $+3
$SG-81242 DB	'..\src\SQLite.cpp', 00H
	ORG $+2
$SG-81243 DB	'Unknown Error!', 00H
	ORG $+1
$SG-81244 DB	'Database::SQLite::deleteChatResponse', 00H
	ORG $+3
$SG-81245 DB	'..\src\SQLite.cpp', 00H
	ORG $+2
$SG-81246 DB	''')', 00H
	ORG $+1
$SG-81247 DB	''',''', 00H
$SG-81248 DB	'INSERT INTO chatresponse (command,response) VALUES (''', 00H
	ORG $+2
$SG-81249 DB	'Database::SQLite::addChatResponse', 00H
	ORG $+2
$SG-81250 DB	'..\src\SQLite.cpp', 00H
	ORG $+2
$SG-81251 DB	'Unknown Error!', 00H
	ORG $+1
$SG-81252 DB	'Database::SQLite::addChatResponse', 00H
	ORG $+2
$SG-81253 DB	'..\src\SQLite.cpp', 00H
	ORG $+2
$SG-81254 DB	'''', 00H
	ORG $+2
$SG-81255 DB	'=''', 00H
	ORG $+1
$SG-81256 DB	'UPDATE settings SET ', 00H
	ORG $+3
$SG-81257 DB	'Database::SQLite::updateServerSetting', 00H
	ORG $+2
$SG-81258 DB	'..\src\SQLite.cpp', 00H
	ORG $+2
$SG-81259 DB	'Unknown Error!', 00H
	ORG $+1
$SG-81260 DB	'Database::SQLite::updateServerSetting', 00H
	ORG $+2
$SG-81261 DB	'..\src\SQLite.cpp', 00H
	ORG $+2
$SG-81262 DB	'SELECT name FROM restrictedweapons', 00H
	ORG $+1
$SG-81263 DB	'Database::SQLite::restrictedWeaponsList', 00H
$SG-81264 DB	'..\src\SQLite.cpp', 00H
	ORG $+2
$SG-81265 DB	'Unknown Error!', 00H
	ORG $+1
$SG-81266 DB	'Database::SQLite::restrictedWeaponsList', 00H
$SG-81267 DB	'..\src\SQLite.cpp', 00H
	ORG $+2
$SG-81268 DB	'''', 00H
	ORG $+2
$SG-81269 DB	'DELETE FROM restrictedweapons WHERE name=''', 00H
	ORG $+1
$SG-81270 DB	'Database::SQLite::deleteRestrictedWeapon', 00H
	ORG $+3
$SG-81271 DB	'..\src\SQLite.cpp', 00H
	ORG $+2
$SG-81272 DB	'Unknown Error!', 00H
	ORG $+1
$SG-81273 DB	'Database::SQLite::deleteRestrictedWeapon', 00H
	ORG $+3
$SG-81274 DB	'..\src\SQLite.cpp', 00H
	ORG $+2
$SG-81275 DB	''')', 00H
	ORG $+1
$SG-81276 DB	'INSERT INTO restrictedweapons (name) VALUES (''', 00H
	ORG $+1
$SG-81277 DB	'Database::SQLite::addRestrictedWeapon', 00H
	ORG $+2
$SG-81278 DB	'..\src\SQLite.cpp', 00H
	ORG $+2
$SG-81279 DB	'Unknown Error!', 00H
	ORG $+1
$SG-81280 DB	'Database::SQLite::addRestrictedWeapon', 00H
	ORG $+2
$SG-81281 DB	'..\src\SQLite.cpp', 00H
	ORG $+2
$SG-81282 DB	'SELECT * FROM settings', 00H
	ORG $+1
$SG-81283 DB	'Database::SQLite::getServerSettings', 00H
$SG-81284 DB	'..\src\SQLite.cpp', 00H
	ORG $+2
$SG-81285 DB	'Unknown Error!', 00H
	ORG $+1
$SG-81286 DB	'Database::SQLite::getServerSettings', 00H
$SG-81287 DB	'..\src\SQLite.cpp', 00H
; Function compile flags: /Odtp
;	COMDAT ??$move@AAV?$vector@V?$basic_string@DU?$char_traits@D@std@@V?$allocator@D@2@@std@@V?$allocator@V?$basic_string@DU?$char_traits@D@std@@V?$allocator@D@2@@std@@@2@@std@@@std@@YA$$QAV?$vector@V?$basic_string@DU?$char_traits@D@std@@V?$allocator@D@2@@std@@V?$allocator@V?$basic_string@DU?$char_traits@D@std@@V?$allocator@D@2@@std@@@2@@0@AAV10@@Z
_TEXT	SEGMENT
__Arg$ = 8						; size = 4
??$move@AAV?$vector@V?$basic_string@DU?$char_traits@D@std@@V?$allocator@D@2@@std@@V?$allocator@V?$basic_string@DU?$char_traits@D@std@@V?$allocator@D@2@@std@@@2@@std@@@std@@YA$$QAV?$vector@V?$basic_string@DU?$char_traits@D@std@@V?$allocator@D@2@@std@@V?$allocator@V?$basic_string@DU?$char_traits@D@std@@V?$allocator@D@2@@std@@@2@@0@AAV10@@Z PROC ; std::move<std::vector<std::basic_string<char,std::char_traits<char>,std::allocator<char> >,std::allocator<std::basic_string<char,std::char_traits<char>,std::allocator<char> > > > &>, COMDAT
; File e:\program files (x86)\microsoft visual studio 10.0\vc\include\utility
; Line 86
	push	ebp
	mov	ebp, esp
; Line 87
	mov	eax, DWORD PTR __Arg$[ebp]
; Line 88
	pop	ebp
	ret	0
??$move@AAV?$vector@V?$basic_string@DU?$char_traits@D@std@@V?$allocator@D@2@@std@@V?$allocator@V?$basic_string@DU?$char_traits@D@std@@V?$allocator@D@2@@std@@@2@@std@@@std@@YA$$QAV?$vector@V?$basic_string@DU?$char_traits@D@std@@V?$allocator@D@2@@std@@V?$allocator@V?$basic_string@DU?$char_traits@D@std@@V?$allocator@D@2@@std@@@2@@0@AAV10@@Z ENDP ; std::move<std::vector<std::basic_string<char,std::char_traits<char>,std::allocator<char> >,std::allocator<std::basic_string<char,std::char_traits<char>,std::allocator<char> > > > &>
; Function compile flags: /Odtp
_TEXT	ENDS
;	COMDAT ??$_Val_type@PAUstruct_chatresponse@Database@@@std@@YAPAUstruct_chatresponse@Database@@PAU12@@Z
_TEXT	SEGMENT
___formal$ = 8						; size = 4
??$_Val_type@PAUstruct_chatresponse@Database@@@std@@YAPAUstruct_chatresponse@Database@@PAU12@@Z PROC ; std::_Val_type<Database::struct_chatresponse *>, COMDAT
; File e:\program files (x86)\microsoft visual studio 10.0\vc\include\xutility
; Line 801
	push	ebp
	mov	ebp, esp
; Line 802
	xor	eax, eax
; Line 803
	pop	ebp
	ret	0
??$_Val_type@PAUstruct_chatresponse@Database@@@std@@YAPAUstruct_chatresponse@Database@@PAU12@@Z ENDP ; std::_Val_type<Database::struct_chatresponse *>
; Function compile flags: /Odtp
_TEXT	ENDS
;	COMDAT ??$_Val_type@PAUstruct_log@Database@@@std@@YAPAUstruct_log@Database@@PAU12@@Z
_TEXT	SEGMENT
___formal$ = 8						; size = 4
??$_Val_type@PAUstruct_log@Database@@@std@@YAPAUstruct_log@Database@@PAU12@@Z PROC ; std::_Val_type<Database::struct_log *>, COMDAT
; Line 801
	push	ebp
	mov	ebp, esp
; Line 802
	xor	eax, eax
; Line 803
	pop	ebp
	ret	0
??$_Val_type@PAUstruct_log@Database@@@std@@YAPAUstruct_log@Database@@PAU12@@Z ENDP ; std::_Val_type<Database::struct_log *>
; Function compile flags: /Odtp
_TEXT	ENDS
;	COMDAT ??$_Val_type@PAUban@Database@@@std@@YAPAUban@Database@@PAU12@@Z
_TEXT	SEGMENT
___formal$ = 8						; size = 4
??$_Val_type@PAUban@Database@@@std@@YAPAUban@Database@@PAU12@@Z PROC ; std::_Val_type<Database::ban *>, COMDAT
; Line 801
	push	ebp
	mov	ebp, esp
; Line 802
	xor	eax, eax
; Line 803
	pop	ebp
	ret	0
??$_Val_type@PAUban@Database@@@std@@YAPAUban@Database@@PAU12@@Z ENDP ; std::_Val_type<Database::ban *>
; Function compile flags: /Odtp
_TEXT	ENDS
;	COMDAT ??$_Val_type@PAUadmin@Database@@@std@@YAPAUadmin@Database@@PAU12@@Z
_TEXT	SEGMENT
___formal$ = 8						; size = 4
??$_Val_type@PAUadmin@Database@@@std@@YAPAUadmin@Database@@PAU12@@Z PROC ; std::_Val_type<Database::admin *>, COMDAT
; Line 801
	push	ebp
	mov	ebp, esp
; Line 802
	xor	eax, eax
; Line 803
	pop	ebp
	ret	0
??$_Val_type@PAUadmin@Database@@@std@@YAPAUadmin@Database@@PAU12@@Z ENDP ; std::_Val_type<Database::admin *>
; Function compile flags: /Odtp
_TEXT	ENDS
;	COMDAT ??$_Val_type@PAV?$vector@V?$basic_string@DU?$char_traits@D@std@@V?$allocator@D@2@@std@@V?$allocator@V?$basic_string@DU?$char_traits@D@std@@V?$allocator@D@2@@std@@@2@@std@@@std@@YAPAV?$vector@V?$basic_string@DU?$char_traits@D@std@@V?$allocator@D@2@@std@@V?$allocator@V?$basic_string@DU?$char_traits@D@std@@V?$allocator@D@2@@std@@@2@@0@PAV10@@Z
_TEXT	SEGMENT
___formal$ = 8						; size = 4
??$_Val_type@PAV?$vector@V?$basic_string@DU?$char_traits@D@std@@V?$allocator@D@2@@std@@V?$allocator@V?$basic_string@DU?$char_traits@D@std@@V?$allocator@D@2@@std@@@2@@std@@@std@@YAPAV?$vector@V?$basic_string@DU?$char_traits@D@std@@V?$allocator@D@2@@std@@V?$allocator@V?$basic_string@DU?$char_traits@D@std@@V?$allocator@D@2@@std@@@2@@0@PAV10@@Z PROC ; std::_Val_type<std::vector<std::basic_string<char,std::char_traits<char>,std::allocator<char> >,std::allocator<std::basic_string<char,std::char_traits<char>,std::allocator<char> > > > *>, COMDAT
; Line 801
	push	ebp
	mov	ebp, esp
; Line 802
	xor	eax, eax
; Line 803
	pop	ebp
	ret	0
??$_Val_type@PAV?$vector@V?$basic_string@DU?$char_traits@D@std@@V?$allocator@D@2@@std@@V?$allocator@V?$basic_string@DU?$char_traits@D@std@@V?$allocator@D@2@@std@@@2@@std@@@std@@YAPAV?$vector@V?$basic_string@DU?$char_traits@D@std@@V?$allocator@D@2@@std@@V?$allocator@V?$basic_string@DU?$char_traits@D@std@@V?$allocator@D@2@@std@@@2@@0@PAV10@@Z ENDP ; std::_Val_type<std::vector<std::basic_string<char,std::char_traits<char>,std::allocator<char> >,std::allocator<std::basic_string<char,std::char_traits<char>,std::allocator<char> > > > *>
; Function compile flags: /Odtp
_TEXT	ENDS
;	COMDAT ??$_Val_type@PAUmessage@Database@@@std@@YAPAUmessage@Database@@PAU12@@Z
_TEXT	SEGMENT
___formal$ = 8						; size = 4
??$_Val_type@PAUmessage@Database@@@std@@YAPAUmessage@Database@@PAU12@@Z PROC ; std::_Val_type<Database::message *>, COMDAT
; Line 801
	push	ebp
	mov	ebp, esp
; Line 802
	xor	eax, eax
; Line 803
	pop	ebp
	ret	0
??$_Val_type@PAUmessage@Database@@@std@@YAPAUmessage@Database@@PAU12@@Z ENDP ; std::_Val_type<Database::message *>
; Function compile flags: /Odtp
_TEXT	ENDS
;	COMDAT ??$_Ptr_cat@V?$vector@V?$basic_string@DU?$char_traits@D@std@@V?$allocator@D@2@@std@@V?$allocator@V?$basic_string@DU?$char_traits@D@std@@V?$allocator@D@2@@std@@@2@@std@@V12@@std@@YA?AU_Nonscalar_ptr_iterator_tag@0@PAV?$vector@V?$basic_string@DU?$char_traits@D@std@@V?$allocator@D@2@@std@@V?$allocator@V?$basic_string@DU?$char_traits@D@std@@V?$allocator@D@2@@std@@@2@@0@0@Z
_TEXT	SEGMENT
__Cat$ = -1						; size = 1
___formal$ = 8						; size = 4
___formal$ = 12						; size = 4
??$_Ptr_cat@V?$vector@V?$basic_string@DU?$char_traits@D@std@@V?$allocator@D@2@@std@@V?$allocator@V?$basic_string@DU?$char_traits@D@std@@V?$allocator@D@2@@std@@@2@@std@@V12@@std@@YA?AU_Nonscalar_ptr_iterator_tag@0@PAV?$vector@V?$basic_string@DU?$char_traits@D@std@@V?$allocator@D@2@@std@@V?$allocator@V?$basic_string@DU?$char_traits@D@std@@V?$allocator@D@2@@std@@@2@@0@0@Z PROC ; std::_Ptr_cat<std::vector<std::basic_string<char,std::char_traits<char>,std::allocator<char> >,std::allocator<std::basic_string<char,std::char_traits<char>,std::allocator<char> > > >,std::vector<std::basic_string<char,std::char_traits<char>,std::allocator<char> >,std::allocator<std::basic_string<char,std::char_traits<char>,std::allocator<char> > > > >, COMDAT
; Line 528
	push	ebp
	mov	ebp, esp
	push	ecx
; Line 530
	mov	al, BYTE PTR __Cat$[ebp]
; Line 531
	mov	esp, ebp
	pop	ebp
	ret	0
??$_Ptr_cat@V?$vector@V?$basic_string@DU?$char_traits@D@std@@V?$allocator@D@2@@std@@V?$allocator@V?$basic_string@DU?$char_traits@D@std@@V?$allocator@D@2@@std@@@2@@std@@V12@@std@@YA?AU_Nonscalar_ptr_iterator_tag@0@PAV?$vector@V?$basic_string@DU?$char_traits@D@std@@V?$allocator@D@2@@std@@V?$allocator@V?$basic_string@DU?$char_traits@D@std@@V?$allocator@D@2@@std@@@2@@0@0@Z ENDP ; std::_Ptr_cat<std::vector<std::basic_string<char,std::char_traits<char>,std::allocator<char> >,std::allocator<std::basic_string<char,std::char_traits<char>,std::allocator<char> > > >,std::vector<std::basic_string<char,std::char_traits<char>,std::allocator<char> >,std::allocator<std::basic_string<char,std::char_traits<char>,std::allocator<char> > > > >
; Function compile flags: /Odtp
_TEXT	ENDS
;	COMDAT ??$?8Ustruct_chatresponse@Database@@U01@@std@@YA_NABV?$allocator@Ustruct_chatresponse@Database@@@0@0@Z
_TEXT	SEGMENT
___formal$ = 8						; size = 4
___formal$ = 12						; size = 4
??$?8Ustruct_chatresponse@Database@@U01@@std@@YA_NABV?$allocator@Ustruct_chatresponse@Database@@@0@0@Z PROC ; std::operator==<Database::struct_chatresponse,Database::struct_chatresponse>, COMDAT
; File e:\program files (x86)\microsoft visual studio 10.0\vc\include\xmemory
; Line 262
	push	ebp
	mov	ebp, esp
; Line 263
	mov	al, 1
; Line 264
	pop	ebp
	ret	0
??$?8Ustruct_chatresponse@Database@@U01@@std@@YA_NABV?$allocator@Ustruct_chatresponse@Database@@@0@0@Z ENDP ; std::operator==<Database::struct_chatresponse,Database::struct_chatresponse>
; Function compile flags: /Odtp
_TEXT	ENDS
;	COMDAT ??$?8Ustruct_log@Database@@U01@@std@@YA_NABV?$allocator@Ustruct_log@Database@@@0@0@Z
_TEXT	SEGMENT
___formal$ = 8						; size = 4
___formal$ = 12						; size = 4
??$?8Ustruct_log@Database@@U01@@std@@YA_NABV?$allocator@Ustruct_log@Database@@@0@0@Z PROC ; std::operator==<Database::struct_log,Database::struct_log>, COMDAT
; Line 262
	push	ebp
	mov	ebp, esp
; Line 263
	mov	al, 1
; Line 264
	pop	ebp
	ret	0
??$?8Ustruct_log@Database@@U01@@std@@YA_NABV?$allocator@Ustruct_log@Database@@@0@0@Z ENDP ; std::operator==<Database::struct_log,Database::struct_log>
; Function compile flags: /Odtp
_TEXT	ENDS
;	COMDAT ??$?8Uban@Database@@U01@@std@@YA_NABV?$allocator@Uban@Database@@@0@0@Z
_TEXT	SEGMENT
___formal$ = 8						; size = 4
___formal$ = 12						; size = 4
??$?8Uban@Database@@U01@@std@@YA_NABV?$allocator@Uban@Database@@@0@0@Z PROC ; std::operator==<Database::ban,Database::ban>, COMDAT
; Line 262
	push	ebp
	mov	ebp, esp
; Line 263
	mov	al, 1
; Line 264
	pop	ebp
	ret	0
??$?8Uban@Database@@U01@@std@@YA_NABV?$allocator@Uban@Database@@@0@0@Z ENDP ; std::operator==<Database::ban,Database::ban>
; Function compile flags: /Odtp
_TEXT	ENDS
;	COMDAT ??$?8Uadmin@Database@@U01@@std@@YA_NABV?$allocator@Uadmin@Database@@@0@0@Z
_TEXT	SEGMENT
___formal$ = 8						; size = 4
___formal$ = 12						; size = 4
??$?8Uadmin@Database@@U01@@std@@YA_NABV?$allocator@Uadmin@Database@@@0@0@Z PROC ; std::operator==<Database::admin,Database::admin>, COMDAT
; Line 262
	push	ebp
	mov	ebp, esp
; Line 263
	mov	al, 1
; Line 264
	pop	ebp
	ret	0
??$?8Uadmin@Database@@U01@@std@@YA_NABV?$allocator@Uadmin@Database@@@0@0@Z ENDP ; std::operator==<Database::admin,Database::admin>
; Function compile flags: /Odtp
_TEXT	ENDS
;	COMDAT ??$?8V?$vector@V?$basic_string@DU?$char_traits@D@std@@V?$allocator@D@2@@std@@V?$allocator@V?$basic_string@DU?$char_traits@D@std@@V?$allocator@D@2@@std@@@2@@std@@V01@@std@@YA_NABV?$allocator@V?$vector@V?$basic_string@DU?$char_traits@D@std@@V?$allocator@D@2@@std@@V?$allocator@V?$basic_string@DU?$char_traits@D@std@@V?$allocator@D@2@@std@@@2@@std@@@0@0@Z
_TEXT	SEGMENT
___formal$ = 8						; size = 4
___formal$ = 12						; size = 4
??$?8V?$vector@V?$basic_string@DU?$char_traits@D@std@@V?$allocator@D@2@@std@@V?$allocator@V?$basic_string@DU?$char_traits@D@std@@V?$allocator@D@2@@std@@@2@@std@@V01@@std@@YA_NABV?$allocator@V?$vector@V?$basic_string@DU?$char_traits@D@std@@V?$allocator@D@2@@std@@V?$allocator@V?$basic_string@DU?$char_traits@D@std@@V?$allocator@D@2@@std@@@2@@std@@@0@0@Z PROC ; std::operator==<std::vector<std::basic_string<char,std::char_traits<char>,std::allocator<char> >,std::allocator<std::basic_string<char,std::char_traits<char>,std::allocator<char> > > >,std::vector<std::basic_string<char,std::char_traits<char>,std::allocator<char> >,std::allocator<std::basic_string<char,std::char_traits<char>,std::allocator<char> > > > >, COMDAT
; Line 262
	push	ebp
	mov	ebp, esp
; Line 263
	mov	al, 1
; Line 264
	pop	ebp
	ret	0
??$?8V?$vector@V?$basic_string@DU?$char_traits@D@std@@V?$allocator@D@2@@std@@V?$allocator@V?$basic_string@DU?$char_traits@D@std@@V?$allocator@D@2@@std@@@2@@std@@V01@@std@@YA_NABV?$allocator@V?$vector@V?$basic_string@DU?$char_traits@D@std@@V?$allocator@D@2@@std@@V?$allocator@V?$basic_string@DU?$char_traits@D@std@@V?$allocator@D@2@@std@@@2@@std@@@0@0@Z ENDP ; std::operator==<std::vector<std::basic_string<char,std::char_traits<char>,std::allocator<char> >,std::allocator<std::basic_string<char,std::char_traits<char>,std::allocator<char> > > >,std::vector<std::basic_string<char,std::char_traits<char>,std::allocator<char> >,std::allocator<std::basic_string<char,std::char_traits<char>,std::allocator<char> > > > >
; Function compile flags: /Odtp
_TEXT	ENDS
;	COMDAT ??$?8Umessage@Database@@U01@@std@@YA_NABV?$allocator@Umessage@Database@@@0@0@Z
_TEXT	SEGMENT
___formal$ = 8						; size = 4
___formal$ = 12						; size = 4
??$?8Umessage@Database@@U01@@std@@YA_NABV?$allocator@Umessage@Database@@@0@0@Z PROC ; std::operator==<Database::message,Database::message>, COMDAT
; Line 262
	push	ebp
	mov	ebp, esp
; Line 263
	mov	al, 1
; Line 264
	pop	ebp
	ret	0
??$?8Umessage@Database@@U01@@std@@YA_NABV?$allocator@Umessage@Database@@@0@0@Z ENDP ; std::operator==<Database::message,Database::message>
; Function compile flags: /Odtp
_TEXT	ENDS
;	COMDAT ??$forward@ABUstruct_chatresponse@Database@@@std@@YAABUstruct_chatresponse@Database@@ABU12@@Z
_TEXT	SEGMENT
__Arg$ = 8						; size = 4
??$forward@ABUstruct_chatresponse@Database@@@std@@YAABUstruct_chatresponse@Database@@ABU12@@Z PROC ; std::forward<Database::struct_chatresponse const &>, COMDAT
; File e:\program files (x86)\microsoft visual studio 10.0\vc\include\utility
; Line 78
	push	ebp
	mov	ebp, esp
; Line 79
	mov	eax, DWORD PTR __Arg$[ebp]
; Line 80
	pop	ebp
	ret	0
??$forward@ABUstruct_chatresponse@Database@@@std@@YAABUstruct_chatresponse@Database@@ABU12@@Z ENDP ; std::forward<Database::struct_chatresponse const &>
; Function compile flags: /Odtp
_TEXT	ENDS
;	COMDAT ??$forward@AAUstruct_chatresponse@Database@@@std@@YAAAUstruct_chatresponse@Database@@AAU12@@Z
_TEXT	SEGMENT
__Arg$ = 8						; size = 4
??$forward@AAUstruct_chatresponse@Database@@@std@@YAAAUstruct_chatresponse@Database@@AAU12@@Z PROC ; std::forward<Database::struct_chatresponse &>, COMDAT
; Line 78
	push	ebp
	mov	ebp, esp
; Line 79
	mov	eax, DWORD PTR __Arg$[ebp]
; Line 80
	pop	ebp
	ret	0
??$forward@AAUstruct_chatresponse@Database@@@std@@YAAAUstruct_chatresponse@Database@@AAU12@@Z ENDP ; std::forward<Database::struct_chatresponse &>
; Function compile flags: /Odtp
_TEXT	ENDS
;	COMDAT ??$forward@ABUstruct_log@Database@@@std@@YAABUstruct_log@Database@@ABU12@@Z
_TEXT	SEGMENT
__Arg$ = 8						; size = 4
??$forward@ABUstruct_log@Database@@@std@@YAABUstruct_log@Database@@ABU12@@Z PROC ; std::forward<Database::struct_log const &>, COMDAT
; Line 78
	push	ebp
	mov	ebp, esp
; Line 79
	mov	eax, DWORD PTR __Arg$[ebp]
; Line 80
	pop	ebp
	ret	0
??$forward@ABUstruct_log@Database@@@std@@YAABUstruct_log@Database@@ABU12@@Z ENDP ; std::forward<Database::struct_log const &>
; Function compile flags: /Odtp
_TEXT	ENDS
;	COMDAT ??$forward@AAUstruct_log@Database@@@std@@YAAAUstruct_log@Database@@AAU12@@Z
_TEXT	SEGMENT
__Arg$ = 8						; size = 4
??$forward@AAUstruct_log@Database@@@std@@YAAAUstruct_log@Database@@AAU12@@Z PROC ; std::forward<Database::struct_log &>, COMDAT
; Line 78
	push	ebp
	mov	ebp, esp
; Line 79
	mov	eax, DWORD PTR __Arg$[ebp]
; Line 80
	pop	ebp
	ret	0
??$forward@AAUstruct_log@Database@@@std@@YAAAUstruct_log@Database@@AAU12@@Z ENDP ; std::forward<Database::struct_log &>
; Function compile flags: /Odtp
_TEXT	ENDS
;	COMDAT ??$forward@ABUban@Database@@@std@@YAABUban@Database@@ABU12@@Z
_TEXT	SEGMENT
__Arg$ = 8						; size = 4
??$forward@ABUban@Database@@@std@@YAABUban@Database@@ABU12@@Z PROC ; std::forward<Database::ban const &>, COMDAT
; Line 78
	push	ebp
	mov	ebp, esp
; Line 79
	mov	eax, DWORD PTR __Arg$[ebp]
; Line 80
	pop	ebp
	ret	0
??$forward@ABUban@Database@@@std@@YAABUban@Database@@ABU12@@Z ENDP ; std::forward<Database::ban const &>
; Function compile flags: /Odtp
_TEXT	ENDS
;	COMDAT ??$forward@AAUban@Database@@@std@@YAAAUban@Database@@AAU12@@Z
_TEXT	SEGMENT
__Arg$ = 8						; size = 4
??$forward@AAUban@Database@@@std@@YAAAUban@Database@@AAU12@@Z PROC ; std::forward<Database::ban &>, COMDAT
; Line 78
	push	ebp
	mov	ebp, esp
; Line 79
	mov	eax, DWORD PTR __Arg$[ebp]
; Line 80
	pop	ebp
	ret	0
??$forward@AAUban@Database@@@std@@YAAAUban@Database@@AAU12@@Z ENDP ; std::forward<Database::ban &>
; Function compile flags: /Odtp
_TEXT	ENDS
;	COMDAT ??$forward@ABUadmin@Database@@@std@@YAABUadmin@Database@@ABU12@@Z
_TEXT	SEGMENT
__Arg$ = 8						; size = 4
??$forward@ABUadmin@Database@@@std@@YAABUadmin@Database@@ABU12@@Z PROC ; std::forward<Database::admin const &>, COMDAT
; Line 78
	push	ebp
	mov	ebp, esp
; Line 79
	mov	eax, DWORD PTR __Arg$[ebp]
; Line 80
	pop	ebp
	ret	0
??$forward@ABUadmin@Database@@@std@@YAABUadmin@Database@@ABU12@@Z ENDP ; std::forward<Database::admin const &>
; Function compile flags: /Odtp
_TEXT	ENDS
;	COMDAT ??$forward@AAUadmin@Database@@@std@@YAAAUadmin@Database@@AAU12@@Z
_TEXT	SEGMENT
__Arg$ = 8						; size = 4
??$forward@AAUadmin@Database@@@std@@YAAAUadmin@Database@@AAU12@@Z PROC ; std::forward<Database::admin &>, COMDAT
; Line 78
	push	ebp
	mov	ebp, esp
; Line 79
	mov	eax, DWORD PTR __Arg$[ebp]
; Line 80
	pop	ebp
	ret	0
??$forward@AAUadmin@Database@@@std@@YAAAUadmin@Database@@AAU12@@Z ENDP ; std::forward<Database::admin &>
; Function compile flags: /Odtp
_TEXT	ENDS
;	COMDAT ??$forward@ABV?$vector@V?$basic_string@DU?$char_traits@D@std@@V?$allocator@D@2@@std@@V?$allocator@V?$basic_string@DU?$char_traits@D@std@@V?$allocator@D@2@@std@@@2@@std@@@std@@YAABV?$vector@V?$basic_string@DU?$char_traits@D@std@@V?$allocator@D@2@@std@@V?$allocator@V?$basic_string@DU?$char_traits@D@std@@V?$allocator@D@2@@std@@@2@@0@ABV10@@Z
_TEXT	SEGMENT
__Arg$ = 8						; size = 4
??$forward@ABV?$vector@V?$basic_string@DU?$char_traits@D@std@@V?$allocator@D@2@@std@@V?$allocator@V?$basic_string@DU?$char_traits@D@std@@V?$allocator@D@2@@std@@@2@@std@@@std@@YAABV?$vector@V?$basic_string@DU?$char_traits@D@std@@V?$allocator@D@2@@std@@V?$allocator@V?$basic_string@DU?$char_traits@D@std@@V?$allocator@D@2@@std@@@2@@0@ABV10@@Z PROC ; std::forward<std::vector<std::basic_string<char,std::char_traits<char>,std::allocator<char> >,std::allocator<std::basic_string<char,std::char_traits<char>,std::allocator<char> > > > const &>, COMDAT
; Line 78
	push	ebp
	mov	ebp, esp
; Line 79
	mov	eax, DWORD PTR __Arg$[ebp]
; Line 80
	pop	ebp
	ret	0
??$forward@ABV?$vector@V?$basic_string@DU?$char_traits@D@std@@V?$allocator@D@2@@std@@V?$allocator@V?$basic_string@DU?$char_traits@D@std@@V?$allocator@D@2@@std@@@2@@std@@@std@@YAABV?$vector@V?$basic_string@DU?$char_traits@D@std@@V?$allocator@D@2@@std@@V?$allocator@V?$basic_string@DU?$char_traits@D@std@@V?$allocator@D@2@@std@@@2@@0@ABV10@@Z ENDP ; std::forward<std::vector<std::basic_string<char,std::char_traits<char>,std::allocator<char> >,std::allocator<std::basic_string<char,std::char_traits<char>,std::allocator<char> > > > const &>
; Function compile flags: /Odtp
_TEXT	ENDS
;	COMDAT ??$forward@AAV?$vector@V?$basic_string@DU?$char_traits@D@std@@V?$allocator@D@2@@std@@V?$allocator@V?$basic_string@DU?$char_traits@D@std@@V?$allocator@D@2@@std@@@2@@std@@@std@@YAAAV?$vector@V?$basic_string@DU?$char_traits@D@std@@V?$allocator@D@2@@std@@V?$allocator@V?$basic_string@DU?$char_traits@D@std@@V?$allocator@D@2@@std@@@2@@0@AAV10@@Z
_TEXT	SEGMENT
__Arg$ = 8						; size = 4
??$forward@AAV?$vector@V?$basic_string@DU?$char_traits@D@std@@V?$allocator@D@2@@std@@V?$allocator@V?$basic_string@DU?$char_traits@D@std@@V?$allocator@D@2@@std@@@2@@std@@@std@@YAAAV?$vector@V?$basic_string@DU?$char_traits@D@std@@V?$allocator@D@2@@std@@V?$allocator@V?$basic_string@DU?$char_traits@D@std@@V?$allocator@D@2@@std@@@2@@0@AAV10@@Z PROC ; std::forward<std::vector<std::basic_string<char,std::char_traits<char>,std::allocator<char> >,std::allocator<std::basic_string<char,std::char_traits<char>,std::allocator<char> > > > &>, COMDAT
; Line 78
	push	ebp
	mov	ebp, esp
; Line 79
	mov	eax, DWORD PTR __Arg$[ebp]
; Line 80
	pop	ebp
	ret	0
??$forward@AAV?$vector@V?$basic_string@DU?$char_traits@D@std@@V?$allocator@D@2@@std@@V?$allocator@V?$basic_string@DU?$char_traits@D@std@@V?$allocator@D@2@@std@@@2@@std@@@std@@YAAAV?$vector@V?$basic_string@DU?$char_traits@D@std@@V?$allocator@D@2@@std@@V?$allocator@V?$basic_string@DU?$char_traits@D@std@@V?$allocator@D@2@@std@@@2@@0@AAV10@@Z ENDP ; std::forward<std::vector<std::basic_string<char,std::char_traits<char>,std::allocator<char> >,std::allocator<std::basic_string<char,std::char_traits<char>,std::allocator<char> > > > &>
; Function compile flags: /Odtp
_TEXT	ENDS
;	COMDAT ??$forward@ABUmessage@Database@@@std@@YAABUmessage@Database@@ABU12@@Z
_TEXT	SEGMENT
__Arg$ = 8						; size = 4
??$forward@ABUmessage@Database@@@std@@YAABUmessage@Database@@ABU12@@Z PROC ; std::forward<Database::message const &>, COMDAT
; Line 78
	push	ebp
	mov	ebp, esp
; Line 79
	mov	eax, DWORD PTR __Arg$[ebp]
; Line 80
	pop	ebp
	ret	0
??$forward@ABUmessage@Database@@@std@@YAABUmessage@Database@@ABU12@@Z ENDP ; std::forward<Database::message const &>
; Function compile flags: /Odtp
_TEXT	ENDS
;	COMDAT ??$forward@AAUmessage@Database@@@std@@YAAAUmessage@Database@@AAU12@@Z
_TEXT	SEGMENT
__Arg$ = 8						; size = 4
??$forward@AAUmessage@Database@@@std@@YAAAUmessage@Database@@AAU12@@Z PROC ; std::forward<Database::message &>, COMDAT
; Line 78
	push	ebp
	mov	ebp, esp
; Line 79
	mov	eax, DWORD PTR __Arg$[ebp]
; Line 80
	pop	ebp
	ret	0
??$forward@AAUmessage@Database@@@std@@YAAAUmessage@Database@@AAU12@@Z ENDP ; std::forward<Database::message &>
; Function compile flags: /Odtp
_TEXT	ENDS
;	COMDAT ??$addressof@Ustruct_chatresponse@Database@@@std@@YAPAUstruct_chatresponse@Database@@AAU12@@Z
_TEXT	SEGMENT
__Val$ = 8						; size = 4
??$addressof@Ustruct_chatresponse@Database@@@std@@YAPAUstruct_chatresponse@Database@@AAU12@@Z PROC ; std::addressof<Database::struct_chatresponse>, COMDAT
; File e:\program files (x86)\microsoft visual studio 10.0\vc\include\xmemory
; Line 110
	push	ebp
	mov	ebp, esp
; Line 111
	mov	eax, DWORD PTR __Val$[ebp]
; Line 112
	pop	ebp
	ret	0
??$addressof@Ustruct_chatresponse@Database@@@std@@YAPAUstruct_chatresponse@Database@@AAU12@@Z ENDP ; std::addressof<Database::struct_chatresponse>
; Function compile flags: /Odtp
_TEXT	ENDS
;	COMDAT ??$addressof@Ustruct_log@Database@@@std@@YAPAUstruct_log@Database@@AAU12@@Z
_TEXT	SEGMENT
__Val$ = 8						; size = 4
??$addressof@Ustruct_log@Database@@@std@@YAPAUstruct_log@Database@@AAU12@@Z PROC ; std::addressof<Database::struct_log>, COMDAT
; Line 110
	push	ebp
	mov	ebp, esp
; Line 111
	mov	eax, DWORD PTR __Val$[ebp]
; Line 112
	pop	ebp
	ret	0
??$addressof@Ustruct_log@Database@@@std@@YAPAUstruct_log@Database@@AAU12@@Z ENDP ; std::addressof<Database::struct_log>
; Function compile flags: /Odtp
_TEXT	ENDS
;	COMDAT ??$addressof@Uban@Database@@@std@@YAPAUban@Database@@AAU12@@Z
_TEXT	SEGMENT
__Val$ = 8						; size = 4
??$addressof@Uban@Database@@@std@@YAPAUban@Database@@AAU12@@Z PROC ; std::addressof<Database::ban>, COMDAT
; Line 110
	push	ebp
	mov	ebp, esp
; Line 111
	mov	eax, DWORD PTR __Val$[ebp]
; Line 112
	pop	ebp
	ret	0
??$addressof@Uban@Database@@@std@@YAPAUban@Database@@AAU12@@Z ENDP ; std::addressof<Database::ban>
; Function compile flags: /Odtp
_TEXT	ENDS
;	COMDAT ??$addressof@Uadmin@Database@@@std@@YAPAUadmin@Database@@AAU12@@Z
_TEXT	SEGMENT
__Val$ = 8						; size = 4
??$addressof@Uadmin@Database@@@std@@YAPAUadmin@Database@@AAU12@@Z PROC ; std::addressof<Database::admin>, COMDAT
; Line 110
	push	ebp
	mov	ebp, esp
; Line 111
	mov	eax, DWORD PTR __Val$[ebp]
; Line 112
	pop	ebp
	ret	0
??$addressof@Uadmin@Database@@@std@@YAPAUadmin@Database@@AAU12@@Z ENDP ; std::addressof<Database::admin>
; Function compile flags: /Odtp
_TEXT	ENDS
;	COMDAT ??$addressof@V?$vector@V?$basic_string@DU?$char_traits@D@std@@V?$allocator@D@2@@std@@V?$allocator@V?$basic_string@DU?$char_traits@D@std@@V?$allocator@D@2@@std@@@2@@std@@@std@@YAPAV?$vector@V?$basic_string@DU?$char_traits@D@std@@V?$allocator@D@2@@std@@V?$allocator@V?$basic_string@DU?$char_traits@D@std@@V?$allocator@D@2@@std@@@2@@0@AAV10@@Z
_TEXT	SEGMENT
__Val$ = 8						; size = 4
??$addressof@V?$vector@V?$basic_string@DU?$char_traits@D@std@@V?$allocator@D@2@@std@@V?$allocator@V?$basic_string@DU?$char_traits@D@std@@V?$allocator@D@2@@std@@@2@@std@@@std@@YAPAV?$vector@V?$basic_string@DU?$char_traits@D@std@@V?$allocator@D@2@@std@@V?$allocator@V?$basic_string@DU?$char_traits@D@std@@V?$allocator@D@2@@std@@@2@@0@AAV10@@Z PROC ; std::addressof<std::vector<std::basic_string<char,std::char_traits<char>,std::allocator<char> >,std::allocator<std::basic_string<char,std::char_traits<char>,std::allocator<char> > > > >, COMDAT
; Line 110
	push	ebp
	mov	ebp, esp
; Line 111
	mov	eax, DWORD PTR __Val$[ebp]
; Line 112
	pop	ebp
	ret	0
??$addressof@V?$vector@V?$basic_string@DU?$char_traits@D@std@@V?$allocator@D@2@@std@@V?$allocator@V?$basic_string@DU?$char_traits@D@std@@V?$allocator@D@2@@std@@@2@@std@@@std@@YAPAV?$vector@V?$basic_string@DU?$char_traits@D@std@@V?$allocator@D@2@@std@@V?$allocator@V?$basic_string@DU?$char_traits@D@std@@V?$allocator@D@2@@std@@@2@@0@AAV10@@Z ENDP ; std::addressof<std::vector<std::basic_string<char,std::char_traits<char>,std::allocator<char> >,std::allocator<std::basic_string<char,std::char_traits<char>,std::allocator<char> > > > >
; Function compile flags: /Odtp
_TEXT	ENDS
;	COMDAT ??$addressof@Umessage@Database@@@std@@YAPAUmessage@Database@@AAU12@@Z
_TEXT	SEGMENT
__Val$ = 8						; size = 4
??$addressof@Umessage@Database@@@std@@YAPAUmessage@Database@@AAU12@@Z PROC ; std::addressof<Database::message>, COMDAT
; Line 110
	push	ebp
	mov	ebp, esp
; Line 111
	mov	eax, DWORD PTR __Val$[ebp]
; Line 112
	pop	ebp
	ret	0
??$addressof@Umessage@Database@@@std@@YAPAUmessage@Database@@AAU12@@Z ENDP ; std::addressof<Database::message>
; Function compile flags: /Odtp
_TEXT	ENDS
;	COMDAT ??$forward@Ustruct_chatresponse@Database@@@std@@YA$$QAUstruct_chatresponse@Database@@AAU12@@Z
_TEXT	SEGMENT
__Arg$ = 8						; size = 4
??$forward@Ustruct_chatresponse@Database@@@std@@YA$$QAUstruct_chatresponse@Database@@AAU12@@Z PROC ; std::forward<Database::struct_chatresponse>, COMDAT
; File e:\program files (x86)\microsoft visual studio 10.0\vc\include\utility
; Line 78
	push	ebp
	mov	ebp, esp
; Line 79
	mov	eax, DWORD PTR __Arg$[ebp]
; Line 80
	pop	ebp
	ret	0
??$forward@Ustruct_chatresponse@Database@@@std@@YA$$QAUstruct_chatresponse@Database@@AAU12@@Z ENDP ; std::forward<Database::struct_chatresponse>
; Function compile flags: /Odtp
_TEXT	ENDS
;	COMDAT ??$?9Ustruct_chatresponse@Database@@U01@@std@@YA_NABV?$allocator@Ustruct_chatresponse@Database@@@0@0@Z
_TEXT	SEGMENT
__Left$ = 8						; size = 4
__Right$ = 12						; size = 4
??$?9Ustruct_chatresponse@Database@@U01@@std@@YA_NABV?$allocator@Ustruct_chatresponse@Database@@@0@0@Z PROC ; std::operator!=<Database::struct_chatresponse,Database::struct_chatresponse>, COMDAT
; File e:\program files (x86)\microsoft visual studio 10.0\vc\include\xmemory
; Line 270
	push	ebp
	mov	ebp, esp
; Line 271
	mov	eax, DWORD PTR __Right$[ebp]
	push	eax
	mov	ecx, DWORD PTR __Left$[ebp]
	push	ecx
	call	??$?8Ustruct_chatresponse@Database@@U01@@std@@YA_NABV?$allocator@Ustruct_chatresponse@Database@@@0@0@Z ; std::operator==<Database::struct_chatresponse,Database::struct_chatresponse>
	add	esp, 8
	movzx	eax, al
	neg	eax
	sbb	eax, eax
	add	eax, 1
; Line 272
	pop	ebp
	ret	0
??$?9Ustruct_chatresponse@Database@@U01@@std@@YA_NABV?$allocator@Ustruct_chatresponse@Database@@@0@0@Z ENDP ; std::operator!=<Database::struct_chatresponse,Database::struct_chatresponse>
; Function compile flags: /Odtp
_TEXT	ENDS
;	COMDAT ??$forward@Ustruct_log@Database@@@std@@YA$$QAUstruct_log@Database@@AAU12@@Z
_TEXT	SEGMENT
__Arg$ = 8						; size = 4
??$forward@Ustruct_log@Database@@@std@@YA$$QAUstruct_log@Database@@AAU12@@Z PROC ; std::forward<Database::struct_log>, COMDAT
; File e:\program files (x86)\microsoft visual studio 10.0\vc\include\utility
; Line 78
	push	ebp
	mov	ebp, esp
; Line 79
	mov	eax, DWORD PTR __Arg$[ebp]
; Line 80
	pop	ebp
	ret	0
??$forward@Ustruct_log@Database@@@std@@YA$$QAUstruct_log@Database@@AAU12@@Z ENDP ; std::forward<Database::struct_log>
; Function compile flags: /Odtp
_TEXT	ENDS
;	COMDAT ??$?9Ustruct_log@Database@@U01@@std@@YA_NABV?$allocator@Ustruct_log@Database@@@0@0@Z
_TEXT	SEGMENT
__Left$ = 8						; size = 4
__Right$ = 12						; size = 4
??$?9Ustruct_log@Database@@U01@@std@@YA_NABV?$allocator@Ustruct_log@Database@@@0@0@Z PROC ; std::operator!=<Database::struct_log,Database::struct_log>, COMDAT
; File e:\program files (x86)\microsoft visual studio 10.0\vc\include\xmemory
; Line 270
	push	ebp
	mov	ebp, esp
; Line 271
	mov	eax, DWORD PTR __Right$[ebp]
	push	eax
	mov	ecx, DWORD PTR __Left$[ebp]
	push	ecx
	call	??$?8Ustruct_log@Database@@U01@@std@@YA_NABV?$allocator@Ustruct_log@Database@@@0@0@Z ; std::operator==<Database::struct_log,Database::struct_log>
	add	esp, 8
	movzx	eax, al
	neg	eax
	sbb	eax, eax
	add	eax, 1
; Line 272
	pop	ebp
	ret	0
??$?9Ustruct_log@Database@@U01@@std@@YA_NABV?$allocator@Ustruct_log@Database@@@0@0@Z ENDP ; std::operator!=<Database::struct_log,Database::struct_log>
; Function compile flags: /Odtp
_TEXT	ENDS
;	COMDAT ??$forward@Uban@Database@@@std@@YA$$QAUban@Database@@AAU12@@Z
_TEXT	SEGMENT
__Arg$ = 8						; size = 4
??$forward@Uban@Database@@@std@@YA$$QAUban@Database@@AAU12@@Z PROC ; std::forward<Database::ban>, COMDAT
; File e:\program files (x86)\microsoft visual studio 10.0\vc\include\utility
; Line 78
	push	ebp
	mov	ebp, esp
; Line 79
	mov	eax, DWORD PTR __Arg$[ebp]
; Line 80
	pop	ebp
	ret	0
??$forward@Uban@Database@@@std@@YA$$QAUban@Database@@AAU12@@Z ENDP ; std::forward<Database::ban>
; Function compile flags: /Odtp
_TEXT	ENDS
;	COMDAT ??$?9Uban@Database@@U01@@std@@YA_NABV?$allocator@Uban@Database@@@0@0@Z
_TEXT	SEGMENT
__Left$ = 8						; size = 4
__Right$ = 12						; size = 4
??$?9Uban@Database@@U01@@std@@YA_NABV?$allocator@Uban@Database@@@0@0@Z PROC ; std::operator!=<Database::ban,Database::ban>, COMDAT
; File e:\program files (x86)\microsoft visual studio 10.0\vc\include\xmemory
; Line 270
	push	ebp
	mov	ebp, esp
; Line 271
	mov	eax, DWORD PTR __Right$[ebp]
	push	eax
	mov	ecx, DWORD PTR __Left$[ebp]
	push	ecx
	call	??$?8Uban@Database@@U01@@std@@YA_NABV?$allocator@Uban@Database@@@0@0@Z ; std::operator==<Database::ban,Database::ban>
	add	esp, 8
	movzx	eax, al
	neg	eax
	sbb	eax, eax
	add	eax, 1
; Line 272
	pop	ebp
	ret	0
??$?9Uban@Database@@U01@@std@@YA_NABV?$allocator@Uban@Database@@@0@0@Z ENDP ; std::operator!=<Database::ban,Database::ban>
; Function compile flags: /Odtp
_TEXT	ENDS
;	COMDAT ??$forward@Uadmin@Database@@@std@@YA$$QAUadmin@Database@@AAU12@@Z
_TEXT	SEGMENT
__Arg$ = 8						; size = 4
??$forward@Uadmin@Database@@@std@@YA$$QAUadmin@Database@@AAU12@@Z PROC ; std::forward<Database::admin>, COMDAT
; File e:\program files (x86)\microsoft visual studio 10.0\vc\include\utility
; Line 78
	push	ebp
	mov	ebp, esp
; Line 79
	mov	eax, DWORD PTR __Arg$[ebp]
; Line 80
	pop	ebp
	ret	0
??$forward@Uadmin@Database@@@std@@YA$$QAUadmin@Database@@AAU12@@Z ENDP ; std::forward<Database::admin>
; Function compile flags: /Odtp
_TEXT	ENDS
;	COMDAT ??$?9Uadmin@Database@@U01@@std@@YA_NABV?$allocator@Uadmin@Database@@@0@0@Z
_TEXT	SEGMENT
__Left$ = 8						; size = 4
__Right$ = 12						; size = 4
??$?9Uadmin@Database@@U01@@std@@YA_NABV?$allocator@Uadmin@Database@@@0@0@Z PROC ; std::operator!=<Database::admin,Database::admin>, COMDAT
; File e:\program files (x86)\microsoft visual studio 10.0\vc\include\xmemory
; Line 270
	push	ebp
	mov	ebp, esp
; Line 271
	mov	eax, DWORD PTR __Right$[ebp]
	push	eax
	mov	ecx, DWORD PTR __Left$[ebp]
	push	ecx
	call	??$?8Uadmin@Database@@U01@@std@@YA_NABV?$allocator@Uadmin@Database@@@0@0@Z ; std::operator==<Database::admin,Database::admin>
	add	esp, 8
	movzx	eax, al
	neg	eax
	sbb	eax, eax
	add	eax, 1
; Line 272
	pop	ebp
	ret	0
??$?9Uadmin@Database@@U01@@std@@YA_NABV?$allocator@Uadmin@Database@@@0@0@Z ENDP ; std::operator!=<Database::admin,Database::admin>
; Function compile flags: /Odtp
_TEXT	ENDS
;	COMDAT ??$?9V?$vector@V?$basic_string@DU?$char_traits@D@std@@V?$allocator@D@2@@std@@V?$allocator@V?$basic_string@DU?$char_traits@D@std@@V?$allocator@D@2@@std@@@2@@std@@V01@@std@@YA_NABV?$allocator@V?$vector@V?$basic_string@DU?$char_traits@D@std@@V?$allocator@D@2@@std@@V?$allocator@V?$basic_string@DU?$char_traits@D@std@@V?$allocator@D@2@@std@@@2@@std@@@0@0@Z
_TEXT	SEGMENT
__Left$ = 8						; size = 4
__Right$ = 12						; size = 4
??$?9V?$vector@V?$basic_string@DU?$char_traits@D@std@@V?$allocator@D@2@@std@@V?$allocator@V?$basic_string@DU?$char_traits@D@std@@V?$allocator@D@2@@std@@@2@@std@@V01@@std@@YA_NABV?$allocator@V?$vector@V?$basic_string@DU?$char_traits@D@std@@V?$allocator@D@2@@std@@V?$allocator@V?$basic_string@DU?$char_traits@D@std@@V?$allocator@D@2@@std@@@2@@std@@@0@0@Z PROC ; std::operator!=<std::vector<std::basic_string<char,std::char_traits<char>,std::allocator<char> >,std::allocator<std::basic_string<char,std::char_traits<char>,std::allocator<char> > > >,std::vector<std::basic_string<char,std::char_traits<char>,std::allocator<char> >,std::allocator<std::basic_string<char,std::char_traits<char>,std::allocator<char> > > > >, COMDAT
; Line 270
	push	ebp
	mov	ebp, esp
; Line 271
	mov	eax, DWORD PTR __Right$[ebp]
	push	eax
	mov	ecx, DWORD PTR __Left$[ebp]
	push	ecx
	call	??$?8V?$vector@V?$basic_string@DU?$char_traits@D@std@@V?$allocator@D@2@@std@@V?$allocator@V?$basic_string@DU?$char_traits@D@std@@V?$allocator@D@2@@std@@@2@@std@@V01@@std@@YA_NABV?$allocator@V?$vector@V?$basic_string@DU?$char_traits@D@std@@V?$allocator@D@2@@std@@V?$allocator@V?$basic_string@DU?$char_traits@D@std@@V?$allocator@D@2@@std@@@2@@std@@@0@0@Z ; std::operator==<std::vector<std::basic_string<char,std::char_traits<char>,std::allocator<char> >,std::allocator<std::basic_string<char,std::char_traits<char>,std::allocator<char> > > >,std::vector<std::basic_string<char,std::char_traits<char>,std::allocator<char> >,std::allocator<std::basic_string<char,std::char_traits<char>,std::allocator<char> > > > >
	add	esp, 8
	movzx	eax, al
	neg	eax
	sbb	eax, eax
	add	eax, 1
; Line 272
	pop	ebp
	ret	0
??$?9V?$vector@V?$basic_string@DU?$char_traits@D@std@@V?$allocator@D@2@@std@@V?$allocator@V?$basic_string@DU?$char_traits@D@std@@V?$allocator@D@2@@std@@@2@@std@@V01@@std@@YA_NABV?$allocator@V?$vector@V?$basic_string@DU?$char_traits@D@std@@V?$allocator@D@2@@std@@V?$allocator@V?$basic_string@DU?$char_traits@D@std@@V?$allocator@D@2@@std@@@2@@std@@@0@0@Z ENDP ; std::operator!=<std::vector<std::basic_string<char,std::char_traits<char>,std::allocator<char> >,std::allocator<std::basic_string<char,std::char_traits<char>,std::allocator<char> > > >,std::vector<std::basic_string<char,std::char_traits<char>,std::allocator<char> >,std::allocator<std::basic_string<char,std::char_traits<char>,std::allocator<char> > > > >
; Function compile flags: /Odtp
_TEXT	ENDS
;	COMDAT ??$forward@Umessage@Database@@@std@@YA$$QAUmessage@Database@@AAU12@@Z
_TEXT	SEGMENT
__Arg$ = 8						; size = 4
??$forward@Umessage@Database@@@std@@YA$$QAUmessage@Database@@AAU12@@Z PROC ; std::forward<Database::message>, COMDAT
; File e:\program files (x86)\microsoft visual studio 10.0\vc\include\utility
; Line 78
	push	ebp
	mov	ebp, esp
; Line 79
	mov	eax, DWORD PTR __Arg$[ebp]
; Line 80
	pop	ebp
	ret	0
??$forward@Umessage@Database@@@std@@YA$$QAUmessage@Database@@AAU12@@Z ENDP ; std::forward<Database::message>
; Function compile flags: /Odtp
_TEXT	ENDS
;	COMDAT ??$?9Umessage@Database@@U01@@std@@YA_NABV?$allocator@Umessage@Database@@@0@0@Z
_TEXT	SEGMENT
__Left$ = 8						; size = 4
__Right$ = 12						; size = 4
??$?9Umessage@Database@@U01@@std@@YA_NABV?$allocator@Umessage@Database@@@0@0@Z PROC ; std::operator!=<Database::message,Database::message>, COMDAT
; File e:\program files (x86)\microsoft visual studio 10.0\vc\include\xmemory
; Line 270
	push	ebp
	mov	ebp, esp
; Line 271
	mov	eax, DWORD PTR __Right$[ebp]
	push	eax
	mov	ecx, DWORD PTR __Left$[ebp]
	push	ecx
	call	??$?8Umessage@Database@@U01@@std@@YA_NABV?$allocator@Umessage@Database@@@0@0@Z ; std::operator==<Database::message,Database::message>
	add	esp, 8
	movzx	eax, al
	neg	eax
	sbb	eax, eax
	add	eax, 1
; Line 272
	pop	ebp
	ret	0
??$?9Umessage@Database@@U01@@std@@YA_NABV?$allocator@Umessage@Database@@@0@0@Z ENDP ; std::operator!=<Database::message,Database::message>
; Function compile flags: /Odtp
_TEXT	ENDS
;	COMDAT ??$addressof@$$CBUstruct_chatresponse@Database@@@std@@YAPBUstruct_chatresponse@Database@@ABU12@@Z
_TEXT	SEGMENT
__Val$ = 8						; size = 4
??$addressof@$$CBUstruct_chatresponse@Database@@@std@@YAPBUstruct_chatresponse@Database@@ABU12@@Z PROC ; std::addressof<Database::struct_chatresponse const >, COMDAT
; Line 110
	push	ebp
	mov	ebp, esp
; Line 111
	mov	eax, DWORD PTR __Val$[ebp]
; Line 112
	pop	ebp
	ret	0
??$addressof@$$CBUstruct_chatresponse@Database@@@std@@YAPBUstruct_chatresponse@Database@@ABU12@@Z ENDP ; std::addressof<Database::struct_chatresponse const >
; Function compile flags: /Odtp
_TEXT	ENDS
;	COMDAT ??$forward@V?$vector@Ustruct_chatresponse@Database@@V?$allocator@Ustruct_chatresponse@Database@@@std@@@std@@@std@@YA$$QAV?$vector@Ustruct_chatresponse@Database@@V?$allocator@Ustruct_chatresponse@Database@@@std@@@0@AAV10@@Z
_TEXT	SEGMENT
__Arg$ = 8						; size = 4
??$forward@V?$vector@Ustruct_chatresponse@Database@@V?$allocator@Ustruct_chatresponse@Database@@@std@@@std@@@std@@YA$$QAV?$vector@Ustruct_chatresponse@Database@@V?$allocator@Ustruct_chatresponse@Database@@@std@@@0@AAV10@@Z PROC ; std::forward<std::vector<Database::struct_chatresponse,std::allocator<Database::struct_chatresponse> > >, COMDAT
; File e:\program files (x86)\microsoft visual studio 10.0\vc\include\utility
; Line 78
	push	ebp
	mov	ebp, esp
; Line 79
	mov	eax, DWORD PTR __Arg$[ebp]
; Line 80
	pop	ebp
	ret	0
??$forward@V?$vector@Ustruct_chatresponse@Database@@V?$allocator@Ustruct_chatresponse@Database@@@std@@@std@@@std@@YA$$QAV?$vector@Ustruct_chatresponse@Database@@V?$allocator@Ustruct_chatresponse@Database@@@std@@@0@AAV10@@Z ENDP ; std::forward<std::vector<Database::struct_chatresponse,std::allocator<Database::struct_chatresponse> > >
; Function compile flags: /Odtp
_TEXT	ENDS
;	COMDAT ??$addressof@$$CBUstruct_log@Database@@@std@@YAPBUstruct_log@Database@@ABU12@@Z
_TEXT	SEGMENT
__Val$ = 8						; size = 4
??$addressof@$$CBUstruct_log@Database@@@std@@YAPBUstruct_log@Database@@ABU12@@Z PROC ; std::addressof<Database::struct_log const >, COMDAT
; File e:\program files (x86)\microsoft visual studio 10.0\vc\include\xmemory
; Line 110
	push	ebp
	mov	ebp, esp
; Line 111
	mov	eax, DWORD PTR __Val$[ebp]
; Line 112
	pop	ebp
	ret	0
??$addressof@$$CBUstruct_log@Database@@@std@@YAPBUstruct_log@Database@@ABU12@@Z ENDP ; std::addressof<Database::struct_log const >
; Function compile flags: /Odtp
_TEXT	ENDS
;	COMDAT ??$forward@V?$vector@Ustruct_log@Database@@V?$allocator@Ustruct_log@Database@@@std@@@std@@@std@@YA$$QAV?$vector@Ustruct_log@Database@@V?$allocator@Ustruct_log@Database@@@std@@@0@AAV10@@Z
_TEXT	SEGMENT
__Arg$ = 8						; size = 4
??$forward@V?$vector@Ustruct_log@Database@@V?$allocator@Ustruct_log@Database@@@std@@@std@@@std@@YA$$QAV?$vector@Ustruct_log@Database@@V?$allocator@Ustruct_log@Database@@@std@@@0@AAV10@@Z PROC ; std::forward<std::vector<Database::struct_log,std::allocator<Database::struct_log> > >, COMDAT
; File e:\program files (x86)\microsoft visual studio 10.0\vc\include\utility
; Line 78
	push	ebp
	mov	ebp, esp
; Line 79
	mov	eax, DWORD PTR __Arg$[ebp]
; Line 80
	pop	ebp
	ret	0
??$forward@V?$vector@Ustruct_log@Database@@V?$allocator@Ustruct_log@Database@@@std@@@std@@@std@@YA$$QAV?$vector@Ustruct_log@Database@@V?$allocator@Ustruct_log@Database@@@std@@@0@AAV10@@Z ENDP ; std::forward<std::vector<Database::struct_log,std::allocator<Database::struct_log> > >
; Function compile flags: /Odtp
_TEXT	ENDS
;	COMDAT ??$addressof@$$CBUban@Database@@@std@@YAPBUban@Database@@ABU12@@Z
_TEXT	SEGMENT
__Val$ = 8						; size = 4
??$addressof@$$CBUban@Database@@@std@@YAPBUban@Database@@ABU12@@Z PROC ; std::addressof<Database::ban const >, COMDAT
; File e:\program files (x86)\microsoft visual studio 10.0\vc\include\xmemory
; Line 110
	push	ebp
	mov	ebp, esp
; Line 111
	mov	eax, DWORD PTR __Val$[ebp]
; Line 112
	pop	ebp
	ret	0
??$addressof@$$CBUban@Database@@@std@@YAPBUban@Database@@ABU12@@Z ENDP ; std::addressof<Database::ban const >
; Function compile flags: /Odtp
_TEXT	ENDS
;	COMDAT ??$forward@V?$vector@Uban@Database@@V?$allocator@Uban@Database@@@std@@@std@@@std@@YA$$QAV?$vector@Uban@Database@@V?$allocator@Uban@Database@@@std@@@0@AAV10@@Z
_TEXT	SEGMENT
__Arg$ = 8						; size = 4
??$forward@V?$vector@Uban@Database@@V?$allocator@Uban@Database@@@std@@@std@@@std@@YA$$QAV?$vector@Uban@Database@@V?$allocator@Uban@Database@@@std@@@0@AAV10@@Z PROC ; std::forward<std::vector<Database::ban,std::allocator<Database::ban> > >, COMDAT
; File e:\program files (x86)\microsoft visual studio 10.0\vc\include\utility
; Line 78
	push	ebp
	mov	ebp, esp
; Line 79
	mov	eax, DWORD PTR __Arg$[ebp]
; Line 80
	pop	ebp
	ret	0
??$forward@V?$vector@Uban@Database@@V?$allocator@Uban@Database@@@std@@@std@@@std@@YA$$QAV?$vector@Uban@Database@@V?$allocator@Uban@Database@@@std@@@0@AAV10@@Z ENDP ; std::forward<std::vector<Database::ban,std::allocator<Database::ban> > >
; Function compile flags: /Odtp
_TEXT	ENDS
;	COMDAT ??$addressof@$$CBUadmin@Database@@@std@@YAPBUadmin@Database@@ABU12@@Z
_TEXT	SEGMENT
__Val$ = 8						; size = 4
??$addressof@$$CBUadmin@Database@@@std@@YAPBUadmin@Database@@ABU12@@Z PROC ; std::addressof<Database::admin const >, COMDAT
; File e:\program files (x86)\microsoft visual studio 10.0\vc\include\xmemory
; Line 110
	push	ebp
	mov	ebp, esp
; Line 111
	mov	eax, DWORD PTR __Val$[ebp]
; Line 112
	pop	ebp
	ret	0
??$addressof@$$CBUadmin@Database@@@std@@YAPBUadmin@Database@@ABU12@@Z ENDP ; std::addressof<Database::admin const >
; Function compile flags: /Odtp
_TEXT	ENDS
;	COMDAT ??$forward@V?$vector@Uadmin@Database@@V?$allocator@Uadmin@Database@@@std@@@std@@@std@@YA$$QAV?$vector@Uadmin@Database@@V?$allocator@Uadmin@Database@@@std@@@0@AAV10@@Z
_TEXT	SEGMENT
__Arg$ = 8						; size = 4
??$forward@V?$vector@Uadmin@Database@@V?$allocator@Uadmin@Database@@@std@@@std@@@std@@YA$$QAV?$vector@Uadmin@Database@@V?$allocator@Uadmin@Database@@@std@@@0@AAV10@@Z PROC ; std::forward<std::vector<Database::admin,std::allocator<Database::admin> > >, COMDAT
; File e:\program files (x86)\microsoft visual studio 10.0\vc\include\utility
; Line 78
	push	ebp
	mov	ebp, esp
; Line 79
	mov	eax, DWORD PTR __Arg$[ebp]
; Line 80
	pop	ebp
	ret	0
??$forward@V?$vector@Uadmin@Database@@V?$allocator@Uadmin@Database@@@std@@@std@@@std@@YA$$QAV?$vector@Uadmin@Database@@V?$allocator@Uadmin@Database@@@std@@@0@AAV10@@Z ENDP ; std::forward<std::vector<Database::admin,std::allocator<Database::admin> > >
; Function compile flags: /Odtp
_TEXT	ENDS
;	COMDAT ??$addressof@$$CBV?$vector@V?$basic_string@DU?$char_traits@D@std@@V?$allocator@D@2@@std@@V?$allocator@V?$basic_string@DU?$char_traits@D@std@@V?$allocator@D@2@@std@@@2@@std@@@std@@YAPBV?$vector@V?$basic_string@DU?$char_traits@D@std@@V?$allocator@D@2@@std@@V?$allocator@V?$basic_string@DU?$char_traits@D@std@@V?$allocator@D@2@@std@@@2@@0@ABV10@@Z
_TEXT	SEGMENT
__Val$ = 8						; size = 4
??$addressof@$$CBV?$vector@V?$basic_string@DU?$char_traits@D@std@@V?$allocator@D@2@@std@@V?$allocator@V?$basic_string@DU?$char_traits@D@std@@V?$allocator@D@2@@std@@@2@@std@@@std@@YAPBV?$vector@V?$basic_string@DU?$char_traits@D@std@@V?$allocator@D@2@@std@@V?$allocator@V?$basic_string@DU?$char_traits@D@std@@V?$allocator@D@2@@std@@@2@@0@ABV10@@Z PROC ; std::addressof<std::vector<std::basic_string<char,std::char_traits<char>,std::allocator<char> >,std::allocator<std::basic_string<char,std::char_traits<char>,std::allocator<char> > > > const >, COMDAT
; File e:\program files (x86)\microsoft visual studio 10.0\vc\include\xmemory
; Line 110
	push	ebp
	mov	ebp, esp
; Line 111
	mov	eax, DWORD PTR __Val$[ebp]
; Line 112
	pop	ebp
	ret	0
??$addressof@$$CBV?$vector@V?$basic_string@DU?$char_traits@D@std@@V?$allocator@D@2@@std@@V?$allocator@V?$basic_string@DU?$char_traits@D@std@@V?$allocator@D@2@@std@@@2@@std@@@std@@YAPBV?$vector@V?$basic_string@DU?$char_traits@D@std@@V?$allocator@D@2@@std@@V?$allocator@V?$basic_string@DU?$char_traits@D@std@@V?$allocator@D@2@@std@@@2@@0@ABV10@@Z ENDP ; std::addressof<std::vector<std::basic_string<char,std::char_traits<char>,std::allocator<char> >,std::allocator<std::basic_string<char,std::char_traits<char>,std::allocator<char> > > > const >
; Function compile flags: /Odtp
_TEXT	ENDS
;	COMDAT ??$forward@V?$vector@V?$vector@V?$basic_string@DU?$char_traits@D@std@@V?$allocator@D@2@@std@@V?$allocator@V?$basic_string@DU?$char_traits@D@std@@V?$allocator@D@2@@std@@@2@@std@@V?$allocator@V?$vector@V?$basic_string@DU?$char_traits@D@std@@V?$allocator@D@2@@std@@V?$allocator@V?$basic_string@DU?$char_traits@D@std@@V?$allocator@D@2@@std@@@2@@std@@@2@@std@@@std@@YA$$QAV?$vector@V?$vector@V?$basic_string@DU?$char_traits@D@std@@V?$allocator@D@2@@std@@V?$allocator@V?$basic_string@DU?$char_traits@D@std@@V?$allocator@D@2@@std@@@2@@std@@V?$allocator@V?$vector@V?$basic_string@DU?$char_traits@D@std@@V?$allocator@D@2@@std@@V?$allocator@V?$basic_string@DU?$char_traits@D@std@@V?$allocator@D@2@@std@@@2@@std@@@2@@0@AAV10@@Z
_TEXT	SEGMENT
__Arg$ = 8						; size = 4
??$forward@V?$vector@V?$vector@V?$basic_string@DU?$char_traits@D@std@@V?$allocator@D@2@@std@@V?$allocator@V?$basic_string@DU?$char_traits@D@std@@V?$allocator@D@2@@std@@@2@@std@@V?$allocator@V?$vector@V?$basic_string@DU?$char_traits@D@std@@V?$allocator@D@2@@std@@V?$allocator@V?$basic_string@DU?$char_traits@D@std@@V?$allocator@D@2@@std@@@2@@std@@@2@@std@@@std@@YA$$QAV?$vector@V?$vector@V?$basic_string@DU?$char_traits@D@std@@V?$allocator@D@2@@std@@V?$allocator@V?$basic_string@DU?$char_traits@D@std@@V?$allocator@D@2@@std@@@2@@std@@V?$allocator@V?$vector@V?$basic_string@DU?$char_traits@D@std@@V?$allocator@D@2@@std@@V?$allocator@V?$basic_string@DU?$char_traits@D@std@@V?$allocator@D@2@@std@@@2@@std@@@2@@0@AAV10@@Z PROC ; std::forward<std::vector<std::vector<std::basic_string<char,std::char_traits<char>,std::allocator<char> >,std::allocator<std::basic_string<char,std::char_traits<char>,std::allocator<char> > > >,std::allocator<std::vector<std::basic_string<char,std::char_traits<char>,std::allocator<char> >,std::allocator<std::basic_string<char,std::char_traits<char>,std::allocator<char> > > > > > >, COMDAT
; File e:\program files (x86)\microsoft visual studio 10.0\vc\include\utility
; Line 78
	push	ebp
	mov	ebp, esp
; Line 79
	mov	eax, DWORD PTR __Arg$[ebp]
; Line 80
	pop	ebp
	ret	0
??$forward@V?$vector@V?$vector@V?$basic_string@DU?$char_traits@D@std@@V?$allocator@D@2@@std@@V?$allocator@V?$basic_string@DU?$char_traits@D@std@@V?$allocator@D@2@@std@@@2@@std@@V?$allocator@V?$vector@V?$basic_string@DU?$char_traits@D@std@@V?$allocator@D@2@@std@@V?$allocator@V?$basic_string@DU?$char_traits@D@std@@V?$allocator@D@2@@std@@@2@@std@@@2@@std@@@std@@YA$$QAV?$vector@V?$vector@V?$basic_string@DU?$char_traits@D@std@@V?$allocator@D@2@@std@@V?$allocator@V?$basic_string@DU?$char_traits@D@std@@V?$allocator@D@2@@std@@@2@@std@@V?$allocator@V?$vector@V?$basic_string@DU?$char_traits@D@std@@V?$allocator@D@2@@std@@V?$allocator@V?$basic_string@DU?$char_traits@D@std@@V?$allocator@D@2@@std@@@2@@std@@@2@@0@AAV10@@Z ENDP ; std::forward<std::vector<std::vector<std::basic_string<char,std::char_traits<char>,std::allocator<char> >,std::allocator<std::basic_string<char,std::char_traits<char>,std::allocator<char> > > >,std::allocator<std::vector<std::basic_string<char,std::char_traits<char>,std::allocator<char> >,std::allocator<std::basic_string<char,std::char_traits<char>,std::allocator<char> > > > > > >
; Function compile flags: /Odtp
_TEXT	ENDS
;	COMDAT ??$addressof@$$CBUmessage@Database@@@std@@YAPBUmessage@Database@@ABU12@@Z
_TEXT	SEGMENT
__Val$ = 8						; size = 4
??$addressof@$$CBUmessage@Database@@@std@@YAPBUmessage@Database@@ABU12@@Z PROC ; std::addressof<Database::message const >, COMDAT
; File e:\program files (x86)\microsoft visual studio 10.0\vc\include\xmemory
; Line 110
	push	ebp
	mov	ebp, esp
; Line 111
	mov	eax, DWORD PTR __Val$[ebp]
; Line 112
	pop	ebp
	ret	0
??$addressof@$$CBUmessage@Database@@@std@@YAPBUmessage@Database@@ABU12@@Z ENDP ; std::addressof<Database::message const >
; Function compile flags: /Odtp
_TEXT	ENDS
;	COMDAT ??$forward@V?$vector@Umessage@Database@@V?$allocator@Umessage@Database@@@std@@@std@@@std@@YA$$QAV?$vector@Umessage@Database@@V?$allocator@Umessage@Database@@@std@@@0@AAV10@@Z
_TEXT	SEGMENT
__Arg$ = 8						; size = 4
??$forward@V?$vector@Umessage@Database@@V?$allocator@Umessage@Database@@@std@@@std@@@std@@YA$$QAV?$vector@Umessage@Database@@V?$allocator@Umessage@Database@@@std@@@0@AAV10@@Z PROC ; std::forward<std::vector<Database::message,std::allocator<Database::message> > >, COMDAT
; File e:\program files (x86)\microsoft visual studio 10.0\vc\include\utility
; Line 78
	push	ebp
	mov	ebp, esp
; Line 79
	mov	eax, DWORD PTR __Arg$[ebp]
; Line 80
	pop	ebp
	ret	0
??$forward@V?$vector@Umessage@Database@@V?$allocator@Umessage@Database@@@std@@@std@@@std@@YA$$QAV?$vector@Umessage@Database@@V?$allocator@Umessage@Database@@@std@@@0@AAV10@@Z ENDP ; std::forward<std::vector<Database::message,std::allocator<Database::message> > >
; Function compile flags: /Odtp
_TEXT	ENDS
;	COMDAT ?max_size@?$allocator@Ustruct_chatresponse@Database@@@std@@QBEIXZ
_TEXT	SEGMENT
tv65 = -12						; size = 4
_this$ = -8						; size = 4
__Count$ = -4						; size = 4
?max_size@?$allocator@Ustruct_chatresponse@Database@@@std@@QBEIXZ PROC ; std::allocator<Database::struct_chatresponse>::max_size, COMDAT
; _this$ = ecx
; File e:\program files (x86)\microsoft visual studio 10.0\vc\include\xmemory
; Line 217
	push	ebp
	mov	ebp, esp
	sub	esp, 12					; 0000000cH
	mov	DWORD PTR _this$[ebp], ecx
; Line 218
	mov	DWORD PTR __Count$[ebp], 71582788	; 04444444H
; Line 219
	cmp	DWORD PTR __Count$[ebp], 0
	jbe	SHORT $LN3@max_size@2
	mov	eax, DWORD PTR __Count$[ebp]
	mov	DWORD PTR tv65[ebp], eax
	jmp	SHORT $LN4@max_size@2
$LN3@max_size@2:
	mov	DWORD PTR tv65[ebp], 1
$LN4@max_size@2:
	mov	eax, DWORD PTR tv65[ebp]
; Line 220
	mov	esp, ebp
	pop	ebp
	ret	0
?max_size@?$allocator@Ustruct_chatresponse@Database@@@std@@QBEIXZ ENDP ; std::allocator<Database::struct_chatresponse>::max_size
; Function compile flags: /Odtp
_TEXT	ENDS
;	COMDAT ?max_size@?$allocator@Ustruct_log@Database@@@std@@QBEIXZ
_TEXT	SEGMENT
tv65 = -12						; size = 4
_this$ = -8						; size = 4
__Count$ = -4						; size = 4
?max_size@?$allocator@Ustruct_log@Database@@@std@@QBEIXZ PROC ; std::allocator<Database::struct_log>::max_size, COMDAT
; _this$ = ecx
; Line 217
	push	ebp
	mov	ebp, esp
	sub	esp, 12					; 0000000cH
	mov	DWORD PTR _this$[ebp], ecx
; Line 218
	mov	DWORD PTR __Count$[ebp], 46684427	; 02c8590bH
; Line 219
	cmp	DWORD PTR __Count$[ebp], 0
	jbe	SHORT $LN3@max_size@3
	mov	eax, DWORD PTR __Count$[ebp]
	mov	DWORD PTR tv65[ebp], eax
	jmp	SHORT $LN4@max_size@3
$LN3@max_size@3:
	mov	DWORD PTR tv65[ebp], 1
$LN4@max_size@3:
	mov	eax, DWORD PTR tv65[ebp]
; Line 220
	mov	esp, ebp
	pop	ebp
	ret	0
?max_size@?$allocator@Ustruct_log@Database@@@std@@QBEIXZ ENDP ; std::allocator<Database::struct_log>::max_size
; Function compile flags: /Odtp
_TEXT	ENDS
;	COMDAT ?max_size@?$allocator@Uban@Database@@@std@@QBEIXZ
_TEXT	SEGMENT
tv65 = -12						; size = 4
_this$ = -8						; size = 4
__Count$ = -4						; size = 4
?max_size@?$allocator@Uban@Database@@@std@@QBEIXZ PROC	; std::allocator<Database::ban>::max_size, COMDAT
; _this$ = ecx
; Line 217
	push	ebp
	mov	ebp, esp
	sub	esp, 12					; 0000000cH
	mov	DWORD PTR _this$[ebp], ecx
; Line 218
	mov	DWORD PTR __Count$[ebp], 29826161	; 01c71c71H
; Line 219
	cmp	DWORD PTR __Count$[ebp], 0
	jbe	SHORT $LN3@max_size@4
	mov	eax, DWORD PTR __Count$[ebp]
	mov	DWORD PTR tv65[ebp], eax
	jmp	SHORT $LN4@max_size@4
$LN3@max_size@4:
	mov	DWORD PTR tv65[ebp], 1
$LN4@max_size@4:
	mov	eax, DWORD PTR tv65[ebp]
; Line 220
	mov	esp, ebp
	pop	ebp
	ret	0
?max_size@?$allocator@Uban@Database@@@std@@QBEIXZ ENDP	; std::allocator<Database::ban>::max_size
; Function compile flags: /Odtp
_TEXT	ENDS
;	COMDAT ?max_size@?$allocator@Uadmin@Database@@@std@@QBEIXZ
_TEXT	SEGMENT
tv65 = -12						; size = 4
_this$ = -8						; size = 4
__Count$ = -4						; size = 4
?max_size@?$allocator@Uadmin@Database@@@std@@QBEIXZ PROC ; std::allocator<Database::admin>::max_size, COMDAT
; _this$ = ecx
; Line 217
	push	ebp
	mov	ebp, esp
	sub	esp, 12					; 0000000cH
	mov	DWORD PTR _this$[ebp], ecx
; Line 218
	mov	DWORD PTR __Count$[ebp], 46684427	; 02c8590bH
; Line 219
	cmp	DWORD PTR __Count$[ebp], 0
	jbe	SHORT $LN3@max_size@5
	mov	eax, DWORD PTR __Count$[ebp]
	mov	DWORD PTR tv65[ebp], eax
	jmp	SHORT $LN4@max_size@5
$LN3@max_size@5:
	mov	DWORD PTR tv65[ebp], 1
$LN4@max_size@5:
	mov	eax, DWORD PTR tv65[ebp]
; Line 220
	mov	esp, ebp
	pop	ebp
	ret	0
?max_size@?$allocator@Uadmin@Database@@@std@@QBEIXZ ENDP ; std::allocator<Database::admin>::max_size
; Function compile flags: /Odtp
_TEXT	ENDS
;	COMDAT ?max_size@?$allocator@V?$vector@V?$basic_string@DU?$char_traits@D@std@@V?$allocator@D@2@@std@@V?$allocator@V?$basic_string@DU?$char_traits@D@std@@V?$allocator@D@2@@std@@@2@@std@@@std@@QBEIXZ
_TEXT	SEGMENT
tv65 = -12						; size = 4
_this$ = -8						; size = 4
__Count$ = -4						; size = 4
?max_size@?$allocator@V?$vector@V?$basic_string@DU?$char_traits@D@std@@V?$allocator@D@2@@std@@V?$allocator@V?$basic_string@DU?$char_traits@D@std@@V?$allocator@D@2@@std@@@2@@std@@@std@@QBEIXZ PROC ; std::allocator<std::vector<std::basic_string<char,std::char_traits<char>,std::allocator<char> >,std::allocator<std::basic_string<char,std::char_traits<char>,std::allocator<char> > > > >::max_size, COMDAT
; _this$ = ecx
; Line 217
	push	ebp
	mov	ebp, esp
	sub	esp, 12					; 0000000cH
	mov	DWORD PTR _this$[ebp], ecx
; Line 218
	mov	DWORD PTR __Count$[ebp], 268435455	; 0fffffffH
; Line 219
	cmp	DWORD PTR __Count$[ebp], 0
	jbe	SHORT $LN3@max_size@6
	mov	eax, DWORD PTR __Count$[ebp]
	mov	DWORD PTR tv65[ebp], eax
	jmp	SHORT $LN4@max_size@6
$LN3@max_size@6:
	mov	DWORD PTR tv65[ebp], 1
$LN4@max_size@6:
	mov	eax, DWORD PTR tv65[ebp]
; Line 220
	mov	esp, ebp
	pop	ebp
	ret	0
?max_size@?$allocator@V?$vector@V?$basic_string@DU?$char_traits@D@std@@V?$allocator@D@2@@std@@V?$allocator@V?$basic_string@DU?$char_traits@D@std@@V?$allocator@D@2@@std@@@2@@std@@@std@@QBEIXZ ENDP ; std::allocator<std::vector<std::basic_string<char,std::char_traits<char>,std::allocator<char> >,std::allocator<std::basic_string<char,std::char_traits<char>,std::allocator<char> > > > >::max_size
; Function compile flags: /Odtp
_TEXT	ENDS
;	COMDAT ?max_size@?$allocator@Umessage@Database@@@std@@QBEIXZ
_TEXT	SEGMENT
tv65 = -12						; size = 4
_this$ = -8						; size = 4
__Count$ = -4						; size = 4
?max_size@?$allocator@Umessage@Database@@@std@@QBEIXZ PROC ; std::allocator<Database::message>::max_size, COMDAT
; _this$ = ecx
; Line 217
	push	ebp
	mov	ebp, esp
	sub	esp, 12					; 0000000cH
	mov	DWORD PTR _this$[ebp], ecx
; Line 218
	mov	DWORD PTR __Count$[ebp], 119304647	; 071c71c7H
; Line 219
	cmp	DWORD PTR __Count$[ebp], 0
	jbe	SHORT $LN3@max_size@7
	mov	eax, DWORD PTR __Count$[ebp]
	mov	DWORD PTR tv65[ebp], eax
	jmp	SHORT $LN4@max_size@7
$LN3@max_size@7:
	mov	DWORD PTR tv65[ebp], 1
$LN4@max_size@7:
	mov	eax, DWORD PTR tv65[ebp]
; Line 220
	mov	esp, ebp
	pop	ebp
	ret	0
?max_size@?$allocator@Umessage@Database@@@std@@QBEIXZ ENDP ; std::allocator<Database::message>::max_size
; Function compile flags: /Odtp
_TEXT	ENDS
;	COMDAT ?_Xlen@?$vector@Ustruct_chatresponse@Database@@V?$allocator@Ustruct_chatresponse@Database@@@std@@@std@@IBEXXZ
_TEXT	SEGMENT
_this$ = -4						; size = 4
?_Xlen@?$vector@Ustruct_chatresponse@Database@@V?$allocator@Ustruct_chatresponse@Database@@@std@@@std@@IBEXXZ PROC ; std::vector<Database::struct_chatresponse,std::allocator<Database::struct_chatresponse> >::_Xlen, COMDAT
; _this$ = ecx
; File e:\program files (x86)\microsoft visual studio 10.0\vc\include\vector
; Line 1426
	push	ebp
	mov	ebp, esp
	push	ecx
	mov	DWORD PTR _this$[ebp], ecx
; Line 1427
	push	OFFSET ??_C@_0BD@OLBABOEK@vector?$DMT?$DO?5too?5long?$AA@
	call	DWORD PTR __imp_?_Xlength_error@std@@YAXPBD@Z
$LN2@Xlen@2:
; Line 1428
	mov	esp, ebp
	pop	ebp
	ret	0
?_Xlen@?$vector@Ustruct_chatresponse@Database@@V?$allocator@Ustruct_chatresponse@Database@@@std@@@std@@IBEXXZ ENDP ; std::vector<Database::struct_chatresponse,std::allocator<Database::struct_chatresponse> >::_Xlen
; Function compile flags: /Odtp
_TEXT	ENDS
;	COMDAT ?max_size@?$vector@Ustruct_chatresponse@Database@@V?$allocator@Ustruct_chatresponse@Database@@@std@@@std@@QBEIXZ
_TEXT	SEGMENT
_this$ = -4						; size = 4
?max_size@?$vector@Ustruct_chatresponse@Database@@V?$allocator@Ustruct_chatresponse@Database@@@std@@@std@@QBEIXZ PROC ; std::vector<Database::struct_chatresponse,std::allocator<Database::struct_chatresponse> >::max_size, COMDAT
; _this$ = ecx
; Line 883
	push	ebp
	mov	ebp, esp
	push	ecx
	mov	DWORD PTR _this$[ebp], ecx
; Line 884
	mov	ecx, DWORD PTR _this$[ebp]
	add	ecx, 12					; 0000000cH
	call	?max_size@?$allocator@Ustruct_chatresponse@Database@@@std@@QBEIXZ ; std::allocator<Database::struct_chatresponse>::max_size
; Line 885
	mov	esp, ebp
	pop	ebp
	ret	0
?max_size@?$vector@Ustruct_chatresponse@Database@@V?$allocator@Ustruct_chatresponse@Database@@@std@@@std@@QBEIXZ ENDP ; std::vector<Database::struct_chatresponse,std::allocator<Database::struct_chatresponse> >::max_size
; Function compile flags: /Odtp
_TEXT	ENDS
;	COMDAT ?size@?$vector@Ustruct_chatresponse@Database@@V?$allocator@Ustruct_chatresponse@Database@@@std@@@std@@QBEIXZ
_TEXT	SEGMENT
_this$ = -4						; size = 4
?size@?$vector@Ustruct_chatresponse@Database@@V?$allocator@Ustruct_chatresponse@Database@@@std@@@std@@QBEIXZ PROC ; std::vector<Database::struct_chatresponse,std::allocator<Database::struct_chatresponse> >::size, COMDAT
; _this$ = ecx
; Line 878
	push	ebp
	mov	ebp, esp
	push	ecx
	mov	DWORD PTR _this$[ebp], ecx
; Line 879
	mov	eax, DWORD PTR _this$[ebp]
	mov	ecx, DWORD PTR _this$[ebp]
	mov	eax, DWORD PTR [eax+4]
	sub	eax, DWORD PTR [ecx]
	cdq
	mov	ecx, 60					; 0000003cH
	idiv	ecx
; Line 880
	mov	esp, ebp
	pop	ebp
	ret	0
?size@?$vector@Ustruct_chatresponse@Database@@V?$allocator@Ustruct_chatresponse@Database@@@std@@@std@@QBEIXZ ENDP ; std::vector<Database::struct_chatresponse,std::allocator<Database::struct_chatresponse> >::size
; Function compile flags: /Odtp
_TEXT	ENDS
;	COMDAT ?capacity@?$vector@Ustruct_chatresponse@Database@@V?$allocator@Ustruct_chatresponse@Database@@@std@@@std@@QBEIXZ
_TEXT	SEGMENT
_this$ = -4						; size = 4
?capacity@?$vector@Ustruct_chatresponse@Database@@V?$allocator@Ustruct_chatresponse@Database@@@std@@@std@@QBEIXZ PROC ; std::vector<Database::struct_chatresponse,std::allocator<Database::struct_chatresponse> >::capacity, COMDAT
; _this$ = ecx
; Line 776
	push	ebp
	mov	ebp, esp
	push	ecx
	mov	DWORD PTR _this$[ebp], ecx
; Line 777
	mov	eax, DWORD PTR _this$[ebp]
	mov	ecx, DWORD PTR _this$[ebp]
	mov	eax, DWORD PTR [eax+8]
	sub	eax, DWORD PTR [ecx]
	cdq
	mov	ecx, 60					; 0000003cH
	idiv	ecx
; Line 778
	mov	esp, ebp
	pop	ebp
	ret	0
?capacity@?$vector@Ustruct_chatresponse@Database@@V?$allocator@Ustruct_chatresponse@Database@@@std@@@std@@QBEIXZ ENDP ; std::vector<Database::struct_chatresponse,std::allocator<Database::struct_chatresponse> >::capacity
; Function compile flags: /Odtp
_TEXT	ENDS
;	COMDAT ?_Xlen@?$vector@Ustruct_log@Database@@V?$allocator@Ustruct_log@Database@@@std@@@std@@IBEXXZ
_TEXT	SEGMENT
_this$ = -4						; size = 4
?_Xlen@?$vector@Ustruct_log@Database@@V?$allocator@Ustruct_log@Database@@@std@@@std@@IBEXXZ PROC ; std::vector<Database::struct_log,std::allocator<Database::struct_log> >::_Xlen, COMDAT
; _this$ = ecx
; Line 1426
	push	ebp
	mov	ebp, esp
	push	ecx
	mov	DWORD PTR _this$[ebp], ecx
; Line 1427
	push	OFFSET ??_C@_0BD@OLBABOEK@vector?$DMT?$DO?5too?5long?$AA@
	call	DWORD PTR __imp_?_Xlength_error@std@@YAXPBD@Z
$LN2@Xlen@3:
; Line 1428
	mov	esp, ebp
	pop	ebp
	ret	0
?_Xlen@?$vector@Ustruct_log@Database@@V?$allocator@Ustruct_log@Database@@@std@@@std@@IBEXXZ ENDP ; std::vector<Database::struct_log,std::allocator<Database::struct_log> >::_Xlen
; Function compile flags: /Odtp
_TEXT	ENDS
;	COMDAT ?max_size@?$vector@Ustruct_log@Database@@V?$allocator@Ustruct_log@Database@@@std@@@std@@QBEIXZ
_TEXT	SEGMENT
_this$ = -4						; size = 4
?max_size@?$vector@Ustruct_log@Database@@V?$allocator@Ustruct_log@Database@@@std@@@std@@QBEIXZ PROC ; std::vector<Database::struct_log,std::allocator<Database::struct_log> >::max_size, COMDAT
; _this$ = ecx
; Line 883
	push	ebp
	mov	ebp, esp
	push	ecx
	mov	DWORD PTR _this$[ebp], ecx
; Line 884
	mov	ecx, DWORD PTR _this$[ebp]
	add	ecx, 12					; 0000000cH
	call	?max_size@?$allocator@Ustruct_log@Database@@@std@@QBEIXZ ; std::allocator<Database::struct_log>::max_size
; Line 885
	mov	esp, ebp
	pop	ebp
	ret	0
?max_size@?$vector@Ustruct_log@Database@@V?$allocator@Ustruct_log@Database@@@std@@@std@@QBEIXZ ENDP ; std::vector<Database::struct_log,std::allocator<Database::struct_log> >::max_size
; Function compile flags: /Odtp
_TEXT	ENDS
;	COMDAT ?size@?$vector@Ustruct_log@Database@@V?$allocator@Ustruct_log@Database@@@std@@@std@@QBEIXZ
_TEXT	SEGMENT
_this$ = -4						; size = 4
?size@?$vector@Ustruct_log@Database@@V?$allocator@Ustruct_log@Database@@@std@@@std@@QBEIXZ PROC ; std::vector<Database::struct_log,std::allocator<Database::struct_log> >::size, COMDAT
; _this$ = ecx
; Line 878
	push	ebp
	mov	ebp, esp
	push	ecx
	mov	DWORD PTR _this$[ebp], ecx
; Line 879
	mov	eax, DWORD PTR _this$[ebp]
	mov	ecx, DWORD PTR _this$[ebp]
	mov	eax, DWORD PTR [eax+4]
	sub	eax, DWORD PTR [ecx]
	cdq
	mov	ecx, 92					; 0000005cH
	idiv	ecx
; Line 880
	mov	esp, ebp
	pop	ebp
	ret	0
?size@?$vector@Ustruct_log@Database@@V?$allocator@Ustruct_log@Database@@@std@@@std@@QBEIXZ ENDP ; std::vector<Database::struct_log,std::allocator<Database::struct_log> >::size
; Function compile flags: /Odtp
_TEXT	ENDS
;	COMDAT ?capacity@?$vector@Ustruct_log@Database@@V?$allocator@Ustruct_log@Database@@@std@@@std@@QBEIXZ
_TEXT	SEGMENT
_this$ = -4						; size = 4
?capacity@?$vector@Ustruct_log@Database@@V?$allocator@Ustruct_log@Database@@@std@@@std@@QBEIXZ PROC ; std::vector<Database::struct_log,std::allocator<Database::struct_log> >::capacity, COMDAT
; _this$ = ecx
; Line 776
	push	ebp
	mov	ebp, esp
	push	ecx
	mov	DWORD PTR _this$[ebp], ecx
; Line 777
	mov	eax, DWORD PTR _this$[ebp]
	mov	ecx, DWORD PTR _this$[ebp]
	mov	eax, DWORD PTR [eax+8]
	sub	eax, DWORD PTR [ecx]
	cdq
	mov	ecx, 92					; 0000005cH
	idiv	ecx
; Line 778
	mov	esp, ebp
	pop	ebp
	ret	0
?capacity@?$vector@Ustruct_log@Database@@V?$allocator@Ustruct_log@Database@@@std@@@std@@QBEIXZ ENDP ; std::vector<Database::struct_log,std::allocator<Database::struct_log> >::capacity
; Function compile flags: /Odtp
_TEXT	ENDS
;	COMDAT ?_Xlen@?$vector@Uban@Database@@V?$allocator@Uban@Database@@@std@@@std@@IBEXXZ
_TEXT	SEGMENT
_this$ = -4						; size = 4
?_Xlen@?$vector@Uban@Database@@V?$allocator@Uban@Database@@@std@@@std@@IBEXXZ PROC ; std::vector<Database::ban,std::allocator<Database::ban> >::_Xlen, COMDAT
; _this$ = ecx
; Line 1426
	push	ebp
	mov	ebp, esp
	push	ecx
	mov	DWORD PTR _this$[ebp], ecx
; Line 1427
	push	OFFSET ??_C@_0BD@OLBABOEK@vector?$DMT?$DO?5too?5long?$AA@
	call	DWORD PTR __imp_?_Xlength_error@std@@YAXPBD@Z
$LN2@Xlen@4:
; Line 1428
	mov	esp, ebp
	pop	ebp
	ret	0
?_Xlen@?$vector@Uban@Database@@V?$allocator@Uban@Database@@@std@@@std@@IBEXXZ ENDP ; std::vector<Database::ban,std::allocator<Database::ban> >::_Xlen
; Function compile flags: /Odtp
_TEXT	ENDS
;	COMDAT ?max_size@?$vector@Uban@Database@@V?$allocator@Uban@Database@@@std@@@std@@QBEIXZ
_TEXT	SEGMENT
_this$ = -4						; size = 4
?max_size@?$vector@Uban@Database@@V?$allocator@Uban@Database@@@std@@@std@@QBEIXZ PROC ; std::vector<Database::ban,std::allocator<Database::ban> >::max_size, COMDAT
; _this$ = ecx
; Line 883
	push	ebp
	mov	ebp, esp
	push	ecx
	mov	DWORD PTR _this$[ebp], ecx
; Line 884
	mov	ecx, DWORD PTR _this$[ebp]
	add	ecx, 12					; 0000000cH
	call	?max_size@?$allocator@Uban@Database@@@std@@QBEIXZ ; std::allocator<Database::ban>::max_size
; Line 885
	mov	esp, ebp
	pop	ebp
	ret	0
?max_size@?$vector@Uban@Database@@V?$allocator@Uban@Database@@@std@@@std@@QBEIXZ ENDP ; std::vector<Database::ban,std::allocator<Database::ban> >::max_size
; Function compile flags: /Odtp
_TEXT	ENDS
;	COMDAT ?size@?$vector@Uban@Database@@V?$allocator@Uban@Database@@@std@@@std@@QBEIXZ
_TEXT	SEGMENT
_this$ = -4						; size = 4
?size@?$vector@Uban@Database@@V?$allocator@Uban@Database@@@std@@@std@@QBEIXZ PROC ; std::vector<Database::ban,std::allocator<Database::ban> >::size, COMDAT
; _this$ = ecx
; Line 878
	push	ebp
	mov	ebp, esp
	push	ecx
	mov	DWORD PTR _this$[ebp], ecx
; Line 879
	mov	eax, DWORD PTR _this$[ebp]
	mov	ecx, DWORD PTR _this$[ebp]
	mov	eax, DWORD PTR [eax+4]
	sub	eax, DWORD PTR [ecx]
	cdq
	mov	ecx, 144				; 00000090H
	idiv	ecx
; Line 880
	mov	esp, ebp
	pop	ebp
	ret	0
?size@?$vector@Uban@Database@@V?$allocator@Uban@Database@@@std@@@std@@QBEIXZ ENDP ; std::vector<Database::ban,std::allocator<Database::ban> >::size
; Function compile flags: /Odtp
_TEXT	ENDS
;	COMDAT ?capacity@?$vector@Uban@Database@@V?$allocator@Uban@Database@@@std@@@std@@QBEIXZ
_TEXT	SEGMENT
_this$ = -4						; size = 4
?capacity@?$vector@Uban@Database@@V?$allocator@Uban@Database@@@std@@@std@@QBEIXZ PROC ; std::vector<Database::ban,std::allocator<Database::ban> >::capacity, COMDAT
; _this$ = ecx
; Line 776
	push	ebp
	mov	ebp, esp
	push	ecx
	mov	DWORD PTR _this$[ebp], ecx
; Line 777
	mov	eax, DWORD PTR _this$[ebp]
	mov	ecx, DWORD PTR _this$[ebp]
	mov	eax, DWORD PTR [eax+8]
	sub	eax, DWORD PTR [ecx]
	cdq
	mov	ecx, 144				; 00000090H
	idiv	ecx
; Line 778
	mov	esp, ebp
	pop	ebp
	ret	0
?capacity@?$vector@Uban@Database@@V?$allocator@Uban@Database@@@std@@@std@@QBEIXZ ENDP ; std::vector<Database::ban,std::allocator<Database::ban> >::capacity
; Function compile flags: /Odtp
_TEXT	ENDS
;	COMDAT ?_Xlen@?$vector@Uadmin@Database@@V?$allocator@Uadmin@Database@@@std@@@std@@IBEXXZ
_TEXT	SEGMENT
_this$ = -4						; size = 4
?_Xlen@?$vector@Uadmin@Database@@V?$allocator@Uadmin@Database@@@std@@@std@@IBEXXZ PROC ; std::vector<Database::admin,std::allocator<Database::admin> >::_Xlen, COMDAT
; _this$ = ecx
; Line 1426
	push	ebp
	mov	ebp, esp
	push	ecx
	mov	DWORD PTR _this$[ebp], ecx
; Line 1427
	push	OFFSET ??_C@_0BD@OLBABOEK@vector?$DMT?$DO?5too?5long?$AA@
	call	DWORD PTR __imp_?_Xlength_error@std@@YAXPBD@Z
$LN2@Xlen@5:
; Line 1428
	mov	esp, ebp
	pop	ebp
	ret	0
?_Xlen@?$vector@Uadmin@Database@@V?$allocator@Uadmin@Database@@@std@@@std@@IBEXXZ ENDP ; std::vector<Database::admin,std::allocator<Database::admin> >::_Xlen
; Function compile flags: /Odtp
_TEXT	ENDS
;	COMDAT ?max_size@?$vector@Uadmin@Database@@V?$allocator@Uadmin@Database@@@std@@@std@@QBEIXZ
_TEXT	SEGMENT
_this$ = -4						; size = 4
?max_size@?$vector@Uadmin@Database@@V?$allocator@Uadmin@Database@@@std@@@std@@QBEIXZ PROC ; std::vector<Database::admin,std::allocator<Database::admin> >::max_size, COMDAT
; _this$ = ecx
; Line 883
	push	ebp
	mov	ebp, esp
	push	ecx
	mov	DWORD PTR _this$[ebp], ecx
; Line 884
	mov	ecx, DWORD PTR _this$[ebp]
	add	ecx, 12					; 0000000cH
	call	?max_size@?$allocator@Uadmin@Database@@@std@@QBEIXZ ; std::allocator<Database::admin>::max_size
; Line 885
	mov	esp, ebp
	pop	ebp
	ret	0
?max_size@?$vector@Uadmin@Database@@V?$allocator@Uadmin@Database@@@std@@@std@@QBEIXZ ENDP ; std::vector<Database::admin,std::allocator<Database::admin> >::max_size
; Function compile flags: /Odtp
_TEXT	ENDS
;	COMDAT ?size@?$vector@Uadmin@Database@@V?$allocator@Uadmin@Database@@@std@@@std@@QBEIXZ
_TEXT	SEGMENT
_this$ = -4						; size = 4
?size@?$vector@Uadmin@Database@@V?$allocator@Uadmin@Database@@@std@@@std@@QBEIXZ PROC ; std::vector<Database::admin,std::allocator<Database::admin> >::size, COMDAT
; _this$ = ecx
; Line 878
	push	ebp
	mov	ebp, esp
	push	ecx
	mov	DWORD PTR _this$[ebp], ecx
; Line 879
	mov	eax, DWORD PTR _this$[ebp]
	mov	ecx, DWORD PTR _this$[ebp]
	mov	eax, DWORD PTR [eax+4]
	sub	eax, DWORD PTR [ecx]
	cdq
	mov	ecx, 92					; 0000005cH
	idiv	ecx
; Line 880
	mov	esp, ebp
	pop	ebp
	ret	0
?size@?$vector@Uadmin@Database@@V?$allocator@Uadmin@Database@@@std@@@std@@QBEIXZ ENDP ; std::vector<Database::admin,std::allocator<Database::admin> >::size
; Function compile flags: /Odtp
_TEXT	ENDS
;	COMDAT ?capacity@?$vector@Uadmin@Database@@V?$allocator@Uadmin@Database@@@std@@@std@@QBEIXZ
_TEXT	SEGMENT
_this$ = -4						; size = 4
?capacity@?$vector@Uadmin@Database@@V?$allocator@Uadmin@Database@@@std@@@std@@QBEIXZ PROC ; std::vector<Database::admin,std::allocator<Database::admin> >::capacity, COMDAT
; _this$ = ecx
; Line 776
	push	ebp
	mov	ebp, esp
	push	ecx
	mov	DWORD PTR _this$[ebp], ecx
; Line 777
	mov	eax, DWORD PTR _this$[ebp]
	mov	ecx, DWORD PTR _this$[ebp]
	mov	eax, DWORD PTR [eax+8]
	sub	eax, DWORD PTR [ecx]
	cdq
	mov	ecx, 92					; 0000005cH
	idiv	ecx
; Line 778
	mov	esp, ebp
	pop	ebp
	ret	0
?capacity@?$vector@Uadmin@Database@@V?$allocator@Uadmin@Database@@@std@@@std@@QBEIXZ ENDP ; std::vector<Database::admin,std::allocator<Database::admin> >::capacity
; Function compile flags: /Odtp
_TEXT	ENDS
;	COMDAT ?deallocate@?$allocator@V?$vector@V?$basic_string@DU?$char_traits@D@std@@V?$allocator@D@2@@std@@V?$allocator@V?$basic_string@DU?$char_traits@D@std@@V?$allocator@D@2@@std@@@2@@std@@@std@@QAEXPAV?$vector@V?$basic_string@DU?$char_traits@D@std@@V?$allocator@D@2@@std@@V?$allocator@V?$basic_string@DU?$char_traits@D@std@@V?$allocator@D@2@@std@@@2@@2@I@Z
_TEXT	SEGMENT
_this$ = -4						; size = 4
__Ptr$ = 8						; size = 4
___formal$ = 12						; size = 4
?deallocate@?$allocator@V?$vector@V?$basic_string@DU?$char_traits@D@std@@V?$allocator@D@2@@std@@V?$allocator@V?$basic_string@DU?$char_traits@D@std@@V?$allocator@D@2@@std@@@2@@std@@@std@@QAEXPAV?$vector@V?$basic_string@DU?$char_traits@D@std@@V?$allocator@D@2@@std@@V?$allocator@V?$basic_string@DU?$char_traits@D@std@@V?$allocator@D@2@@std@@@2@@2@I@Z PROC ; std::allocator<std::vector<std::basic_string<char,std::char_traits<char>,std::allocator<char> >,std::allocator<std::basic_string<char,std::char_traits<char>,std::allocator<char> > > > >::deallocate, COMDAT
; _this$ = ecx
; File e:\program files (x86)\microsoft visual studio 10.0\vc\include\xmemory
; Line 181
	push	ebp
	mov	ebp, esp
	push	ecx
	mov	DWORD PTR _this$[ebp], ecx
; Line 182
	mov	eax, DWORD PTR __Ptr$[ebp]
	push	eax
	call	DWORD PTR __imp_??3@YAXPAX@Z
	add	esp, 4
; Line 183
	mov	esp, ebp
	pop	ebp
	ret	8
?deallocate@?$allocator@V?$vector@V?$basic_string@DU?$char_traits@D@std@@V?$allocator@D@2@@std@@V?$allocator@V?$basic_string@DU?$char_traits@D@std@@V?$allocator@D@2@@std@@@2@@std@@@std@@QAEXPAV?$vector@V?$basic_string@DU?$char_traits@D@std@@V?$allocator@D@2@@std@@V?$allocator@V?$basic_string@DU?$char_traits@D@std@@V?$allocator@D@2@@std@@@2@@2@I@Z ENDP ; std::allocator<std::vector<std::basic_string<char,std::char_traits<char>,std::allocator<char> >,std::allocator<std::basic_string<char,std::char_traits<char>,std::allocator<char> > > > >::deallocate
; Function compile flags: /Odtp
_TEXT	ENDS
;	COMDAT ?_Xlen@?$vector@V?$vector@V?$basic_string@DU?$char_traits@D@std@@V?$allocator@D@2@@std@@V?$allocator@V?$basic_string@DU?$char_traits@D@std@@V?$allocator@D@2@@std@@@2@@std@@V?$allocator@V?$vector@V?$basic_string@DU?$char_traits@D@std@@V?$allocator@D@2@@std@@V?$allocator@V?$basic_string@DU?$char_traits@D@std@@V?$allocator@D@2@@std@@@2@@std@@@2@@std@@IBEXXZ
_TEXT	SEGMENT
_this$ = -4						; size = 4
?_Xlen@?$vector@V?$vector@V?$basic_string@DU?$char_traits@D@std@@V?$allocator@D@2@@std@@V?$allocator@V?$basic_string@DU?$char_traits@D@std@@V?$allocator@D@2@@std@@@2@@std@@V?$allocator@V?$vector@V?$basic_string@DU?$char_traits@D@std@@V?$allocator@D@2@@std@@V?$allocator@V?$basic_string@DU?$char_traits@D@std@@V?$allocator@D@2@@std@@@2@@std@@@2@@std@@IBEXXZ PROC ; std::vector<std::vector<std::basic_string<char,std::char_traits<char>,std::allocator<char> >,std::allocator<std::basic_string<char,std::char_traits<char>,std::allocator<char> > > >,std::allocator<std::vector<std::basic_string<char,std::char_traits<char>,std::allocator<char> >,std::allocator<std::basic_string<char,std::char_traits<char>,std::allocator<char> > > > > >::_Xlen, COMDAT
; _this$ = ecx
; File e:\program files (x86)\microsoft visual studio 10.0\vc\include\vector
; Line 1426
	push	ebp
	mov	ebp, esp
	push	ecx
	mov	DWORD PTR _this$[ebp], ecx
; Line 1427
	push	OFFSET ??_C@_0BD@OLBABOEK@vector?$DMT?$DO?5too?5long?$AA@
	call	DWORD PTR __imp_?_Xlength_error@std@@YAXPBD@Z
$LN2@Xlen@6:
; Line 1428
	mov	esp, ebp
	pop	ebp
	ret	0
?_Xlen@?$vector@V?$vector@V?$basic_string@DU?$char_traits@D@std@@V?$allocator@D@2@@std@@V?$allocator@V?$basic_string@DU?$char_traits@D@std@@V?$allocator@D@2@@std@@@2@@std@@V?$allocator@V?$vector@V?$basic_string@DU?$char_traits@D@std@@V?$allocator@D@2@@std@@V?$allocator@V?$basic_string@DU?$char_traits@D@std@@V?$allocator@D@2@@std@@@2@@std@@@2@@std@@IBEXXZ ENDP ; std::vector<std::vector<std::basic_string<char,std::char_traits<char>,std::allocator<char> >,std::allocator<std::basic_string<char,std::char_traits<char>,std::allocator<char> > > >,std::allocator<std::vector<std::basic_string<char,std::char_traits<char>,std::allocator<char> >,std::allocator<std::basic_string<char,std::char_traits<char>,std::allocator<char> > > > > >::_Xlen
; Function compile flags: /Odtp
_TEXT	ENDS
;	COMDAT ?max_size@?$vector@V?$vector@V?$basic_string@DU?$char_traits@D@std@@V?$allocator@D@2@@std@@V?$allocator@V?$basic_string@DU?$char_traits@D@std@@V?$allocator@D@2@@std@@@2@@std@@V?$allocator@V?$vector@V?$basic_string@DU?$char_traits@D@std@@V?$allocator@D@2@@std@@V?$allocator@V?$basic_string@DU?$char_traits@D@std@@V?$allocator@D@2@@std@@@2@@std@@@2@@std@@QBEIXZ
_TEXT	SEGMENT
_this$ = -4						; size = 4
?max_size@?$vector@V?$vector@V?$basic_string@DU?$char_traits@D@std@@V?$allocator@D@2@@std@@V?$allocator@V?$basic_string@DU?$char_traits@D@std@@V?$allocator@D@2@@std@@@2@@std@@V?$allocator@V?$vector@V?$basic_string@DU?$char_traits@D@std@@V?$allocator@D@2@@std@@V?$allocator@V?$basic_string@DU?$char_traits@D@std@@V?$allocator@D@2@@std@@@2@@std@@@2@@std@@QBEIXZ PROC ; std::vector<std::vector<std::basic_string<char,std::char_traits<char>,std::allocator<char> >,std::allocator<std::basic_string<char,std::char_traits<char>,std::allocator<char> > > >,std::allocator<std::vector<std::basic_string<char,std::char_traits<char>,std::allocator<char> >,std::allocator<std::basic_string<char,std::char_traits<char>,std::allocator<char> > > > > >::max_size, COMDAT
; _this$ = ecx
; Line 883
	push	ebp
	mov	ebp, esp
	push	ecx
	mov	DWORD PTR _this$[ebp], ecx
; Line 884
	mov	ecx, DWORD PTR _this$[ebp]
	add	ecx, 12					; 0000000cH
	call	?max_size@?$allocator@V?$vector@V?$basic_string@DU?$char_traits@D@std@@V?$allocator@D@2@@std@@V?$allocator@V?$basic_string@DU?$char_traits@D@std@@V?$allocator@D@2@@std@@@2@@std@@@std@@QBEIXZ ; std::allocator<std::vector<std::basic_string<char,std::char_traits<char>,std::allocator<char> >,std::allocator<std::basic_string<char,std::char_traits<char>,std::allocator<char> > > > >::max_size
; Line 885
	mov	esp, ebp
	pop	ebp
	ret	0
?max_size@?$vector@V?$vector@V?$basic_string@DU?$char_traits@D@std@@V?$allocator@D@2@@std@@V?$allocator@V?$basic_string@DU?$char_traits@D@std@@V?$allocator@D@2@@std@@@2@@std@@V?$allocator@V?$vector@V?$basic_string@DU?$char_traits@D@std@@V?$allocator@D@2@@std@@V?$allocator@V?$basic_string@DU?$char_traits@D@std@@V?$allocator@D@2@@std@@@2@@std@@@2@@std@@QBEIXZ ENDP ; std::vector<std::vector<std::basic_string<char,std::char_traits<char>,std::allocator<char> >,std::allocator<std::basic_string<char,std::char_traits<char>,std::allocator<char> > > >,std::allocator<std::vector<std::basic_string<char,std::char_traits<char>,std::allocator<char> >,std::allocator<std::basic_string<char,std::char_traits<char>,std::allocator<char> > > > > >::max_size
; Function compile flags: /Odtp
_TEXT	ENDS
;	COMDAT ?size@?$vector@V?$vector@V?$basic_string@DU?$char_traits@D@std@@V?$allocator@D@2@@std@@V?$allocator@V?$basic_string@DU?$char_traits@D@std@@V?$allocator@D@2@@std@@@2@@std@@V?$allocator@V?$vector@V?$basic_string@DU?$char_traits@D@std@@V?$allocator@D@2@@std@@V?$allocator@V?$basic_string@DU?$char_traits@D@std@@V?$allocator@D@2@@std@@@2@@std@@@2@@std@@QBEIXZ
_TEXT	SEGMENT
_this$ = -4						; size = 4
?size@?$vector@V?$vector@V?$basic_string@DU?$char_traits@D@std@@V?$allocator@D@2@@std@@V?$allocator@V?$basic_string@DU?$char_traits@D@std@@V?$allocator@D@2@@std@@@2@@std@@V?$allocator@V?$vector@V?$basic_string@DU?$char_traits@D@std@@V?$allocator@D@2@@std@@V?$allocator@V?$basic_string@DU?$char_traits@D@std@@V?$allocator@D@2@@std@@@2@@std@@@2@@std@@QBEIXZ PROC ; std::vector<std::vector<std::basic_string<char,std::char_traits<char>,std::allocator<char> >,std::allocator<std::basic_string<char,std::char_traits<char>,std::allocator<char> > > >,std::allocator<std::vector<std::basic_string<char,std::char_traits<char>,std::allocator<char> >,std::allocator<std::basic_string<char,std::char_traits<char>,std::allocator<char> > > > > >::size, COMDAT
; _this$ = ecx
; Line 878
	push	ebp
	mov	ebp, esp
	push	ecx
	mov	DWORD PTR _this$[ebp], ecx
; Line 879
	mov	eax, DWORD PTR _this$[ebp]
	mov	ecx, DWORD PTR _this$[ebp]
	mov	eax, DWORD PTR [eax+4]
	sub	eax, DWORD PTR [ecx]
	sar	eax, 4
; Line 880
	mov	esp, ebp
	pop	ebp
	ret	0
?size@?$vector@V?$vector@V?$basic_string@DU?$char_traits@D@std@@V?$allocator@D@2@@std@@V?$allocator@V?$basic_string@DU?$char_traits@D@std@@V?$allocator@D@2@@std@@@2@@std@@V?$allocator@V?$vector@V?$basic_string@DU?$char_traits@D@std@@V?$allocator@D@2@@std@@V?$allocator@V?$basic_string@DU?$char_traits@D@std@@V?$allocator@D@2@@std@@@2@@std@@@2@@std@@QBEIXZ ENDP ; std::vector<std::vector<std::basic_string<char,std::char_traits<char>,std::allocator<char> >,std::allocator<std::basic_string<char,std::char_traits<char>,std::allocator<char> > > >,std::allocator<std::vector<std::basic_string<char,std::char_traits<char>,std::allocator<char> >,std::allocator<std::basic_string<char,std::char_traits<char>,std::allocator<char> > > > > >::size
; Function compile flags: /Odtp
_TEXT	ENDS
;	COMDAT ?capacity@?$vector@V?$vector@V?$basic_string@DU?$char_traits@D@std@@V?$allocator@D@2@@std@@V?$allocator@V?$basic_string@DU?$char_traits@D@std@@V?$allocator@D@2@@std@@@2@@std@@V?$allocator@V?$vector@V?$basic_string@DU?$char_traits@D@std@@V?$allocator@D@2@@std@@V?$allocator@V?$basic_string@DU?$char_traits@D@std@@V?$allocator@D@2@@std@@@2@@std@@@2@@std@@QBEIXZ
_TEXT	SEGMENT
_this$ = -4						; size = 4
?capacity@?$vector@V?$vector@V?$basic_string@DU?$char_traits@D@std@@V?$allocator@D@2@@std@@V?$allocator@V?$basic_string@DU?$char_traits@D@std@@V?$allocator@D@2@@std@@@2@@std@@V?$allocator@V?$vector@V?$basic_string@DU?$char_traits@D@std@@V?$allocator@D@2@@std@@V?$allocator@V?$basic_string@DU?$char_traits@D@std@@V?$allocator@D@2@@std@@@2@@std@@@2@@std@@QBEIXZ PROC ; std::vector<std::vector<std::basic_string<char,std::char_traits<char>,std::allocator<char> >,std::allocator<std::basic_string<char,std::char_traits<char>,std::allocator<char> > > >,std::allocator<std::vector<std::basic_string<char,std::char_traits<char>,std::allocator<char> >,std::allocator<std::basic_string<char,std::char_traits<char>,std::allocator<char> > > > > >::capacity, COMDAT
; _this$ = ecx
; Line 776
	push	ebp
	mov	ebp, esp
	push	ecx
	mov	DWORD PTR _this$[ebp], ecx
; Line 777
	mov	eax, DWORD PTR _this$[ebp]
	mov	ecx, DWORD PTR _this$[ebp]
	mov	eax, DWORD PTR [eax+8]
	sub	eax, DWORD PTR [ecx]
	sar	eax, 4
; Line 778
	mov	esp, ebp
	pop	ebp
	ret	0
?capacity@?$vector@V?$vector@V?$basic_string@DU?$char_traits@D@std@@V?$allocator@D@2@@std@@V?$allocator@V?$basic_string@DU?$char_traits@D@std@@V?$allocator@D@2@@std@@@2@@std@@V?$allocator@V?$vector@V?$basic_string@DU?$char_traits@D@std@@V?$allocator@D@2@@std@@V?$allocator@V?$basic_string@DU?$char_traits@D@std@@V?$allocator@D@2@@std@@@2@@std@@@2@@std@@QBEIXZ ENDP ; std::vector<std::vector<std::basic_string<char,std::char_traits<char>,std::allocator<char> >,std::allocator<std::basic_string<char,std::char_traits<char>,std::allocator<char> > > >,std::allocator<std::vector<std::basic_string<char,std::char_traits<char>,std::allocator<char> >,std::allocator<std::basic_string<char,std::char_traits<char>,std::allocator<char> > > > > >::capacity
; Function compile flags: /Odtp
_TEXT	ENDS
;	COMDAT ?_Xlen@?$vector@Umessage@Database@@V?$allocator@Umessage@Database@@@std@@@std@@IBEXXZ
_TEXT	SEGMENT
_this$ = -4						; size = 4
?_Xlen@?$vector@Umessage@Database@@V?$allocator@Umessage@Database@@@std@@@std@@IBEXXZ PROC ; std::vector<Database::message,std::allocator<Database::message> >::_Xlen, COMDAT
; _this$ = ecx
; Line 1426
	push	ebp
	mov	ebp, esp
	push	ecx
	mov	DWORD PTR _this$[ebp], ecx
; Line 1427
	push	OFFSET ??_C@_0BD@OLBABOEK@vector?$DMT?$DO?5too?5long?$AA@
	call	DWORD PTR __imp_?_Xlength_error@std@@YAXPBD@Z
$LN2@Xlen@7:
; Line 1428
	mov	esp, ebp
	pop	ebp
	ret	0
?_Xlen@?$vector@Umessage@Database@@V?$allocator@Umessage@Database@@@std@@@std@@IBEXXZ ENDP ; std::vector<Database::message,std::allocator<Database::message> >::_Xlen
; Function compile flags: /Odtp
_TEXT	ENDS
;	COMDAT ?max_size@?$vector@Umessage@Database@@V?$allocator@Umessage@Database@@@std@@@std@@QBEIXZ
_TEXT	SEGMENT
_this$ = -4						; size = 4
?max_size@?$vector@Umessage@Database@@V?$allocator@Umessage@Database@@@std@@@std@@QBEIXZ PROC ; std::vector<Database::message,std::allocator<Database::message> >::max_size, COMDAT
; _this$ = ecx
; Line 883
	push	ebp
	mov	ebp, esp
	push	ecx
	mov	DWORD PTR _this$[ebp], ecx
; Line 884
	mov	ecx, DWORD PTR _this$[ebp]
	add	ecx, 12					; 0000000cH
	call	?max_size@?$allocator@Umessage@Database@@@std@@QBEIXZ ; std::allocator<Database::message>::max_size
; Line 885
	mov	esp, ebp
	pop	ebp
	ret	0
?max_size@?$vector@Umessage@Database@@V?$allocator@Umessage@Database@@@std@@@std@@QBEIXZ ENDP ; std::vector<Database::message,std::allocator<Database::message> >::max_size
; Function compile flags: /Odtp
_TEXT	ENDS
;	COMDAT ?capacity@?$vector@Umessage@Database@@V?$allocator@Umessage@Database@@@std@@@std@@QBEIXZ
_TEXT	SEGMENT
_this$ = -4						; size = 4
?capacity@?$vector@Umessage@Database@@V?$allocator@Umessage@Database@@@std@@@std@@QBEIXZ PROC ; std::vector<Database::message,std::allocator<Database::message> >::capacity, COMDAT
; _this$ = ecx
; Line 776
	push	ebp
	mov	ebp, esp
	push	ecx
	mov	DWORD PTR _this$[ebp], ecx
; Line 777
	mov	eax, DWORD PTR _this$[ebp]
	mov	ecx, DWORD PTR _this$[ebp]
	mov	eax, DWORD PTR [eax+8]
	sub	eax, DWORD PTR [ecx]
	cdq
	mov	ecx, 36					; 00000024H
	idiv	ecx
; Line 778
	mov	esp, ebp
	pop	ebp
	ret	0
?capacity@?$vector@Umessage@Database@@V?$allocator@Umessage@Database@@@std@@@std@@QBEIXZ ENDP ; std::vector<Database::message,std::allocator<Database::message> >::capacity
; Function compile flags: /Odtp
_TEXT	ENDS
;	COMDAT ??0?$allocator@Ustruct_chatresponse@Database@@@std@@QAE@ABV01@@Z
_TEXT	SEGMENT
_this$ = -4						; size = 4
___formal$ = 8						; size = 4
??0?$allocator@Ustruct_chatresponse@Database@@@std@@QAE@ABV01@@Z PROC ; std::allocator<Database::struct_chatresponse>::allocator<Database::struct_chatresponse>, COMDAT
; _this$ = ecx
; File e:\program files (x86)\microsoft visual studio 10.0\vc\include\xmemory
; Line 165
	push	ebp
	mov	ebp, esp
	push	ecx
	mov	DWORD PTR _this$[ebp], ecx
; Line 167
	mov	eax, DWORD PTR _this$[ebp]
	mov	esp, ebp
	pop	ebp
	ret	4
??0?$allocator@Ustruct_chatresponse@Database@@@std@@QAE@ABV01@@Z ENDP ; std::allocator<Database::struct_chatresponse>::allocator<Database::struct_chatresponse>
; Function compile flags: /Odtp
_TEXT	ENDS
;	COMDAT ??0?$allocator@Ustruct_chatresponse@Database@@@std@@QAE@XZ
_TEXT	SEGMENT
_this$ = -4						; size = 4
??0?$allocator@Ustruct_chatresponse@Database@@@std@@QAE@XZ PROC ; std::allocator<Database::struct_chatresponse>::allocator<Database::struct_chatresponse>, COMDAT
; _this$ = ecx
; Line 161
	push	ebp
	mov	ebp, esp
	push	ecx
	mov	DWORD PTR _this$[ebp], ecx
; Line 163
	mov	eax, DWORD PTR _this$[ebp]
	mov	esp, ebp
	pop	ebp
	ret	0
??0?$allocator@Ustruct_chatresponse@Database@@@std@@QAE@XZ ENDP ; std::allocator<Database::struct_chatresponse>::allocator<Database::struct_chatresponse>
; Function compile flags: /Odtp
_TEXT	ENDS
;	COMDAT ??0?$_Vector_val@Ustruct_chatresponse@Database@@V?$allocator@Ustruct_chatresponse@Database@@@std@@@std@@QAE@V?$allocator@Ustruct_chatresponse@Database@@@1@@Z
_TEXT	SEGMENT
_this$ = -4						; size = 4
__Al$ = 8						; size = 1
??0?$_Vector_val@Ustruct_chatresponse@Database@@V?$allocator@Ustruct_chatresponse@Database@@@std@@@std@@QAE@V?$allocator@Ustruct_chatresponse@Database@@@1@@Z PROC ; std::_Vector_val<Database::struct_chatresponse,std::allocator<Database::struct_chatresponse> >::_Vector_val<Database::struct_chatresponse,std::allocator<Database::struct_chatresponse> >, COMDAT
; _this$ = ecx
; File e:\program files (x86)\microsoft visual studio 10.0\vc\include\vector
; Line 426
	push	ebp
	mov	ebp, esp
	push	ecx
	mov	DWORD PTR _this$[ebp], ecx
	lea	eax, DWORD PTR __Al$[ebp]
	push	eax
	mov	ecx, DWORD PTR _this$[ebp]
	add	ecx, 12					; 0000000cH
	call	??0?$allocator@Ustruct_chatresponse@Database@@@std@@QAE@ABV01@@Z ; std::allocator<Database::struct_chatresponse>::allocator<Database::struct_chatresponse>
; Line 427
	mov	ecx, DWORD PTR _this$[ebp]
	mov	DWORD PTR [ecx], 0
; Line 428
	mov	edx, DWORD PTR _this$[ebp]
	mov	DWORD PTR [edx+4], 0
; Line 429
	mov	eax, DWORD PTR _this$[ebp]
	mov	DWORD PTR [eax+8], 0
; Line 430
	mov	eax, DWORD PTR _this$[ebp]
	mov	esp, ebp
	pop	ebp
	ret	4
??0?$_Vector_val@Ustruct_chatresponse@Database@@V?$allocator@Ustruct_chatresponse@Database@@@std@@@std@@QAE@V?$allocator@Ustruct_chatresponse@Database@@@1@@Z ENDP ; std::_Vector_val<Database::struct_chatresponse,std::allocator<Database::struct_chatresponse> >::_Vector_val<Database::struct_chatresponse,std::allocator<Database::struct_chatresponse> >
; Function compile flags: /Odtp
_TEXT	ENDS
;	COMDAT ?_Orphan_range@?$vector@Ustruct_chatresponse@Database@@V?$allocator@Ustruct_chatresponse@Database@@@std@@@std@@IBEXPAUstruct_chatresponse@Database@@0@Z
_TEXT	SEGMENT
_this$ = -4						; size = 4
___formal$ = 8						; size = 4
___formal$ = 12						; size = 4
?_Orphan_range@?$vector@Ustruct_chatresponse@Database@@V?$allocator@Ustruct_chatresponse@Database@@@std@@@std@@IBEXPAUstruct_chatresponse@Database@@0@Z PROC ; std::vector<Database::struct_chatresponse,std::allocator<Database::struct_chatresponse> >::_Orphan_range, COMDAT
; _this$ = ecx
; Line 1453
	push	ebp
	mov	ebp, esp
	push	ecx
	mov	DWORD PTR _this$[ebp], ecx
; Line 1454
	mov	esp, ebp
	pop	ebp
	ret	8
?_Orphan_range@?$vector@Ustruct_chatresponse@Database@@V?$allocator@Ustruct_chatresponse@Database@@@std@@@std@@IBEXPAUstruct_chatresponse@Database@@0@Z ENDP ; std::vector<Database::struct_chatresponse,std::allocator<Database::struct_chatresponse> >::_Orphan_range
; Function compile flags: /Odtp
_TEXT	ENDS
;	COMDAT ?_Inside@?$vector@Ustruct_chatresponse@Database@@V?$allocator@Ustruct_chatresponse@Database@@@std@@@std@@IBE_NPBUstruct_chatresponse@Database@@@Z
_TEXT	SEGMENT
tv76 = -8						; size = 4
_this$ = -4						; size = 4
__Ptr$ = 8						; size = 4
?_Inside@?$vector@Ustruct_chatresponse@Database@@V?$allocator@Ustruct_chatresponse@Database@@@std@@@std@@IBE_NPBUstruct_chatresponse@Database@@@Z PROC ; std::vector<Database::struct_chatresponse,std::allocator<Database::struct_chatresponse> >::_Inside, COMDAT
; _this$ = ecx
; Line 1285
	push	ebp
	mov	ebp, esp
	sub	esp, 8
	mov	DWORD PTR _this$[ebp], ecx
; Line 1286
	mov	eax, DWORD PTR _this$[ebp]
	mov	ecx, DWORD PTR __Ptr$[ebp]
	cmp	ecx, DWORD PTR [eax+4]
	jae	SHORT $LN3@Inside@2
	mov	edx, DWORD PTR _this$[ebp]
	mov	eax, DWORD PTR [edx]
	cmp	eax, DWORD PTR __Ptr$[ebp]
	ja	SHORT $LN3@Inside@2
	mov	DWORD PTR tv76[ebp], 1
	jmp	SHORT $LN4@Inside@2
$LN3@Inside@2:
	mov	DWORD PTR tv76[ebp], 0
$LN4@Inside@2:
	mov	al, BYTE PTR tv76[ebp]
; Line 1287
	mov	esp, ebp
	pop	ebp
	ret	4
?_Inside@?$vector@Ustruct_chatresponse@Database@@V?$allocator@Ustruct_chatresponse@Database@@@std@@@std@@IBE_NPBUstruct_chatresponse@Database@@@Z ENDP ; std::vector<Database::struct_chatresponse,std::allocator<Database::struct_chatresponse> >::_Inside
; Function compile flags: /Odtp
_TEXT	ENDS
;	COMDAT ??0?$allocator@Ustruct_log@Database@@@std@@QAE@ABV01@@Z
_TEXT	SEGMENT
_this$ = -4						; size = 4
___formal$ = 8						; size = 4
??0?$allocator@Ustruct_log@Database@@@std@@QAE@ABV01@@Z PROC ; std::allocator<Database::struct_log>::allocator<Database::struct_log>, COMDAT
; _this$ = ecx
; File e:\program files (x86)\microsoft visual studio 10.0\vc\include\xmemory
; Line 165
	push	ebp
	mov	ebp, esp
	push	ecx
	mov	DWORD PTR _this$[ebp], ecx
; Line 167
	mov	eax, DWORD PTR _this$[ebp]
	mov	esp, ebp
	pop	ebp
	ret	4
??0?$allocator@Ustruct_log@Database@@@std@@QAE@ABV01@@Z ENDP ; std::allocator<Database::struct_log>::allocator<Database::struct_log>
; Function compile flags: /Odtp
_TEXT	ENDS
;	COMDAT ??0?$allocator@Ustruct_log@Database@@@std@@QAE@XZ
_TEXT	SEGMENT
_this$ = -4						; size = 4
??0?$allocator@Ustruct_log@Database@@@std@@QAE@XZ PROC	; std::allocator<Database::struct_log>::allocator<Database::struct_log>, COMDAT
; _this$ = ecx
; Line 161
	push	ebp
	mov	ebp, esp
	push	ecx
	mov	DWORD PTR _this$[ebp], ecx
; Line 163
	mov	eax, DWORD PTR _this$[ebp]
	mov	esp, ebp
	pop	ebp
	ret	0
??0?$allocator@Ustruct_log@Database@@@std@@QAE@XZ ENDP	; std::allocator<Database::struct_log>::allocator<Database::struct_log>
; Function compile flags: /Odtp
_TEXT	ENDS
;	COMDAT ??0?$_Vector_val@Ustruct_log@Database@@V?$allocator@Ustruct_log@Database@@@std@@@std@@QAE@V?$allocator@Ustruct_log@Database@@@1@@Z
_TEXT	SEGMENT
_this$ = -4						; size = 4
__Al$ = 8						; size = 1
??0?$_Vector_val@Ustruct_log@Database@@V?$allocator@Ustruct_log@Database@@@std@@@std@@QAE@V?$allocator@Ustruct_log@Database@@@1@@Z PROC ; std::_Vector_val<Database::struct_log,std::allocator<Database::struct_log> >::_Vector_val<Database::struct_log,std::allocator<Database::struct_log> >, COMDAT
; _this$ = ecx
; File e:\program files (x86)\microsoft visual studio 10.0\vc\include\vector
; Line 426
	push	ebp
	mov	ebp, esp
	push	ecx
	mov	DWORD PTR _this$[ebp], ecx
	lea	eax, DWORD PTR __Al$[ebp]
	push	eax
	mov	ecx, DWORD PTR _this$[ebp]
	add	ecx, 12					; 0000000cH
	call	??0?$allocator@Ustruct_log@Database@@@std@@QAE@ABV01@@Z ; std::allocator<Database::struct_log>::allocator<Database::struct_log>
; Line 427
	mov	ecx, DWORD PTR _this$[ebp]
	mov	DWORD PTR [ecx], 0
; Line 428
	mov	edx, DWORD PTR _this$[ebp]
	mov	DWORD PTR [edx+4], 0
; Line 429
	mov	eax, DWORD PTR _this$[ebp]
	mov	DWORD PTR [eax+8], 0
; Line 430
	mov	eax, DWORD PTR _this$[ebp]
	mov	esp, ebp
	pop	ebp
	ret	4
??0?$_Vector_val@Ustruct_log@Database@@V?$allocator@Ustruct_log@Database@@@std@@@std@@QAE@V?$allocator@Ustruct_log@Database@@@1@@Z ENDP ; std::_Vector_val<Database::struct_log,std::allocator<Database::struct_log> >::_Vector_val<Database::struct_log,std::allocator<Database::struct_log> >
; Function compile flags: /Odtp
_TEXT	ENDS
;	COMDAT ?_Orphan_range@?$vector@Ustruct_log@Database@@V?$allocator@Ustruct_log@Database@@@std@@@std@@IBEXPAUstruct_log@Database@@0@Z
_TEXT	SEGMENT
_this$ = -4						; size = 4
___formal$ = 8						; size = 4
___formal$ = 12						; size = 4
?_Orphan_range@?$vector@Ustruct_log@Database@@V?$allocator@Ustruct_log@Database@@@std@@@std@@IBEXPAUstruct_log@Database@@0@Z PROC ; std::vector<Database::struct_log,std::allocator<Database::struct_log> >::_Orphan_range, COMDAT
; _this$ = ecx
; Line 1453
	push	ebp
	mov	ebp, esp
	push	ecx
	mov	DWORD PTR _this$[ebp], ecx
; Line 1454
	mov	esp, ebp
	pop	ebp
	ret	8
?_Orphan_range@?$vector@Ustruct_log@Database@@V?$allocator@Ustruct_log@Database@@@std@@@std@@IBEXPAUstruct_log@Database@@0@Z ENDP ; std::vector<Database::struct_log,std::allocator<Database::struct_log> >::_Orphan_range
; Function compile flags: /Odtp
_TEXT	ENDS
;	COMDAT ?_Inside@?$vector@Ustruct_log@Database@@V?$allocator@Ustruct_log@Database@@@std@@@std@@IBE_NPBUstruct_log@Database@@@Z
_TEXT	SEGMENT
tv76 = -8						; size = 4
_this$ = -4						; size = 4
__Ptr$ = 8						; size = 4
?_Inside@?$vector@Ustruct_log@Database@@V?$allocator@Ustruct_log@Database@@@std@@@std@@IBE_NPBUstruct_log@Database@@@Z PROC ; std::vector<Database::struct_log,std::allocator<Database::struct_log> >::_Inside, COMDAT
; _this$ = ecx
; Line 1285
	push	ebp
	mov	ebp, esp
	sub	esp, 8
	mov	DWORD PTR _this$[ebp], ecx
; Line 1286
	mov	eax, DWORD PTR _this$[ebp]
	mov	ecx, DWORD PTR __Ptr$[ebp]
	cmp	ecx, DWORD PTR [eax+4]
	jae	SHORT $LN3@Inside@3
	mov	edx, DWORD PTR _this$[ebp]
	mov	eax, DWORD PTR [edx]
	cmp	eax, DWORD PTR __Ptr$[ebp]
	ja	SHORT $LN3@Inside@3
	mov	DWORD PTR tv76[ebp], 1
	jmp	SHORT $LN4@Inside@3
$LN3@Inside@3:
	mov	DWORD PTR tv76[ebp], 0
$LN4@Inside@3:
	mov	al, BYTE PTR tv76[ebp]
; Line 1287
	mov	esp, ebp
	pop	ebp
	ret	4
?_Inside@?$vector@Ustruct_log@Database@@V?$allocator@Ustruct_log@Database@@@std@@@std@@IBE_NPBUstruct_log@Database@@@Z ENDP ; std::vector<Database::struct_log,std::allocator<Database::struct_log> >::_Inside
; Function compile flags: /Odtp
_TEXT	ENDS
;	COMDAT ??0?$allocator@Uban@Database@@@std@@QAE@ABV01@@Z
_TEXT	SEGMENT
_this$ = -4						; size = 4
___formal$ = 8						; size = 4
??0?$allocator@Uban@Database@@@std@@QAE@ABV01@@Z PROC	; std::allocator<Database::ban>::allocator<Database::ban>, COMDAT
; _this$ = ecx
; File e:\program files (x86)\microsoft visual studio 10.0\vc\include\xmemory
; Line 165
	push	ebp
	mov	ebp, esp
	push	ecx
	mov	DWORD PTR _this$[ebp], ecx
; Line 167
	mov	eax, DWORD PTR _this$[ebp]
	mov	esp, ebp
	pop	ebp
	ret	4
??0?$allocator@Uban@Database@@@std@@QAE@ABV01@@Z ENDP	; std::allocator<Database::ban>::allocator<Database::ban>
; Function compile flags: /Odtp
_TEXT	ENDS
;	COMDAT ??0?$allocator@Uban@Database@@@std@@QAE@XZ
_TEXT	SEGMENT
_this$ = -4						; size = 4
??0?$allocator@Uban@Database@@@std@@QAE@XZ PROC		; std::allocator<Database::ban>::allocator<Database::ban>, COMDAT
; _this$ = ecx
; Line 161
	push	ebp
	mov	ebp, esp
	push	ecx
	mov	DWORD PTR _this$[ebp], ecx
; Line 163
	mov	eax, DWORD PTR _this$[ebp]
	mov	esp, ebp
	pop	ebp
	ret	0
??0?$allocator@Uban@Database@@@std@@QAE@XZ ENDP		; std::allocator<Database::ban>::allocator<Database::ban>
; Function compile flags: /Odtp
_TEXT	ENDS
;	COMDAT ??0?$_Vector_val@Uban@Database@@V?$allocator@Uban@Database@@@std@@@std@@QAE@V?$allocator@Uban@Database@@@1@@Z
_TEXT	SEGMENT
_this$ = -4						; size = 4
__Al$ = 8						; size = 1
??0?$_Vector_val@Uban@Database@@V?$allocator@Uban@Database@@@std@@@std@@QAE@V?$allocator@Uban@Database@@@1@@Z PROC ; std::_Vector_val<Database::ban,std::allocator<Database::ban> >::_Vector_val<Database::ban,std::allocator<Database::ban> >, COMDAT
; _this$ = ecx
; File e:\program files (x86)\microsoft visual studio 10.0\vc\include\vector
; Line 426
	push	ebp
	mov	ebp, esp
	push	ecx
	mov	DWORD PTR _this$[ebp], ecx
	lea	eax, DWORD PTR __Al$[ebp]
	push	eax
	mov	ecx, DWORD PTR _this$[ebp]
	add	ecx, 12					; 0000000cH
	call	??0?$allocator@Uban@Database@@@std@@QAE@ABV01@@Z ; std::allocator<Database::ban>::allocator<Database::ban>
; Line 427
	mov	ecx, DWORD PTR _this$[ebp]
	mov	DWORD PTR [ecx], 0
; Line 428
	mov	edx, DWORD PTR _this$[ebp]
	mov	DWORD PTR [edx+4], 0
; Line 429
	mov	eax, DWORD PTR _this$[ebp]
	mov	DWORD PTR [eax+8], 0
; Line 430
	mov	eax, DWORD PTR _this$[ebp]
	mov	esp, ebp
	pop	ebp
	ret	4
??0?$_Vector_val@Uban@Database@@V?$allocator@Uban@Database@@@std@@@std@@QAE@V?$allocator@Uban@Database@@@1@@Z ENDP ; std::_Vector_val<Database::ban,std::allocator<Database::ban> >::_Vector_val<Database::ban,std::allocator<Database::ban> >
; Function compile flags: /Odtp
_TEXT	ENDS
;	COMDAT ?_Orphan_range@?$vector@Uban@Database@@V?$allocator@Uban@Database@@@std@@@std@@IBEXPAUban@Database@@0@Z
_TEXT	SEGMENT
_this$ = -4						; size = 4
___formal$ = 8						; size = 4
___formal$ = 12						; size = 4
?_Orphan_range@?$vector@Uban@Database@@V?$allocator@Uban@Database@@@std@@@std@@IBEXPAUban@Database@@0@Z PROC ; std::vector<Database::ban,std::allocator<Database::ban> >::_Orphan_range, COMDAT
; _this$ = ecx
; Line 1453
	push	ebp
	mov	ebp, esp
	push	ecx
	mov	DWORD PTR _this$[ebp], ecx
; Line 1454
	mov	esp, ebp
	pop	ebp
	ret	8
?_Orphan_range@?$vector@Uban@Database@@V?$allocator@Uban@Database@@@std@@@std@@IBEXPAUban@Database@@0@Z ENDP ; std::vector<Database::ban,std::allocator<Database::ban> >::_Orphan_range
; Function compile flags: /Odtp
_TEXT	ENDS
;	COMDAT ?_Inside@?$vector@Uban@Database@@V?$allocator@Uban@Database@@@std@@@std@@IBE_NPBUban@Database@@@Z
_TEXT	SEGMENT
tv76 = -8						; size = 4
_this$ = -4						; size = 4
__Ptr$ = 8						; size = 4
?_Inside@?$vector@Uban@Database@@V?$allocator@Uban@Database@@@std@@@std@@IBE_NPBUban@Database@@@Z PROC ; std::vector<Database::ban,std::allocator<Database::ban> >::_Inside, COMDAT
; _this$ = ecx
; Line 1285
	push	ebp
	mov	ebp, esp
	sub	esp, 8
	mov	DWORD PTR _this$[ebp], ecx
; Line 1286
	mov	eax, DWORD PTR _this$[ebp]
	mov	ecx, DWORD PTR __Ptr$[ebp]
	cmp	ecx, DWORD PTR [eax+4]
	jae	SHORT $LN3@Inside@4
	mov	edx, DWORD PTR _this$[ebp]
	mov	eax, DWORD PTR [edx]
	cmp	eax, DWORD PTR __Ptr$[ebp]
	ja	SHORT $LN3@Inside@4
	mov	DWORD PTR tv76[ebp], 1
	jmp	SHORT $LN4@Inside@4
$LN3@Inside@4:
	mov	DWORD PTR tv76[ebp], 0
$LN4@Inside@4:
	mov	al, BYTE PTR tv76[ebp]
; Line 1287
	mov	esp, ebp
	pop	ebp
	ret	4
?_Inside@?$vector@Uban@Database@@V?$allocator@Uban@Database@@@std@@@std@@IBE_NPBUban@Database@@@Z ENDP ; std::vector<Database::ban,std::allocator<Database::ban> >::_Inside
; Function compile flags: /Odtp
_TEXT	ENDS
;	COMDAT ??0?$allocator@Uadmin@Database@@@std@@QAE@ABV01@@Z
_TEXT	SEGMENT
_this$ = -4						; size = 4
___formal$ = 8						; size = 4
??0?$allocator@Uadmin@Database@@@std@@QAE@ABV01@@Z PROC	; std::allocator<Database::admin>::allocator<Database::admin>, COMDAT
; _this$ = ecx
; File e:\program files (x86)\microsoft visual studio 10.0\vc\include\xmemory
; Line 165
	push	ebp
	mov	ebp, esp
	push	ecx
	mov	DWORD PTR _this$[ebp], ecx
; Line 167
	mov	eax, DWORD PTR _this$[ebp]
	mov	esp, ebp
	pop	ebp
	ret	4
??0?$allocator@Uadmin@Database@@@std@@QAE@ABV01@@Z ENDP	; std::allocator<Database::admin>::allocator<Database::admin>
; Function compile flags: /Odtp
_TEXT	ENDS
;	COMDAT ??0?$allocator@Uadmin@Database@@@std@@QAE@XZ
_TEXT	SEGMENT
_this$ = -4						; size = 4
??0?$allocator@Uadmin@Database@@@std@@QAE@XZ PROC	; std::allocator<Database::admin>::allocator<Database::admin>, COMDAT
; _this$ = ecx
; Line 161
	push	ebp
	mov	ebp, esp
	push	ecx
	mov	DWORD PTR _this$[ebp], ecx
; Line 163
	mov	eax, DWORD PTR _this$[ebp]
	mov	esp, ebp
	pop	ebp
	ret	0
??0?$allocator@Uadmin@Database@@@std@@QAE@XZ ENDP	; std::allocator<Database::admin>::allocator<Database::admin>
; Function compile flags: /Odtp
_TEXT	ENDS
;	COMDAT ??0?$_Vector_val@Uadmin@Database@@V?$allocator@Uadmin@Database@@@std@@@std@@QAE@V?$allocator@Uadmin@Database@@@1@@Z
_TEXT	SEGMENT
_this$ = -4						; size = 4
__Al$ = 8						; size = 1
??0?$_Vector_val@Uadmin@Database@@V?$allocator@Uadmin@Database@@@std@@@std@@QAE@V?$allocator@Uadmin@Database@@@1@@Z PROC ; std::_Vector_val<Database::admin,std::allocator<Database::admin> >::_Vector_val<Database::admin,std::allocator<Database::admin> >, COMDAT
; _this$ = ecx
; File e:\program files (x86)\microsoft visual studio 10.0\vc\include\vector
; Line 426
	push	ebp
	mov	ebp, esp
	push	ecx
	mov	DWORD PTR _this$[ebp], ecx
	lea	eax, DWORD PTR __Al$[ebp]
	push	eax
	mov	ecx, DWORD PTR _this$[ebp]
	add	ecx, 12					; 0000000cH
	call	??0?$allocator@Uadmin@Database@@@std@@QAE@ABV01@@Z ; std::allocator<Database::admin>::allocator<Database::admin>
; Line 427
	mov	ecx, DWORD PTR _this$[ebp]
	mov	DWORD PTR [ecx], 0
; Line 428
	mov	edx, DWORD PTR _this$[ebp]
	mov	DWORD PTR [edx+4], 0
; Line 429
	mov	eax, DWORD PTR _this$[ebp]
	mov	DWORD PTR [eax+8], 0
; Line 430
	mov	eax, DWORD PTR _this$[ebp]
	mov	esp, ebp
	pop	ebp
	ret	4
??0?$_Vector_val@Uadmin@Database@@V?$allocator@Uadmin@Database@@@std@@@std@@QAE@V?$allocator@Uadmin@Database@@@1@@Z ENDP ; std::_Vector_val<Database::admin,std::allocator<Database::admin> >::_Vector_val<Database::admin,std::allocator<Database::admin> >
; Function compile flags: /Odtp
_TEXT	ENDS
;	COMDAT ?_Orphan_range@?$vector@Uadmin@Database@@V?$allocator@Uadmin@Database@@@std@@@std@@IBEXPAUadmin@Database@@0@Z
_TEXT	SEGMENT
_this$ = -4						; size = 4
___formal$ = 8						; size = 4
___formal$ = 12						; size = 4
?_Orphan_range@?$vector@Uadmin@Database@@V?$allocator@Uadmin@Database@@@std@@@std@@IBEXPAUadmin@Database@@0@Z PROC ; std::vector<Database::admin,std::allocator<Database::admin> >::_Orphan_range, COMDAT
; _this$ = ecx
; Line 1453
	push	ebp
	mov	ebp, esp
	push	ecx
	mov	DWORD PTR _this$[ebp], ecx
; Line 1454
	mov	esp, ebp
	pop	ebp
	ret	8
?_Orphan_range@?$vector@Uadmin@Database@@V?$allocator@Uadmin@Database@@@std@@@std@@IBEXPAUadmin@Database@@0@Z ENDP ; std::vector<Database::admin,std::allocator<Database::admin> >::_Orphan_range
; Function compile flags: /Odtp
_TEXT	ENDS
;	COMDAT ?_Inside@?$vector@Uadmin@Database@@V?$allocator@Uadmin@Database@@@std@@@std@@IBE_NPBUadmin@Database@@@Z
_TEXT	SEGMENT
tv76 = -8						; size = 4
_this$ = -4						; size = 4
__Ptr$ = 8						; size = 4
?_Inside@?$vector@Uadmin@Database@@V?$allocator@Uadmin@Database@@@std@@@std@@IBE_NPBUadmin@Database@@@Z PROC ; std::vector<Database::admin,std::allocator<Database::admin> >::_Inside, COMDAT
; _this$ = ecx
; Line 1285
	push	ebp
	mov	ebp, esp
	sub	esp, 8
	mov	DWORD PTR _this$[ebp], ecx
; Line 1286
	mov	eax, DWORD PTR _this$[ebp]
	mov	ecx, DWORD PTR __Ptr$[ebp]
	cmp	ecx, DWORD PTR [eax+4]
	jae	SHORT $LN3@Inside@5
	mov	edx, DWORD PTR _this$[ebp]
	mov	eax, DWORD PTR [edx]
	cmp	eax, DWORD PTR __Ptr$[ebp]
	ja	SHORT $LN3@Inside@5
	mov	DWORD PTR tv76[ebp], 1
	jmp	SHORT $LN4@Inside@5
$LN3@Inside@5:
	mov	DWORD PTR tv76[ebp], 0
$LN4@Inside@5:
	mov	al, BYTE PTR tv76[ebp]
; Line 1287
	mov	esp, ebp
	pop	ebp
	ret	4
?_Inside@?$vector@Uadmin@Database@@V?$allocator@Uadmin@Database@@@std@@@std@@IBE_NPBUadmin@Database@@@Z ENDP ; std::vector<Database::admin,std::allocator<Database::admin> >::_Inside
; Function compile flags: /Odtp
_TEXT	ENDS
;	COMDAT ?_Compat@?$_Vector_const_iterator@V?$_Vector_val@V?$vector@V?$basic_string@DU?$char_traits@D@std@@V?$allocator@D@2@@std@@V?$allocator@V?$basic_string@DU?$char_traits@D@std@@V?$allocator@D@2@@std@@@2@@std@@V?$allocator@V?$vector@V?$basic_string@DU?$char_traits@D@std@@V?$allocator@D@2@@std@@V?$allocator@V?$basic_string@DU?$char_traits@D@std@@V?$allocator@D@2@@std@@@2@@std@@@2@@std@@@std@@QBEXABV12@@Z
_TEXT	SEGMENT
_this$ = -4						; size = 4
___formal$ = 8						; size = 4
?_Compat@?$_Vector_const_iterator@V?$_Vector_val@V?$vector@V?$basic_string@DU?$char_traits@D@std@@V?$allocator@D@2@@std@@V?$allocator@V?$basic_string@DU?$char_traits@D@std@@V?$allocator@D@2@@std@@@2@@std@@V?$allocator@V?$vector@V?$basic_string@DU?$char_traits@D@std@@V?$allocator@D@2@@std@@V?$allocator@V?$basic_string@DU?$char_traits@D@std@@V?$allocator@D@2@@std@@@2@@std@@@2@@std@@@std@@QBEXABV12@@Z PROC ; std::_Vector_const_iterator<std::_Vector_val<std::vector<std::basic_string<char,std::char_traits<char>,std::allocator<char> >,std::allocator<std::basic_string<char,std::char_traits<char>,std::allocator<char> > > >,std::allocator<std::vector<std::basic_string<char,std::char_traits<char>,std::allocator<char> >,std::allocator<std::basic_string<char,std::char_traits<char>,std::allocator<char> > > > > > >::_Compat, COMDAT
; _this$ = ecx
; Line 252
	push	ebp
	mov	ebp, esp
	push	ecx
	mov	DWORD PTR _this$[ebp], ecx
; Line 253
	mov	esp, ebp
	pop	ebp
	ret	4
?_Compat@?$_Vector_const_iterator@V?$_Vector_val@V?$vector@V?$basic_string@DU?$char_traits@D@std@@V?$allocator@D@2@@std@@V?$allocator@V?$basic_string@DU?$char_traits@D@std@@V?$allocator@D@2@@std@@@2@@std@@V?$allocator@V?$vector@V?$basic_string@DU?$char_traits@D@std@@V?$allocator@D@2@@std@@V?$allocator@V?$basic_string@DU?$char_traits@D@std@@V?$allocator@D@2@@std@@@2@@std@@@2@@std@@@std@@QBEXABV12@@Z ENDP ; std::_Vector_const_iterator<std::_Vector_val<std::vector<std::basic_string<char,std::char_traits<char>,std::allocator<char> >,std::allocator<std::basic_string<char,std::char_traits<char>,std::allocator<char> > > >,std::allocator<std::vector<std::basic_string<char,std::char_traits<char>,std::allocator<char> >,std::allocator<std::basic_string<char,std::char_traits<char>,std::allocator<char> > > > > > >::_Compat
; Function compile flags: /Odtp
_TEXT	ENDS
;	COMDAT ??E?$_Vector_const_iterator@V?$_Vector_val@V?$vector@V?$basic_string@DU?$char_traits@D@std@@V?$allocator@D@2@@std@@V?$allocator@V?$basic_string@DU?$char_traits@D@std@@V?$allocator@D@2@@std@@@2@@std@@V?$allocator@V?$vector@V?$basic_string@DU?$char_traits@D@std@@V?$allocator@D@2@@std@@V?$allocator@V?$basic_string@DU?$char_traits@D@std@@V?$allocator@D@2@@std@@@2@@std@@@2@@std@@@std@@QAEAAV01@XZ
_TEXT	SEGMENT
_this$ = -4						; size = 4
??E?$_Vector_const_iterator@V?$_Vector_val@V?$vector@V?$basic_string@DU?$char_traits@D@std@@V?$allocator@D@2@@std@@V?$allocator@V?$basic_string@DU?$char_traits@D@std@@V?$allocator@D@2@@std@@@2@@std@@V?$allocator@V?$vector@V?$basic_string@DU?$char_traits@D@std@@V?$allocator@D@2@@std@@V?$allocator@V?$basic_string@DU?$char_traits@D@std@@V?$allocator@D@2@@std@@@2@@std@@@2@@std@@@std@@QAEAAV01@XZ PROC ; std::_Vector_const_iterator<std::_Vector_val<std::vector<std::basic_string<char,std::char_traits<char>,std::allocator<char> >,std::allocator<std::basic_string<char,std::char_traits<char>,std::allocator<char> > > >,std::allocator<std::vector<std::basic_string<char,std::char_traits<char>,std::allocator<char> >,std::allocator<std::basic_string<char,std::char_traits<char>,std::allocator<char> > > > > > >::operator++, COMDAT
; _this$ = ecx
; Line 93
	push	ebp
	mov	ebp, esp
	push	ecx
	mov	DWORD PTR _this$[ebp], ecx
; Line 110
	mov	eax, DWORD PTR _this$[ebp]
	mov	ecx, DWORD PTR [eax]
	add	ecx, 16					; 00000010H
	mov	edx, DWORD PTR _this$[ebp]
	mov	DWORD PTR [edx], ecx
; Line 111
	mov	eax, DWORD PTR _this$[ebp]
; Line 112
	mov	esp, ebp
	pop	ebp
	ret	0
??E?$_Vector_const_iterator@V?$_Vector_val@V?$vector@V?$basic_string@DU?$char_traits@D@std@@V?$allocator@D@2@@std@@V?$allocator@V?$basic_string@DU?$char_traits@D@std@@V?$allocator@D@2@@std@@@2@@std@@V?$allocator@V?$vector@V?$basic_string@DU?$char_traits@D@std@@V?$allocator@D@2@@std@@V?$allocator@V?$basic_string@DU?$char_traits@D@std@@V?$allocator@D@2@@std@@@2@@std@@@2@@std@@@std@@QAEAAV01@XZ ENDP ; std::_Vector_const_iterator<std::_Vector_val<std::vector<std::basic_string<char,std::char_traits<char>,std::allocator<char> >,std::allocator<std::basic_string<char,std::char_traits<char>,std::allocator<char> > > >,std::allocator<std::vector<std::basic_string<char,std::char_traits<char>,std::allocator<char> >,std::allocator<std::basic_string<char,std::char_traits<char>,std::allocator<char> > > > > > >::operator++
; Function compile flags: /Odtp
_TEXT	ENDS
;	COMDAT ??D?$_Vector_const_iterator@V?$_Vector_val@V?$vector@V?$basic_string@DU?$char_traits@D@std@@V?$allocator@D@2@@std@@V?$allocator@V?$basic_string@DU?$char_traits@D@std@@V?$allocator@D@2@@std@@@2@@std@@V?$allocator@V?$vector@V?$basic_string@DU?$char_traits@D@std@@V?$allocator@D@2@@std@@V?$allocator@V?$basic_string@DU?$char_traits@D@std@@V?$allocator@D@2@@std@@@2@@std@@@2@@std@@@std@@QBEABV?$vector@V?$basic_string@DU?$char_traits@D@std@@V?$allocator@D@2@@std@@V?$allocator@V?$basic_string@DU?$char_traits@D@std@@V?$allocator@D@2@@std@@@2@@1@XZ
_TEXT	SEGMENT
_this$ = -4						; size = 4
??D?$_Vector_const_iterator@V?$_Vector_val@V?$vector@V?$basic_string@DU?$char_traits@D@std@@V?$allocator@D@2@@std@@V?$allocator@V?$basic_string@DU?$char_traits@D@std@@V?$allocator@D@2@@std@@@2@@std@@V?$allocator@V?$vector@V?$basic_string@DU?$char_traits@D@std@@V?$allocator@D@2@@std@@V?$allocator@V?$basic_string@DU?$char_traits@D@std@@V?$allocator@D@2@@std@@@2@@std@@@2@@std@@@std@@QBEABV?$vector@V?$basic_string@DU?$char_traits@D@std@@V?$allocator@D@2@@std@@V?$allocator@V?$basic_string@DU?$char_traits@D@std@@V?$allocator@D@2@@std@@@2@@1@XZ PROC ; std::_Vector_const_iterator<std::_Vector_val<std::vector<std::basic_string<char,std::char_traits<char>,std::allocator<char> >,std::allocator<std::basic_string<char,std::char_traits<char>,std::allocator<char> > > >,std::allocator<std::vector<std::basic_string<char,std::char_traits<char>,std::allocator<char> >,std::allocator<std::basic_string<char,std::char_traits<char>,std::allocator<char> > > > > > >::operator*, COMDAT
; _this$ = ecx
; Line 63
	push	ebp
	mov	ebp, esp
	push	ecx
	mov	DWORD PTR _this$[ebp], ecx
; Line 84
	mov	eax, DWORD PTR _this$[ebp]
	mov	eax, DWORD PTR [eax]
; Line 85
	mov	esp, ebp
	pop	ebp
	ret	0
??D?$_Vector_const_iterator@V?$_Vector_val@V?$vector@V?$basic_string@DU?$char_traits@D@std@@V?$allocator@D@2@@std@@V?$allocator@V?$basic_string@DU?$char_traits@D@std@@V?$allocator@D@2@@std@@@2@@std@@V?$allocator@V?$vector@V?$basic_string@DU?$char_traits@D@std@@V?$allocator@D@2@@std@@V?$allocator@V?$basic_string@DU?$char_traits@D@std@@V?$allocator@D@2@@std@@@2@@std@@@2@@std@@@std@@QBEABV?$vector@V?$basic_string@DU?$char_traits@D@std@@V?$allocator@D@2@@std@@V?$allocator@V?$basic_string@DU?$char_traits@D@std@@V?$allocator@D@2@@std@@@2@@1@XZ ENDP ; std::_Vector_const_iterator<std::_Vector_val<std::vector<std::basic_string<char,std::char_traits<char>,std::allocator<char> >,std::allocator<std::basic_string<char,std::char_traits<char>,std::allocator<char> > > >,std::allocator<std::vector<std::basic_string<char,std::char_traits<char>,std::allocator<char> >,std::allocator<std::basic_string<char,std::char_traits<char>,std::allocator<char> > > > > > >::operator*
; Function compile flags: /Odtp
_TEXT	ENDS
;	COMDAT ??0?$allocator@V?$vector@V?$basic_string@DU?$char_traits@D@std@@V?$allocator@D@2@@std@@V?$allocator@V?$basic_string@DU?$char_traits@D@std@@V?$allocator@D@2@@std@@@2@@std@@@std@@QAE@ABV01@@Z
_TEXT	SEGMENT
_this$ = -4						; size = 4
___formal$ = 8						; size = 4
??0?$allocator@V?$vector@V?$basic_string@DU?$char_traits@D@std@@V?$allocator@D@2@@std@@V?$allocator@V?$basic_string@DU?$char_traits@D@std@@V?$allocator@D@2@@std@@@2@@std@@@std@@QAE@ABV01@@Z PROC ; std::allocator<std::vector<std::basic_string<char,std::char_traits<char>,std::allocator<char> >,std::allocator<std::basic_string<char,std::char_traits<char>,std::allocator<char> > > > >::allocator<std::vector<std::basic_string<char,std::char_traits<char>,std::allocator<char> >,std::allocator<std::basic_string<char,std::char_traits<char>,std::allocator<char> > > > >, COMDAT
; _this$ = ecx
; File e:\program files (x86)\microsoft visual studio 10.0\vc\include\xmemory
; Line 165
	push	ebp
	mov	ebp, esp
	push	ecx
	mov	DWORD PTR _this$[ebp], ecx
; Line 167
	mov	eax, DWORD PTR _this$[ebp]
	mov	esp, ebp
	pop	ebp
	ret	4
??0?$allocator@V?$vector@V?$basic_string@DU?$char_traits@D@std@@V?$allocator@D@2@@std@@V?$allocator@V?$basic_string@DU?$char_traits@D@std@@V?$allocator@D@2@@std@@@2@@std@@@std@@QAE@ABV01@@Z ENDP ; std::allocator<std::vector<std::basic_string<char,std::char_traits<char>,std::allocator<char> >,std::allocator<std::basic_string<char,std::char_traits<char>,std::allocator<char> > > > >::allocator<std::vector<std::basic_string<char,std::char_traits<char>,std::allocator<char> >,std::allocator<std::basic_string<char,std::char_traits<char>,std::allocator<char> > > > >
; Function compile flags: /Odtp
_TEXT	ENDS
;	COMDAT ??0?$allocator@V?$vector@V?$basic_string@DU?$char_traits@D@std@@V?$allocator@D@2@@std@@V?$allocator@V?$basic_string@DU?$char_traits@D@std@@V?$allocator@D@2@@std@@@2@@std@@@std@@QAE@XZ
_TEXT	SEGMENT
_this$ = -4						; size = 4
??0?$allocator@V?$vector@V?$basic_string@DU?$char_traits@D@std@@V?$allocator@D@2@@std@@V?$allocator@V?$basic_string@DU?$char_traits@D@std@@V?$allocator@D@2@@std@@@2@@std@@@std@@QAE@XZ PROC ; std::allocator<std::vector<std::basic_string<char,std::char_traits<char>,std::allocator<char> >,std::allocator<std::basic_string<char,std::char_traits<char>,std::allocator<char> > > > >::allocator<std::vector<std::basic_string<char,std::char_traits<char>,std::allocator<char> >,std::allocator<std::basic_string<char,std::char_traits<char>,std::allocator<char> > > > >, COMDAT
; _this$ = ecx
; Line 161
	push	ebp
	mov	ebp, esp
	push	ecx
	mov	DWORD PTR _this$[ebp], ecx
; Line 163
	mov	eax, DWORD PTR _this$[ebp]
	mov	esp, ebp
	pop	ebp
	ret	0
??0?$allocator@V?$vector@V?$basic_string@DU?$char_traits@D@std@@V?$allocator@D@2@@std@@V?$allocator@V?$basic_string@DU?$char_traits@D@std@@V?$allocator@D@2@@std@@@2@@std@@@std@@QAE@XZ ENDP ; std::allocator<std::vector<std::basic_string<char,std::char_traits<char>,std::allocator<char> >,std::allocator<std::basic_string<char,std::char_traits<char>,std::allocator<char> > > > >::allocator<std::vector<std::basic_string<char,std::char_traits<char>,std::allocator<char> >,std::allocator<std::basic_string<char,std::char_traits<char>,std::allocator<char> > > > >
; Function compile flags: /Odtp
_TEXT	ENDS
;	COMDAT ??1?$_Vector_val@V?$vector@V?$basic_string@DU?$char_traits@D@std@@V?$allocator@D@2@@std@@V?$allocator@V?$basic_string@DU?$char_traits@D@std@@V?$allocator@D@2@@std@@@2@@std@@V?$allocator@V?$vector@V?$basic_string@DU?$char_traits@D@std@@V?$allocator@D@2@@std@@V?$allocator@V?$basic_string@DU?$char_traits@D@std@@V?$allocator@D@2@@std@@@2@@std@@@2@@std@@QAE@XZ
_TEXT	SEGMENT
_this$ = -4						; size = 4
??1?$_Vector_val@V?$vector@V?$basic_string@DU?$char_traits@D@std@@V?$allocator@D@2@@std@@V?$allocator@V?$basic_string@DU?$char_traits@D@std@@V?$allocator@D@2@@std@@@2@@std@@V?$allocator@V?$vector@V?$basic_string@DU?$char_traits@D@std@@V?$allocator@D@2@@std@@V?$allocator@V?$basic_string@DU?$char_traits@D@std@@V?$allocator@D@2@@std@@@2@@std@@@2@@std@@QAE@XZ PROC ; std::_Vector_val<std::vector<std::basic_string<char,std::char_traits<char>,std::allocator<char> >,std::allocator<std::basic_string<char,std::char_traits<char>,std::allocator<char> > > >,std::allocator<std::vector<std::basic_string<char,std::char_traits<char>,std::allocator<char> >,std::allocator<std::basic_string<char,std::char_traits<char>,std::allocator<char> > > > > >::~_Vector_val<std::vector<std::basic_string<char,std::char_traits<char>,std::allocator<char> >,std::allocator<std::basic_string<char,std::char_traits<char>,std::allocator<char> > > >,std::allocator<std::vector<std::basic_string<char,std::char_traits<char>,std::allocator<char> >,std::allocator<std::basic_string<char,std::char_traits<char>,std::allocator<char> > > > > >, COMDAT
; _this$ = ecx
; File e:\program files (x86)\microsoft visual studio 10.0\vc\include\vector
; Line 433
	push	ebp
	mov	ebp, esp
	push	ecx
	mov	DWORD PTR _this$[ebp], ecx
; Line 434
	mov	esp, ebp
	pop	ebp
	ret	0
??1?$_Vector_val@V?$vector@V?$basic_string@DU?$char_traits@D@std@@V?$allocator@D@2@@std@@V?$allocator@V?$basic_string@DU?$char_traits@D@std@@V?$allocator@D@2@@std@@@2@@std@@V?$allocator@V?$vector@V?$basic_string@DU?$char_traits@D@std@@V?$allocator@D@2@@std@@V?$allocator@V?$basic_string@DU?$char_traits@D@std@@V?$allocator@D@2@@std@@@2@@std@@@2@@std@@QAE@XZ ENDP ; std::_Vector_val<std::vector<std::basic_string<char,std::char_traits<char>,std::allocator<char> >,std::allocator<std::basic_string<char,std::char_traits<char>,std::allocator<char> > > >,std::allocator<std::vector<std::basic_string<char,std::char_traits<char>,std::allocator<char> >,std::allocator<std::basic_string<char,std::char_traits<char>,std::allocator<char> > > > > >::~_Vector_val<std::vector<std::basic_string<char,std::char_traits<char>,std::allocator<char> >,std::allocator<std::basic_string<char,std::char_traits<char>,std::allocator<char> > > >,std::allocator<std::vector<std::basic_string<char,std::char_traits<char>,std::allocator<char> >,std::allocator<std::basic_string<char,std::char_traits<char>,std::allocator<char> > > > > >
; Function compile flags: /Odtp
_TEXT	ENDS
;	COMDAT ??0?$_Vector_val@V?$vector@V?$basic_string@DU?$char_traits@D@std@@V?$allocator@D@2@@std@@V?$allocator@V?$basic_string@DU?$char_traits@D@std@@V?$allocator@D@2@@std@@@2@@std@@V?$allocator@V?$vector@V?$basic_string@DU?$char_traits@D@std@@V?$allocator@D@2@@std@@V?$allocator@V?$basic_string@DU?$char_traits@D@std@@V?$allocator@D@2@@std@@@2@@std@@@2@@std@@QAE@V?$allocator@V?$vector@V?$basic_string@DU?$char_traits@D@std@@V?$allocator@D@2@@std@@V?$allocator@V?$basic_string@DU?$char_traits@D@std@@V?$allocator@D@2@@std@@@2@@std@@@1@@Z
_TEXT	SEGMENT
_this$ = -4						; size = 4
__Al$ = 8						; size = 1
??0?$_Vector_val@V?$vector@V?$basic_string@DU?$char_traits@D@std@@V?$allocator@D@2@@std@@V?$allocator@V?$basic_string@DU?$char_traits@D@std@@V?$allocator@D@2@@std@@@2@@std@@V?$allocator@V?$vector@V?$basic_string@DU?$char_traits@D@std@@V?$allocator@D@2@@std@@V?$allocator@V?$basic_string@DU?$char_traits@D@std@@V?$allocator@D@2@@std@@@2@@std@@@2@@std@@QAE@V?$allocator@V?$vector@V?$basic_string@DU?$char_traits@D@std@@V?$allocator@D@2@@std@@V?$allocator@V?$basic_string@DU?$char_traits@D@std@@V?$allocator@D@2@@std@@@2@@std@@@1@@Z PROC ; std::_Vector_val<std::vector<std::basic_string<char,std::char_traits<char>,std::allocator<char> >,std::allocator<std::basic_string<char,std::char_traits<char>,std::allocator<char> > > >,std::allocator<std::vector<std::basic_string<char,std::char_traits<char>,std::allocator<char> >,std::allocator<std::basic_string<char,std::char_traits<char>,std::allocator<char> > > > > >::_Vector_val<std::vector<std::basic_string<char,std::char_traits<char>,std::allocator<char> >,std::allocator<std::basic_string<char,std::char_traits<char>,std::allocator<char> > > >,std::allocator<std::vector<std::basic_string<char,std::char_traits<char>,std::allocator<char> >,std::allocator<std::basic_string<char,std::char_traits<char>,std::allocator<char> > > > > >, COMDAT
; _this$ = ecx
; Line 426
	push	ebp
	mov	ebp, esp
	push	ecx
	mov	DWORD PTR _this$[ebp], ecx
	lea	eax, DWORD PTR __Al$[ebp]
	push	eax
	mov	ecx, DWORD PTR _this$[ebp]
	add	ecx, 12					; 0000000cH
	call	??0?$allocator@V?$vector@V?$basic_string@DU?$char_traits@D@std@@V?$allocator@D@2@@std@@V?$allocator@V?$basic_string@DU?$char_traits@D@std@@V?$allocator@D@2@@std@@@2@@std@@@std@@QAE@ABV01@@Z ; std::allocator<std::vector<std::basic_string<char,std::char_traits<char>,std::allocator<char> >,std::allocator<std::basic_string<char,std::char_traits<char>,std::allocator<char> > > > >::allocator<std::vector<std::basic_string<char,std::char_traits<char>,std::allocator<char> >,std::allocator<std::basic_string<char,std::char_traits<char>,std::allocator<char> > > > >
; Line 427
	mov	ecx, DWORD PTR _this$[ebp]
	mov	DWORD PTR [ecx], 0
; Line 428
	mov	edx, DWORD PTR _this$[ebp]
	mov	DWORD PTR [edx+4], 0
; Line 429
	mov	eax, DWORD PTR _this$[ebp]
	mov	DWORD PTR [eax+8], 0
; Line 430
	mov	eax, DWORD PTR _this$[ebp]
	mov	esp, ebp
	pop	ebp
	ret	4
??0?$_Vector_val@V?$vector@V?$basic_string@DU?$char_traits@D@std@@V?$allocator@D@2@@std@@V?$allocator@V?$basic_string@DU?$char_traits@D@std@@V?$allocator@D@2@@std@@@2@@std@@V?$allocator@V?$vector@V?$basic_string@DU?$char_traits@D@std@@V?$allocator@D@2@@std@@V?$allocator@V?$basic_string@DU?$char_traits@D@std@@V?$allocator@D@2@@std@@@2@@std@@@2@@std@@QAE@V?$allocator@V?$vector@V?$basic_string@DU?$char_traits@D@std@@V?$allocator@D@2@@std@@V?$allocator@V?$basic_string@DU?$char_traits@D@std@@V?$allocator@D@2@@std@@@2@@std@@@1@@Z ENDP ; std::_Vector_val<std::vector<std::basic_string<char,std::char_traits<char>,std::allocator<char> >,std::allocator<std::basic_string<char,std::char_traits<char>,std::allocator<char> > > >,std::allocator<std::vector<std::basic_string<char,std::char_traits<char>,std::allocator<char> >,std::allocator<std::basic_string<char,std::char_traits<char>,std::allocator<char> > > > > >::_Vector_val<std::vector<std::basic_string<char,std::char_traits<char>,std::allocator<char> >,std::allocator<std::basic_string<char,std::char_traits<char>,std::allocator<char> > > >,std::allocator<std::vector<std::basic_string<char,std::char_traits<char>,std::allocator<char> >,std::allocator<std::basic_string<char,std::char_traits<char>,std::allocator<char> > > > > >
; Function compile flags: /Odtp
_TEXT	ENDS
;	COMDAT ?_Orphan_range@?$vector@V?$vector@V?$basic_string@DU?$char_traits@D@std@@V?$allocator@D@2@@std@@V?$allocator@V?$basic_string@DU?$char_traits@D@std@@V?$allocator@D@2@@std@@@2@@std@@V?$allocator@V?$vector@V?$basic_string@DU?$char_traits@D@std@@V?$allocator@D@2@@std@@V?$allocator@V?$basic_string@DU?$char_traits@D@std@@V?$allocator@D@2@@std@@@2@@std@@@2@@std@@IBEXPAV?$vector@V?$basic_string@DU?$char_traits@D@std@@V?$allocator@D@2@@std@@V?$allocator@V?$basic_string@DU?$char_traits@D@std@@V?$allocator@D@2@@std@@@2@@2@0@Z
_TEXT	SEGMENT
_this$ = -4						; size = 4
___formal$ = 8						; size = 4
___formal$ = 12						; size = 4
?_Orphan_range@?$vector@V?$vector@V?$basic_string@DU?$char_traits@D@std@@V?$allocator@D@2@@std@@V?$allocator@V?$basic_string@DU?$char_traits@D@std@@V?$allocator@D@2@@std@@@2@@std@@V?$allocator@V?$vector@V?$basic_string@DU?$char_traits@D@std@@V?$allocator@D@2@@std@@V?$allocator@V?$basic_string@DU?$char_traits@D@std@@V?$allocator@D@2@@std@@@2@@std@@@2@@std@@IBEXPAV?$vector@V?$basic_string@DU?$char_traits@D@std@@V?$allocator@D@2@@std@@V?$allocator@V?$basic_string@DU?$char_traits@D@std@@V?$allocator@D@2@@std@@@2@@2@0@Z PROC ; std::vector<std::vector<std::basic_string<char,std::char_traits<char>,std::allocator<char> >,std::allocator<std::basic_string<char,std::char_traits<char>,std::allocator<char> > > >,std::allocator<std::vector<std::basic_string<char,std::char_traits<char>,std::allocator<char> >,std::allocator<std::basic_string<char,std::char_traits<char>,std::allocator<char> > > > > >::_Orphan_range, COMDAT
; _this$ = ecx
; Line 1453
	push	ebp
	mov	ebp, esp
	push	ecx
	mov	DWORD PTR _this$[ebp], ecx
; Line 1454
	mov	esp, ebp
	pop	ebp
	ret	8
?_Orphan_range@?$vector@V?$vector@V?$basic_string@DU?$char_traits@D@std@@V?$allocator@D@2@@std@@V?$allocator@V?$basic_string@DU?$char_traits@D@std@@V?$allocator@D@2@@std@@@2@@std@@V?$allocator@V?$vector@V?$basic_string@DU?$char_traits@D@std@@V?$allocator@D@2@@std@@V?$allocator@V?$basic_string@DU?$char_traits@D@std@@V?$allocator@D@2@@std@@@2@@std@@@2@@std@@IBEXPAV?$vector@V?$basic_string@DU?$char_traits@D@std@@V?$allocator@D@2@@std@@V?$allocator@V?$basic_string@DU?$char_traits@D@std@@V?$allocator@D@2@@std@@@2@@2@0@Z ENDP ; std::vector<std::vector<std::basic_string<char,std::char_traits<char>,std::allocator<char> >,std::allocator<std::basic_string<char,std::char_traits<char>,std::allocator<char> > > >,std::allocator<std::vector<std::basic_string<char,std::char_traits<char>,std::allocator<char> >,std::allocator<std::basic_string<char,std::char_traits<char>,std::allocator<char> > > > > >::_Orphan_range
; Function compile flags: /Odtp
_TEXT	ENDS
;	COMDAT ?_Inside@?$vector@V?$vector@V?$basic_string@DU?$char_traits@D@std@@V?$allocator@D@2@@std@@V?$allocator@V?$basic_string@DU?$char_traits@D@std@@V?$allocator@D@2@@std@@@2@@std@@V?$allocator@V?$vector@V?$basic_string@DU?$char_traits@D@std@@V?$allocator@D@2@@std@@V?$allocator@V?$basic_string@DU?$char_traits@D@std@@V?$allocator@D@2@@std@@@2@@std@@@2@@std@@IBE_NPBV?$vector@V?$basic_string@DU?$char_traits@D@std@@V?$allocator@D@2@@std@@V?$allocator@V?$basic_string@DU?$char_traits@D@std@@V?$allocator@D@2@@std@@@2@@2@@Z
_TEXT	SEGMENT
tv76 = -8						; size = 4
_this$ = -4						; size = 4
__Ptr$ = 8						; size = 4
?_Inside@?$vector@V?$vector@V?$basic_string@DU?$char_traits@D@std@@V?$allocator@D@2@@std@@V?$allocator@V?$basic_string@DU?$char_traits@D@std@@V?$allocator@D@2@@std@@@2@@std@@V?$allocator@V?$vector@V?$basic_string@DU?$char_traits@D@std@@V?$allocator@D@2@@std@@V?$allocator@V?$basic_string@DU?$char_traits@D@std@@V?$allocator@D@2@@std@@@2@@std@@@2@@std@@IBE_NPBV?$vector@V?$basic_string@DU?$char_traits@D@std@@V?$allocator@D@2@@std@@V?$allocator@V?$basic_string@DU?$char_traits@D@std@@V?$allocator@D@2@@std@@@2@@2@@Z PROC ; std::vector<std::vector<std::basic_string<char,std::char_traits<char>,std::allocator<char> >,std::allocator<std::basic_string<char,std::char_traits<char>,std::allocator<char> > > >,std::allocator<std::vector<std::basic_string<char,std::char_traits<char>,std::allocator<char> >,std::allocator<std::basic_string<char,std::char_traits<char>,std::allocator<char> > > > > >::_Inside, COMDAT
; _this$ = ecx
; Line 1285
	push	ebp
	mov	ebp, esp
	sub	esp, 8
	mov	DWORD PTR _this$[ebp], ecx
; Line 1286
	mov	eax, DWORD PTR _this$[ebp]
	mov	ecx, DWORD PTR __Ptr$[ebp]
	cmp	ecx, DWORD PTR [eax+4]
	jae	SHORT $LN3@Inside@6
	mov	edx, DWORD PTR _this$[ebp]
	mov	eax, DWORD PTR [edx]
	cmp	eax, DWORD PTR __Ptr$[ebp]
	ja	SHORT $LN3@Inside@6
	mov	DWORD PTR tv76[ebp], 1
	jmp	SHORT $LN4@Inside@6
$LN3@Inside@6:
	mov	DWORD PTR tv76[ebp], 0
$LN4@Inside@6:
	mov	al, BYTE PTR tv76[ebp]
; Line 1287
	mov	esp, ebp
	pop	ebp
	ret	4
?_Inside@?$vector@V?$vector@V?$basic_string@DU?$char_traits@D@std@@V?$allocator@D@2@@std@@V?$allocator@V?$basic_string@DU?$char_traits@D@std@@V?$allocator@D@2@@std@@@2@@std@@V?$allocator@V?$vector@V?$basic_string@DU?$char_traits@D@std@@V?$allocator@D@2@@std@@V?$allocator@V?$basic_string@DU?$char_traits@D@std@@V?$allocator@D@2@@std@@@2@@std@@@2@@std@@IBE_NPBV?$vector@V?$basic_string@DU?$char_traits@D@std@@V?$allocator@D@2@@std@@V?$allocator@V?$basic_string@DU?$char_traits@D@std@@V?$allocator@D@2@@std@@@2@@2@@Z ENDP ; std::vector<std::vector<std::basic_string<char,std::char_traits<char>,std::allocator<char> >,std::allocator<std::basic_string<char,std::char_traits<char>,std::allocator<char> > > >,std::allocator<std::vector<std::basic_string<char,std::char_traits<char>,std::allocator<char> >,std::allocator<std::basic_string<char,std::char_traits<char>,std::allocator<char> > > > > >::_Inside
; Function compile flags: /Odtp
_TEXT	ENDS
;	COMDAT ??0?$allocator@Umessage@Database@@@std@@QAE@ABV01@@Z
_TEXT	SEGMENT
_this$ = -4						; size = 4
___formal$ = 8						; size = 4
??0?$allocator@Umessage@Database@@@std@@QAE@ABV01@@Z PROC ; std::allocator<Database::message>::allocator<Database::message>, COMDAT
; _this$ = ecx
; File e:\program files (x86)\microsoft visual studio 10.0\vc\include\xmemory
; Line 165
	push	ebp
	mov	ebp, esp
	push	ecx
	mov	DWORD PTR _this$[ebp], ecx
; Line 167
	mov	eax, DWORD PTR _this$[ebp]
	mov	esp, ebp
	pop	ebp
	ret	4
??0?$allocator@Umessage@Database@@@std@@QAE@ABV01@@Z ENDP ; std::allocator<Database::message>::allocator<Database::message>
; Function compile flags: /Odtp
_TEXT	ENDS
;	COMDAT ??0?$allocator@Umessage@Database@@@std@@QAE@XZ
_TEXT	SEGMENT
_this$ = -4						; size = 4
??0?$allocator@Umessage@Database@@@std@@QAE@XZ PROC	; std::allocator<Database::message>::allocator<Database::message>, COMDAT
; _this$ = ecx
; Line 161
	push	ebp
	mov	ebp, esp
	push	ecx
	mov	DWORD PTR _this$[ebp], ecx
; Line 163
	mov	eax, DWORD PTR _this$[ebp]
	mov	esp, ebp
	pop	ebp
	ret	0
??0?$allocator@Umessage@Database@@@std@@QAE@XZ ENDP	; std::allocator<Database::message>::allocator<Database::message>
; Function compile flags: /Odtp
_TEXT	ENDS
;	COMDAT ??0?$_Vector_val@Umessage@Database@@V?$allocator@Umessage@Database@@@std@@@std@@QAE@V?$allocator@Umessage@Database@@@1@@Z
_TEXT	SEGMENT
_this$ = -4						; size = 4
__Al$ = 8						; size = 1
??0?$_Vector_val@Umessage@Database@@V?$allocator@Umessage@Database@@@std@@@std@@QAE@V?$allocator@Umessage@Database@@@1@@Z PROC ; std::_Vector_val<Database::message,std::allocator<Database::message> >::_Vector_val<Database::message,std::allocator<Database::message> >, COMDAT
; _this$ = ecx
; File e:\program files (x86)\microsoft visual studio 10.0\vc\include\vector
; Line 426
	push	ebp
	mov	ebp, esp
	push	ecx
	mov	DWORD PTR _this$[ebp], ecx
	lea	eax, DWORD PTR __Al$[ebp]
	push	eax
	mov	ecx, DWORD PTR _this$[ebp]
	add	ecx, 12					; 0000000cH
	call	??0?$allocator@Umessage@Database@@@std@@QAE@ABV01@@Z ; std::allocator<Database::message>::allocator<Database::message>
; Line 427
	mov	ecx, DWORD PTR _this$[ebp]
	mov	DWORD PTR [ecx], 0
; Line 428
	mov	edx, DWORD PTR _this$[ebp]
	mov	DWORD PTR [edx+4], 0
; Line 429
	mov	eax, DWORD PTR _this$[ebp]
	mov	DWORD PTR [eax+8], 0
; Line 430
	mov	eax, DWORD PTR _this$[ebp]
	mov	esp, ebp
	pop	ebp
	ret	4
??0?$_Vector_val@Umessage@Database@@V?$allocator@Umessage@Database@@@std@@@std@@QAE@V?$allocator@Umessage@Database@@@1@@Z ENDP ; std::_Vector_val<Database::message,std::allocator<Database::message> >::_Vector_val<Database::message,std::allocator<Database::message> >
; Function compile flags: /Odtp
_TEXT	ENDS
;	COMDAT ?_Orphan_range@?$vector@Umessage@Database@@V?$allocator@Umessage@Database@@@std@@@std@@IBEXPAUmessage@Database@@0@Z
_TEXT	SEGMENT
_this$ = -4						; size = 4
___formal$ = 8						; size = 4
___formal$ = 12						; size = 4
?_Orphan_range@?$vector@Umessage@Database@@V?$allocator@Umessage@Database@@@std@@@std@@IBEXPAUmessage@Database@@0@Z PROC ; std::vector<Database::message,std::allocator<Database::message> >::_Orphan_range, COMDAT
; _this$ = ecx
; Line 1453
	push	ebp
	mov	ebp, esp
	push	ecx
	mov	DWORD PTR _this$[ebp], ecx
; Line 1454
	mov	esp, ebp
	pop	ebp
	ret	8
?_Orphan_range@?$vector@Umessage@Database@@V?$allocator@Umessage@Database@@@std@@@std@@IBEXPAUmessage@Database@@0@Z ENDP ; std::vector<Database::message,std::allocator<Database::message> >::_Orphan_range
; Function compile flags: /Odtp
_TEXT	ENDS
;	COMDAT ?_Inside@?$vector@Umessage@Database@@V?$allocator@Umessage@Database@@@std@@@std@@IBE_NPBUmessage@Database@@@Z
_TEXT	SEGMENT
tv76 = -8						; size = 4
_this$ = -4						; size = 4
__Ptr$ = 8						; size = 4
?_Inside@?$vector@Umessage@Database@@V?$allocator@Umessage@Database@@@std@@@std@@IBE_NPBUmessage@Database@@@Z PROC ; std::vector<Database::message,std::allocator<Database::message> >::_Inside, COMDAT
; _this$ = ecx
; Line 1285
	push	ebp
	mov	ebp, esp
	sub	esp, 8
	mov	DWORD PTR _this$[ebp], ecx
; Line 1286
	mov	eax, DWORD PTR _this$[ebp]
	mov	ecx, DWORD PTR __Ptr$[ebp]
	cmp	ecx, DWORD PTR [eax+4]
	jae	SHORT $LN3@Inside@7
	mov	edx, DWORD PTR _this$[ebp]
	mov	eax, DWORD PTR [edx]
	cmp	eax, DWORD PTR __Ptr$[ebp]
	ja	SHORT $LN3@Inside@7
	mov	DWORD PTR tv76[ebp], 1
	jmp	SHORT $LN4@Inside@7
$LN3@Inside@7:
	mov	DWORD PTR tv76[ebp], 0
$LN4@Inside@7:
	mov	al, BYTE PTR tv76[ebp]
; Line 1287
	mov	esp, ebp
	pop	ebp
	ret	4
?_Inside@?$vector@Umessage@Database@@V?$allocator@Umessage@Database@@@std@@@std@@IBE_NPBUmessage@Database@@@Z ENDP ; std::vector<Database::message,std::allocator<Database::message> >::_Inside
; Function compile flags: /Odtp
_TEXT	ENDS
;	COMDAT ?_Xran@?$vector@V?$basic_string@DU?$char_traits@D@std@@V?$allocator@D@2@@std@@V?$allocator@V?$basic_string@DU?$char_traits@D@std@@V?$allocator@D@2@@std@@@2@@std@@IBEXXZ
_TEXT	SEGMENT
_this$ = -4						; size = 4
?_Xran@?$vector@V?$basic_string@DU?$char_traits@D@std@@V?$allocator@D@2@@std@@V?$allocator@V?$basic_string@DU?$char_traits@D@std@@V?$allocator@D@2@@std@@@2@@std@@IBEXXZ PROC ; std::vector<std::basic_string<char,std::char_traits<char>,std::allocator<char> >,std::allocator<std::basic_string<char,std::char_traits<char>,std::allocator<char> > > >::_Xran, COMDAT
; _this$ = ecx
; Line 1431
	push	ebp
	mov	ebp, esp
	push	ecx
	mov	DWORD PTR _this$[ebp], ecx
; Line 1432
	push	OFFSET ??_C@_0BM@NMJKDPPO@invalid?5vector?$DMT?$DO?5subscript?$AA@
	call	DWORD PTR __imp_?_Xout_of_range@std@@YAXPBD@Z
$LN2@Xran@2:
; Line 1433
	mov	esp, ebp
	pop	ebp
	ret	0
