; Listing generated by Microsoft (R) Optimizing Compiler Version 16.00.40219.01 

	TITLE	C:\Work\daspirum\Source\src\translator.cpp
	.686P
	.XMM
	include listing.inc
	.model	flat

INCLUDELIB OLDNAMES

$SG-85047 DB	00H
	ORG $+1
$SG-85034 DB	'bypass.xlnt.cc', 00H
	ORG $+1
$SG-85035 DB	'%20', 00H
$SG-85036 DB	' HTTP/1.1', 0dH, 0aH, 00H
$SG-85037 DB	'&l=', 00H
$SG-85038 DB	'GET /translator/index.php?q=', 00H
	ORG $+3
$SG-85039 DB	'Host: bypass.xlnt.cc', 0dH, 0aH, 00H
	ORG $+1
$SG-85040 DB	0dH, 0aH, 00H
	ORG $+1
$SG-85041 DB	0dH, 0aH, 0dH, 0aH, 00H
	ORG $+3
$SG-85042 DB	0dH, 0aH, 00H
	ORG $+1
$SG-85043 DB	0dH, 0aH, 00H
	ORG $+1
$SG-85044 DB	'#000000', 00H
$SG-85045 DB	'translator::translate', 00H
	ORG $+2
$SG-85046 DB	'..\src\translator.cpp', 00H
	ORG $+2
$SG-85092 DB	'.', 0aH, 00H
	ORG $+1
$SG-85093 DB	0aH, 0aH, 'Error detected at line ', 00H
	ORG $+2
$SG-85094 DB	'.', 0aH, 00H
	ORG $+1
$SG-85095 DB	'e:\library\dlib\dlib\set/set_kernel_c.h', 00H
$SG-85096 DB	'Error detected in file ', 00H
$SG-85097 DB	'.', 0aH, 0aH, 00H
$SG-85099 DB	'Error detected in function ', 00H
$SG-85098 DB	'void __thiscall dlib::set_kernel_c<class dlib::set_kerne'
	DB	'l_1<unsigned long,class dlib::binary_search_tree_kernel_2<uns'
	DB	'igned long,char,class dlib::memory_manager_kernel_2<char,100>'
	DB	',struct std::less<unsigned long> >,class dlib::memory_manager'
	DB	'_kernel_2<char,100> > >::remove_any(unsigned long &)', 00H
$SG-85100 DB	'.', 0aH, 00H
	ORG $+1
$SG-85101 DB	'this->size() != 0', 00H
	ORG $+2
$SG-85102 DB	'Failing expression was ', 00H
$SG-85103 DB	0aH, 00H
	ORG $+2
$SG-85104 DB	0aH, 09H, 'this: ', 00H
	ORG $+3
$SG-85105 DB	0aH, 09H, 'size must be greater than zero if an item is t'
	DB	'o be removed', 00H
	ORG $+3
$SG-85106 DB	09H, 'void set::remove_any', 00H
	ORG $+2
$SG-85107 DB	'.', 0aH, 00H
	ORG $+1
$SG-85108 DB	0aH, 0aH, 'Error detected at line ', 00H
	ORG $+2
$SG-85109 DB	'.', 0aH, 00H
	ORG $+1
$SG-85110 DB	'e:\library\dlib\dlib\set/set_kernel_c.h', 00H
$SG-85111 DB	'Error detected in file ', 00H
$SG-85112 DB	'.', 0aH, 0aH, 00H
$SG-85114 DB	'Error detected in function ', 00H
$SG-85113 DB	'const unsigned long &__thiscall dlib::set_kernel_c<class'
	DB	' dlib::set_kernel_1<unsigned long,class dlib::binary_search_t'
	DB	'ree_kernel_2<unsigned long,char,class dlib::memory_manager_ke'
	DB	'rnel_2<char,100>,struct std::less<unsigned long> >,class dlib'
	DB	'::memory_manager_kernel_2<char,100> > >::element(void) const', 00H
$SG-85115 DB	'.', 0aH, 00H
	ORG $+1
$SG-85116 DB	'this->current_element_valid() == true', 00H
	ORG $+2
$SG-85117 DB	'Failing expression was ', 00H
$SG-85118 DB	0aH, 00H
	ORG $+2
$SG-85119 DB	0aH, 09H, 'this: ', 00H
	ORG $+3
$SG-85120 DB	0aH, 09H, 'you can''t access the current element if it do'
	DB	'esn''t exist', 00H
	ORG $+1
$SG-85121 DB	09H, 'const T& set::element() const', 00H
	ORG $+1
$SG-85122 DB	'.', 0aH, 00H
	ORG $+1
$SG-85123 DB	0aH, 0aH, 'Error detected at line ', 00H
	ORG $+2
$SG-85124 DB	'.', 0aH, 00H
	ORG $+1
$SG-85125 DB	'e:\library\dlib\dlib\set/set_kernel_c.h', 00H
$SG-85126 DB	'Error detected in file ', 00H
$SG-85127 DB	'.', 0aH, 0aH, 00H
$SG-85129 DB	'Error detected in function ', 00H
$SG-85128 DB	'const unsigned long &__thiscall dlib::set_kernel_c<class'
	DB	' dlib::set_kernel_1<unsigned long,class dlib::binary_search_t'
	DB	'ree_kernel_2<unsigned long,char,class dlib::memory_manager_ke'
	DB	'rnel_2<char,100>,struct std::less<unsigned long> >,class dlib'
	DB	'::memory_manager_kernel_2<char,100> > >::element(void)', 00H
	ORG $+2
$SG-85130 DB	'.', 0aH, 00H
	ORG $+1
$SG-85131 DB	'this->current_element_valid() == true', 00H
	ORG $+2
$SG-85132 DB	'Failing expression was ', 00H
$SG-85133 DB	0aH, 00H
	ORG $+2
$SG-85134 DB	0aH, 09H, 'this: ', 00H
	ORG $+3
$SG-85135 DB	0aH, 09H, 'you can''t access the current element if it do'
	DB	'esn''t exist', 00H
	ORG $+1
$SG-85136 DB	09H, 'const T& set::element', 00H
	ORG $+1
$SG-85137 DB	'.', 0aH, 00H
	ORG $+1
$SG-85138 DB	0aH, 0aH, 'Error detected at line ', 00H
	ORG $+2
$SG-85139 DB	'.', 0aH, 00H
	ORG $+1
$SG-85141 DB	'Error detected in file ', 00H
$SG-85142 DB	'.', 0aH, 0aH, 00H
$SG-85140 DB	'e:\library\dlib\dlib\binary_search_tree/binary_search_tr'
	DB	'ee_kernel_c.h', 00H
	ORG $+2
$SG-85143 DB	'void __thiscall dlib::binary_search_tree_kernel_c<class '
	DB	'dlib::binary_search_tree_kernel_2<unsigned long,class dlib::m'
	DB	'ember_function_pointer<void,void,void,void>,class dlib::memor'
	DB	'y_manager_kernel_2<char,10>,struct std::less<unsigned long> >'
	DB	' >::remove_any(unsigned long &,class dlib::member_function_po'
	DB	'inter<void,void,void,void> &)', 00H
	ORG $+2
$SG-85144 DB	'Error detected in function ', 00H
$SG-85145 DB	'.', 0aH, 00H
	ORG $+1
$SG-85147 DB	'Failing expression was ', 00H
$SG-85148 DB	0aH, 00H
	ORG $+2
$SG-85146 DB	'this->size() != 0 && (static_cast<const void*>(&d) != st'
	DB	'atic_cast<void*>(&r))', 00H
	ORG $+2
$SG-85149 DB	0aH, 09H, '&r:   ', 00H
	ORG $+3
$SG-85150 DB	0aH, 09H, '&d:   ', 00H
	ORG $+3
$SG-85151 DB	0aH, 09H, 'this: ', 00H
	ORG $+3
$SG-85152 DB	0aH, 09H, 'tree must not be empty if something is going t'
	DB	'o be removed', 00H
	ORG $+3
$SG-85153 DB	09H, 'void binary_search_tree::remove_any', 00H
	ORG $+3
$SG-85154 DB	'.', 0aH, 00H
	ORG $+1
$SG-85155 DB	0aH, 0aH, 'Error detected at line ', 00H
	ORG $+2
$SG-85156 DB	'.', 0aH, 00H
	ORG $+1
$SG-85157 DB	'e:\library\dlib\dlib\binary_search_tree/binary_search_tr'
	DB	'ee_kernel_c.h', 00H
	ORG $+2
$SG-85158 DB	'Error detected in file ', 00H
$SG-85159 DB	'.', 0aH, 0aH, 00H
$SG-85161 DB	'Error detected in function ', 00H
$SG-85160 DB	'class dlib::map_pair<unsigned long,class dlib::member_fu'
	DB	'nction_pointer<void,void,void,void> > &__thiscall dlib::binar'
	DB	'y_search_tree_kernel_c<class dlib::binary_search_tree_kernel_'
	DB	'2<unsigned long,class dlib::member_function_pointer<void,void'
	DB	',void,void>,class dlib::memory_manager_kernel_2<char,10>,stru'
	DB	'ct std::less<unsigned long> > >::element(void)', 00H
	ORG $+1
$SG-85162 DB	'.', 0aH, 00H
	ORG $+1
$SG-85163 DB	'this->current_element_valid() == true', 00H
	ORG $+2
$SG-85164 DB	'Failing expression was ', 00H
$SG-85165 DB	0aH, 00H
	ORG $+2
$SG-85166 DB	0aH, 09H, 'this: ', 00H
	ORG $+3
$SG-85167 DB	0aH, 09H, 'you can''t access the current element if it do'
	DB	'esn''t exist', 00H
	ORG $+1
$SG-85168 DB	09H, 'map_pair<domain,range>& binary_search_tree::element'
	DB	'()', 00H
	ORG $+1
$SG-85169 DB	'.', 0aH, 00H
	ORG $+1
$SG-85170 DB	0aH, 0aH, 'Error detected at line ', 00H
	ORG $+2
$SG-85171 DB	'.', 0aH, 00H
	ORG $+1
$SG-85172 DB	'e:\library\dlib\dlib\binary_search_tree/binary_search_tr'
	DB	'ee_kernel_c.h', 00H
	ORG $+2
$SG-85173 DB	'Error detected in file ', 00H
$SG-85174 DB	'.', 0aH, 0aH, 00H
$SG-85176 DB	'Error detected in function ', 00H
$SG-85175 DB	'const class dlib::map_pair<unsigned long,class dlib::mem'
	DB	'ber_function_pointer<void,void,void,void> > &__thiscall dlib:'
	DB	':binary_search_tree_kernel_c<class dlib::binary_search_tree_k'
	DB	'ernel_2<unsigned long,class dlib::member_function_pointer<voi'
	DB	'd,void,void,void>,class dlib::memory_manager_kernel_2<char,10'
	DB	'>,struct std::less<unsigned long> > >::element(void) const', 00H
	ORG $+1
$SG-85177 DB	'.', 0aH, 00H
	ORG $+1
$SG-85178 DB	'this->current_element_valid() == true', 00H
	ORG $+2
$SG-85179 DB	'Failing expression was ', 00H
$SG-85180 DB	0aH, 00H
	ORG $+2
$SG-85181 DB	0aH, 09H, 'this: ', 00H
	ORG $+3
$SG-85182 DB	0aH, 09H, 'you can''t access the current element if it do'
	DB	'esn''t exist', 00H
	ORG $+1
$SG-85183 DB	09H, 'const map_pair<domain,range>& binary_search_tree::e'
	DB	'lement() const', 00H
PUBLIC	__$ArrayPad$
PUBLIC	?translate@translator@@YA?AV?$basic_string@DU?$char_traits@D@std@@V?$allocator@D@2@@std@@V23@0@Z ; translator::translate
;	COMDAT xdata$x
; File c:\work\daspirum\source\src\translator.cpp
xdata$x	SEGMENT
__unwindtable$?translate@translator@@YA?AV?$basic_string@DU?$char_traits@D@std@@V?$allocator@D@2@@std@@V23@0@Z DD 0ffffffffH
	DD	FLAT:__unwindfunclet$?translate@translator@@YA?AV?$basic_string@DU?$char_traits@D@std@@V?$allocator@D@2@@std@@V23@0@Z$2
	DD	00H
	DD	FLAT:__unwindfunclet$?translate@translator@@YA?AV?$basic_string@DU?$char_traits@D@std@@V?$allocator@D@2@@std@@V23@0@Z$3
	DD	01H
	DD	00H
	DD	02H
	DD	FLAT:__unwindfunclet$?translate@translator@@YA?AV?$basic_string@DU?$char_traits@D@std@@V?$allocator@D@2@@std@@V23@0@Z$4
	DD	03H
	DD	FLAT:__unwindfunclet$?translate@translator@@YA?AV?$basic_string@DU?$char_traits@D@std@@V?$allocator@D@2@@std@@V23@0@Z$5
	DD	02H
	DD	FLAT:__unwindfunclet$?translate@translator@@YA?AV?$basic_string@DU?$char_traits@D@std@@V?$allocator@D@2@@std@@V23@0@Z$5
	DD	05H
	DD	FLAT:__unwindfunclet$?translate@translator@@YA?AV?$basic_string@DU?$char_traits@D@std@@V?$allocator@D@2@@std@@V23@0@Z$6
	DD	06H
	DD	FLAT:__unwindfunclet$?translate@translator@@YA?AV?$basic_string@DU?$char_traits@D@std@@V?$allocator@D@2@@std@@V23@0@Z$7
	DD	07H
	DD	FLAT:__unwindfunclet$?translate@translator@@YA?AV?$basic_string@DU?$char_traits@D@std@@V?$allocator@D@2@@std@@V23@0@Z$8
	DD	08H
	DD	FLAT:__unwindfunclet$?translate@translator@@YA?AV?$basic_string@DU?$char_traits@D@std@@V?$allocator@D@2@@std@@V23@0@Z$9
	DD	09H
	DD	FLAT:__unwindfunclet$?translate@translator@@YA?AV?$basic_string@DU?$char_traits@D@std@@V?$allocator@D@2@@std@@V23@0@Z$10
	DD	06H
	DD	FLAT:__unwindfunclet$?translate@translator@@YA?AV?$basic_string@DU?$char_traits@D@std@@V?$allocator@D@2@@std@@V23@0@Z$12
	DD	01H
	DD	00H
__catchsym$?translate@translator@@YA?AV?$basic_string@DU?$char_traits@D@std@@V?$allocator@D@2@@std@@V23@0@Z$15 DD 08H
	DD	FLAT:??_R0?AVexception@std@@@8
	DD	0fffffe14H
	DD	FLAT:__catch$?translate@translator@@YA?AV?$basic_string@DU?$char_traits@D@std@@V?$allocator@D@2@@std@@V23@0@Z$0
__tryblocktable$?translate@translator@@YA?AV?$basic_string@DU?$char_traits@D@std@@V?$allocator@D@2@@std@@V23@0@Z DD 02H
	DD	0bH
	DD	0cH
	DD	01H
	DD	FLAT:__catchsym$?translate@translator@@YA?AV?$basic_string@DU?$char_traits@D@std@@V?$allocator@D@2@@std@@V23@0@Z$15
__ehfuncinfo$?translate@translator@@YA?AV?$basic_string@DU?$char_traits@D@std@@V?$allocator@D@2@@std@@V23@0@Z DD 019930522H
	DD	0dH
	DD	FLAT:__unwindtable$?translate@translator@@YA?AV?$basic_string@DU?$char_traits@D@std@@V?$allocator@D@2@@std@@V23@0@Z
	DD	01H
	DD	FLAT:__tryblocktable$?translate@translator@@YA?AV?$basic_string@DU?$char_traits@D@std@@V?$allocator@D@2@@std@@V23@0@Z
	DD	2 DUP(00H)
	DD	00H
	DD	01H
; Function compile flags: /Odtp
xdata$x	ENDS
;	COMDAT ?translate@translator@@YA?AV?$basic_string@DU?$char_traits@D@std@@V?$allocator@D@2@@std@@V23@0@Z
_TEXT	SEGMENT
tv293 = -568						; size = 4
tv286 = -564						; size = 4
tv283 = -560						; size = 4
tv301 = -556						; size = 4
tv300 = -552						; size = 4
tv299 = -548						; size = 4
tv273 = -544						; size = 4
tv298 = -540						; size = 4
tv271 = -536						; size = 4
tv169 = -532						; size = 4
tv269 = -528						; size = 4
tv67 = -524						; size = 4
tv267 = -520						; size = 4
tv91 = -516						; size = 4
tv233 = -512						; size = 4
tv258 = -508						; size = 4
$T369432 = -504						; size = 4
$T369419 = -500						; size = 4
$T369418 = -496						; size = 4
_e$148893 = -492					; size = 4
_i$148805 = -488					; size = 4
_con$148802 = -484					; size = 4
_request$148811 = -480					; size = 28
_size$148804 = -452					; size = 4
_sBuffer$148796 = -448					; size = 256
$T148889 = -188						; size = 28
$T148879 = -160						; size = 28
$T148878 = -132						; size = 28
$T148813 = -104						; size = 28
$T148812 = -76						; size = 28
$T148801 = -48						; size = 28
__$ArrayPad$ = -20					; size = 4
__$EHRec$ = -16						; size = 16
___$ReturnUdt$ = 8					; size = 4
_textToTranslate$ = 12					; size = 28
_language$ = 40						; size = 28
?translate@translator@@YA?AV?$basic_string@DU?$char_traits@D@std@@V?$allocator@D@2@@std@@V23@0@Z PROC ; translator::translate, COMDAT
; Line 9
	push	ebp
	mov	ebp, esp
	push	-1
	push	__ehhandler$?translate@translator@@YA?AV?$basic_string@DU?$char_traits@D@std@@V?$allocator@D@2@@std@@V23@0@Z
	mov	eax, DWORD PTR fs:0
	push	eax
	push	ecx
	sub	esp, 552				; 00000228H
	mov	eax, DWORD PTR ___security_cookie
	xor	eax, ebp
	mov	DWORD PTR __$ArrayPad$[ebp], eax
	push	ebx
	push	esi
	push	edi
	push	eax
	lea	eax, DWORD PTR __$EHRec$[ebp+4]
	mov	DWORD PTR fs:0, eax
	mov	DWORD PTR __$EHRec$[ebp], esp
	mov	DWORD PTR $T369432[ebp], 0
	mov	DWORD PTR __$EHRec$[ebp+12], 1
; Line 11
	mov	BYTE PTR __$EHRec$[ebp+12], 2
; Line 13
	push	OFFSET $SG-85034
	lea	ecx, DWORD PTR $T148801[ebp]
	call	??0?$basic_string@DU?$char_traits@D@std@@V?$allocator@D@2@@std@@QAE@PBD@Z ; std::basic_string<char,std::char_traits<char>,std::allocator<char> >::basic_string<char,std::char_traits<char>,std::allocator<char> >
	mov	DWORD PTR tv258[ebp], eax
	mov	BYTE PTR __$EHRec$[ebp+12], 3
	push	80					; 00000050H
	lea	eax, DWORD PTR $T148801[ebp]
	push	eax
	call	?connect@dlib@@YAPAVconnection@1@ABV?$basic_string@DU?$char_traits@D@std@@V?$allocator@D@2@@std@@G@Z ; dlib::connect
	add	esp, 8
	mov	DWORD PTR tv233[ebp], eax
	mov	ecx, DWORD PTR tv233[ebp]
	push	ecx
	lea	ecx, DWORD PTR _con$148802[ebp]
	call	??0?$scoped_ptr@Vconnection@dlib@@U?$default_deleter@Vconnection@dlib@@@2@@dlib@@QAE@PAVconnection@1@@Z ; dlib::scoped_ptr<dlib::connection,dlib::default_deleter<dlib::connection> >::scoped_ptr<dlib::connection,dlib::default_deleter<dlib::connection> >
	mov	BYTE PTR __$EHRec$[ebp+12], 5
	lea	ecx, DWORD PTR $T148801[ebp]
	call	??1?$basic_string@DU?$char_traits@D@std@@V?$allocator@D@2@@std@@QAE@XZ ; std::basic_string<char,std::char_traits<char>,std::allocator<char> >::~basic_string<char,std::char_traits<char>,std::allocator<char> >
; Line 16
	lea	ecx, DWORD PTR _textToTranslate$[ebp]
	call	?length@?$basic_string@DU?$char_traits@D@std@@V?$allocator@D@2@@std@@QBEIXZ ; std::basic_string<char,std::char_traits<char>,std::allocator<char> >::length
	mov	DWORD PTR _size$148804[ebp], eax
; Line 17
	mov	DWORD PTR _i$148805[ebp], 0
	jmp	SHORT $LN5@translate
$LN4@translate:
	mov	edx, DWORD PTR _i$148805[ebp]
	add	edx, 1
	mov	DWORD PTR _i$148805[ebp], edx
$LN5@translate:
	mov	eax, DWORD PTR _i$148805[ebp]
	cmp	eax, DWORD PTR _size$148804[ebp]
	jae	SHORT $LN3@translate
; Line 18
	mov	ecx, DWORD PTR _i$148805[ebp]
	push	ecx
	lea	ecx, DWORD PTR _textToTranslate$[ebp]
	call	??A?$basic_string@DU?$char_traits@D@std@@V?$allocator@D@2@@std@@QAEAADI@Z ; std::basic_string<char,std::char_traits<char>,std::allocator<char> >::operator[]
	movsx	edx, BYTE PTR [eax]
	cmp	edx, 32					; 00000020H
	jne	SHORT $LN2@translate
; Line 19
	push	OFFSET $SG-85035
	push	1
	mov	eax, DWORD PTR _i$148805[ebp]
	push	eax
	lea	ecx, DWORD PTR _textToTranslate$[ebp]
	call	?replace@?$basic_string@DU?$char_traits@D@std@@V?$allocator@D@2@@std@@QAEAAV12@IIPBD@Z ; std::basic_string<char,std::char_traits<char>,std::allocator<char> >::replace
$LN2@translate:
; Line 21
	jmp	SHORT $LN4@translate
$LN3@translate:
	lea	ecx, DWORD PTR _request$148811[ebp]
	call	??0?$basic_string@DU?$char_traits@D@std@@V?$allocator@D@2@@std@@QAE@XZ ; std::basic_string<char,std::char_traits<char>,std::allocator<char> >::basic_string<char,std::char_traits<char>,std::allocator<char> >
	mov	BYTE PTR __$EHRec$[ebp+12], 6
; Line 22
	lea	ecx, DWORD PTR _textToTranslate$[ebp]
	push	ecx
	push	OFFSET $SG-85038
	lea	edx, DWORD PTR $T148812[ebp]
	push	edx
	call	??$?HDU?$char_traits@D@std@@V?$allocator@D@1@@std@@YA?AV?$basic_string@DU?$char_traits@D@std@@V?$allocator@D@2@@0@PBDABV10@@Z ; std::operator+<char,std::char_traits<char>,std::allocator<char> >
	add	esp, 12					; 0000000cH
	mov	DWORD PTR tv91[ebp], eax
	mov	eax, DWORD PTR tv91[ebp]
	mov	DWORD PTR tv267[ebp], eax
	mov	BYTE PTR __$EHRec$[ebp+12], 7
	push	OFFSET $SG-85037
	mov	ecx, DWORD PTR tv267[ebp]
	push	ecx
	lea	edx, DWORD PTR $T148813[ebp]
	push	edx
	call	??$?HDU?$char_traits@D@std@@V?$allocator@D@1@@std@@YA?AV?$basic_string@DU?$char_traits@D@std@@V?$allocator@D@2@@0@$$QAV10@PBD@Z ; std::operator+<char,std::char_traits<char>,std::allocator<char> >
	add	esp, 12					; 0000000cH
	mov	DWORD PTR tv67[ebp], eax
	mov	eax, DWORD PTR tv67[ebp]
	mov	DWORD PTR tv269[ebp], eax
	mov	BYTE PTR __$EHRec$[ebp+12], 8
	lea	ecx, DWORD PTR _language$[ebp]
	push	ecx
	mov	edx, DWORD PTR tv269[ebp]
	push	edx
	lea	eax, DWORD PTR $T148878[ebp]
	push	eax
	call	??$?HDU?$char_traits@D@std@@V?$allocator@D@1@@std@@YA?AV?$basic_string@DU?$char_traits@D@std@@V?$allocator@D@2@@0@$$QAV10@ABV10@@Z ; std::operator+<char,std::char_traits<char>,std::allocator<char> >
	add	esp, 12					; 0000000cH
	mov	DWORD PTR tv169[ebp], eax
	mov	ecx, DWORD PTR tv169[ebp]
	mov	DWORD PTR tv271[ebp], ecx
	mov	BYTE PTR __$EHRec$[ebp+12], 9
	push	OFFSET $SG-85036
	mov	edx, DWORD PTR tv271[ebp]
	push	edx
	lea	eax, DWORD PTR $T148879[ebp]
	push	eax
	call	??$?HDU?$char_traits@D@std@@V?$allocator@D@1@@std@@YA?AV?$basic_string@DU?$char_traits@D@std@@V?$allocator@D@2@@0@$$QAV10@PBD@Z ; std::operator+<char,std::char_traits<char>,std::allocator<char> >
	add	esp, 12					; 0000000cH
	mov	DWORD PTR tv298[ebp], eax
	mov	ecx, DWORD PTR tv298[ebp]
	mov	DWORD PTR tv273[ebp], ecx
	mov	BYTE PTR __$EHRec$[ebp+12], 10		; 0000000aH
	mov	edx, DWORD PTR tv273[ebp]
	push	edx
	lea	ecx, DWORD PTR _request$148811[ebp]
	call	??4?$basic_string@DU?$char_traits@D@std@@V?$allocator@D@2@@std@@QAEAAV01@$$QAV01@@Z ; std::basic_string<char,std::char_traits<char>,std::allocator<char> >::operator=
	mov	BYTE PTR __$EHRec$[ebp+12], 9
	lea	ecx, DWORD PTR $T148879[ebp]
	call	??1?$basic_string@DU?$char_traits@D@std@@V?$allocator@D@2@@std@@QAE@XZ ; std::basic_string<char,std::char_traits<char>,std::allocator<char> >::~basic_string<char,std::char_traits<char>,std::allocator<char> >
	mov	BYTE PTR __$EHRec$[ebp+12], 8
	lea	ecx, DWORD PTR $T148878[ebp]
	call	??1?$basic_string@DU?$char_traits@D@std@@V?$allocator@D@2@@std@@QAE@XZ ; std::basic_string<char,std::char_traits<char>,std::allocator<char> >::~basic_string<char,std::char_traits<char>,std::allocator<char> >
	mov	BYTE PTR __$EHRec$[ebp+12], 7
	lea	ecx, DWORD PTR $T148813[ebp]
	call	??1?$basic_string@DU?$char_traits@D@std@@V?$allocator@D@2@@std@@QAE@XZ ; std::basic_string<char,std::char_traits<char>,std::allocator<char> >::~basic_string<char,std::char_traits<char>,std::allocator<char> >
	mov	BYTE PTR __$EHRec$[ebp+12], 6
	lea	ecx, DWORD PTR $T148812[ebp]
	call	??1?$basic_string@DU?$char_traits@D@std@@V?$allocator@D@2@@std@@QAE@XZ ; std::basic_string<char,std::char_traits<char>,std::allocator<char> >::~basic_string<char,std::char_traits<char>,std::allocator<char> >
; Line 23
	push	OFFSET $SG-85039
	lea	ecx, DWORD PTR _request$148811[ebp]
	call	??Y?$basic_string@DU?$char_traits@D@std@@V?$allocator@D@2@@std@@QAEAAV01@PBD@Z ; std::basic_string<char,std::char_traits<char>,std::allocator<char> >::operator+=
; Line 24
	push	OFFSET $SG-85040
	lea	ecx, DWORD PTR _request$148811[ebp]
	call	??Y?$basic_string@DU?$char_traits@D@std@@V?$allocator@D@2@@std@@QAEAAV01@PBD@Z ; std::basic_string<char,std::char_traits<char>,std::allocator<char> >::operator+=
; Line 27
	lea	ecx, DWORD PTR _request$148811[ebp]
	call	?size@?$basic_string@DU?$char_traits@D@std@@V?$allocator@D@2@@std@@QBEIXZ ; std::basic_string<char,std::char_traits<char>,std::allocator<char> >::size
	mov	esi, eax
	lea	ecx, DWORD PTR _request$148811[ebp]
	call	?size@?$basic_string@DU?$char_traits@D@std@@V?$allocator@D@2@@std@@QBEIXZ ; std::basic_string<char,std::char_traits<char>,std::allocator<char> >::size
	push	eax
	lea	ecx, DWORD PTR _request$148811[ebp]
	call	?c_str@?$basic_string@DU?$char_traits@D@std@@V?$allocator@D@2@@std@@QBEPBDXZ ; std::basic_string<char,std::char_traits<char>,std::allocator<char> >::c_str
	push	eax
	lea	ecx, DWORD PTR _con$148802[ebp]
	call	??C?$scoped_ptr@Vconnection@dlib@@U?$default_deleter@Vconnection@dlib@@@2@@dlib@@QBEPAVconnection@1@XZ ; dlib::scoped_ptr<dlib::connection,dlib::default_deleter<dlib::connection> >::operator->
	mov	ecx, eax
	call	?write@connection@dlib@@QAEJPBDJ@Z	; dlib::connection::write
	cmp	eax, esi
	je	SHORT $LN1@translate
; Line 28
	push	0
	mov	ecx, DWORD PTR ___$ReturnUdt$[ebp]
	call	??0?$basic_string@DU?$char_traits@D@std@@V?$allocator@D@2@@std@@QAE@PBD@Z ; std::basic_string<char,std::char_traits<char>,std::allocator<char> >::basic_string<char,std::char_traits<char>,std::allocator<char> >
	mov	eax, DWORD PTR $T369432[ebp]
	or	eax, 1
	mov	DWORD PTR $T369432[ebp], eax
	mov	BYTE PTR __$EHRec$[ebp+12], 5
	lea	ecx, DWORD PTR _request$148811[ebp]
	call	??1?$basic_string@DU?$char_traits@D@std@@V?$allocator@D@2@@std@@QAE@XZ ; std::basic_string<char,std::char_traits<char>,std::allocator<char> >::~basic_string<char,std::char_traits<char>,std::allocator<char> >
	mov	BYTE PTR __$EHRec$[ebp+12], 2
	lea	ecx, DWORD PTR _con$148802[ebp]
	call	??1?$scoped_ptr@Vconnection@dlib@@U?$default_deleter@Vconnection@dlib@@@2@@dlib@@QAE@XZ ; dlib::scoped_ptr<dlib::connection,dlib::default_deleter<dlib::connection> >::~scoped_ptr<dlib::connection,dlib::default_deleter<dlib::connection> >
	mov	BYTE PTR __$EHRec$[ebp+12], 0
	lea	ecx, DWORD PTR _textToTranslate$[ebp]
	call	??1?$basic_string@DU?$char_traits@D@std@@V?$allocator@D@2@@std@@QAE@XZ ; std::basic_string<char,std::char_traits<char>,std::allocator<char> >::~basic_string<char,std::char_traits<char>,std::allocator<char> >
	mov	DWORD PTR __$EHRec$[ebp+12], -1
	lea	ecx, DWORD PTR _language$[ebp]
	call	??1?$basic_string@DU?$char_traits@D@std@@V?$allocator@D@2@@std@@QAE@XZ ; std::basic_string<char,std::char_traits<char>,std::allocator<char> >::~basic_string<char,std::char_traits<char>,std::allocator<char> >
	mov	eax, DWORD PTR ___$ReturnUdt$[ebp]
	jmp	$LN7@translate
$LN1@translate:
; Line 30
	push	10000					; 00002710H
	push	256					; 00000100H
	lea	ecx, DWORD PTR _sBuffer$148796[ebp]
	push	ecx
	lea	ecx, DWORD PTR _con$148802[ebp]
	call	??C?$scoped_ptr@Vconnection@dlib@@U?$default_deleter@Vconnection@dlib@@@2@@dlib@@QBEPAVconnection@1@XZ ; dlib::scoped_ptr<dlib::connection,dlib::default_deleter<dlib::connection> >::operator->
	mov	ecx, eax
	call	?read@connection@dlib@@QAEJPADJK@Z	; dlib::connection::read
; Line 32
	lea	edx, DWORD PTR _sBuffer$148796[ebp]
	push	edx
	lea	ecx, DWORD PTR _request$148811[ebp]
	call	??4?$basic_string@DU?$char_traits@D@std@@V?$allocator@D@2@@std@@QAEAAV01@PBD@Z ; std::basic_string<char,std::char_traits<char>,std::allocator<char> >::operator=
; Line 34
	push	0
	push	OFFSET $SG-85041
	lea	ecx, DWORD PTR _request$148811[ebp]
	call	?find@?$basic_string@DU?$char_traits@D@std@@V?$allocator@D@2@@std@@QBEIPBDI@Z ; std::basic_string<char,std::char_traits<char>,std::allocator<char> >::find
	add	eax, 4
	push	eax
	push	0
	lea	ecx, DWORD PTR _request$148811[ebp]
	call	?erase@?$basic_string@DU?$char_traits@D@std@@V?$allocator@D@2@@std@@QAEAAV12@II@Z ; std::basic_string<char,std::char_traits<char>,std::allocator<char> >::erase
	mov	DWORD PTR tv299[ebp], eax
	mov	eax, DWORD PTR tv299[ebp]
	push	eax
	lea	ecx, DWORD PTR _request$148811[ebp]
	call	??4?$basic_string@DU?$char_traits@D@std@@V?$allocator@D@2@@std@@QAEAAV01@ABV01@@Z ; std::basic_string<char,std::char_traits<char>,std::allocator<char> >::operator=
; Line 35
	push	0
	push	OFFSET $SG-85042
	lea	ecx, DWORD PTR _request$148811[ebp]
	call	?find@?$basic_string@DU?$char_traits@D@std@@V?$allocator@D@2@@std@@QBEIPBDI@Z ; std::basic_string<char,std::char_traits<char>,std::allocator<char> >::find
	add	eax, 2
	push	eax
	push	0
	lea	ecx, DWORD PTR _request$148811[ebp]
	call	?erase@?$basic_string@DU?$char_traits@D@std@@V?$allocator@D@2@@std@@QAEAAV12@II@Z ; std::basic_string<char,std::char_traits<char>,std::allocator<char> >::erase
	mov	DWORD PTR tv300[ebp], eax
	mov	ecx, DWORD PTR tv300[ebp]
	push	ecx
	lea	ecx, DWORD PTR _request$148811[ebp]
	call	??4?$basic_string@DU?$char_traits@D@std@@V?$allocator@D@2@@std@@QAEAAV01@ABV01@@Z ; std::basic_string<char,std::char_traits<char>,std::allocator<char> >::operator=
; Line 36
	push	0
	push	OFFSET $SG-85043
	lea	ecx, DWORD PTR _request$148811[ebp]
	call	?find@?$basic_string@DU?$char_traits@D@std@@V?$allocator@D@2@@std@@QBEIPBDI@Z ; std::basic_string<char,std::char_traits<char>,std::allocator<char> >::find
	push	eax
	push	0
	lea	edx, DWORD PTR $T148889[ebp]
	push	edx
	lea	ecx, DWORD PTR _request$148811[ebp]
	call	?substr@?$basic_string@DU?$char_traits@D@std@@V?$allocator@D@2@@std@@QBE?AV12@II@Z ; std::basic_string<char,std::char_traits<char>,std::allocator<char> >::substr
	mov	DWORD PTR tv301[ebp], eax
	mov	eax, DWORD PTR tv301[ebp]
	mov	DWORD PTR tv283[ebp], eax
	mov	BYTE PTR __$EHRec$[ebp+12], 11		; 0000000bH
	mov	ecx, DWORD PTR tv283[ebp]
	push	ecx
	lea	ecx, DWORD PTR _request$148811[ebp]
	call	??4?$basic_string@DU?$char_traits@D@std@@V?$allocator@D@2@@std@@QAEAAV01@$$QAV01@@Z ; std::basic_string<char,std::char_traits<char>,std::allocator<char> >::operator=
	mov	BYTE PTR __$EHRec$[ebp+12], 6
	lea	ecx, DWORD PTR $T148889[ebp]
	call	??1?$basic_string@DU?$char_traits@D@std@@V?$allocator@D@2@@std@@QAE@XZ ; std::basic_string<char,std::char_traits<char>,std::allocator<char> >::~basic_string<char,std::char_traits<char>,std::allocator<char> >
; Line 38
	push	OFFSET $SG-85044
	sub	esp, 28					; 0000001cH
	mov	ecx, esp
	mov	DWORD PTR $T369418[ebp], esp
	lea	edx, DWORD PTR _sBuffer$148796[ebp]
	push	edx
	call	??0?$basic_string@DU?$char_traits@D@std@@V?$allocator@D@2@@std@@QAE@PBD@Z ; std::basic_string<char,std::char_traits<char>,std::allocator<char> >::basic_string<char,std::char_traits<char>,std::allocator<char> >
	mov	DWORD PTR tv286[ebp], eax
	call	?message@log@helper@@YAXV?$basic_string@DU?$char_traits@D@std@@V?$allocator@D@2@@std@@PBD@Z ; helper::log::message
	add	esp, 32					; 00000020H
; Line 40
	push	500					; 000001f4H
	lea	eax, DWORD PTR _con$148802[ebp]
	push	eax
	call	?close_gracefully@dlib@@YAXAAV?$scoped_ptr@Vconnection@dlib@@U?$default_deleter@Vconnection@dlib@@@2@@1@K@Z ; dlib::close_gracefully
	add	esp, 8
; Line 42
	lea	ecx, DWORD PTR _request$148811[ebp]
	push	ecx
	mov	ecx, DWORD PTR ___$ReturnUdt$[ebp]
	call	??0?$basic_string@DU?$char_traits@D@std@@V?$allocator@D@2@@std@@QAE@$$QAV01@@Z ; std::basic_string<char,std::char_traits<char>,std::allocator<char> >::basic_string<char,std::char_traits<char>,std::allocator<char> >
	mov	edx, DWORD PTR $T369432[ebp]
	or	edx, 1
	mov	DWORD PTR $T369432[ebp], edx
	mov	BYTE PTR __$EHRec$[ebp+12], 5
	lea	ecx, DWORD PTR _request$148811[ebp]
	call	??1?$basic_string@DU?$char_traits@D@std@@V?$allocator@D@2@@std@@QAE@XZ ; std::basic_string<char,std::char_traits<char>,std::allocator<char> >::~basic_string<char,std::char_traits<char>,std::allocator<char> >
	mov	BYTE PTR __$EHRec$[ebp+12], 2
	lea	ecx, DWORD PTR _con$148802[ebp]
	call	??1?$scoped_ptr@Vconnection@dlib@@U?$default_deleter@Vconnection@dlib@@@2@@dlib@@QAE@XZ ; dlib::scoped_ptr<dlib::connection,dlib::default_deleter<dlib::connection> >::~scoped_ptr<dlib::connection,dlib::default_deleter<dlib::connection> >
	mov	BYTE PTR __$EHRec$[ebp+12], 0
	lea	ecx, DWORD PTR _textToTranslate$[ebp]
	call	??1?$basic_string@DU?$char_traits@D@std@@V?$allocator@D@2@@std@@QAE@XZ ; std::basic_string<char,std::char_traits<char>,std::allocator<char> >::~basic_string<char,std::char_traits<char>,std::allocator<char> >
	mov	DWORD PTR __$EHRec$[ebp+12], -1
	lea	ecx, DWORD PTR _language$[ebp]
	call	??1?$basic_string@DU?$char_traits@D@std@@V?$allocator@D@2@@std@@QAE@XZ ; std::basic_string<char,std::char_traits<char>,std::allocator<char> >::~basic_string<char,std::char_traits<char>,std::allocator<char> >
	mov	eax, DWORD PTR ___$ReturnUdt$[ebp]
	jmp	$LN7@translate
__catch$?translate@translator@@YA?AV?$basic_string@DU?$char_traits@D@std@@V?$allocator@D@2@@std@@V23@0@Z$0:
; Line 46
	mov	eax, DWORD PTR _e$148893[ebp]
	mov	edx, DWORD PTR [eax]
	mov	ecx, DWORD PTR _e$148893[ebp]
	mov	eax, DWORD PTR [edx+4]
	call	eax
	sub	esp, 28					; 0000001cH
	mov	ecx, esp
	mov	DWORD PTR $T369419[ebp], esp
	push	eax
	call	??0?$basic_string@DU?$char_traits@D@std@@V?$allocator@D@2@@std@@QAE@PBD@Z ; std::basic_string<char,std::char_traits<char>,std::allocator<char> >::basic_string<char,std::char_traits<char>,std::allocator<char> >
	mov	DWORD PTR tv293[ebp], eax
	push	46					; 0000002eH
	push	OFFSET $SG-85045
	push	OFFSET $SG-85046
	call	?error@log@helper@@YAXPBD0JV?$basic_string@DU?$char_traits@D@std@@V?$allocator@D@2@@std@@@Z ; helper::log::error
	add	esp, 40					; 00000028H
; Line 47
	mov	DWORD PTR __$EHRec$[ebp+12], 1
	mov	eax, __tryend$?translate@translator@@YA?AV?$basic_string@DU?$char_traits@D@std@@V?$allocator@D@2@@std@@V23@0@Z$1
	ret	0
	mov	DWORD PTR __$EHRec$[ebp+12], 1
__tryend$?translate@translator@@YA?AV?$basic_string@DU?$char_traits@D@std@@V?$allocator@D@2@@std@@V23@0@Z$1:
; Line 49
	push	OFFSET $SG-85047
	mov	ecx, DWORD PTR ___$ReturnUdt$[ebp]
	call	??0?$basic_string@DU?$char_traits@D@std@@V?$allocator@D@2@@std@@QAE@PBD@Z ; std::basic_string<char,std::char_traits<char>,std::allocator<char> >::basic_string<char,std::char_traits<char>,std::allocator<char> >
	mov	ecx, DWORD PTR $T369432[ebp]
	or	ecx, 1
	mov	DWORD PTR $T369432[ebp], ecx
	mov	BYTE PTR __$EHRec$[ebp+12], 0
	lea	ecx, DWORD PTR _textToTranslate$[ebp]
	call	??1?$basic_string@DU?$char_traits@D@std@@V?$allocator@D@2@@std@@QAE@XZ ; std::basic_string<char,std::char_traits<char>,std::allocator<char> >::~basic_string<char,std::char_traits<char>,std::allocator<char> >
	mov	DWORD PTR __$EHRec$[ebp+12], -1
	lea	ecx, DWORD PTR _language$[ebp]
	call	??1?$basic_string@DU?$char_traits@D@std@@V?$allocator@D@2@@std@@QAE@XZ ; std::basic_string<char,std::char_traits<char>,std::allocator<char> >::~basic_string<char,std::char_traits<char>,std::allocator<char> >
	mov	eax, DWORD PTR ___$ReturnUdt$[ebp]
$LN7@translate:
; Line 50
	mov	ecx, DWORD PTR __$EHRec$[ebp+4]
	mov	DWORD PTR fs:0, ecx
	pop	ecx
	pop	edi
	pop	esi
	pop	ebx
	mov	ecx, DWORD PTR __$ArrayPad$[ebp]
	xor	ecx, ebp
	call	@__security_check_cookie@4
	mov	esp, ebp
	pop	ebp
	ret	0
_TEXT	ENDS
;	COMDAT text$x
text$x	SEGMENT
__unwindfunclet$?translate@translator@@YA?AV?$basic_string@DU?$char_traits@D@std@@V?$allocator@D@2@@std@@V23@0@Z$2:
	lea	ecx, DWORD PTR _language$[ebp]
	jmp	??1?$basic_string@DU?$char_traits@D@std@@V?$allocator@D@2@@std@@QAE@XZ ; std::basic_string<char,std::char_traits<char>,std::allocator<char> >::~basic_string<char,std::char_traits<char>,std::allocator<char> >
__unwindfunclet$?translate@translator@@YA?AV?$basic_string@DU?$char_traits@D@std@@V?$allocator@D@2@@std@@V23@0@Z$3:
	lea	ecx, DWORD PTR _textToTranslate$[ebp]
	jmp	??1?$basic_string@DU?$char_traits@D@std@@V?$allocator@D@2@@std@@QAE@XZ ; std::basic_string<char,std::char_traits<char>,std::allocator<char> >::~basic_string<char,std::char_traits<char>,std::allocator<char> >
__unwindfunclet$?translate@translator@@YA?AV?$basic_string@DU?$char_traits@D@std@@V?$allocator@D@2@@std@@V23@0@Z$4:
	lea	ecx, DWORD PTR $T148801[ebp]
	jmp	??1?$basic_string@DU?$char_traits@D@std@@V?$allocator@D@2@@std@@QAE@XZ ; std::basic_string<char,std::char_traits<char>,std::allocator<char> >::~basic_string<char,std::char_traits<char>,std::allocator<char> >
__unwindfunclet$?translate@translator@@YA?AV?$basic_string@DU?$char_traits@D@std@@V?$allocator@D@2@@std@@V23@0@Z$5:
	lea	ecx, DWORD PTR _con$148802[ebp]
	jmp	??1?$scoped_ptr@Vconnection@dlib@@U?$default_deleter@Vconnection@dlib@@@2@@dlib@@QAE@XZ ; dlib::scoped_ptr<dlib::connection,dlib::default_deleter<dlib::connection> >::~scoped_ptr<dlib::connection,dlib::default_deleter<dlib::connection> >
__unwindfunclet$?translate@translator@@YA?AV?$basic_string@DU?$char_traits@D@std@@V?$allocator@D@2@@std@@V23@0@Z$6:
	lea	ecx, DWORD PTR _request$148811[ebp]
	jmp	??1?$basic_string@DU?$char_traits@D@std@@V?$allocator@D@2@@std@@QAE@XZ ; std::basic_string<char,std::char_traits<char>,std::allocator<char> >::~basic_string<char,std::char_traits<char>,std::allocator<char> >
__unwindfunclet$?translate@translator@@YA?AV?$basic_string@DU?$char_traits@D@std@@V?$allocator@D@2@@std@@V23@0@Z$7:
	lea	ecx, DWORD PTR $T148812[ebp]
	jmp	??1?$basic_string@DU?$char_traits@D@std@@V?$allocator@D@2@@std@@QAE@XZ ; std::basic_string<char,std::char_traits<char>,std::allocator<char> >::~basic_string<char,std::char_traits<char>,std::allocator<char> >
__unwindfunclet$?translate@translator@@YA?AV?$basic_string@DU?$char_traits@D@std@@V?$allocator@D@2@@std@@V23@0@Z$8:
	lea	ecx, DWORD PTR $T148813[ebp]
	jmp	??1?$basic_string@DU?$char_traits@D@std@@V?$allocator@D@2@@std@@QAE@XZ ; std::basic_string<char,std::char_traits<char>,std::allocator<char> >::~basic_string<char,std::char_traits<char>,std::allocator<char> >
__unwindfunclet$?translate@translator@@YA?AV?$basic_string@DU?$char_traits@D@std@@V?$allocator@D@2@@std@@V23@0@Z$9:
	lea	ecx, DWORD PTR $T148878[ebp]
	jmp	??1?$basic_string@DU?$char_traits@D@std@@V?$allocator@D@2@@std@@QAE@XZ ; std::basic_string<char,std::char_traits<char>,std::allocator<char> >::~basic_string<char,std::char_traits<char>,std::allocator<char> >
__unwindfunclet$?translate@translator@@YA?AV?$basic_string@DU?$char_traits@D@std@@V?$allocator@D@2@@std@@V23@0@Z$10:
	lea	ecx, DWORD PTR $T148879[ebp]
	jmp	??1?$basic_string@DU?$char_traits@D@std@@V?$allocator@D@2@@std@@QAE@XZ ; std::basic_string<char,std::char_traits<char>,std::allocator<char> >::~basic_string<char,std::char_traits<char>,std::allocator<char> >
__unwindfunclet$?translate@translator@@YA?AV?$basic_string@DU?$char_traits@D@std@@V?$allocator@D@2@@std@@V23@0@Z$12:
	lea	ecx, DWORD PTR $T148889[ebp]
	jmp	??1?$basic_string@DU?$char_traits@D@std@@V?$allocator@D@2@@std@@QAE@XZ ; std::basic_string<char,std::char_traits<char>,std::allocator<char> >::~basic_string<char,std::char_traits<char>,std::allocator<char> >
__ehhandler$?translate@translator@@YA?AV?$basic_string@DU?$char_traits@D@std@@V?$allocator@D@2@@std@@V23@0@Z:
	mov	edx, DWORD PTR [esp+8]
	lea	eax, DWORD PTR [edx+12]
	mov	ecx, DWORD PTR [edx-572]
	xor	ecx, eax
	call	@__security_check_cookie@4
	mov	ecx, DWORD PTR [edx-8]
	xor	ecx, eax
	call	@__security_check_cookie@4
	mov	eax, OFFSET __ehfuncinfo$?translate@translator@@YA?AV?$basic_string@DU?$char_traits@D@std@@V?$allocator@D@2@@std@@V23@0@Z
	jmp	___CxxFrameHandler3
text$x	ENDS
?translate@translator@@YA?AV?$basic_string@DU?$char_traits@D@std@@V?$allocator@D@2@@std@@V23@0@Z ENDP ; translator::translate
END
